TI ARM Assembler PC v15.12.1 Tue Oct 18 10:42:40 2016

Tools Copyright (c) 1996-2015 Texas Instruments Incorporated
event_groups.asm                                                     PAGE    1

       1                    ;******************************************************************************
       2                    ;* TI ARM C/C++ Codegen                                       PC v15.12.1.LTS *
       3                    ;* Date/Time created: Tue Oct 18 10:42:40 2016                                *
       4                    ;******************************************************************************
       5                            .compiler_opts --abi=eabi --arm_vmrs_si_workaround=off --code_state=16 --diag_wrap=off --disab
       6 00000000                   .thumb
       7                    
       8                    $C$DW$CU        .dwtag  DW_TAG_compile_unit
       9                            .dwattr $C$DW$CU, DW_AT_name("C:/TI_ARM_Tiva_Projects/Source/event_groups.c")
      10                            .dwattr $C$DW$CU, DW_AT_producer("TI TI ARM C/C++ Codegen PC v15.12.1.LTS Copyright (c) 1996-2
      11                            .dwattr $C$DW$CU, DW_AT_TI_version(0x01)
      12                            .dwattr $C$DW$CU, DW_AT_comp_dir("C:\TI_ARM_Tiva_Projects\Proj2_Magnetometer\Debug")
      13                    
      14                    $C$DW$1 .dwtag  DW_TAG_subprogram
      15                            .dwattr $C$DW$1, DW_AT_name("_set_interrupt_priority")
      16                            .dwattr $C$DW$1, DW_AT_TI_symbol_name("_set_interrupt_priority")
      17                            .dwattr $C$DW$1, DW_AT_type(*$C$DW$T$11)
      18                            .dwattr $C$DW$1, DW_AT_declaration
      19                            .dwattr $C$DW$1, DW_AT_external
      20                    $C$DW$2 .dwtag  DW_TAG_formal_parameter
      21                            .dwattr $C$DW$2, DW_AT_type(*$C$DW$T$11)
      22                    
      23                            .dwendtag $C$DW$1
      24                    
      25                    
      26                    $C$DW$3 .dwtag  DW_TAG_subprogram
      27                            .dwattr $C$DW$3, DW_AT_name("vPortEnterCritical")
      28                            .dwattr $C$DW$3, DW_AT_TI_symbol_name("vPortEnterCritical")
      29                            .dwattr $C$DW$3, DW_AT_declaration
      30                            .dwattr $C$DW$3, DW_AT_external
      31                            .dwattr $C$DW$3, DW_AT_decl_file("C:/TI_ARM_Tiva_Projects/Source/portable/CCS/ARM_CM4F/portmac
      32                            .dwattr $C$DW$3, DW_AT_decl_line(0xa7)
      33                            .dwattr $C$DW$3, DW_AT_decl_column(0x0d)
      34                            .dwendtag $C$DW$3
      35                    
      36                    
      37                    $C$DW$4 .dwtag  DW_TAG_subprogram
      38                            .dwattr $C$DW$4, DW_AT_name("vPortExitCritical")
      39                            .dwattr $C$DW$4, DW_AT_TI_symbol_name("vPortExitCritical")
      40                            .dwattr $C$DW$4, DW_AT_declaration
      41                            .dwattr $C$DW$4, DW_AT_external
      42                            .dwattr $C$DW$4, DW_AT_decl_file("C:/TI_ARM_Tiva_Projects/Source/portable/CCS/ARM_CM4F/portmac
      43                            .dwattr $C$DW$4, DW_AT_decl_line(0xa8)
      44                            .dwattr $C$DW$4, DW_AT_decl_column(0x0d)
      45                            .dwendtag $C$DW$4
      46                    
      47                    
      48                    $C$DW$5 .dwtag  DW_TAG_subprogram
      49                            .dwattr $C$DW$5, DW_AT_name("pvPortMalloc")
      50                            .dwattr $C$DW$5, DW_AT_TI_symbol_name("pvPortMalloc")
      51                            .dwattr $C$DW$5, DW_AT_type(*$C$DW$T$3)
      52                            .dwattr $C$DW$5, DW_AT_declaration
      53                            .dwattr $C$DW$5, DW_AT_external
      54                            .dwattr $C$DW$5, DW_AT_decl_file("C:\TI_ARM_Tiva_Projects\Source\include\portable.h")
      55                            .dwattr $C$DW$5, DW_AT_decl_line(0xab)
TI ARM Assembler PC v15.12.1 Tue Oct 18 10:42:40 2016

Tools Copyright (c) 1996-2015 Texas Instruments Incorporated
event_groups.asm                                                     PAGE    2

      56                            .dwattr $C$DW$5, DW_AT_decl_column(0x07)
      57                    $C$DW$6 .dwtag  DW_TAG_formal_parameter
      58                            .dwattr $C$DW$6, DW_AT_type(*$C$DW$T$24)
      59                    
      60                            .dwendtag $C$DW$5
      61                    
      62                    
      63                    $C$DW$7 .dwtag  DW_TAG_subprogram
      64                            .dwattr $C$DW$7, DW_AT_name("vPortFree")
      65                            .dwattr $C$DW$7, DW_AT_TI_symbol_name("vPortFree")
      66                            .dwattr $C$DW$7, DW_AT_declaration
      67                            .dwattr $C$DW$7, DW_AT_external
      68                            .dwattr $C$DW$7, DW_AT_decl_file("C:\TI_ARM_Tiva_Projects\Source\include\portable.h")
      69                            .dwattr $C$DW$7, DW_AT_decl_line(0xac)
      70                            .dwattr $C$DW$7, DW_AT_decl_column(0x06)
      71                    $C$DW$8 .dwtag  DW_TAG_formal_parameter
      72                            .dwattr $C$DW$8, DW_AT_type(*$C$DW$T$3)
      73                    
      74                            .dwendtag $C$DW$7
      75                    
      76                    
      77                    $C$DW$9 .dwtag  DW_TAG_subprogram
      78                            .dwattr $C$DW$9, DW_AT_name("vListInitialise")
      79                            .dwattr $C$DW$9, DW_AT_TI_symbol_name("vListInitialise")
      80                            .dwattr $C$DW$9, DW_AT_declaration
      81                            .dwattr $C$DW$9, DW_AT_external
      82                            .dwattr $C$DW$9, DW_AT_decl_file("C:\TI_ARM_Tiva_Projects\Source\include\list.h")
      83                            .dwattr $C$DW$9, DW_AT_decl_line(0x182)
      84                            .dwattr $C$DW$9, DW_AT_decl_column(0x06)
      85                    $C$DW$10        .dwtag  DW_TAG_formal_parameter
      86                            .dwattr $C$DW$10, DW_AT_type(*$C$DW$T$78)
      87                    
      88                            .dwendtag $C$DW$9
      89                    
      90                    
      91                    $C$DW$11        .dwtag  DW_TAG_subprogram
      92                            .dwattr $C$DW$11, DW_AT_name("vTaskSuspendAll")
      93                            .dwattr $C$DW$11, DW_AT_TI_symbol_name("vTaskSuspendAll")
      94                            .dwattr $C$DW$11, DW_AT_declaration
      95                            .dwattr $C$DW$11, DW_AT_external
      96                            .dwattr $C$DW$11, DW_AT_decl_file("C:/TI_ARM_Tiva_Projects/Source/include/task.h")
      97                            .dwattr $C$DW$11, DW_AT_decl_line(0x3e6)
      98                            .dwattr $C$DW$11, DW_AT_decl_column(0x06)
      99                            .dwendtag $C$DW$11
     100                    
     101                    
     102                    $C$DW$12        .dwtag  DW_TAG_subprogram
     103                            .dwattr $C$DW$12, DW_AT_name("xTaskResumeAll")
     104                            .dwattr $C$DW$12, DW_AT_TI_symbol_name("xTaskResumeAll")
     105                            .dwattr $C$DW$12, DW_AT_type(*$C$DW$T$59)
     106                            .dwattr $C$DW$12, DW_AT_declaration
     107                            .dwattr $C$DW$12, DW_AT_external
     108                            .dwattr $C$DW$12, DW_AT_decl_file("C:/TI_ARM_Tiva_Projects/Source/include/task.h")
     109                            .dwattr $C$DW$12, DW_AT_decl_line(0x41c)
     110                            .dwattr $C$DW$12, DW_AT_decl_column(0x0c)
TI ARM Assembler PC v15.12.1 Tue Oct 18 10:42:40 2016

Tools Copyright (c) 1996-2015 Texas Instruments Incorporated
event_groups.asm                                                     PAGE    3

     111                            .dwendtag $C$DW$12
     112                    
     113                    
     114                    $C$DW$13        .dwtag  DW_TAG_subprogram
     115                            .dwattr $C$DW$13, DW_AT_name("vTaskPlaceOnUnorderedEventList")
     116                            .dwattr $C$DW$13, DW_AT_TI_symbol_name("vTaskPlaceOnUnorderedEventList")
     117                            .dwattr $C$DW$13, DW_AT_declaration
     118                            .dwattr $C$DW$13, DW_AT_external
     119                            .dwattr $C$DW$13, DW_AT_decl_file("C:/TI_ARM_Tiva_Projects/Source/include/task.h")
     120                            .dwattr $C$DW$13, DW_AT_decl_line(0x75c)
     121                            .dwattr $C$DW$13, DW_AT_decl_column(0x06)
     122                    $C$DW$14        .dwtag  DW_TAG_formal_parameter
     123                            .dwattr $C$DW$14, DW_AT_type(*$C$DW$T$77)
     124                    
     125                    $C$DW$15        .dwtag  DW_TAG_formal_parameter
     126                            .dwattr $C$DW$15, DW_AT_type(*$C$DW$T$81)
     127                    
     128                    $C$DW$16        .dwtag  DW_TAG_formal_parameter
     129                            .dwattr $C$DW$16, DW_AT_type(*$C$DW$T$81)
     130                    
     131                            .dwendtag $C$DW$13
     132                    
     133                    
     134                    $C$DW$17        .dwtag  DW_TAG_subprogram
     135                            .dwattr $C$DW$17, DW_AT_name("xTaskRemoveFromUnorderedEventList")
     136                            .dwattr $C$DW$17, DW_AT_TI_symbol_name("xTaskRemoveFromUnorderedEventList")
     137                            .dwattr $C$DW$17, DW_AT_type(*$C$DW$T$59)
     138                            .dwattr $C$DW$17, DW_AT_declaration
     139                            .dwattr $C$DW$17, DW_AT_external
     140                            .dwattr $C$DW$17, DW_AT_decl_file("C:/TI_ARM_Tiva_Projects/Source/include/task.h")
     141                            .dwattr $C$DW$17, DW_AT_decl_line(0x784)
     142                            .dwattr $C$DW$17, DW_AT_decl_column(0x0c)
     143                    $C$DW$18        .dwtag  DW_TAG_formal_parameter
     144                            .dwattr $C$DW$18, DW_AT_type(*$C$DW$T$34)
     145                    
     146                    $C$DW$19        .dwtag  DW_TAG_formal_parameter
     147                            .dwattr $C$DW$19, DW_AT_type(*$C$DW$T$81)
     148                    
     149                            .dwendtag $C$DW$17
     150                    
     151                    
     152                    $C$DW$20        .dwtag  DW_TAG_subprogram
     153                            .dwattr $C$DW$20, DW_AT_name("uxTaskResetEventItemValue")
     154                            .dwattr $C$DW$20, DW_AT_TI_symbol_name("uxTaskResetEventItemValue")
     155                            .dwattr $C$DW$20, DW_AT_type(*$C$DW$T$28)
     156                            .dwattr $C$DW$20, DW_AT_declaration
     157                            .dwattr $C$DW$20, DW_AT_external
     158                            .dwattr $C$DW$20, DW_AT_decl_file("C:/TI_ARM_Tiva_Projects/Source/include/task.h")
     159                            .dwattr $C$DW$20, DW_AT_decl_line(0x794)
     160                            .dwattr $C$DW$20, DW_AT_decl_column(0x0c)
     161                            .dwendtag $C$DW$20
     162                    
     163                    ;       C:\TI_CodeComposer\ccsv6\tools\compiler\ti-cgt-arm_15.12.1.LTS\bin\armacpia.exe -@C:\\Users\\R
     164 00000000                   .sect   ".text"
     165                            .clink
TI ARM Assembler PC v15.12.1 Tue Oct 18 10:42:40 2016

Tools Copyright (c) 1996-2015 Texas Instruments Incorporated
event_groups.asm                                                     PAGE    4

     166                            .thumbfunc xEventGroupCreate
     167 00000000                   .thumb
     168                            .global xEventGroupCreate
     169                    
     170                    $C$DW$21        .dwtag  DW_TAG_subprogram
     171                            .dwattr $C$DW$21, DW_AT_name("xEventGroupCreate")
     172                            .dwattr $C$DW$21, DW_AT_low_pc(xEventGroupCreate)
     173                            .dwattr $C$DW$21, DW_AT_high_pc(0x00)
     174                            .dwattr $C$DW$21, DW_AT_TI_symbol_name("xEventGroupCreate")
     175                            .dwattr $C$DW$21, DW_AT_external
     176                            .dwattr $C$DW$21, DW_AT_type(*$C$DW$T$69)
     177                            .dwattr $C$DW$21, DW_AT_TI_begin_file("C:/TI_ARM_Tiva_Projects/Source/event_groups.c")
     178                            .dwattr $C$DW$21, DW_AT_TI_begin_line(0x8a)
     179                            .dwattr $C$DW$21, DW_AT_TI_begin_column(0x14)
     180                            .dwattr $C$DW$21, DW_AT_decl_file("C:/TI_ARM_Tiva_Projects/Source/event_groups.c")
     181                            .dwattr $C$DW$21, DW_AT_decl_line(0x8a)
     182                            .dwattr $C$DW$21, DW_AT_decl_column(0x14)
     183                            .dwattr $C$DW$21, DW_AT_TI_max_frame_size(0x08)
     184                            .dwpsn  file "C:/TI_ARM_Tiva_Projects/Source/event_groups.c",line 139,column 1,is_stmt,address
     185                    
     186                            .dwfde $C$DW$CIE, xEventGroupCreate
     187                    
     188                    ;*****************************************************************************
     189                    ;* FUNCTION NAME: xEventGroupCreate                                          *
     190                    ;*                                                                           *
     191                    ;*   Regs Modified     : A1,A2,A3,A4,V9,SP,LR,SR,D0,D0_hi,D1,D1_hi,D2,D2_hi, *
     192                    ;*                           D3,D3_hi,D4,D4_hi,D5,D5_hi,D6,D6_hi,D7,D7_hi,   *
     193                    ;*                           FPEXC,FPSCR                                     *
     194                    ;*   Regs Used         : A1,A2,A3,A4,V9,SP,LR,SR,D0,D0_hi,D1,D1_hi,D2,D2_hi, *
     195                    ;*                           D3,D3_hi,D4,D4_hi,D5,D5_hi,D6,D6_hi,D7,D7_hi,   *
     196                    ;*                           FPEXC,FPSCR                                     *
     197                    ;*   Local Frame Size  : 0 Args + 4 Auto + 4 Save = 8 byte                   *
     198                    ;*****************************************************************************
     199 00000000           xEventGroupCreate:
     200                    ;* --------------------------------------------------------------------------*
     201                            .dwcfi  cfa_offset, 0
     202 00000000 B508              PUSH      {A4, LR}              ; [DPU_3_PIPE]  ; [ORIG 16-BIT INS]
     203                            .dwcfi  cfa_offset, 8
     204                            .dwcfi  save_reg_to_mem, 14, -4
     205                            .dwcfi  save_reg_to_mem, 3, -8
     206                    $C$DW$22        .dwtag  DW_TAG_variable
     207                            .dwattr $C$DW$22, DW_AT_name("pxEventBits")
     208                            .dwattr $C$DW$22, DW_AT_TI_symbol_name("pxEventBits")
     209                            .dwattr $C$DW$22, DW_AT_type(*$C$DW$T$156)
     210                            .dwattr $C$DW$22, DW_AT_location[DW_OP_breg13 0]
     211                    
     212                            .dwpsn  file "C:/TI_ARM_Tiva_Projects/Source/event_groups.c",line 142,column 2,is_stmt,isa 1
     213 00000002 201C              MOVS      A1, #28               ; [DPU_3_PIPE] |142|  ; [ORIG 16-BIT INS]
     214                    $C$DW$23        .dwtag  DW_TAG_TI_branch
     215                            .dwattr $C$DW$23, DW_AT_low_pc(0x00)
     216                            .dwattr $C$DW$23, DW_AT_name("pvPortMalloc")
     217                            .dwattr $C$DW$23, DW_AT_TI_call
     218                    
     219 00000004 FFFEF7FF!         BL        pvPortMalloc          ; [DPU_3_PIPE] |142|  ; [KEEP 32-BIT INS]
     220                            ; CALL OCCURS {pvPortMalloc }    ; [] |142| 
TI ARM Assembler PC v15.12.1 Tue Oct 18 10:42:40 2016

Tools Copyright (c) 1996-2015 Texas Instruments Incorporated
event_groups.asm                                                     PAGE    5

     221 00000008 9000              STR       A1, [SP, #0]          ; [DPU_3_PIPE] |142|  ; [ORIG 16-BIT INS]
     222                            .dwpsn  file "C:/TI_ARM_Tiva_Projects/Source/event_groups.c",line 143,column 2,is_stmt,isa 1
     223 0000000a 9800              LDR       A1, [SP, #0]          ; [DPU_3_PIPE] |143|  ; [ORIG 16-BIT INS]
     224 0000000c B130              CBZ       A1, ||$C$L1||         ; []  ; [ORIG 16-BIT INS]
     225                            ; BRANCHCC OCCURS {||$C$L1||}    ; [] |143| 
     226                    ;* --------------------------------------------------------------------------*
     227                            .dwpsn  file "C:/TI_ARM_Tiva_Projects/Source/event_groups.c",line 145,column 3,is_stmt,isa 1
     228 0000000e 9800              LDR       A1, [SP, #0]          ; [DPU_3_PIPE] |145|  ; [ORIG 16-BIT INS]
     229 00000010 2100              MOVS      A2, #0                ; [DPU_3_PIPE] |145|  ; [ORIG 16-BIT INS]
     230 00000012 6001              STR       A2, [A1, #0]          ; [DPU_3_PIPE] |145|  ; [ORIG 16-BIT INS]
     231                            .dwpsn  file "C:/TI_ARM_Tiva_Projects/Source/event_groups.c",line 146,column 3,is_stmt,isa 1
     232 00000014 9800              LDR       A1, [SP, #0]          ; [DPU_3_PIPE] |146|  ; [ORIG 16-BIT INS]
     233 00000016 1D00              ADDS      A1, A1, #4            ; [DPU_3_PIPE] |146|  ; [ORIG 16-BIT INS]
     234                    $C$DW$24        .dwtag  DW_TAG_TI_branch
     235                            .dwattr $C$DW$24, DW_AT_low_pc(0x00)
     236                            .dwattr $C$DW$24, DW_AT_name("vListInitialise")
     237                            .dwattr $C$DW$24, DW_AT_TI_call
     238                    
     239 00000018 FFFEF7FF!         BL        vListInitialise       ; [DPU_3_PIPE] |146|  ; [KEEP 32-BIT INS]
     240                            ; CALL OCCURS {vListInitialise }  ; [] |146| 
     241                            .dwpsn  file "C:/TI_ARM_Tiva_Projects/Source/event_groups.c",line 148,column 2,is_stmt,isa 1
     242                    ;* --------------------------------------------------------------------------*
     243 0000001c           ||$C$L1||:    
     244                            .dwpsn  file "C:/TI_ARM_Tiva_Projects/Source/event_groups.c",line 154,column 2,is_stmt,isa 1
     245 0000001c 9800              LDR       A1, [SP, #0]          ; [DPU_3_PIPE] |154|  ; [ORIG 16-BIT INS]
     246                            .dwpsn  file "C:/TI_ARM_Tiva_Projects/Source/event_groups.c",line 155,column 1,is_stmt,isa 1
     247                    $C$DW$25        .dwtag  DW_TAG_TI_branch
     248                            .dwattr $C$DW$25, DW_AT_low_pc(0x00)
     249                            .dwattr $C$DW$25, DW_AT_TI_return
     250                    
     251 0000001e BD08              POP       {A4, PC}              ; [DPU_3_PIPE]  ; [ORIG 16-BIT INS]
     252                            .dwcfi  cfa_offset, 0
     253                            ; BRANCH OCCURS                  ; [] 
     254                            .dwattr $C$DW$21, DW_AT_TI_end_file("C:/TI_ARM_Tiva_Projects/Source/event_groups.c")
     255                            .dwattr $C$DW$21, DW_AT_TI_end_line(0x9b)
     256                            .dwattr $C$DW$21, DW_AT_TI_end_column(0x01)
     257                            .dwendentry
     258                            .dwendtag $C$DW$21
     259                    
     260 00000020                   .sect   ".text"
     261                            .clink
     262                            .thumbfunc xEventGroupSync
     263 00000020                   .thumb
     264                            .global xEventGroupSync
     265                    
     266                    $C$DW$26        .dwtag  DW_TAG_subprogram
     267                            .dwattr $C$DW$26, DW_AT_name("xEventGroupSync")
     268                            .dwattr $C$DW$26, DW_AT_low_pc(xEventGroupSync)
     269                            .dwattr $C$DW$26, DW_AT_high_pc(0x00)
     270                            .dwattr $C$DW$26, DW_AT_TI_symbol_name("xEventGroupSync")
     271                            .dwattr $C$DW$26, DW_AT_external
     272                            .dwattr $C$DW$26, DW_AT_type(*$C$DW$T$29)
     273                            .dwattr $C$DW$26, DW_AT_TI_begin_file("C:/TI_ARM_Tiva_Projects/Source/event_groups.c")
     274                            .dwattr $C$DW$26, DW_AT_TI_begin_line(0x9e)
     275                            .dwattr $C$DW$26, DW_AT_TI_begin_column(0x0d)
TI ARM Assembler PC v15.12.1 Tue Oct 18 10:42:40 2016

Tools Copyright (c) 1996-2015 Texas Instruments Incorporated
event_groups.asm                                                     PAGE    6

     276                            .dwattr $C$DW$26, DW_AT_decl_file("C:/TI_ARM_Tiva_Projects/Source/event_groups.c")
     277                            .dwattr $C$DW$26, DW_AT_decl_line(0x9e)
     278                            .dwattr $C$DW$26, DW_AT_decl_column(0x0d)
     279                            .dwattr $C$DW$26, DW_AT_TI_max_frame_size(0x28)
     280                            .dwpsn  file "C:/TI_ARM_Tiva_Projects/Source/event_groups.c",line 159,column 1,is_stmt,address
     281                    
     282                            .dwfde $C$DW$CIE, xEventGroupSync
     283                    $C$DW$27        .dwtag  DW_TAG_formal_parameter
     284                            .dwattr $C$DW$27, DW_AT_name("xEventGroup")
     285                            .dwattr $C$DW$27, DW_AT_TI_symbol_name("xEventGroup")
     286                            .dwattr $C$DW$27, DW_AT_type(*$C$DW$T$69)
     287                            .dwattr $C$DW$27, DW_AT_location[DW_OP_reg0]
     288                    
     289                    $C$DW$28        .dwtag  DW_TAG_formal_parameter
     290                            .dwattr $C$DW$28, DW_AT_name("uxBitsToSet")
     291                            .dwattr $C$DW$28, DW_AT_TI_symbol_name("uxBitsToSet")
     292                            .dwattr $C$DW$28, DW_AT_type(*$C$DW$T$112)
     293                            .dwattr $C$DW$28, DW_AT_location[DW_OP_reg1]
     294                    
     295                    $C$DW$29        .dwtag  DW_TAG_formal_parameter
     296                            .dwattr $C$DW$29, DW_AT_name("uxBitsToWaitFor")
     297                            .dwattr $C$DW$29, DW_AT_TI_symbol_name("uxBitsToWaitFor")
     298                            .dwattr $C$DW$29, DW_AT_type(*$C$DW$T$112)
     299                            .dwattr $C$DW$29, DW_AT_location[DW_OP_reg2]
     300                    
     301                    $C$DW$30        .dwtag  DW_TAG_formal_parameter
     302                            .dwattr $C$DW$30, DW_AT_name("xTicksToWait")
     303                            .dwattr $C$DW$30, DW_AT_TI_symbol_name("xTicksToWait")
     304                            .dwattr $C$DW$30, DW_AT_type(*$C$DW$T$28)
     305                            .dwattr $C$DW$30, DW_AT_location[DW_OP_reg3]
     306                    
     307                    
     308                    ;*****************************************************************************
     309                    ;* FUNCTION NAME: xEventGroupSync                                            *
     310                    ;*                                                                           *
     311                    ;*   Regs Modified     : A1,A2,A3,A4,V9,SP,LR,SR,D0,D0_hi,D1,D1_hi,D2,D2_hi, *
     312                    ;*                           D3,D3_hi,D4,D4_hi,D5,D5_hi,D6,D6_hi,D7,D7_hi,   *
     313                    ;*                           FPEXC,FPSCR                                     *
     314                    ;*   Regs Used         : A1,A2,A3,A4,V9,SP,LR,SR,D0,D0_hi,D1,D1_hi,D2,D2_hi, *
     315                    ;*                           D3,D3_hi,D4,D4_hi,D5,D5_hi,D6,D6_hi,D7,D7_hi,   *
     316                    ;*                           FPEXC,FPSCR                                     *
     317                    ;*   Local Frame Size  : 0 Args + 36 Auto + 4 Save = 40 byte                 *
     318                    ;*****************************************************************************
     319 00000020           xEventGroupSync:
     320                    ;* --------------------------------------------------------------------------*
     321                            .dwcfi  cfa_offset, 0
     322 00000020 B500              PUSH      {LR}                  ; [DPU_3_PIPE]  ; [ORIG 16-BIT INS]
     323                            .dwcfi  cfa_offset, 4
     324                            .dwcfi  save_reg_to_mem, 14, -4
     325 00000022 0D24F1AD          SUB       SP, SP, #36           ; [DPU_3_PIPE]  ; [KEEP 32-BIT INS]
     326                            .dwcfi  cfa_offset, 40
     327                    $C$DW$31        .dwtag  DW_TAG_variable
     328                            .dwattr $C$DW$31, DW_AT_name("xEventGroup")
     329                            .dwattr $C$DW$31, DW_AT_TI_symbol_name("xEventGroup")
     330                            .dwattr $C$DW$31, DW_AT_type(*$C$DW$T$69)
TI ARM Assembler PC v15.12.1 Tue Oct 18 10:42:40 2016

Tools Copyright (c) 1996-2015 Texas Instruments Incorporated
event_groups.asm                                                     PAGE    7

     331                            .dwattr $C$DW$31, DW_AT_location[DW_OP_breg13 0]
     332                    
     333                    $C$DW$32        .dwtag  DW_TAG_variable
     334                            .dwattr $C$DW$32, DW_AT_name("uxBitsToSet")
     335                            .dwattr $C$DW$32, DW_AT_TI_symbol_name("uxBitsToSet")
     336                            .dwattr $C$DW$32, DW_AT_type(*$C$DW$T$112)
     337                            .dwattr $C$DW$32, DW_AT_location[DW_OP_breg13 4]
     338                    
     339                    $C$DW$33        .dwtag  DW_TAG_variable
     340                            .dwattr $C$DW$33, DW_AT_name("uxBitsToWaitFor")
     341                            .dwattr $C$DW$33, DW_AT_TI_symbol_name("uxBitsToWaitFor")
     342                            .dwattr $C$DW$33, DW_AT_type(*$C$DW$T$112)
     343                            .dwattr $C$DW$33, DW_AT_location[DW_OP_breg13 8]
     344                    
     345                    $C$DW$34        .dwtag  DW_TAG_variable
     346                            .dwattr $C$DW$34, DW_AT_name("xTicksToWait")
     347                            .dwattr $C$DW$34, DW_AT_TI_symbol_name("xTicksToWait")
     348                            .dwattr $C$DW$34, DW_AT_type(*$C$DW$T$28)
     349                            .dwattr $C$DW$34, DW_AT_location[DW_OP_breg13 12]
     350                    
     351                    $C$DW$35        .dwtag  DW_TAG_variable
     352                            .dwattr $C$DW$35, DW_AT_name("uxOriginalBitValue")
     353                            .dwattr $C$DW$35, DW_AT_TI_symbol_name("uxOriginalBitValue")
     354                            .dwattr $C$DW$35, DW_AT_type(*$C$DW$T$29)
     355                            .dwattr $C$DW$35, DW_AT_location[DW_OP_breg13 16]
     356                    
     357                    $C$DW$36        .dwtag  DW_TAG_variable
     358                            .dwattr $C$DW$36, DW_AT_name("uxReturn")
     359                            .dwattr $C$DW$36, DW_AT_TI_symbol_name("uxReturn")
     360                            .dwattr $C$DW$36, DW_AT_type(*$C$DW$T$29)
     361                            .dwattr $C$DW$36, DW_AT_location[DW_OP_breg13 20]
     362                    
     363                    $C$DW$37        .dwtag  DW_TAG_variable
     364                            .dwattr $C$DW$37, DW_AT_name("pxEventBits")
     365                            .dwattr $C$DW$37, DW_AT_TI_symbol_name("pxEventBits")
     366                            .dwattr $C$DW$37, DW_AT_type(*$C$DW$T$156)
     367                            .dwattr $C$DW$37, DW_AT_location[DW_OP_breg13 24]
     368                    
     369                    $C$DW$38        .dwtag  DW_TAG_variable
     370                            .dwattr $C$DW$38, DW_AT_name("xAlreadyYielded")
     371                            .dwattr $C$DW$38, DW_AT_TI_symbol_name("xAlreadyYielded")
     372                            .dwattr $C$DW$38, DW_AT_type(*$C$DW$T$59)
     373                            .dwattr $C$DW$38, DW_AT_location[DW_OP_breg13 28]
     374                    
     375                    $C$DW$39        .dwtag  DW_TAG_variable
     376                            .dwattr $C$DW$39, DW_AT_name("xTimeoutOccurred")
     377                            .dwattr $C$DW$39, DW_AT_TI_symbol_name("xTimeoutOccurred")
     378                            .dwattr $C$DW$39, DW_AT_type(*$C$DW$T$59)
     379                            .dwattr $C$DW$39, DW_AT_location[DW_OP_breg13 32]
     380                    
     381 00000026 9303              STR       A4, [SP, #12]         ; [DPU_3_PIPE] |159|  ; [ORIG 16-BIT INS]
     382 00000028 9202              STR       A3, [SP, #8]          ; [DPU_3_PIPE] |159|  ; [ORIG 16-BIT INS]
     383 0000002a 9101              STR       A2, [SP, #4]          ; [DPU_3_PIPE] |159|  ; [ORIG 16-BIT INS]
     384 0000002c 9000              STR       A1, [SP, #0]          ; [DPU_3_PIPE] |159|  ; [ORIG 16-BIT INS]
     385                            .dwpsn  file "C:/TI_ARM_Tiva_Projects/Source/event_groups.c",line 161,column 27,is_stmt,isa 1
TI ARM Assembler PC v15.12.1 Tue Oct 18 10:42:40 2016

Tools Copyright (c) 1996-2015 Texas Instruments Incorporated
event_groups.asm                                                     PAGE    8

     386 0000002e 9800              LDR       A1, [SP, #0]          ; [DPU_3_PIPE] |161|  ; [ORIG 16-BIT INS]
     387 00000030 9006              STR       A1, [SP, #24]         ; [DPU_3_PIPE] |161|  ; [ORIG 16-BIT INS]
     388                            .dwpsn  file "C:/TI_ARM_Tiva_Projects/Source/event_groups.c",line 163,column 29,is_stmt,isa 1
     389 00000032 2000              MOVS      A1, #0                ; [DPU_3_PIPE] |163|  ; [ORIG 16-BIT INS]
     390 00000034 9008              STR       A1, [SP, #32]         ; [DPU_3_PIPE] |163|  ; [ORIG 16-BIT INS]
     391                            .dwpsn  file "C:/TI_ARM_Tiva_Projects/Source/event_groups.c",line 173,column 2,is_stmt,isa 1
     392                    $C$DW$40        .dwtag  DW_TAG_TI_branch
     393                            .dwattr $C$DW$40, DW_AT_low_pc(0x00)
     394                            .dwattr $C$DW$40, DW_AT_name("vTaskSuspendAll")
     395                            .dwattr $C$DW$40, DW_AT_TI_call
     396                    
     397 00000036 FFFEF7FF!         BL        vTaskSuspendAll       ; [DPU_3_PIPE] |173|  ; [KEEP 32-BIT INS]
     398                            ; CALL OCCURS {vTaskSuspendAll }  ; [] |173| 
     399                            .dwpsn  file "C:/TI_ARM_Tiva_Projects/Source/event_groups.c",line 175,column 3,is_stmt,isa 1
     400 0000003a 9806              LDR       A1, [SP, #24]         ; [DPU_3_PIPE] |175|  ; [ORIG 16-BIT INS]
     401 0000003c 6800              LDR       A1, [A1, #0]          ; [DPU_3_PIPE] |175|  ; [ORIG 16-BIT INS]
     402 0000003e 9004              STR       A1, [SP, #16]         ; [DPU_3_PIPE] |175|  ; [ORIG 16-BIT INS]
     403                            .dwpsn  file "C:/TI_ARM_Tiva_Projects/Source/event_groups.c",line 177,column 3,is_stmt,isa 1
     404 00000040 9901              LDR       A2, [SP, #4]          ; [DPU_3_PIPE] |177|  ; [ORIG 16-BIT INS]
     405 00000042 9800              LDR       A1, [SP, #0]          ; [DPU_3_PIPE] |177|  ; [ORIG 16-BIT INS]
     406                    $C$DW$41        .dwtag  DW_TAG_TI_branch
     407                            .dwattr $C$DW$41, DW_AT_low_pc(0x00)
     408                            .dwattr $C$DW$41, DW_AT_name("xEventGroupSetBits")
     409                            .dwattr $C$DW$41, DW_AT_TI_call
     410                    
     411 00000044 F8F7F000          BL        xEventGroupSetBits    ; [DPU_3_PIPE] |177|  ; [KEEP 32-BIT INS]
     412                            ; CALL OCCURS {xEventGroupSetBits }  ; [] |177| 
     413                            .dwpsn  file "C:/TI_ARM_Tiva_Projects/Source/event_groups.c",line 179,column 3,is_stmt,isa 1
     414 00000048 9B04              LDR       A4, [SP, #16]         ; [DPU_3_PIPE] |179|  ; [ORIG 16-BIT INS]
     415 0000004a 9801              LDR       A1, [SP, #4]          ; [DPU_3_PIPE] |179|  ; [ORIG 16-BIT INS]
     416 0000004c 9902              LDR       A2, [SP, #8]          ; [DPU_3_PIPE] |179|  ; [ORIG 16-BIT INS]
     417 0000004e 9A02              LDR       A3, [SP, #8]          ; [DPU_3_PIPE] |179|  ; [ORIG 16-BIT INS]
     418 00000050 4318              ORRS      A1, A1, A4            ; [DPU_3_PIPE] |179|  ; [ORIG 16-BIT INS]
     419 00000052 4001              ANDS      A2, A2, A1            ; [DPU_3_PIPE] |179|  ; [ORIG 16-BIT INS]
     420 00000054 428A              CMP       A3, A2                ; [DPU_3_PIPE] |179|  ; [ORIG 16-BIT INS]
     421 00000056 D10B              BNE       ||$C$L2||             ; [DPU_3_PIPE] |179|  ; [ORIG 16-BIT INS]
     422                            ; BRANCHCC OCCURS {||$C$L2||}    ; [] |179| 
     423                    ;* --------------------------------------------------------------------------*
     424                            .dwpsn  file "C:/TI_ARM_Tiva_Projects/Source/event_groups.c",line 182,column 4,is_stmt,isa 1
     425 00000058 9904              LDR       A2, [SP, #16]         ; [DPU_3_PIPE] |182|  ; [ORIG 16-BIT INS]
     426 0000005a 9801              LDR       A1, [SP, #4]          ; [DPU_3_PIPE] |182|  ; [ORIG 16-BIT INS]
     427 0000005c 4308              ORRS      A1, A1, A2            ; [DPU_3_PIPE] |182|  ; [ORIG 16-BIT INS]
     428 0000005e 9005              STR       A1, [SP, #20]         ; [DPU_3_PIPE] |182|  ; [ORIG 16-BIT INS]
     429                            .dwpsn  file "C:/TI_ARM_Tiva_Projects/Source/event_groups.c",line 186,column 4,is_stmt,isa 1
     430 00000060 9906              LDR       A2, [SP, #24]         ; [DPU_3_PIPE] |186|  ; [ORIG 16-BIT INS]
     431 00000062 9A02              LDR       A3, [SP, #8]          ; [DPU_3_PIPE] |186|  ; [ORIG 16-BIT INS]
     432 00000064 6808              LDR       A1, [A2, #0]          ; [DPU_3_PIPE] |186|  ; [ORIG 16-BIT INS]
     433 00000066 4390              BICS      A1, A1, A3            ; [DPU_3_PIPE] |186|  ; [ORIG 16-BIT INS]
     434 00000068 6008              STR       A1, [A2, #0]          ; [DPU_3_PIPE] |186|  ; [ORIG 16-BIT INS]
     435                            .dwpsn  file "C:/TI_ARM_Tiva_Projects/Source/event_groups.c",line 188,column 4,is_stmt,isa 1
     436 0000006a 2000              MOVS      A1, #0                ; [DPU_3_PIPE] |188|  ; [ORIG 16-BIT INS]
     437 0000006c 9003              STR       A1, [SP, #12]         ; [DPU_3_PIPE] |188|  ; [ORIG 16-BIT INS]
     438                            .dwpsn  file "C:/TI_ARM_Tiva_Projects/Source/event_groups.c",line 189,column 3,is_stmt,isa 1
     439 0000006e E00F              B         ||$C$L4||             ; [DPU_3_PIPE] |189|  ; [ORIG 16-BIT INS]
     440                            ; BRANCH OCCURS {||$C$L4||}      ; [] |189| 
TI ARM Assembler PC v15.12.1 Tue Oct 18 10:42:40 2016

Tools Copyright (c) 1996-2015 Texas Instruments Incorporated
event_groups.asm                                                     PAGE    9

     441                    ;* --------------------------------------------------------------------------*
     442 00000070           ||$C$L2||:    
     443                            .dwpsn  file "C:/TI_ARM_Tiva_Projects/Source/event_groups.c",line 192,column 4,is_stmt,isa 1
     444 00000070 9803              LDR       A1, [SP, #12]         ; [DPU_3_PIPE] |192|  ; [ORIG 16-BIT INS]
     445 00000072 B150              CBZ       A1, ||$C$L3||         ; []  ; [ORIG 16-BIT INS]
     446                            ; BRANCHCC OCCURS {||$C$L3||}    ; [] |192| 
     447                    ;* --------------------------------------------------------------------------*
     448                            .dwpsn  file "C:/TI_ARM_Tiva_Projects/Source/event_groups.c",line 199,column 5,is_stmt,isa 1
     449 00000074 9806              LDR       A1, [SP, #24]         ; [DPU_3_PIPE] |199|  ; [ORIG 16-BIT INS]
     450 00000076 9902              LDR       A2, [SP, #8]          ; [DPU_3_PIPE] |199|  ; [ORIG 16-BIT INS]
     451 00000078 9A03              LDR       A3, [SP, #12]         ; [DPU_3_PIPE] |199|  ; [ORIG 16-BIT INS]
     452 0000007a 1D00              ADDS      A1, A1, #4            ; [DPU_3_PIPE] |199|  ; [ORIG 16-BIT INS]
     453 0000007c 61A0F041          ORR       A2, A2, #83886080     ; [DPU_3_PIPE] |199|  ; [KEEP 32-BIT INS]
     454                    $C$DW$42        .dwtag  DW_TAG_TI_branch
     455                            .dwattr $C$DW$42, DW_AT_low_pc(0x00)
     456                            .dwattr $C$DW$42, DW_AT_name("vTaskPlaceOnUnorderedEventList")
     457                            .dwattr $C$DW$42, DW_AT_TI_call
     458                    
     459 00000080 FFFEF7FF!         BL        vTaskPlaceOnUnorderedEventList ; [DPU_3_PIPE] |199|  ; [KEEP 32-BIT INS]
     460                            ; CALL OCCURS {vTaskPlaceOnUnorderedEventList }  ; [] |199| 
     461                            .dwpsn  file "C:/TI_ARM_Tiva_Projects/Source/event_groups.c",line 205,column 5,is_stmt,isa 1
     462 00000084 2000              MOVS      A1, #0                ; [DPU_3_PIPE] |205|  ; [ORIG 16-BIT INS]
     463 00000086 9005              STR       A1, [SP, #20]         ; [DPU_3_PIPE] |205|  ; [ORIG 16-BIT INS]
     464                            .dwpsn  file "C:/TI_ARM_Tiva_Projects/Source/event_groups.c",line 206,column 4,is_stmt,isa 1
     465 00000088 E002              B         ||$C$L4||             ; [DPU_3_PIPE] |206|  ; [ORIG 16-BIT INS]
     466                            ; BRANCH OCCURS {||$C$L4||}      ; [] |206| 
     467                    ;* --------------------------------------------------------------------------*
     468 0000008a           ||$C$L3||:    
     469                            .dwpsn  file "C:/TI_ARM_Tiva_Projects/Source/event_groups.c",line 211,column 5,is_stmt,isa 1
     470 0000008a 9806              LDR       A1, [SP, #24]         ; [DPU_3_PIPE] |211|  ; [ORIG 16-BIT INS]
     471 0000008c 6800              LDR       A1, [A1, #0]          ; [DPU_3_PIPE] |211|  ; [ORIG 16-BIT INS]
     472 0000008e 9005              STR       A1, [SP, #20]         ; [DPU_3_PIPE] |211|  ; [ORIG 16-BIT INS]
     473                    ;* --------------------------------------------------------------------------*
     474 00000090           ||$C$L4||:    
     475                            .dwpsn  file "C:/TI_ARM_Tiva_Projects/Source/event_groups.c",line 215,column 2,is_stmt,isa 1
     476                    $C$DW$43        .dwtag  DW_TAG_TI_branch
     477                            .dwattr $C$DW$43, DW_AT_low_pc(0x00)
     478                            .dwattr $C$DW$43, DW_AT_name("xTaskResumeAll")
     479                            .dwattr $C$DW$43, DW_AT_TI_call
     480                    
     481 00000090 FFFEF7FF!         BL        xTaskResumeAll        ; [DPU_3_PIPE] |215|  ; [KEEP 32-BIT INS]
     482                            ; CALL OCCURS {xTaskResumeAll }  ; [] |215| 
     483 00000094 9007              STR       A1, [SP, #28]         ; [DPU_3_PIPE] |215|  ; [ORIG 16-BIT INS]
     484                            .dwpsn  file "C:/TI_ARM_Tiva_Projects/Source/event_groups.c",line 217,column 2,is_stmt,isa 1
     485 00000096 9803              LDR       A1, [SP, #12]         ; [DPU_3_PIPE] |217|  ; [ORIG 16-BIT INS]
     486 00000098 B338              CBZ       A1, ||$C$L8||         ; []  ; [ORIG 16-BIT INS]
     487                            ; BRANCHCC OCCURS {||$C$L8||}    ; [] |217| 
     488                    ;* --------------------------------------------------------------------------*
     489                            .dwpsn  file "C:/TI_ARM_Tiva_Projects/Source/event_groups.c",line 219,column 3,is_stmt,isa 1
     490 0000009a 9807              LDR       A1, [SP, #28]         ; [DPU_3_PIPE] |219|  ; [ORIG 16-BIT INS]
     491 0000009c B938              CBNZ      A1, ||$C$L5||         ; []  ; [ORIG 16-BIT INS]
     492                            ; BRANCHCC OCCURS {||$C$L5||}    ; [] |219| 
     493                    ;* --------------------------------------------------------------------------*
     494                            .dwpsn  file "C:/TI_ARM_Tiva_Projects/Source/event_groups.c",line 221,column 4,is_stmt,isa 1
     495 0000009e 4998              LDR       A2, $C$CON1           ; [DPU_3_PIPE] |221|  ; [ORIG 16-BIT INS]
TI ARM Assembler PC v15.12.1 Tue Oct 18 10:42:40 2016

Tools Copyright (c) 1996-2015 Texas Instruments Incorporated
event_groups.asm                                                     PAGE   10

     496 000000a0 5080F04F          MOV       A1, #268435456        ; [DPU_3_PIPE] |221|  ; [KEEP 32-BIT INS]
     497 000000a4 6008              STR       A1, [A2, #0]          ; [DPU_3_PIPE] |221|  ; [ORIG 16-BIT INS]
     498 000000a6 8F4FF3BF          dsb ; [KEEP 32-BIT INS]
     499 000000aa 8F6FF3BF          isb ; [KEEP 32-BIT INS]
     500                            .dwpsn  file "C:/TI_ARM_Tiva_Projects/Source/event_groups.c",line 222,column 3,is_stmt,isa 1
     501                    ;* --------------------------------------------------------------------------*
     502 000000ae           ||$C$L5||:    
     503                            .dwpsn  file "C:/TI_ARM_Tiva_Projects/Source/event_groups.c",line 232,column 3,is_stmt,isa 1
     504                    $C$DW$44        .dwtag  DW_TAG_TI_branch
     505                            .dwattr $C$DW$44, DW_AT_low_pc(0x00)
     506                            .dwattr $C$DW$44, DW_AT_name("uxTaskResetEventItemValue")
     507                            .dwattr $C$DW$44, DW_AT_TI_call
     508                    
     509 000000ae FFFEF7FF!         BL        uxTaskResetEventItemValue ; [DPU_3_PIPE] |232|  ; [KEEP 32-BIT INS]
     510                            ; CALL OCCURS {uxTaskResetEventItemValue }  ; [] |232| 
     511 000000b2 9005              STR       A1, [SP, #20]         ; [DPU_3_PIPE] |232|  ; [ORIG 16-BIT INS]
     512                            .dwpsn  file "C:/TI_ARM_Tiva_Projects/Source/event_groups.c",line 234,column 3,is_stmt,isa 1
     513 000000b4 9805              LDR       A1, [SP, #20]         ; [DPU_3_PIPE] |234|  ; [ORIG 16-BIT INS]
     514 000000b6 0E80              LSRS      A1, A1, #26           ; [DPU_3_PIPE] |234|  ; [ORIG 16-BIT INS]
     515 000000b8 D213              BCS       ||$C$L7||             ; [DPU_3_PIPE] |234|  ; [ORIG 16-BIT INS]
     516                            ; BRANCHCC OCCURS {||$C$L7||}    ; [] |234| 
     517                    ;* --------------------------------------------------------------------------*
     518                            .dwpsn  file "C:/TI_ARM_Tiva_Projects/Source/event_groups.c",line 237,column 4,is_stmt,isa 1
     519                    $C$DW$45        .dwtag  DW_TAG_TI_branch
     520                            .dwattr $C$DW$45, DW_AT_low_pc(0x00)
     521                            .dwattr $C$DW$45, DW_AT_name("vPortEnterCritical")
     522                            .dwattr $C$DW$45, DW_AT_TI_call
     523                    
     524 000000ba FFFEF7FF!         BL        vPortEnterCritical    ; [DPU_3_PIPE] |237|  ; [KEEP 32-BIT INS]
     525                            ; CALL OCCURS {vPortEnterCritical }  ; [] |237| 
     526                            .dwpsn  file "C:/TI_ARM_Tiva_Projects/Source/event_groups.c",line 239,column 5,is_stmt,isa 1
     527 000000be 9806              LDR       A1, [SP, #24]         ; [DPU_3_PIPE] |239|  ; [ORIG 16-BIT INS]
     528 000000c0 6800              LDR       A1, [A1, #0]          ; [DPU_3_PIPE] |239|  ; [ORIG 16-BIT INS]
     529 000000c2 9005              STR       A1, [SP, #20]         ; [DPU_3_PIPE] |239|  ; [ORIG 16-BIT INS]
     530                            .dwpsn  file "C:/TI_ARM_Tiva_Projects/Source/event_groups.c",line 245,column 5,is_stmt,isa 1
     531 000000c4 9802              LDR       A1, [SP, #8]          ; [DPU_3_PIPE] |245|  ; [ORIG 16-BIT INS]
     532 000000c6 9902              LDR       A2, [SP, #8]          ; [DPU_3_PIPE] |245|  ; [ORIG 16-BIT INS]
     533 000000c8 9A05              LDR       A3, [SP, #20]         ; [DPU_3_PIPE] |245|  ; [ORIG 16-BIT INS]
     534 000000ca 4010              ANDS      A1, A1, A3            ; [DPU_3_PIPE] |245|  ; [ORIG 16-BIT INS]
     535 000000cc 4281              CMP       A2, A1                ; [DPU_3_PIPE] |245|  ; [ORIG 16-BIT INS]
     536 000000ce D104              BNE       ||$C$L6||             ; [DPU_3_PIPE] |245|  ; [ORIG 16-BIT INS]
     537                            ; BRANCHCC OCCURS {||$C$L6||}    ; [] |245| 
     538                    ;* --------------------------------------------------------------------------*
     539                            .dwpsn  file "C:/TI_ARM_Tiva_Projects/Source/event_groups.c",line 247,column 6,is_stmt,isa 1
     540 000000d0 9906              LDR       A2, [SP, #24]         ; [DPU_3_PIPE] |247|  ; [ORIG 16-BIT INS]
     541 000000d2 9A02              LDR       A3, [SP, #8]          ; [DPU_3_PIPE] |247|  ; [ORIG 16-BIT INS]
     542 000000d4 6808              LDR       A1, [A2, #0]          ; [DPU_3_PIPE] |247|  ; [ORIG 16-BIT INS]
     543 000000d6 4390              BICS      A1, A1, A3            ; [DPU_3_PIPE] |247|  ; [ORIG 16-BIT INS]
     544 000000d8 6008              STR       A1, [A2, #0]          ; [DPU_3_PIPE] |247|  ; [ORIG 16-BIT INS]
     545                            .dwpsn  file "C:/TI_ARM_Tiva_Projects/Source/event_groups.c",line 248,column 5,is_stmt,isa 1
     546                    ;* --------------------------------------------------------------------------*
     547 000000da           ||$C$L6||:    
     548                            .dwpsn  file "C:/TI_ARM_Tiva_Projects/Source/event_groups.c",line 254,column 4,is_stmt,isa 1
     549                    $C$DW$46        .dwtag  DW_TAG_TI_branch
     550                            .dwattr $C$DW$46, DW_AT_low_pc(0x00)
TI ARM Assembler PC v15.12.1 Tue Oct 18 10:42:40 2016

Tools Copyright (c) 1996-2015 Texas Instruments Incorporated
event_groups.asm                                                     PAGE   11

     551                            .dwattr $C$DW$46, DW_AT_name("vPortExitCritical")
     552                            .dwattr $C$DW$46, DW_AT_TI_call
     553                    
     554 000000da FFFEF7FF!         BL        vPortExitCritical     ; [DPU_3_PIPE] |254|  ; [KEEP 32-BIT INS]
     555                            ; CALL OCCURS {vPortExitCritical }  ; [] |254| 
     556                            .dwpsn  file "C:/TI_ARM_Tiva_Projects/Source/event_groups.c",line 256,column 4,is_stmt,isa 1
     557 000000de 2001              MOVS      A1, #1                ; [DPU_3_PIPE] |256|  ; [ORIG 16-BIT INS]
     558 000000e0 9008              STR       A1, [SP, #32]         ; [DPU_3_PIPE] |256|  ; [ORIG 16-BIT INS]
     559                            .dwpsn  file "C:/TI_ARM_Tiva_Projects/Source/event_groups.c",line 257,column 3,is_stmt,isa 1
     560                    ;* --------------------------------------------------------------------------*
     561 000000e2           ||$C$L7||:    
     562                            .dwpsn  file "C:/TI_ARM_Tiva_Projects/Source/event_groups.c",line 265,column 3,is_stmt,isa 1
     563 000000e2 9805              LDR       A1, [SP, #20]         ; [DPU_3_PIPE] |265|  ; [ORIG 16-BIT INS]
     564 000000e4 407FF020          BIC       A1, A1, #-16777216    ; [DPU_3_PIPE] |265|  ; [KEEP 32-BIT INS]
     565 000000e8 9005              STR       A1, [SP, #20]         ; [DPU_3_PIPE] |265|  ; [ORIG 16-BIT INS]
     566                    ;* --------------------------------------------------------------------------*
     567 000000ea           ||$C$L8||:    
     568                            .dwpsn  file "C:/TI_ARM_Tiva_Projects/Source/event_groups.c",line 268,column 2,is_stmt,isa 1
     569                            .dwpsn  file "C:/TI_ARM_Tiva_Projects/Source/event_groups.c",line 270,column 2,is_stmt,isa 1
     570 000000ea 9805              LDR       A1, [SP, #20]         ; [DPU_3_PIPE] |270|  ; [ORIG 16-BIT INS]
     571                            .dwpsn  file "C:/TI_ARM_Tiva_Projects/Source/event_groups.c",line 271,column 1,is_stmt,isa 1
     572 000000ec B009              ADD       SP, SP, #36           ; [DPU_3_PIPE]  ; [ORIG 16-BIT INS]
     573                            .dwcfi  cfa_offset, 4
     574                    $C$DW$47        .dwtag  DW_TAG_TI_branch
     575                            .dwattr $C$DW$47, DW_AT_low_pc(0x00)
     576                            .dwattr $C$DW$47, DW_AT_TI_return
     577                    
     578 000000ee BD00              POP       {PC}                  ; [DPU_3_PIPE]  ; [ORIG 16-BIT INS]
     579                            .dwcfi  cfa_offset, 0
     580                            ; BRANCH OCCURS                  ; [] 
     581                            .dwattr $C$DW$26, DW_AT_TI_end_file("C:/TI_ARM_Tiva_Projects/Source/event_groups.c")
     582                            .dwattr $C$DW$26, DW_AT_TI_end_line(0x10f)
     583                            .dwattr $C$DW$26, DW_AT_TI_end_column(0x01)
     584                            .dwendentry
     585                            .dwendtag $C$DW$26
     586                    
     587 000000f0                   .sect   ".text"
     588                            .clink
     589                            .thumbfunc xEventGroupWaitBits
     590 000000f0                   .thumb
     591                            .global xEventGroupWaitBits
     592                    
     593                    $C$DW$48        .dwtag  DW_TAG_subprogram
     594                            .dwattr $C$DW$48, DW_AT_name("xEventGroupWaitBits")
     595                            .dwattr $C$DW$48, DW_AT_low_pc(xEventGroupWaitBits)
     596                            .dwattr $C$DW$48, DW_AT_high_pc(0x00)
     597                            .dwattr $C$DW$48, DW_AT_TI_symbol_name("xEventGroupWaitBits")
     598                            .dwattr $C$DW$48, DW_AT_external
     599                            .dwattr $C$DW$48, DW_AT_type(*$C$DW$T$29)
     600                            .dwattr $C$DW$48, DW_AT_TI_begin_file("C:/TI_ARM_Tiva_Projects/Source/event_groups.c")
     601                            .dwattr $C$DW$48, DW_AT_TI_begin_line(0x112)
     602                            .dwattr $C$DW$48, DW_AT_TI_begin_column(0x0d)
     603                            .dwattr $C$DW$48, DW_AT_decl_file("C:/TI_ARM_Tiva_Projects/Source/event_groups.c")
     604                            .dwattr $C$DW$48, DW_AT_decl_line(0x112)
     605                            .dwattr $C$DW$48, DW_AT_decl_column(0x0d)
TI ARM Assembler PC v15.12.1 Tue Oct 18 10:42:40 2016

Tools Copyright (c) 1996-2015 Texas Instruments Incorporated
event_groups.asm                                                     PAGE   12

     606                            .dwattr $C$DW$48, DW_AT_TI_max_frame_size(0x30)
     607                            .dwpsn  file "C:/TI_ARM_Tiva_Projects/Source/event_groups.c",line 275,column 1,is_stmt,address
     608                    
     609                            .dwfde $C$DW$CIE, xEventGroupWaitBits
     610                    $C$DW$49        .dwtag  DW_TAG_formal_parameter
     611                            .dwattr $C$DW$49, DW_AT_name("xEventGroup")
     612                            .dwattr $C$DW$49, DW_AT_TI_symbol_name("xEventGroup")
     613                            .dwattr $C$DW$49, DW_AT_type(*$C$DW$T$69)
     614                            .dwattr $C$DW$49, DW_AT_location[DW_OP_reg0]
     615                    
     616                    $C$DW$50        .dwtag  DW_TAG_formal_parameter
     617                            .dwattr $C$DW$50, DW_AT_name("uxBitsToWaitFor")
     618                            .dwattr $C$DW$50, DW_AT_TI_symbol_name("uxBitsToWaitFor")
     619                            .dwattr $C$DW$50, DW_AT_type(*$C$DW$T$112)
     620                            .dwattr $C$DW$50, DW_AT_location[DW_OP_reg1]
     621                    
     622                    $C$DW$51        .dwtag  DW_TAG_formal_parameter
     623                            .dwattr $C$DW$51, DW_AT_name("xClearOnExit")
     624                            .dwattr $C$DW$51, DW_AT_TI_symbol_name("xClearOnExit")
     625                            .dwattr $C$DW$51, DW_AT_type(*$C$DW$T$107)
     626                            .dwattr $C$DW$51, DW_AT_location[DW_OP_reg2]
     627                    
     628                    $C$DW$52        .dwtag  DW_TAG_formal_parameter
     629                            .dwattr $C$DW$52, DW_AT_name("xWaitForAllBits")
     630                            .dwattr $C$DW$52, DW_AT_TI_symbol_name("xWaitForAllBits")
     631                            .dwattr $C$DW$52, DW_AT_type(*$C$DW$T$107)
     632                            .dwattr $C$DW$52, DW_AT_location[DW_OP_reg3]
     633                    
     634                    $C$DW$53        .dwtag  DW_TAG_formal_parameter
     635                            .dwattr $C$DW$53, DW_AT_name("xTicksToWait")
     636                            .dwattr $C$DW$53, DW_AT_TI_symbol_name("xTicksToWait")
     637                            .dwattr $C$DW$53, DW_AT_type(*$C$DW$T$28)
     638                            .dwattr $C$DW$53, DW_AT_location[DW_OP_breg13 48]
     639                    
     640                    
     641                    ;*****************************************************************************
     642                    ;* FUNCTION NAME: xEventGroupWaitBits                                        *
     643                    ;*                                                                           *
     644                    ;*   Regs Modified     : A1,A2,A3,A4,V9,SP,LR,SR,D0,D0_hi,D1,D1_hi,D2,D2_hi, *
     645                    ;*                           D3,D3_hi,D4,D4_hi,D5,D5_hi,D6,D6_hi,D7,D7_hi,   *
     646                    ;*                           FPEXC,FPSCR                                     *
     647                    ;*   Regs Used         : A1,A2,A3,A4,V9,SP,LR,SR,D0,D0_hi,D1,D1_hi,D2,D2_hi, *
     648                    ;*                           D3,D3_hi,D4,D4_hi,D5,D5_hi,D6,D6_hi,D7,D7_hi,   *
     649                    ;*                           FPEXC,FPSCR                                     *
     650                    ;*   Local Frame Size  : 0 Args + 44 Auto + 4 Save = 48 byte                 *
     651                    ;*****************************************************************************
     652 000000f0           xEventGroupWaitBits:
     653                    ;* --------------------------------------------------------------------------*
     654                            .dwcfi  cfa_offset, 0
     655 000000f0 B500              PUSH      {LR}                  ; [DPU_3_PIPE]  ; [ORIG 16-BIT INS]
     656                            .dwcfi  cfa_offset, 4
     657                            .dwcfi  save_reg_to_mem, 14, -4
     658 000000f2 0D2CF1AD          SUB       SP, SP, #44           ; [DPU_3_PIPE]  ; [KEEP 32-BIT INS]
     659                            .dwcfi  cfa_offset, 48
     660                    $C$DW$54        .dwtag  DW_TAG_variable
TI ARM Assembler PC v15.12.1 Tue Oct 18 10:42:40 2016

Tools Copyright (c) 1996-2015 Texas Instruments Incorporated
event_groups.asm                                                     PAGE   13

     661                            .dwattr $C$DW$54, DW_AT_name("xEventGroup")
     662                            .dwattr $C$DW$54, DW_AT_TI_symbol_name("xEventGroup")
     663                            .dwattr $C$DW$54, DW_AT_type(*$C$DW$T$69)
     664                            .dwattr $C$DW$54, DW_AT_location[DW_OP_breg13 0]
     665                    
     666                    $C$DW$55        .dwtag  DW_TAG_variable
     667                            .dwattr $C$DW$55, DW_AT_name("uxBitsToWaitFor")
     668                            .dwattr $C$DW$55, DW_AT_TI_symbol_name("uxBitsToWaitFor")
     669                            .dwattr $C$DW$55, DW_AT_type(*$C$DW$T$112)
     670                            .dwattr $C$DW$55, DW_AT_location[DW_OP_breg13 4]
     671                    
     672                    $C$DW$56        .dwtag  DW_TAG_variable
     673                            .dwattr $C$DW$56, DW_AT_name("xClearOnExit")
     674                            .dwattr $C$DW$56, DW_AT_TI_symbol_name("xClearOnExit")
     675                            .dwattr $C$DW$56, DW_AT_type(*$C$DW$T$107)
     676                            .dwattr $C$DW$56, DW_AT_location[DW_OP_breg13 8]
     677                    
     678                    $C$DW$57        .dwtag  DW_TAG_variable
     679                            .dwattr $C$DW$57, DW_AT_name("xWaitForAllBits")
     680                            .dwattr $C$DW$57, DW_AT_TI_symbol_name("xWaitForAllBits")
     681                            .dwattr $C$DW$57, DW_AT_type(*$C$DW$T$107)
     682                            .dwattr $C$DW$57, DW_AT_location[DW_OP_breg13 12]
     683                    
     684                    $C$DW$58        .dwtag  DW_TAG_variable
     685                            .dwattr $C$DW$58, DW_AT_name("pxEventBits")
     686                            .dwattr $C$DW$58, DW_AT_TI_symbol_name("pxEventBits")
     687                            .dwattr $C$DW$58, DW_AT_type(*$C$DW$T$156)
     688                            .dwattr $C$DW$58, DW_AT_location[DW_OP_breg13 16]
     689                    
     690                    $C$DW$59        .dwtag  DW_TAG_variable
     691                            .dwattr $C$DW$59, DW_AT_name("uxReturn")
     692                            .dwattr $C$DW$59, DW_AT_TI_symbol_name("uxReturn")
     693                            .dwattr $C$DW$59, DW_AT_type(*$C$DW$T$29)
     694                            .dwattr $C$DW$59, DW_AT_location[DW_OP_breg13 20]
     695                    
     696                    $C$DW$60        .dwtag  DW_TAG_variable
     697                            .dwattr $C$DW$60, DW_AT_name("uxControlBits")
     698                            .dwattr $C$DW$60, DW_AT_TI_symbol_name("uxControlBits")
     699                            .dwattr $C$DW$60, DW_AT_type(*$C$DW$T$29)
     700                            .dwattr $C$DW$60, DW_AT_location[DW_OP_breg13 24]
     701                    
     702                    $C$DW$61        .dwtag  DW_TAG_variable
     703                            .dwattr $C$DW$61, DW_AT_name("xWaitConditionMet")
     704                            .dwattr $C$DW$61, DW_AT_TI_symbol_name("xWaitConditionMet")
     705                            .dwattr $C$DW$61, DW_AT_type(*$C$DW$T$59)
     706                            .dwattr $C$DW$61, DW_AT_location[DW_OP_breg13 28]
     707                    
     708                    $C$DW$62        .dwtag  DW_TAG_variable
     709                            .dwattr $C$DW$62, DW_AT_name("xAlreadyYielded")
     710                            .dwattr $C$DW$62, DW_AT_TI_symbol_name("xAlreadyYielded")
     711                            .dwattr $C$DW$62, DW_AT_type(*$C$DW$T$59)
     712                            .dwattr $C$DW$62, DW_AT_location[DW_OP_breg13 32]
     713                    
     714                    $C$DW$63        .dwtag  DW_TAG_variable
     715                            .dwattr $C$DW$63, DW_AT_name("xTimeoutOccurred")
TI ARM Assembler PC v15.12.1 Tue Oct 18 10:42:40 2016

Tools Copyright (c) 1996-2015 Texas Instruments Incorporated
event_groups.asm                                                     PAGE   14

     716                            .dwattr $C$DW$63, DW_AT_TI_symbol_name("xTimeoutOccurred")
     717                            .dwattr $C$DW$63, DW_AT_type(*$C$DW$T$59)
     718                            .dwattr $C$DW$63, DW_AT_location[DW_OP_breg13 36]
     719                    
     720 000000f6 9303              STR       A4, [SP, #12]         ; [DPU_3_PIPE] |275|  ; [ORIG 16-BIT INS]
     721 000000f8 9202              STR       A3, [SP, #8]          ; [DPU_3_PIPE] |275|  ; [ORIG 16-BIT INS]
     722 000000fa 9101              STR       A2, [SP, #4]          ; [DPU_3_PIPE] |275|  ; [ORIG 16-BIT INS]
     723 000000fc 9000              STR       A1, [SP, #0]          ; [DPU_3_PIPE] |275|  ; [ORIG 16-BIT INS]
     724                            .dwpsn  file "C:/TI_ARM_Tiva_Projects/Source/event_groups.c",line 276,column 27,is_stmt,isa 1
     725 000000fe 9800              LDR       A1, [SP, #0]          ; [DPU_3_PIPE] |276|  ; [ORIG 16-BIT INS]
     726 00000100 9004              STR       A1, [SP, #16]         ; [DPU_3_PIPE] |276|  ; [ORIG 16-BIT INS]
     727                            .dwpsn  file "C:/TI_ARM_Tiva_Projects/Source/event_groups.c",line 277,column 37,is_stmt,isa 1
     728 00000102 2000              MOVS      A1, #0                ; [DPU_3_PIPE] |277|  ; [ORIG 16-BIT INS]
     729 00000104 9006              STR       A1, [SP, #24]         ; [DPU_3_PIPE] |277|  ; [ORIG 16-BIT INS]
     730                            .dwpsn  file "C:/TI_ARM_Tiva_Projects/Source/event_groups.c",line 279,column 29,is_stmt,isa 1
     731 00000106 2000              MOVS      A1, #0                ; [DPU_3_PIPE] |279|  ; [ORIG 16-BIT INS]
     732 00000108 9009              STR       A1, [SP, #36]         ; [DPU_3_PIPE] |279|  ; [ORIG 16-BIT INS]
     733                            .dwpsn  file "C:/TI_ARM_Tiva_Projects/Source/event_groups.c",line 292,column 2,is_stmt,isa 1
     734                    $C$DW$64        .dwtag  DW_TAG_TI_branch
     735                            .dwattr $C$DW$64, DW_AT_low_pc(0x00)
     736                            .dwattr $C$DW$64, DW_AT_name("vTaskSuspendAll")
     737                            .dwattr $C$DW$64, DW_AT_TI_call
     738                    
     739 0000010a FFFEF7FF!         BL        vTaskSuspendAll       ; [DPU_3_PIPE] |292|  ; [KEEP 32-BIT INS]
     740                            ; CALL OCCURS {vTaskSuspendAll }  ; [] |292| 
     741                    
     742                    $C$DW$65        .dwtag  DW_TAG_lexical_block
     743                            .dwattr $C$DW$65, DW_AT_low_pc(0x00)
     744                            .dwattr $C$DW$65, DW_AT_high_pc(0x00)
     745                    $C$DW$66        .dwtag  DW_TAG_variable
     746                            .dwattr $C$DW$66, DW_AT_name("uxCurrentEventBits")
     747                            .dwattr $C$DW$66, DW_AT_TI_symbol_name("uxCurrentEventBits")
     748                            .dwattr $C$DW$66, DW_AT_type(*$C$DW$T$112)
     749                            .dwattr $C$DW$66, DW_AT_location[DW_OP_breg13 40]
     750                    
     751                            .dwpsn  file "C:/TI_ARM_Tiva_Projects/Source/event_groups.c",line 294,column 40,is_stmt,isa 1
     752 0000010e 9804              LDR       A1, [SP, #16]         ; [DPU_3_PIPE] |294|  ; [ORIG 16-BIT INS]
     753 00000110 6800              LDR       A1, [A1, #0]          ; [DPU_3_PIPE] |294|  ; [ORIG 16-BIT INS]
     754 00000112 900A              STR       A1, [SP, #40]         ; [DPU_3_PIPE] |294|  ; [ORIG 16-BIT INS]
     755                            .dwpsn  file "C:/TI_ARM_Tiva_Projects/Source/event_groups.c",line 297,column 3,is_stmt,isa 1
     756 00000114 9901              LDR       A2, [SP, #4]          ; [DPU_3_PIPE] |297|  ; [ORIG 16-BIT INS]
     757 00000116 9A03              LDR       A3, [SP, #12]         ; [DPU_3_PIPE] |297|  ; [ORIG 16-BIT INS]
     758 00000118 980A              LDR       A1, [SP, #40]         ; [DPU_3_PIPE] |297|  ; [ORIG 16-BIT INS]
     759                    $C$DW$67        .dwtag  DW_TAG_TI_branch
     760                            .dwattr $C$DW$67, DW_AT_low_pc(0x00)
     761                            .dwattr $C$DW$67, DW_AT_name("prvTestWaitCondition")
     762                            .dwattr $C$DW$67, DW_AT_TI_call
     763                    
     764 0000011a F91DF000          BL        prvTestWaitCondition  ; [DPU_3_PIPE] |297|  ; [KEEP 32-BIT INS]
     765                            ; CALL OCCURS {prvTestWaitCondition }  ; [] |297| 
     766 0000011e 9007              STR       A1, [SP, #28]         ; [DPU_3_PIPE] |297|  ; [ORIG 16-BIT INS]
     767                            .dwpsn  file "C:/TI_ARM_Tiva_Projects/Source/event_groups.c",line 299,column 3,is_stmt,isa 1
     768 00000120 9807              LDR       A1, [SP, #28]         ; [DPU_3_PIPE] |299|  ; [ORIG 16-BIT INS]
     769 00000122 B158              CBZ       A1, ||$C$L9||         ; []  ; [ORIG 16-BIT INS]
     770                            ; BRANCHCC OCCURS {||$C$L9||}    ; [] |299| 
TI ARM Assembler PC v15.12.1 Tue Oct 18 10:42:40 2016

Tools Copyright (c) 1996-2015 Texas Instruments Incorporated
event_groups.asm                                                     PAGE   15

     771                    ;* --------------------------------------------------------------------------*
     772                            .dwpsn  file "C:/TI_ARM_Tiva_Projects/Source/event_groups.c",line 303,column 4,is_stmt,isa 1
     773 00000124 980A              LDR       A1, [SP, #40]         ; [DPU_3_PIPE] |303|  ; [ORIG 16-BIT INS]
     774 00000126 9005              STR       A1, [SP, #20]         ; [DPU_3_PIPE] |303|  ; [ORIG 16-BIT INS]
     775                            .dwpsn  file "C:/TI_ARM_Tiva_Projects/Source/event_groups.c",line 304,column 4,is_stmt,isa 1
     776 00000128 2000              MOVS      A1, #0                ; [DPU_3_PIPE] |304|  ; [ORIG 16-BIT INS]
     777 0000012a 900C              STR       A1, [SP, #48]         ; [DPU_3_PIPE] |304|  ; [ORIG 16-BIT INS]
     778                            .dwpsn  file "C:/TI_ARM_Tiva_Projects/Source/event_groups.c",line 307,column 4,is_stmt,isa 1
     779 0000012c 9802              LDR       A1, [SP, #8]          ; [DPU_3_PIPE] |307|  ; [ORIG 16-BIT INS]
     780 0000012e B300              CBZ       A1, ||$C$L13||        ; []  ; [ORIG 16-BIT INS]
     781                            ; BRANCHCC OCCURS {||$C$L13||}   ; [] |307| 
     782                    ;* --------------------------------------------------------------------------*
     783                            .dwpsn  file "C:/TI_ARM_Tiva_Projects/Source/event_groups.c",line 309,column 5,is_stmt,isa 1
     784 00000130 9904              LDR       A2, [SP, #16]         ; [DPU_3_PIPE] |309|  ; [ORIG 16-BIT INS]
     785 00000132 9A01              LDR       A3, [SP, #4]          ; [DPU_3_PIPE] |309|  ; [ORIG 16-BIT INS]
     786 00000134 6808              LDR       A1, [A2, #0]          ; [DPU_3_PIPE] |309|  ; [ORIG 16-BIT INS]
     787 00000136 4390              BICS      A1, A1, A3            ; [DPU_3_PIPE] |309|  ; [ORIG 16-BIT INS]
     788 00000138 6008              STR       A1, [A2, #0]          ; [DPU_3_PIPE] |309|  ; [ORIG 16-BIT INS]
     789                            .dwpsn  file "C:/TI_ARM_Tiva_Projects/Source/event_groups.c",line 310,column 4,is_stmt,isa 1
     790 0000013a E01A              B         ||$C$L13||            ; [DPU_3_PIPE] |310|  ; [ORIG 16-BIT INS]
     791                            ; BRANCH OCCURS {||$C$L13||}     ; [] |310| 
     792                    ;* --------------------------------------------------------------------------*
     793                    ;* --------------------------------------------------------------------------*
     794 0000013c           ||$C$L9||:    
     795                            .dwpsn  file "C:/TI_ARM_Tiva_Projects/Source/event_groups.c",line 316,column 8,is_stmt,isa 1
     796 0000013c 980C              LDR       A1, [SP, #48]         ; [DPU_3_PIPE] |316|  ; [ORIG 16-BIT INS]
     797 0000013e B910              CBNZ      A1, ||$C$L10||        ; []  ; [ORIG 16-BIT INS]
     798                            ; BRANCHCC OCCURS {||$C$L10||}   ; [] |316| 
     799                    ;* --------------------------------------------------------------------------*
     800                            .dwpsn  file "C:/TI_ARM_Tiva_Projects/Source/event_groups.c",line 320,column 4,is_stmt,isa 1
     801 00000140 980A              LDR       A1, [SP, #40]         ; [DPU_3_PIPE] |320|  ; [ORIG 16-BIT INS]
     802 00000142 9005              STR       A1, [SP, #20]         ; [DPU_3_PIPE] |320|  ; [ORIG 16-BIT INS]
     803                            .dwpsn  file "C:/TI_ARM_Tiva_Projects/Source/event_groups.c",line 321,column 3,is_stmt,isa 1
     804 00000144 E015              B         ||$C$L13||            ; [DPU_3_PIPE] |321|  ; [ORIG 16-BIT INS]
     805                            ; BRANCH OCCURS {||$C$L13||}     ; [] |321| 
     806                    ;* --------------------------------------------------------------------------*
     807 00000146           ||$C$L10||:    
     808                            .dwpsn  file "C:/TI_ARM_Tiva_Projects/Source/event_groups.c",line 328,column 4,is_stmt,isa 1
     809 00000146 9802              LDR       A1, [SP, #8]          ; [DPU_3_PIPE] |328|  ; [ORIG 16-BIT INS]
     810 00000148 B118              CBZ       A1, ||$C$L11||        ; []  ; [ORIG 16-BIT INS]
     811                            ; BRANCHCC OCCURS {||$C$L11||}   ; [] |328| 
     812                    ;* --------------------------------------------------------------------------*
     813                            .dwpsn  file "C:/TI_ARM_Tiva_Projects/Source/event_groups.c",line 330,column 5,is_stmt,isa 1
     814 0000014a 9806              LDR       A1, [SP, #24]         ; [DPU_3_PIPE] |330|  ; [ORIG 16-BIT INS]
     815 0000014c 7080F040          ORR       A1, A1, #16777216     ; [DPU_3_PIPE] |330|  ; [KEEP 32-BIT INS]
     816 00000150 9006              STR       A1, [SP, #24]         ; [DPU_3_PIPE] |330|  ; [ORIG 16-BIT INS]
     817                            .dwpsn  file "C:/TI_ARM_Tiva_Projects/Source/event_groups.c",line 331,column 4,is_stmt,isa 1
     818                    ;* --------------------------------------------------------------------------*
     819 00000152           ||$C$L11||:    
     820                            .dwpsn  file "C:/TI_ARM_Tiva_Projects/Source/event_groups.c",line 337,column 4,is_stmt,isa 1
     821 00000152 9803              LDR       A1, [SP, #12]         ; [DPU_3_PIPE] |337|  ; [ORIG 16-BIT INS]
     822 00000154 B118              CBZ       A1, ||$C$L12||        ; []  ; [ORIG 16-BIT INS]
     823                            ; BRANCHCC OCCURS {||$C$L12||}   ; [] |337| 
     824                    ;* --------------------------------------------------------------------------*
     825                            .dwpsn  file "C:/TI_ARM_Tiva_Projects/Source/event_groups.c",line 339,column 5,is_stmt,isa 1
TI ARM Assembler PC v15.12.1 Tue Oct 18 10:42:40 2016

Tools Copyright (c) 1996-2015 Texas Instruments Incorporated
event_groups.asm                                                     PAGE   16

     826 00000156 9806              LDR       A1, [SP, #24]         ; [DPU_3_PIPE] |339|  ; [ORIG 16-BIT INS]
     827 00000158 6080F040          ORR       A1, A1, #67108864     ; [DPU_3_PIPE] |339|  ; [KEEP 32-BIT INS]
     828 0000015c 9006              STR       A1, [SP, #24]         ; [DPU_3_PIPE] |339|  ; [ORIG 16-BIT INS]
     829                            .dwpsn  file "C:/TI_ARM_Tiva_Projects/Source/event_groups.c",line 340,column 4,is_stmt,isa 1
     830                    ;* --------------------------------------------------------------------------*
     831 0000015e           ||$C$L12||:    
     832                            .dwpsn  file "C:/TI_ARM_Tiva_Projects/Source/event_groups.c",line 349,column 4,is_stmt,isa 1
     833 0000015e 9A01              LDR       A3, [SP, #4]          ; [DPU_3_PIPE] |349|  ; [ORIG 16-BIT INS]
     834 00000160 9906              LDR       A2, [SP, #24]         ; [DPU_3_PIPE] |349|  ; [ORIG 16-BIT INS]
     835 00000162 9804              LDR       A1, [SP, #16]         ; [DPU_3_PIPE] |349|  ; [ORIG 16-BIT INS]
     836 00000164 4311              ORRS      A2, A2, A3            ; [DPU_3_PIPE] |349|  ; [ORIG 16-BIT INS]
     837 00000166 9A0C              LDR       A3, [SP, #48]         ; [DPU_3_PIPE] |349|  ; [ORIG 16-BIT INS]
     838 00000168 1D00              ADDS      A1, A1, #4            ; [DPU_3_PIPE] |349|  ; [ORIG 16-BIT INS]
     839                    $C$DW$68        .dwtag  DW_TAG_TI_branch
     840                            .dwattr $C$DW$68, DW_AT_low_pc(0x00)
     841                            .dwattr $C$DW$68, DW_AT_name("vTaskPlaceOnUnorderedEventList")
     842                            .dwattr $C$DW$68, DW_AT_TI_call
     843                    
     844 0000016a FFFEF7FF!         BL        vTaskPlaceOnUnorderedEventList ; [DPU_3_PIPE] |349|  ; [KEEP 32-BIT INS]
     845                            ; CALL OCCURS {vTaskPlaceOnUnorderedEventList }  ; [] |349| 
     846                            .dwpsn  file "C:/TI_ARM_Tiva_Projects/Source/event_groups.c",line 354,column 4,is_stmt,isa 1
     847 0000016e 2000              MOVS      A1, #0                ; [DPU_3_PIPE] |354|  ; [ORIG 16-BIT INS]
     848 00000170 9005              STR       A1, [SP, #20]         ; [DPU_3_PIPE] |354|  ; [ORIG 16-BIT INS]
     849                    ;* --------------------------------------------------------------------------*
     850                    ||$C$L13||:    
     851                            .dwendtag $C$DW$65
     852                    
     853                            .dwpsn  file "C:/TI_ARM_Tiva_Projects/Source/event_groups.c",line 359,column 2,is_stmt,isa 1
     854                    $C$DW$69        .dwtag  DW_TAG_TI_branch
     855                            .dwattr $C$DW$69, DW_AT_low_pc(0x00)
     856                            .dwattr $C$DW$69, DW_AT_name("xTaskResumeAll")
     857                            .dwattr $C$DW$69, DW_AT_TI_call
     858                    
     859 00000172 FFFEF7FF!         BL        xTaskResumeAll        ; [DPU_3_PIPE] |359|  ; [KEEP 32-BIT INS]
     860                            ; CALL OCCURS {xTaskResumeAll }  ; [] |359| 
     861 00000176 9008              STR       A1, [SP, #32]         ; [DPU_3_PIPE] |359|  ; [ORIG 16-BIT INS]
     862                            .dwpsn  file "C:/TI_ARM_Tiva_Projects/Source/event_groups.c",line 361,column 2,is_stmt,isa 1
     863 00000178 980C              LDR       A1, [SP, #48]         ; [DPU_3_PIPE] |361|  ; [ORIG 16-BIT INS]
     864 0000017a 2800              CMP       A1, #0                ; [DPU_3_PIPE] |361|  ; [ORIG 16-BIT INS]
     865 0000017c D02A              BEQ       ||$C$L17||            ; [DPU_3_PIPE] |361|  ; [ORIG 16-BIT INS]
     866                            ; BRANCHCC OCCURS {||$C$L17||}   ; [] |361| 
     867                    ;* --------------------------------------------------------------------------*
     868                            .dwpsn  file "C:/TI_ARM_Tiva_Projects/Source/event_groups.c",line 363,column 3,is_stmt,isa 1
     869 0000017e 9808              LDR       A1, [SP, #32]         ; [DPU_3_PIPE] |363|  ; [ORIG 16-BIT INS]
     870 00000180 B938              CBNZ      A1, ||$C$L14||        ; []  ; [ORIG 16-BIT INS]
     871                            ; BRANCHCC OCCURS {||$C$L14||}   ; [] |363| 
     872                    ;* --------------------------------------------------------------------------*
     873                            .dwpsn  file "C:/TI_ARM_Tiva_Projects/Source/event_groups.c",line 365,column 4,is_stmt,isa 1
     874 00000182 495F              LDR       A2, $C$CON1           ; [DPU_3_PIPE] |365|  ; [ORIG 16-BIT INS]
     875 00000184 5080F04F          MOV       A1, #268435456        ; [DPU_3_PIPE] |365|  ; [KEEP 32-BIT INS]
     876 00000188 6008              STR       A1, [A2, #0]          ; [DPU_3_PIPE] |365|  ; [ORIG 16-BIT INS]
     877 0000018a 8F4FF3BF          dsb ; [KEEP 32-BIT INS]
     878 0000018e 8F6FF3BF          isb ; [KEEP 32-BIT INS]
     879                            .dwpsn  file "C:/TI_ARM_Tiva_Projects/Source/event_groups.c",line 366,column 3,is_stmt,isa 1
     880                    ;* --------------------------------------------------------------------------*
TI ARM Assembler PC v15.12.1 Tue Oct 18 10:42:40 2016

Tools Copyright (c) 1996-2015 Texas Instruments Incorporated
event_groups.asm                                                     PAGE   17

     881 00000192           ||$C$L14||:    
     882                            .dwpsn  file "C:/TI_ARM_Tiva_Projects/Source/event_groups.c",line 376,column 3,is_stmt,isa 1
     883                    $C$DW$70        .dwtag  DW_TAG_TI_branch
     884                            .dwattr $C$DW$70, DW_AT_low_pc(0x00)
     885                            .dwattr $C$DW$70, DW_AT_name("uxTaskResetEventItemValue")
     886                            .dwattr $C$DW$70, DW_AT_TI_call
     887                    
     888 00000192 FFFEF7FF!         BL        uxTaskResetEventItemValue ; [DPU_3_PIPE] |376|  ; [KEEP 32-BIT INS]
     889                            ; CALL OCCURS {uxTaskResetEventItemValue }  ; [] |376| 
     890 00000196 9005              STR       A1, [SP, #20]         ; [DPU_3_PIPE] |376|  ; [ORIG 16-BIT INS]
     891                            .dwpsn  file "C:/TI_ARM_Tiva_Projects/Source/event_groups.c",line 378,column 3,is_stmt,isa 1
     892 00000198 9805              LDR       A1, [SP, #20]         ; [DPU_3_PIPE] |378|  ; [ORIG 16-BIT INS]
     893 0000019a 0E80              LSRS      A1, A1, #26           ; [DPU_3_PIPE] |378|  ; [ORIG 16-BIT INS]
     894 0000019c D216              BCS       ||$C$L16||            ; [DPU_3_PIPE] |378|  ; [ORIG 16-BIT INS]
     895                            ; BRANCHCC OCCURS {||$C$L16||}   ; [] |378| 
     896                    ;* --------------------------------------------------------------------------*
     897                            .dwpsn  file "C:/TI_ARM_Tiva_Projects/Source/event_groups.c",line 380,column 4,is_stmt,isa 1
     898                    $C$DW$71        .dwtag  DW_TAG_TI_branch
     899                            .dwattr $C$DW$71, DW_AT_low_pc(0x00)
     900                            .dwattr $C$DW$71, DW_AT_name("vPortEnterCritical")
     901                            .dwattr $C$DW$71, DW_AT_TI_call
     902                    
     903 0000019e FFFEF7FF!         BL        vPortEnterCritical    ; [DPU_3_PIPE] |380|  ; [KEEP 32-BIT INS]
     904                            ; CALL OCCURS {vPortEnterCritical }  ; [] |380| 
     905                            .dwpsn  file "C:/TI_ARM_Tiva_Projects/Source/event_groups.c",line 383,column 5,is_stmt,isa 1
     906 000001a2 9804              LDR       A1, [SP, #16]         ; [DPU_3_PIPE] |383|  ; [ORIG 16-BIT INS]
     907 000001a4 6800              LDR       A1, [A1, #0]          ; [DPU_3_PIPE] |383|  ; [ORIG 16-BIT INS]
     908 000001a6 9005              STR       A1, [SP, #20]         ; [DPU_3_PIPE] |383|  ; [ORIG 16-BIT INS]
     909                            .dwpsn  file "C:/TI_ARM_Tiva_Projects/Source/event_groups.c",line 387,column 5,is_stmt,isa 1
     910 000001a8 9901              LDR       A2, [SP, #4]          ; [DPU_3_PIPE] |387|  ; [ORIG 16-BIT INS]
     911 000001aa 9A03              LDR       A3, [SP, #12]         ; [DPU_3_PIPE] |387|  ; [ORIG 16-BIT INS]
     912 000001ac 9805              LDR       A1, [SP, #20]         ; [DPU_3_PIPE] |387|  ; [ORIG 16-BIT INS]
     913                    $C$DW$72        .dwtag  DW_TAG_TI_branch
     914                            .dwattr $C$DW$72, DW_AT_low_pc(0x00)
     915                            .dwattr $C$DW$72, DW_AT_name("prvTestWaitCondition")
     916                            .dwattr $C$DW$72, DW_AT_TI_call
     917                    
     918 000001ae F8D3F000          BL        prvTestWaitCondition  ; [DPU_3_PIPE] |387|  ; [KEEP 32-BIT INS]
     919                            ; CALL OCCURS {prvTestWaitCondition }  ; [] |387| 
     920 000001b2 B138              CBZ       A1, ||$C$L15||        ; []  ; [ORIG 16-BIT INS]
     921                            ; BRANCHCC OCCURS {||$C$L15||}   ; [] |387| 
     922                    ;* --------------------------------------------------------------------------*
     923                            .dwpsn  file "C:/TI_ARM_Tiva_Projects/Source/event_groups.c",line 389,column 6,is_stmt,isa 1
     924 000001b4 9802              LDR       A1, [SP, #8]          ; [DPU_3_PIPE] |389|  ; [ORIG 16-BIT INS]
     925 000001b6 B128              CBZ       A1, ||$C$L15||        ; []  ; [ORIG 16-BIT INS]
     926                            ; BRANCHCC OCCURS {||$C$L15||}   ; [] |389| 
     927                    ;* --------------------------------------------------------------------------*
     928                            .dwpsn  file "C:/TI_ARM_Tiva_Projects/Source/event_groups.c",line 391,column 7,is_stmt,isa 1
     929 000001b8 9904              LDR       A2, [SP, #16]         ; [DPU_3_PIPE] |391|  ; [ORIG 16-BIT INS]
     930 000001ba 9A01              LDR       A3, [SP, #4]          ; [DPU_3_PIPE] |391|  ; [ORIG 16-BIT INS]
     931 000001bc 6808              LDR       A1, [A2, #0]          ; [DPU_3_PIPE] |391|  ; [ORIG 16-BIT INS]
     932 000001be 4390              BICS      A1, A1, A3            ; [DPU_3_PIPE] |391|  ; [ORIG 16-BIT INS]
     933 000001c0 6008              STR       A1, [A2, #0]          ; [DPU_3_PIPE] |391|  ; [ORIG 16-BIT INS]
     934                            .dwpsn  file "C:/TI_ARM_Tiva_Projects/Source/event_groups.c",line 392,column 6,is_stmt,isa 1
     935 000001c2 E7FF              B         ||$C$L15||            ; [DPU_3_PIPE] |392|  ; [ORIG 16-BIT INS]
TI ARM Assembler PC v15.12.1 Tue Oct 18 10:42:40 2016

Tools Copyright (c) 1996-2015 Texas Instruments Incorporated
event_groups.asm                                                     PAGE   18

     936                            ; BRANCH OCCURS {||$C$L15||}     ; [] |392| 
     937                    ;* --------------------------------------------------------------------------*
     938                    ;* --------------------------------------------------------------------------*
     939 000001c4           ||$C$L15||:    
     940                            .dwpsn  file "C:/TI_ARM_Tiva_Projects/Source/event_groups.c",line 403,column 4,is_stmt,isa 1
     941                    $C$DW$73        .dwtag  DW_TAG_TI_branch
     942                            .dwattr $C$DW$73, DW_AT_low_pc(0x00)
     943                            .dwattr $C$DW$73, DW_AT_name("vPortExitCritical")
     944                            .dwattr $C$DW$73, DW_AT_TI_call
     945                    
     946 000001c4 FFFEF7FF!         BL        vPortExitCritical     ; [DPU_3_PIPE] |403|  ; [KEEP 32-BIT INS]
     947                            ; CALL OCCURS {vPortExitCritical }  ; [] |403| 
     948                            .dwpsn  file "C:/TI_ARM_Tiva_Projects/Source/event_groups.c",line 406,column 4,is_stmt,isa 1
     949 000001c8 2000              MOVS      A1, #0                ; [DPU_3_PIPE] |406|  ; [ORIG 16-BIT INS]
     950 000001ca 9009              STR       A1, [SP, #36]         ; [DPU_3_PIPE] |406|  ; [ORIG 16-BIT INS]
     951                            .dwpsn  file "C:/TI_ARM_Tiva_Projects/Source/event_groups.c",line 407,column 3,is_stmt,isa 1
     952                    ;* --------------------------------------------------------------------------*
     953 000001cc           ||$C$L16||:    
     954                            .dwpsn  file "C:/TI_ARM_Tiva_Projects/Source/event_groups.c",line 414,column 3,is_stmt,isa 1
     955 000001cc 9805              LDR       A1, [SP, #20]         ; [DPU_3_PIPE] |414|  ; [ORIG 16-BIT INS]
     956 000001ce 407FF020          BIC       A1, A1, #-16777216    ; [DPU_3_PIPE] |414|  ; [KEEP 32-BIT INS]
     957 000001d2 9005              STR       A1, [SP, #20]         ; [DPU_3_PIPE] |414|  ; [ORIG 16-BIT INS]
     958                    ;* --------------------------------------------------------------------------*
     959 000001d4           ||$C$L17||:    
     960                            .dwpsn  file "C:/TI_ARM_Tiva_Projects/Source/event_groups.c",line 416,column 2,is_stmt,isa 1
     961                            .dwpsn  file "C:/TI_ARM_Tiva_Projects/Source/event_groups.c",line 418,column 2,is_stmt,isa 1
     962 000001d4 9805              LDR       A1, [SP, #20]         ; [DPU_3_PIPE] |418|  ; [ORIG 16-BIT INS]
     963                            .dwpsn  file "C:/TI_ARM_Tiva_Projects/Source/event_groups.c",line 419,column 1,is_stmt,isa 1
     964 000001d6 B00B              ADD       SP, SP, #44           ; [DPU_3_PIPE]  ; [ORIG 16-BIT INS]
     965                            .dwcfi  cfa_offset, 4
     966                    $C$DW$74        .dwtag  DW_TAG_TI_branch
     967                            .dwattr $C$DW$74, DW_AT_low_pc(0x00)
     968                            .dwattr $C$DW$74, DW_AT_TI_return
     969                    
     970 000001d8 BD00              POP       {PC}                  ; [DPU_3_PIPE]  ; [ORIG 16-BIT INS]
     971                            .dwcfi  cfa_offset, 0
     972                            ; BRANCH OCCURS                  ; [] 
     973                            .dwattr $C$DW$48, DW_AT_TI_end_file("C:/TI_ARM_Tiva_Projects/Source/event_groups.c")
     974                            .dwattr $C$DW$48, DW_AT_TI_end_line(0x1a3)
     975                            .dwattr $C$DW$48, DW_AT_TI_end_column(0x01)
     976                            .dwendentry
     977                            .dwendtag $C$DW$48
     978                    
     979 000001da                   .sect   ".text"
     980                            .clink
     981                            .thumbfunc xEventGroupClearBits
     982 000001da                   .thumb
     983                            .global xEventGroupClearBits
     984                    
     985                    $C$DW$75        .dwtag  DW_TAG_subprogram
     986                            .dwattr $C$DW$75, DW_AT_name("xEventGroupClearBits")
     987                            .dwattr $C$DW$75, DW_AT_low_pc(xEventGroupClearBits)
     988                            .dwattr $C$DW$75, DW_AT_high_pc(0x00)
     989                            .dwattr $C$DW$75, DW_AT_TI_symbol_name("xEventGroupClearBits")
     990                            .dwattr $C$DW$75, DW_AT_external
TI ARM Assembler PC v15.12.1 Tue Oct 18 10:42:40 2016

Tools Copyright (c) 1996-2015 Texas Instruments Incorporated
event_groups.asm                                                     PAGE   19

     991                            .dwattr $C$DW$75, DW_AT_type(*$C$DW$T$29)
     992                            .dwattr $C$DW$75, DW_AT_TI_begin_file("C:/TI_ARM_Tiva_Projects/Source/event_groups.c")
     993                            .dwattr $C$DW$75, DW_AT_TI_begin_line(0x1a6)
     994                            .dwattr $C$DW$75, DW_AT_TI_begin_column(0x0d)
     995                            .dwattr $C$DW$75, DW_AT_decl_file("C:/TI_ARM_Tiva_Projects/Source/event_groups.c")
     996                            .dwattr $C$DW$75, DW_AT_decl_line(0x1a6)
     997                            .dwattr $C$DW$75, DW_AT_decl_column(0x0d)
     998                            .dwattr $C$DW$75, DW_AT_TI_max_frame_size(0x18)
     999                            .dwpsn  file "C:/TI_ARM_Tiva_Projects/Source/event_groups.c",line 423,column 1,is_stmt,address
    1000                    
    1001                            .dwfde $C$DW$CIE, xEventGroupClearBits
    1002                    $C$DW$76        .dwtag  DW_TAG_formal_parameter
    1003                            .dwattr $C$DW$76, DW_AT_name("xEventGroup")
    1004                            .dwattr $C$DW$76, DW_AT_TI_symbol_name("xEventGroup")
    1005                            .dwattr $C$DW$76, DW_AT_type(*$C$DW$T$69)
    1006                            .dwattr $C$DW$76, DW_AT_location[DW_OP_reg0]
    1007                    
    1008                    $C$DW$77        .dwtag  DW_TAG_formal_parameter
    1009                            .dwattr $C$DW$77, DW_AT_name("uxBitsToClear")
    1010                            .dwattr $C$DW$77, DW_AT_TI_symbol_name("uxBitsToClear")
    1011                            .dwattr $C$DW$77, DW_AT_type(*$C$DW$T$112)
    1012                            .dwattr $C$DW$77, DW_AT_location[DW_OP_reg1]
    1013                    
    1014                    
    1015                    ;*****************************************************************************
    1016                    ;* FUNCTION NAME: xEventGroupClearBits                                       *
    1017                    ;*                                                                           *
    1018                    ;*   Regs Modified     : A1,A2,A3,A4,V9,SP,LR,SR,D0,D0_hi,D1,D1_hi,D2,D2_hi, *
    1019                    ;*                           D3,D3_hi,D4,D4_hi,D5,D5_hi,D6,D6_hi,D7,D7_hi,   *
    1020                    ;*                           FPEXC,FPSCR                                     *
    1021                    ;*   Regs Used         : A1,A2,A3,A4,V9,SP,LR,SR,D0,D0_hi,D1,D1_hi,D2,D2_hi, *
    1022                    ;*                           D3,D3_hi,D4,D4_hi,D5,D5_hi,D6,D6_hi,D7,D7_hi,   *
    1023                    ;*                           FPEXC,FPSCR                                     *
    1024                    ;*   Local Frame Size  : 0 Args + 16 Auto + 4 Save = 20 byte                 *
    1025                    ;*****************************************************************************
    1026 000001da           xEventGroupClearBits:
    1027                    ;* --------------------------------------------------------------------------*
    1028                            .dwcfi  cfa_offset, 0
    1029 000001da B500              PUSH      {LR}                  ; [DPU_3_PIPE]  ; [ORIG 16-BIT INS]
    1030                            .dwcfi  cfa_offset, 4
    1031                            .dwcfi  save_reg_to_mem, 14, -4
    1032 000001dc 0D14F1AD          SUB       SP, SP, #20           ; [DPU_3_PIPE]  ; [KEEP 32-BIT INS]
    1033                            .dwcfi  cfa_offset, 24
    1034                    $C$DW$78        .dwtag  DW_TAG_variable
    1035                            .dwattr $C$DW$78, DW_AT_name("xEventGroup")
    1036                            .dwattr $C$DW$78, DW_AT_TI_symbol_name("xEventGroup")
    1037                            .dwattr $C$DW$78, DW_AT_type(*$C$DW$T$69)
    1038                            .dwattr $C$DW$78, DW_AT_location[DW_OP_breg13 0]
    1039                    
    1040                    $C$DW$79        .dwtag  DW_TAG_variable
    1041                            .dwattr $C$DW$79, DW_AT_name("uxBitsToClear")
    1042                            .dwattr $C$DW$79, DW_AT_TI_symbol_name("uxBitsToClear")
    1043                            .dwattr $C$DW$79, DW_AT_type(*$C$DW$T$112)
    1044                            .dwattr $C$DW$79, DW_AT_location[DW_OP_breg13 4]
    1045                    
TI ARM Assembler PC v15.12.1 Tue Oct 18 10:42:40 2016

Tools Copyright (c) 1996-2015 Texas Instruments Incorporated
event_groups.asm                                                     PAGE   20

    1046                    $C$DW$80        .dwtag  DW_TAG_variable
    1047                            .dwattr $C$DW$80, DW_AT_name("pxEventBits")
    1048                            .dwattr $C$DW$80, DW_AT_TI_symbol_name("pxEventBits")
    1049                            .dwattr $C$DW$80, DW_AT_type(*$C$DW$T$156)
    1050                            .dwattr $C$DW$80, DW_AT_location[DW_OP_breg13 8]
    1051                    
    1052                    $C$DW$81        .dwtag  DW_TAG_variable
    1053                            .dwattr $C$DW$81, DW_AT_name("uxReturn")
    1054                            .dwattr $C$DW$81, DW_AT_TI_symbol_name("uxReturn")
    1055                            .dwattr $C$DW$81, DW_AT_type(*$C$DW$T$29)
    1056                            .dwattr $C$DW$81, DW_AT_location[DW_OP_breg13 12]
    1057                    
    1058 000001e0 9101              STR       A2, [SP, #4]          ; [DPU_3_PIPE] |423|  ; [ORIG 16-BIT INS]
    1059 000001e2 9000              STR       A1, [SP, #0]          ; [DPU_3_PIPE] |423|  ; [ORIG 16-BIT INS]
    1060                            .dwpsn  file "C:/TI_ARM_Tiva_Projects/Source/event_groups.c",line 424,column 27,is_stmt,isa 1
    1061 000001e4 9800              LDR       A1, [SP, #0]          ; [DPU_3_PIPE] |424|  ; [ORIG 16-BIT INS]
    1062 000001e6 9002              STR       A1, [SP, #8]          ; [DPU_3_PIPE] |424|  ; [ORIG 16-BIT INS]
    1063                            .dwpsn  file "C:/TI_ARM_Tiva_Projects/Source/event_groups.c",line 432,column 2,is_stmt,isa 1
    1064                    $C$DW$82        .dwtag  DW_TAG_TI_branch
    1065                            .dwattr $C$DW$82, DW_AT_low_pc(0x00)
    1066                            .dwattr $C$DW$82, DW_AT_name("vPortEnterCritical")
    1067                            .dwattr $C$DW$82, DW_AT_TI_call
    1068                    
    1069 000001e8 FFFEF7FF!         BL        vPortEnterCritical    ; [DPU_3_PIPE] |432|  ; [KEEP 32-BIT INS]
    1070                            ; CALL OCCURS {vPortEnterCritical }  ; [] |432| 
    1071                            .dwpsn  file "C:/TI_ARM_Tiva_Projects/Source/event_groups.c",line 438,column 3,is_stmt,isa 1
    1072 000001ec 9802              LDR       A1, [SP, #8]          ; [DPU_3_PIPE] |438|  ; [ORIG 16-BIT INS]
    1073 000001ee 6800              LDR       A1, [A1, #0]          ; [DPU_3_PIPE] |438|  ; [ORIG 16-BIT INS]
    1074 000001f0 9003              STR       A1, [SP, #12]         ; [DPU_3_PIPE] |438|  ; [ORIG 16-BIT INS]
    1075                            .dwpsn  file "C:/TI_ARM_Tiva_Projects/Source/event_groups.c",line 441,column 3,is_stmt,isa 1
    1076 000001f2 9902              LDR       A2, [SP, #8]          ; [DPU_3_PIPE] |441|  ; [ORIG 16-BIT INS]
    1077 000001f4 9A01              LDR       A3, [SP, #4]          ; [DPU_3_PIPE] |441|  ; [ORIG 16-BIT INS]
    1078 000001f6 6808              LDR       A1, [A2, #0]          ; [DPU_3_PIPE] |441|  ; [ORIG 16-BIT INS]
    1079 000001f8 4390              BICS      A1, A1, A3            ; [DPU_3_PIPE] |441|  ; [ORIG 16-BIT INS]
    1080 000001fa 6008              STR       A1, [A2, #0]          ; [DPU_3_PIPE] |441|  ; [ORIG 16-BIT INS]
    1081                            .dwpsn  file "C:/TI_ARM_Tiva_Projects/Source/event_groups.c",line 443,column 2,is_stmt,isa 1
    1082                    $C$DW$83        .dwtag  DW_TAG_TI_branch
    1083                            .dwattr $C$DW$83, DW_AT_low_pc(0x00)
    1084                            .dwattr $C$DW$83, DW_AT_name("vPortExitCritical")
    1085                            .dwattr $C$DW$83, DW_AT_TI_call
    1086                    
    1087 000001fc FFFEF7FF!         BL        vPortExitCritical     ; [DPU_3_PIPE] |443|  ; [KEEP 32-BIT INS]
    1088                            ; CALL OCCURS {vPortExitCritical }  ; [] |443| 
    1089                            .dwpsn  file "C:/TI_ARM_Tiva_Projects/Source/event_groups.c",line 445,column 2,is_stmt,isa 1
    1090 00000200 9803              LDR       A1, [SP, #12]         ; [DPU_3_PIPE] |445|  ; [ORIG 16-BIT INS]
    1091                            .dwpsn  file "C:/TI_ARM_Tiva_Projects/Source/event_groups.c",line 446,column 1,is_stmt,isa 1
    1092 00000202 B005              ADD       SP, SP, #20           ; [DPU_3_PIPE]  ; [ORIG 16-BIT INS]
    1093                            .dwcfi  cfa_offset, 4
    1094                    $C$DW$84        .dwtag  DW_TAG_TI_branch
    1095                            .dwattr $C$DW$84, DW_AT_low_pc(0x00)
    1096                            .dwattr $C$DW$84, DW_AT_TI_return
    1097                    
    1098 00000204 BD00              POP       {PC}                  ; [DPU_3_PIPE]  ; [ORIG 16-BIT INS]
    1099                            .dwcfi  cfa_offset, 0
    1100                            ; BRANCH OCCURS                  ; [] 
TI ARM Assembler PC v15.12.1 Tue Oct 18 10:42:40 2016

Tools Copyright (c) 1996-2015 Texas Instruments Incorporated
event_groups.asm                                                     PAGE   21

    1101                            .dwattr $C$DW$75, DW_AT_TI_end_file("C:/TI_ARM_Tiva_Projects/Source/event_groups.c")
    1102                            .dwattr $C$DW$75, DW_AT_TI_end_line(0x1be)
    1103                            .dwattr $C$DW$75, DW_AT_TI_end_column(0x01)
    1104                            .dwendentry
    1105                            .dwendtag $C$DW$75
    1106                    
    1107 00000206                   .sect   ".text"
    1108                            .clink
    1109                            .thumbfunc xEventGroupGetBitsFromISR
    1110 00000206                   .thumb
    1111                            .global xEventGroupGetBitsFromISR
    1112                    
    1113                    $C$DW$85        .dwtag  DW_TAG_subprogram
    1114                            .dwattr $C$DW$85, DW_AT_name("xEventGroupGetBitsFromISR")
    1115                            .dwattr $C$DW$85, DW_AT_low_pc(xEventGroupGetBitsFromISR)
    1116                            .dwattr $C$DW$85, DW_AT_high_pc(0x00)
    1117                            .dwattr $C$DW$85, DW_AT_TI_symbol_name("xEventGroupGetBitsFromISR")
    1118                            .dwattr $C$DW$85, DW_AT_external
    1119                            .dwattr $C$DW$85, DW_AT_type(*$C$DW$T$29)
    1120                            .dwattr $C$DW$85, DW_AT_TI_begin_file("C:/TI_ARM_Tiva_Projects/Source/event_groups.c")
    1121                            .dwattr $C$DW$85, DW_AT_TI_begin_line(0x1d0)
    1122                            .dwattr $C$DW$85, DW_AT_TI_begin_column(0x0d)
    1123                            .dwattr $C$DW$85, DW_AT_decl_file("C:/TI_ARM_Tiva_Projects/Source/event_groups.c")
    1124                            .dwattr $C$DW$85, DW_AT_decl_line(0x1d0)
    1125                            .dwattr $C$DW$85, DW_AT_decl_column(0x0d)
    1126                            .dwattr $C$DW$85, DW_AT_TI_max_frame_size(0x10)
    1127                            .dwpsn  file "C:/TI_ARM_Tiva_Projects/Source/event_groups.c",line 465,column 1,is_stmt,address
    1128                    
    1129                            .dwfde $C$DW$CIE, xEventGroupGetBitsFromISR
    1130                    $C$DW$86        .dwtag  DW_TAG_formal_parameter
    1131                            .dwattr $C$DW$86, DW_AT_name("xEventGroup")
    1132                            .dwattr $C$DW$86, DW_AT_TI_symbol_name("xEventGroup")
    1133                            .dwattr $C$DW$86, DW_AT_type(*$C$DW$T$69)
    1134                            .dwattr $C$DW$86, DW_AT_location[DW_OP_reg0]
    1135                    
    1136                    
    1137                    ;*****************************************************************************
    1138                    ;* FUNCTION NAME: xEventGroupGetBitsFromISR                                  *
    1139                    ;*                                                                           *
    1140                    ;*   Regs Modified     : A1,A2,SP,SR                                         *
    1141                    ;*   Regs Used         : A1,A2,SP,LR,SR                                      *
    1142                    ;*   Local Frame Size  : 0 Args + 16 Auto + 0 Save = 16 byte                 *
    1143                    ;*****************************************************************************
    1144 00000206           xEventGroupGetBitsFromISR:
    1145                    ;* --------------------------------------------------------------------------*
    1146                            .dwcfi  cfa_offset, 0
    1147 00000206 0D10F1AD          SUB       SP, SP, #16           ; [DPU_3_PIPE]  ; [KEEP 32-BIT INS]
    1148                            .dwcfi  cfa_offset, 16
    1149                    $C$DW$87        .dwtag  DW_TAG_variable
    1150                            .dwattr $C$DW$87, DW_AT_name("xEventGroup")
    1151                            .dwattr $C$DW$87, DW_AT_TI_symbol_name("xEventGroup")
    1152                            .dwattr $C$DW$87, DW_AT_type(*$C$DW$T$69)
    1153                            .dwattr $C$DW$87, DW_AT_location[DW_OP_breg13 0]
    1154                    
    1155                    $C$DW$88        .dwtag  DW_TAG_variable
TI ARM Assembler PC v15.12.1 Tue Oct 18 10:42:40 2016

Tools Copyright (c) 1996-2015 Texas Instruments Incorporated
event_groups.asm                                                     PAGE   22

    1156                            .dwattr $C$DW$88, DW_AT_name("uxSavedInterruptStatus")
    1157                            .dwattr $C$DW$88, DW_AT_TI_symbol_name("uxSavedInterruptStatus")
    1158                            .dwattr $C$DW$88, DW_AT_type(*$C$DW$T$31)
    1159                            .dwattr $C$DW$88, DW_AT_location[DW_OP_breg13 4]
    1160                    
    1161                    $C$DW$89        .dwtag  DW_TAG_variable
    1162                            .dwattr $C$DW$89, DW_AT_name("pxEventBits")
    1163                            .dwattr $C$DW$89, DW_AT_TI_symbol_name("pxEventBits")
    1164                            .dwattr $C$DW$89, DW_AT_type(*$C$DW$T$156)
    1165                            .dwattr $C$DW$89, DW_AT_location[DW_OP_breg13 8]
    1166                    
    1167                    $C$DW$90        .dwtag  DW_TAG_variable
    1168                            .dwattr $C$DW$90, DW_AT_name("uxReturn")
    1169                            .dwattr $C$DW$90, DW_AT_TI_symbol_name("uxReturn")
    1170                            .dwattr $C$DW$90, DW_AT_type(*$C$DW$T$29)
    1171                            .dwattr $C$DW$90, DW_AT_location[DW_OP_breg13 12]
    1172                    
    1173 0000020a 9000              STR       A1, [SP, #0]          ; [DPU_3_PIPE] |465|  ; [ORIG 16-BIT INS]
    1174                            .dwpsn  file "C:/TI_ARM_Tiva_Projects/Source/event_groups.c",line 467,column 27,is_stmt,isa 1
    1175 0000020c 9800              LDR       A1, [SP, #0]          ; [DPU_3_PIPE] |467|  ; [ORIG 16-BIT INS]
    1176 0000020e 9002              STR       A1, [SP, #8]          ; [DPU_3_PIPE] |467|  ; [ORIG 16-BIT INS]
    1177                            .dwpsn  file "C:/TI_ARM_Tiva_Projects/Source/event_groups.c",line 470,column 2,is_stmt,isa 1
    1178 00000210 8111F3EF          MRS       A2, BASEPRI           ; [DPU_3_PIPE] |470|  ; [KEEP 32-BIT INS]
    1179 00000214 20A0              MOVS      A1, #160              ; [DPU_3_PIPE] |470|  ; [ORIG 16-BIT INS]
    1180 00000216 8811F380          MSR       BASEPRI, A1           ; [DPU_3_PIPE] |470|  ; [KEEP 32-BIT INS]
    1181 0000021a 9101              STR       A2, [SP, #4]          ; [DPU_3_PIPE] |470|  ; [ORIG 16-BIT INS]
    1182                            .dwpsn  file "C:/TI_ARM_Tiva_Projects/Source/event_groups.c",line 470,column 27,is_stmt,isa 1
    1183 0000021c 8F4FF3BF          dsb ; [KEEP 32-BIT INS]
    1184 00000220 8F6FF3BF          isb ; [KEEP 32-BIT INS]
    1185                            .dwpsn  file "C:/TI_ARM_Tiva_Projects/Source/event_groups.c",line 472,column 3,is_stmt,isa 1
    1186 00000224 9802              LDR       A1, [SP, #8]          ; [DPU_3_PIPE] |472|  ; [ORIG 16-BIT INS]
    1187 00000226 6800              LDR       A1, [A1, #0]          ; [DPU_3_PIPE] |472|  ; [ORIG 16-BIT INS]
    1188 00000228 9003              STR       A1, [SP, #12]         ; [DPU_3_PIPE] |472|  ; [ORIG 16-BIT INS]
    1189                            .dwpsn  file "C:/TI_ARM_Tiva_Projects/Source/event_groups.c",line 474,column 2,is_stmt,isa 1
    1190 0000022a 9801              LDR       A1, [SP, #4]          ; [DPU_3_PIPE] |474|  ; [ORIG 16-BIT INS]
    1191 0000022c 8811F380          MSR       BASEPRI, A1           ; [DPU_3_PIPE] |474|  ; [KEEP 32-BIT INS]
    1192                            .dwpsn  file "C:/TI_ARM_Tiva_Projects/Source/event_groups.c",line 476,column 2,is_stmt,isa 1
    1193 00000230 9803              LDR       A1, [SP, #12]         ; [DPU_3_PIPE] |476|  ; [ORIG 16-BIT INS]
    1194                            .dwpsn  file "C:/TI_ARM_Tiva_Projects/Source/event_groups.c",line 477,column 1,is_stmt,isa 1
    1195 00000232 B004              ADD       SP, SP, #16           ; [DPU_3_PIPE]  ; [ORIG 16-BIT INS]
    1196                            .dwcfi  cfa_offset, 0
    1197                    $C$DW$91        .dwtag  DW_TAG_TI_branch
    1198                            .dwattr $C$DW$91, DW_AT_low_pc(0x00)
    1199                            .dwattr $C$DW$91, DW_AT_TI_return
    1200                    
    1201 00000234 4770              BX        LR                    ; [DPU_3_PIPE]  ; [ORIG 16-BIT INS]
    1202                            ; BRANCH OCCURS                  ; [] 
    1203                            .dwattr $C$DW$85, DW_AT_TI_end_file("C:/TI_ARM_Tiva_Projects/Source/event_groups.c")
    1204                            .dwattr $C$DW$85, DW_AT_TI_end_line(0x1dd)
    1205                            .dwattr $C$DW$85, DW_AT_TI_end_column(0x01)
    1206                            .dwendentry
    1207                            .dwendtag $C$DW$85
    1208                    
    1209 00000236                   .sect   ".text"
    1210                            .clink
TI ARM Assembler PC v15.12.1 Tue Oct 18 10:42:40 2016

Tools Copyright (c) 1996-2015 Texas Instruments Incorporated
event_groups.asm                                                     PAGE   23

    1211                            .thumbfunc xEventGroupSetBits
    1212 00000236                   .thumb
    1213                            .global xEventGroupSetBits
    1214                    
    1215                    $C$DW$92        .dwtag  DW_TAG_subprogram
    1216                            .dwattr $C$DW$92, DW_AT_name("xEventGroupSetBits")
    1217                            .dwattr $C$DW$92, DW_AT_low_pc(xEventGroupSetBits)
    1218                            .dwattr $C$DW$92, DW_AT_high_pc(0x00)
    1219                            .dwattr $C$DW$92, DW_AT_TI_symbol_name("xEventGroupSetBits")
    1220                            .dwattr $C$DW$92, DW_AT_external
    1221                            .dwattr $C$DW$92, DW_AT_type(*$C$DW$T$29)
    1222                            .dwattr $C$DW$92, DW_AT_TI_begin_file("C:/TI_ARM_Tiva_Projects/Source/event_groups.c")
    1223                            .dwattr $C$DW$92, DW_AT_TI_begin_line(0x1e0)
    1224                            .dwattr $C$DW$92, DW_AT_TI_begin_column(0x0d)
    1225                            .dwattr $C$DW$92, DW_AT_decl_file("C:/TI_ARM_Tiva_Projects/Source/event_groups.c")
    1226                            .dwattr $C$DW$92, DW_AT_decl_line(0x1e0)
    1227                            .dwattr $C$DW$92, DW_AT_decl_column(0x0d)
    1228                            .dwattr $C$DW$92, DW_AT_TI_max_frame_size(0x30)
    1229                            .dwpsn  file "C:/TI_ARM_Tiva_Projects/Source/event_groups.c",line 481,column 1,is_stmt,address
    1230                    
    1231                            .dwfde $C$DW$CIE, xEventGroupSetBits
    1232                    $C$DW$93        .dwtag  DW_TAG_formal_parameter
    1233                            .dwattr $C$DW$93, DW_AT_name("xEventGroup")
    1234                            .dwattr $C$DW$93, DW_AT_TI_symbol_name("xEventGroup")
    1235                            .dwattr $C$DW$93, DW_AT_type(*$C$DW$T$69)
    1236                            .dwattr $C$DW$93, DW_AT_location[DW_OP_reg0]
    1237                    
    1238                    $C$DW$94        .dwtag  DW_TAG_formal_parameter
    1239                            .dwattr $C$DW$94, DW_AT_name("uxBitsToSet")
    1240                            .dwattr $C$DW$94, DW_AT_TI_symbol_name("uxBitsToSet")
    1241                            .dwattr $C$DW$94, DW_AT_type(*$C$DW$T$112)
    1242                            .dwattr $C$DW$94, DW_AT_location[DW_OP_reg1]
    1243                    
    1244                    
    1245                    ;*****************************************************************************
    1246                    ;* FUNCTION NAME: xEventGroupSetBits                                         *
    1247                    ;*                                                                           *
    1248                    ;*   Regs Modified     : A1,A2,A3,A4,V9,SP,LR,SR,D0,D0_hi,D1,D1_hi,D2,D2_hi, *
    1249                    ;*                           D3,D3_hi,D4,D4_hi,D5,D5_hi,D6,D6_hi,D7,D7_hi,   *
    1250                    ;*                           FPEXC,FPSCR                                     *
    1251                    ;*   Regs Used         : A1,A2,A3,A4,V9,SP,LR,SR,D0,D0_hi,D1,D1_hi,D2,D2_hi, *
    1252                    ;*                           D3,D3_hi,D4,D4_hi,D5,D5_hi,D6,D6_hi,D7,D7_hi,   *
    1253                    ;*                           FPEXC,FPSCR                                     *
    1254                    ;*   Local Frame Size  : 0 Args + 44 Auto + 4 Save = 48 byte                 *
    1255                    ;*****************************************************************************
    1256 00000236           xEventGroupSetBits:
    1257                    ;* --------------------------------------------------------------------------*
    1258                            .dwcfi  cfa_offset, 0
    1259 00000236 B500              PUSH      {LR}                  ; [DPU_3_PIPE]  ; [ORIG 16-BIT INS]
    1260                            .dwcfi  cfa_offset, 4
    1261                            .dwcfi  save_reg_to_mem, 14, -4
    1262 00000238 0D2CF1AD          SUB       SP, SP, #44           ; [DPU_3_PIPE]  ; [KEEP 32-BIT INS]
    1263                            .dwcfi  cfa_offset, 48
    1264                    $C$DW$95        .dwtag  DW_TAG_variable
    1265                            .dwattr $C$DW$95, DW_AT_name("xEventGroup")
TI ARM Assembler PC v15.12.1 Tue Oct 18 10:42:40 2016

Tools Copyright (c) 1996-2015 Texas Instruments Incorporated
event_groups.asm                                                     PAGE   24

    1266                            .dwattr $C$DW$95, DW_AT_TI_symbol_name("xEventGroup")
    1267                            .dwattr $C$DW$95, DW_AT_type(*$C$DW$T$69)
    1268                            .dwattr $C$DW$95, DW_AT_location[DW_OP_breg13 0]
    1269                    
    1270                    $C$DW$96        .dwtag  DW_TAG_variable
    1271                            .dwattr $C$DW$96, DW_AT_name("uxBitsToSet")
    1272                            .dwattr $C$DW$96, DW_AT_TI_symbol_name("uxBitsToSet")
    1273                            .dwattr $C$DW$96, DW_AT_type(*$C$DW$T$112)
    1274                            .dwattr $C$DW$96, DW_AT_location[DW_OP_breg13 4]
    1275                    
    1276                    $C$DW$97        .dwtag  DW_TAG_variable
    1277                            .dwattr $C$DW$97, DW_AT_name("pxListItem")
    1278                            .dwattr $C$DW$97, DW_AT_TI_symbol_name("pxListItem")
    1279                            .dwattr $C$DW$97, DW_AT_type(*$C$DW$T$34)
    1280                            .dwattr $C$DW$97, DW_AT_location[DW_OP_breg13 8]
    1281                    
    1282                    $C$DW$98        .dwtag  DW_TAG_variable
    1283                            .dwattr $C$DW$98, DW_AT_name("pxNext")
    1284                            .dwattr $C$DW$98, DW_AT_TI_symbol_name("pxNext")
    1285                            .dwattr $C$DW$98, DW_AT_type(*$C$DW$T$34)
    1286                            .dwattr $C$DW$98, DW_AT_location[DW_OP_breg13 12]
    1287                    
    1288                    $C$DW$99        .dwtag  DW_TAG_variable
    1289                            .dwattr $C$DW$99, DW_AT_name("pxListEnd")
    1290                            .dwattr $C$DW$99, DW_AT_TI_symbol_name("pxListEnd")
    1291                            .dwattr $C$DW$99, DW_AT_type(*$C$DW$T$160)
    1292                            .dwattr $C$DW$99, DW_AT_location[DW_OP_breg13 16]
    1293                    
    1294                    $C$DW$100       .dwtag  DW_TAG_variable
    1295                            .dwattr $C$DW$100, DW_AT_name("pxList")
    1296                            .dwattr $C$DW$100, DW_AT_TI_symbol_name("pxList")
    1297                            .dwattr $C$DW$100, DW_AT_type(*$C$DW$T$77)
    1298                            .dwattr $C$DW$100, DW_AT_location[DW_OP_breg13 20]
    1299                    
    1300                    $C$DW$101       .dwtag  DW_TAG_variable
    1301                            .dwattr $C$DW$101, DW_AT_name("uxBitsToClear")
    1302                            .dwattr $C$DW$101, DW_AT_TI_symbol_name("uxBitsToClear")
    1303                            .dwattr $C$DW$101, DW_AT_type(*$C$DW$T$29)
    1304                            .dwattr $C$DW$101, DW_AT_location[DW_OP_breg13 24]
    1305                    
    1306                    $C$DW$102       .dwtag  DW_TAG_variable
    1307                            .dwattr $C$DW$102, DW_AT_name("uxBitsWaitedFor")
    1308                            .dwattr $C$DW$102, DW_AT_TI_symbol_name("uxBitsWaitedFor")
    1309                            .dwattr $C$DW$102, DW_AT_type(*$C$DW$T$29)
    1310                            .dwattr $C$DW$102, DW_AT_location[DW_OP_breg13 28]
    1311                    
    1312                    $C$DW$103       .dwtag  DW_TAG_variable
    1313                            .dwattr $C$DW$103, DW_AT_name("uxControlBits")
    1314                            .dwattr $C$DW$103, DW_AT_TI_symbol_name("uxControlBits")
    1315                            .dwattr $C$DW$103, DW_AT_type(*$C$DW$T$29)
    1316                            .dwattr $C$DW$103, DW_AT_location[DW_OP_breg13 32]
    1317                    
    1318                    $C$DW$104       .dwtag  DW_TAG_variable
    1319                            .dwattr $C$DW$104, DW_AT_name("pxEventBits")
    1320                            .dwattr $C$DW$104, DW_AT_TI_symbol_name("pxEventBits")
TI ARM Assembler PC v15.12.1 Tue Oct 18 10:42:40 2016

Tools Copyright (c) 1996-2015 Texas Instruments Incorporated
event_groups.asm                                                     PAGE   25

    1321                            .dwattr $C$DW$104, DW_AT_type(*$C$DW$T$156)
    1322                            .dwattr $C$DW$104, DW_AT_location[DW_OP_breg13 36]
    1323                    
    1324                    $C$DW$105       .dwtag  DW_TAG_variable
    1325                            .dwattr $C$DW$105, DW_AT_name("xMatchFound")
    1326                            .dwattr $C$DW$105, DW_AT_TI_symbol_name("xMatchFound")
    1327                            .dwattr $C$DW$105, DW_AT_type(*$C$DW$T$59)
    1328                            .dwattr $C$DW$105, DW_AT_location[DW_OP_breg13 40]
    1329                    
    1330 0000023c 9101              STR       A2, [SP, #4]          ; [DPU_3_PIPE] |481|  ; [ORIG 16-BIT INS]
    1331 0000023e 9000              STR       A1, [SP, #0]          ; [DPU_3_PIPE] |481|  ; [ORIG 16-BIT INS]
    1332                            .dwpsn  file "C:/TI_ARM_Tiva_Projects/Source/event_groups.c",line 485,column 27,is_stmt,isa 1
    1333 00000240 2000              MOVS      A1, #0                ; [DPU_3_PIPE] |485|  ; [ORIG 16-BIT INS]
    1334 00000242 9006              STR       A1, [SP, #24]         ; [DPU_3_PIPE] |485|  ; [ORIG 16-BIT INS]
    1335                            .dwpsn  file "C:/TI_ARM_Tiva_Projects/Source/event_groups.c",line 486,column 27,is_stmt,isa 1
    1336 00000244 9800              LDR       A1, [SP, #0]          ; [DPU_3_PIPE] |486|  ; [ORIG 16-BIT INS]
    1337 00000246 9009              STR       A1, [SP, #36]         ; [DPU_3_PIPE] |486|  ; [ORIG 16-BIT INS]
    1338                            .dwpsn  file "C:/TI_ARM_Tiva_Projects/Source/event_groups.c",line 487,column 24,is_stmt,isa 1
    1339 00000248 2000              MOVS      A1, #0                ; [DPU_3_PIPE] |487|  ; [ORIG 16-BIT INS]
    1340 0000024a 900A              STR       A1, [SP, #40]         ; [DPU_3_PIPE] |487|  ; [ORIG 16-BIT INS]
    1341                            .dwpsn  file "C:/TI_ARM_Tiva_Projects/Source/event_groups.c",line 494,column 2,is_stmt,isa 1
    1342 0000024c 9809              LDR       A1, [SP, #36]         ; [DPU_3_PIPE] |494|  ; [ORIG 16-BIT INS]
    1343 0000024e 1D00              ADDS      A1, A1, #4            ; [DPU_3_PIPE] |494|  ; [ORIG 16-BIT INS]
    1344 00000250 9005              STR       A1, [SP, #20]         ; [DPU_3_PIPE] |494|  ; [ORIG 16-BIT INS]
    1345                            .dwpsn  file "C:/TI_ARM_Tiva_Projects/Source/event_groups.c",line 495,column 2,is_stmt,isa 1
    1346 00000252 9805              LDR       A1, [SP, #20]         ; [DPU_3_PIPE] |495|  ; [ORIG 16-BIT INS]
    1347 00000254 3008              ADDS      A1, A1, #8            ; [DPU_3_PIPE] |495|  ; [ORIG 16-BIT INS]
    1348 00000256 9004              STR       A1, [SP, #16]         ; [DPU_3_PIPE] |495|  ; [ORIG 16-BIT INS]
    1349                            .dwpsn  file "C:/TI_ARM_Tiva_Projects/Source/event_groups.c",line 496,column 2,is_stmt,isa 1
    1350                    $C$DW$106       .dwtag  DW_TAG_TI_branch
    1351                            .dwattr $C$DW$106, DW_AT_low_pc(0x00)
    1352                            .dwattr $C$DW$106, DW_AT_name("vTaskSuspendAll")
    1353                            .dwattr $C$DW$106, DW_AT_TI_call
    1354                    
    1355 00000258 FFFEF7FF!         BL        vTaskSuspendAll       ; [DPU_3_PIPE] |496|  ; [KEEP 32-BIT INS]
    1356                            ; CALL OCCURS {vTaskSuspendAll }  ; [] |496| 
    1357                            .dwpsn  file "C:/TI_ARM_Tiva_Projects/Source/event_groups.c",line 500,column 3,is_stmt,isa 1
    1358 0000025c 9805              LDR       A1, [SP, #20]         ; [DPU_3_PIPE] |500|  ; [ORIG 16-BIT INS]
    1359 0000025e 68C0              LDR       A1, [A1, #12]         ; [DPU_3_PIPE] |500|  ; [ORIG 16-BIT INS]
    1360 00000260 9002              STR       A1, [SP, #8]          ; [DPU_3_PIPE] |500|  ; [ORIG 16-BIT INS]
    1361                            .dwpsn  file "C:/TI_ARM_Tiva_Projects/Source/event_groups.c",line 503,column 3,is_stmt,isa 1
    1362 00000262 9909              LDR       A2, [SP, #36]         ; [DPU_3_PIPE] |503|  ; [ORIG 16-BIT INS]
    1363 00000264 9801              LDR       A1, [SP, #4]          ; [DPU_3_PIPE] |503|  ; [ORIG 16-BIT INS]
    1364 00000266 680A              LDR       A3, [A2, #0]          ; [DPU_3_PIPE] |503|  ; [ORIG 16-BIT INS]
    1365 00000268 4310              ORRS      A1, A1, A3            ; [DPU_3_PIPE] |503|  ; [ORIG 16-BIT INS]
    1366 0000026a 6008              STR       A1, [A2, #0]          ; [DPU_3_PIPE] |503|  ; [ORIG 16-BIT INS]
    1367                            .dwpsn  file "C:/TI_ARM_Tiva_Projects/Source/event_groups.c",line 506,column 10,is_stmt,isa 1
    1368 0000026c 9804              LDR       A1, [SP, #16]         ; [DPU_3_PIPE] |506|  ; [ORIG 16-BIT INS]
    1369 0000026e 9902              LDR       A2, [SP, #8]          ; [DPU_3_PIPE] |506|  ; [ORIG 16-BIT INS]
    1370 00000270 4288              CMP       A1, A2                ; [DPU_3_PIPE] |506|  ; [ORIG 16-BIT INS]
    1371 00000272 D039              BEQ       ||$C$L23||            ; [DPU_3_PIPE] |506|  ; [ORIG 16-BIT INS]
    1372                            ; BRANCHCC OCCURS {||$C$L23||}   ; [] |506| 
    1373                    ;* --------------------------------------------------------------------------*
    1374                    ;*   BEGIN LOOP ||$C$L18||
    1375                    ;*
TI ARM Assembler PC v15.12.1 Tue Oct 18 10:42:40 2016

Tools Copyright (c) 1996-2015 Texas Instruments Incorporated
event_groups.asm                                                     PAGE   26

    1376                    ;*   Loop source line                : 506
    1377                    ;*   Loop closing brace source line  : 562
    1378                    ;*   Known Minimum Trip Count        : 1
    1379                    ;*   Known Maximum Trip Count        : 4294967295
    1380                    ;*   Known Max Trip Count Factor     : 1
    1381                    ;* --------------------------------------------------------------------------*
    1382 00000274           ||$C$L18||:    
    1383                            .dwpsn  file "C:/TI_ARM_Tiva_Projects/Source/event_groups.c",line 508,column 4,is_stmt,isa 1
    1384 00000274 9802              LDR       A1, [SP, #8]          ; [DPU_3_PIPE] |508|  ; [ORIG 16-BIT INS]
    1385 00000276 6840              LDR       A1, [A1, #4]          ; [DPU_3_PIPE] |508|  ; [ORIG 16-BIT INS]
    1386 00000278 9003              STR       A1, [SP, #12]         ; [DPU_3_PIPE] |508|  ; [ORIG 16-BIT INS]
    1387                            .dwpsn  file "C:/TI_ARM_Tiva_Projects/Source/event_groups.c",line 509,column 4,is_stmt,isa 1
    1388 0000027a 9802              LDR       A1, [SP, #8]          ; [DPU_3_PIPE] |509|  ; [ORIG 16-BIT INS]
    1389 0000027c 6800              LDR       A1, [A1, #0]          ; [DPU_3_PIPE] |509|  ; [ORIG 16-BIT INS]
    1390 0000027e 9007              STR       A1, [SP, #28]         ; [DPU_3_PIPE] |509|  ; [ORIG 16-BIT INS]
    1391                            .dwpsn  file "C:/TI_ARM_Tiva_Projects/Source/event_groups.c",line 510,column 4,is_stmt,isa 1
    1392 00000280 2000              MOVS      A1, #0                ; [DPU_3_PIPE] |510|  ; [ORIG 16-BIT INS]
    1393 00000282 900A              STR       A1, [SP, #40]         ; [DPU_3_PIPE] |510|  ; [ORIG 16-BIT INS]
    1394                            .dwpsn  file "C:/TI_ARM_Tiva_Projects/Source/event_groups.c",line 513,column 4,is_stmt,isa 1
    1395 00000284 9807              LDR       A1, [SP, #28]         ; [DPU_3_PIPE] |513|  ; [ORIG 16-BIT INS]
    1396 00000286 407FF000          AND       A1, A1, #-16777216    ; [DPU_3_PIPE] |513|  ; [KEEP 32-BIT INS]
    1397 0000028a 9008              STR       A1, [SP, #32]         ; [DPU_3_PIPE] |513|  ; [ORIG 16-BIT INS]
    1398                            .dwpsn  file "C:/TI_ARM_Tiva_Projects/Source/event_groups.c",line 514,column 4,is_stmt,isa 1
    1399 0000028c 9807              LDR       A1, [SP, #28]         ; [DPU_3_PIPE] |514|  ; [ORIG 16-BIT INS]
    1400 0000028e 407FF020          BIC       A1, A1, #-16777216    ; [DPU_3_PIPE] |514|  ; [KEEP 32-BIT INS]
    1401 00000292 9007              STR       A1, [SP, #28]         ; [DPU_3_PIPE] |514|  ; [ORIG 16-BIT INS]
    1402                            .dwpsn  file "C:/TI_ARM_Tiva_Projects/Source/event_groups.c",line 516,column 4,is_stmt,isa 1
    1403 00000294 9808              LDR       A1, [SP, #32]         ; [DPU_3_PIPE] |516|  ; [ORIG 16-BIT INS]
    1404 00000296 0EC0              LSRS      A1, A1, #27           ; [DPU_3_PIPE] |516|  ; [ORIG 16-BIT INS]
    1405 00000298 D207              BCS       ||$C$L19||            ; [DPU_3_PIPE] |516|  ; [ORIG 16-BIT INS]
    1406                            ; BRANCHCC OCCURS {||$C$L19||}   ; [] |516| 
    1407                    ;* --------------------------------------------------------------------------*
    1408                            .dwpsn  file "C:/TI_ARM_Tiva_Projects/Source/event_groups.c",line 519,column 5,is_stmt,isa 1
    1409 0000029a 9809              LDR       A1, [SP, #36]         ; [DPU_3_PIPE] |519|  ; [ORIG 16-BIT INS]
    1410 0000029c 9907              LDR       A2, [SP, #28]         ; [DPU_3_PIPE] |519|  ; [ORIG 16-BIT INS]
    1411 0000029e 6800              LDR       A1, [A1, #0]          ; [DPU_3_PIPE] |519|  ; [ORIG 16-BIT INS]
    1412 000002a0 4208              TST       A1, A2                ; [DPU_3_PIPE] |519|  ; [ORIG 16-BIT INS]
    1413 000002a2 D00B              BEQ       ||$C$L20||            ; [DPU_3_PIPE] |519|  ; [ORIG 16-BIT INS]
    1414                            ; BRANCHCC OCCURS {||$C$L20||}   ; [] |519| 
    1415                    ;* --------------------------------------------------------------------------*
    1416                            .dwpsn  file "C:/TI_ARM_Tiva_Projects/Source/event_groups.c",line 521,column 6,is_stmt,isa 1
    1417 000002a4 2001              MOVS      A1, #1                ; [DPU_3_PIPE] |521|  ; [ORIG 16-BIT INS]
    1418 000002a6 900A              STR       A1, [SP, #40]         ; [DPU_3_PIPE] |521|  ; [ORIG 16-BIT INS]
    1419                            .dwpsn  file "C:/TI_ARM_Tiva_Projects/Source/event_groups.c",line 522,column 5,is_stmt,isa 1
    1420 000002a8 E008              B         ||$C$L20||            ; [DPU_3_PIPE] |522|  ; [ORIG 16-BIT INS]
    1421                            ; BRANCH OCCURS {||$C$L20||}     ; [] |522| 
    1422                    ;* --------------------------------------------------------------------------*
    1423                    ;* --------------------------------------------------------------------------*
    1424 000002aa           ||$C$L19||:    
    1425                            .dwpsn  file "C:/TI_ARM_Tiva_Projects/Source/event_groups.c",line 528,column 9,is_stmt,isa 1
    1426 000002aa 9809              LDR       A1, [SP, #36]         ; [DPU_3_PIPE] |528|  ; [ORIG 16-BIT INS]
    1427 000002ac 9A07              LDR       A3, [SP, #28]         ; [DPU_3_PIPE] |528|  ; [ORIG 16-BIT INS]
    1428 000002ae 9907              LDR       A2, [SP, #28]         ; [DPU_3_PIPE] |528|  ; [ORIG 16-BIT INS]
    1429 000002b0 6800              LDR       A1, [A1, #0]          ; [DPU_3_PIPE] |528|  ; [ORIG 16-BIT INS]
    1430 000002b2 4010              ANDS      A1, A1, A3            ; [DPU_3_PIPE] |528|  ; [ORIG 16-BIT INS]
TI ARM Assembler PC v15.12.1 Tue Oct 18 10:42:40 2016

Tools Copyright (c) 1996-2015 Texas Instruments Incorporated
event_groups.asm                                                     PAGE   27

    1431 000002b4 4281              CMP       A2, A1                ; [DPU_3_PIPE] |528|  ; [ORIG 16-BIT INS]
    1432 000002b6 D101              BNE       ||$C$L20||            ; [DPU_3_PIPE] |528|  ; [ORIG 16-BIT INS]
    1433                            ; BRANCHCC OCCURS {||$C$L20||}   ; [] |528| 
    1434                    ;* --------------------------------------------------------------------------*
    1435                            .dwpsn  file "C:/TI_ARM_Tiva_Projects/Source/event_groups.c",line 531,column 5,is_stmt,isa 1
    1436 000002b8 2001              MOVS      A1, #1                ; [DPU_3_PIPE] |531|  ; [ORIG 16-BIT INS]
    1437 000002ba 900A              STR       A1, [SP, #40]         ; [DPU_3_PIPE] |531|  ; [ORIG 16-BIT INS]
    1438                            .dwpsn  file "C:/TI_ARM_Tiva_Projects/Source/event_groups.c",line 532,column 4,is_stmt,isa 1
    1439                    ;* --------------------------------------------------------------------------*
    1440 000002bc           ||$C$L20||:    
    1441                            .dwpsn  file "C:/TI_ARM_Tiva_Projects/Source/event_groups.c",line 538,column 4,is_stmt,isa 1
    1442 000002bc 980A              LDR       A1, [SP, #40]         ; [DPU_3_PIPE] |538|  ; [ORIG 16-BIT INS]
    1443 000002be B168              CBZ       A1, ||$C$L22||        ; []  ; [ORIG 16-BIT INS]
    1444                            ; BRANCHCC OCCURS {||$C$L22||}   ; [] |538| 
    1445                    ;* --------------------------------------------------------------------------*
    1446                            .dwpsn  file "C:/TI_ARM_Tiva_Projects/Source/event_groups.c",line 541,column 5,is_stmt,isa 1
    1447 000002c0 9808              LDR       A1, [SP, #32]         ; [DPU_3_PIPE] |541|  ; [ORIG 16-BIT INS]
    1448 000002c2 0E40              LSRS      A1, A1, #25           ; [DPU_3_PIPE] |541|  ; [ORIG 16-BIT INS]
    1449 000002c4 D303              BCC       ||$C$L21||            ; [DPU_3_PIPE] |541|  ; [ORIG 16-BIT INS]
    1450                            ; BRANCHCC OCCURS {||$C$L21||}   ; [] |541| 
    1451                    ;* --------------------------------------------------------------------------*
    1452                            .dwpsn  file "C:/TI_ARM_Tiva_Projects/Source/event_groups.c",line 543,column 6,is_stmt,isa 1
    1453 000002c6 9906              LDR       A2, [SP, #24]         ; [DPU_3_PIPE] |543|  ; [ORIG 16-BIT INS]
    1454 000002c8 9807              LDR       A1, [SP, #28]         ; [DPU_3_PIPE] |543|  ; [ORIG 16-BIT INS]
    1455 000002ca 4308              ORRS      A1, A1, A2            ; [DPU_3_PIPE] |543|  ; [ORIG 16-BIT INS]
    1456 000002cc 9006              STR       A1, [SP, #24]         ; [DPU_3_PIPE] |543|  ; [ORIG 16-BIT INS]
    1457                            .dwpsn  file "C:/TI_ARM_Tiva_Projects/Source/event_groups.c",line 544,column 5,is_stmt,isa 1
    1458                    ;* --------------------------------------------------------------------------*
    1459 000002ce           ||$C$L21||:    
    1460                            .dwpsn  file "C:/TI_ARM_Tiva_Projects/Source/event_groups.c",line 555,column 5,is_stmt,isa 1
    1461 000002ce 9809              LDR       A1, [SP, #36]         ; [DPU_3_PIPE] |555|  ; [ORIG 16-BIT INS]
    1462 000002d0 6801              LDR       A2, [A1, #0]          ; [DPU_3_PIPE] |555|  ; [ORIG 16-BIT INS]
    1463 000002d2 9802              LDR       A1, [SP, #8]          ; [DPU_3_PIPE] |555|  ; [ORIG 16-BIT INS]
    1464 000002d4 7100F041          ORR       A2, A2, #33554432     ; [DPU_3_PIPE] |555|  ; [KEEP 32-BIT INS]
    1465                    $C$DW$107       .dwtag  DW_TAG_TI_branch
    1466                            .dwattr $C$DW$107, DW_AT_low_pc(0x00)
    1467                            .dwattr $C$DW$107, DW_AT_name("xTaskRemoveFromUnorderedEventList")
    1468                            .dwattr $C$DW$107, DW_AT_TI_call
    1469                    
    1470 000002d8 FFFEF7FF!         BL        xTaskRemoveFromUnorderedEventList ; [DPU_3_PIPE] |555|  ; [KEEP 32-BIT INS]
    1471                            ; CALL OCCURS {xTaskRemoveFromUnorderedEventList }  ; [] |555| 
    1472                    ;* --------------------------------------------------------------------------*
    1473 000002dc           ||$C$L22||:    
    1474                            .dwpsn  file "C:/TI_ARM_Tiva_Projects/Source/event_groups.c",line 561,column 4,is_stmt,isa 1
    1475 000002dc 9803              LDR       A1, [SP, #12]         ; [DPU_3_PIPE] |561|  ; [ORIG 16-BIT INS]
    1476 000002de 9002              STR       A1, [SP, #8]          ; [DPU_3_PIPE] |561|  ; [ORIG 16-BIT INS]
    1477                            .dwpsn  file "C:/TI_ARM_Tiva_Projects/Source/event_groups.c",line 506,column 10,is_stmt,isa 1
    1478 000002e0 9902              LDR       A2, [SP, #8]          ; [DPU_3_PIPE] |506|  ; [ORIG 16-BIT INS]
    1479 000002e2 9804              LDR       A1, [SP, #16]         ; [DPU_3_PIPE] |506|  ; [ORIG 16-BIT INS]
    1480 000002e4 4288              CMP       A1, A2                ; [DPU_3_PIPE] |506|  ; [ORIG 16-BIT INS]
    1481 000002e6 D1C5              BNE       ||$C$L18||            ; [DPU_3_PIPE] |506|  ; [ORIG 16-BIT INS]
    1482                            ; BRANCHCC OCCURS {||$C$L18||}   ; [] |506| 
    1483                    ;* --------------------------------------------------------------------------*
    1484 000002e8           ||$C$L23||:    
    1485                            .dwpsn  file "C:/TI_ARM_Tiva_Projects/Source/event_groups.c",line 566,column 3,is_stmt,isa 1
TI ARM Assembler PC v15.12.1 Tue Oct 18 10:42:40 2016

Tools Copyright (c) 1996-2015 Texas Instruments Incorporated
event_groups.asm                                                     PAGE   28

    1486 000002e8 9909              LDR       A2, [SP, #36]         ; [DPU_3_PIPE] |566|  ; [ORIG 16-BIT INS]
    1487 000002ea 9A06              LDR       A3, [SP, #24]         ; [DPU_3_PIPE] |566|  ; [ORIG 16-BIT INS]
    1488 000002ec 6808              LDR       A1, [A2, #0]          ; [DPU_3_PIPE] |566|  ; [ORIG 16-BIT INS]
    1489 000002ee 4390              BICS      A1, A1, A3            ; [DPU_3_PIPE] |566|  ; [ORIG 16-BIT INS]
    1490 000002f0 6008              STR       A1, [A2, #0]          ; [DPU_3_PIPE] |566|  ; [ORIG 16-BIT INS]
    1491                            .dwpsn  file "C:/TI_ARM_Tiva_Projects/Source/event_groups.c",line 568,column 2,is_stmt,isa 1
    1492                    $C$DW$108       .dwtag  DW_TAG_TI_branch
    1493                            .dwattr $C$DW$108, DW_AT_low_pc(0x00)
    1494                            .dwattr $C$DW$108, DW_AT_name("xTaskResumeAll")
    1495                            .dwattr $C$DW$108, DW_AT_TI_call
    1496                    
    1497 000002f2 FFFEF7FF!         BL        xTaskResumeAll        ; [DPU_3_PIPE] |568|  ; [KEEP 32-BIT INS]
    1498                            ; CALL OCCURS {xTaskResumeAll }  ; [] |568| 
    1499                            .dwpsn  file "C:/TI_ARM_Tiva_Projects/Source/event_groups.c",line 570,column 2,is_stmt,isa 1
    1500 000002f6 9809              LDR       A1, [SP, #36]         ; [DPU_3_PIPE] |570|  ; [ORIG 16-BIT INS]
    1501 000002f8 6800              LDR       A1, [A1, #0]          ; [DPU_3_PIPE] |570|  ; [ORIG 16-BIT INS]
    1502                            .dwpsn  file "C:/TI_ARM_Tiva_Projects/Source/event_groups.c",line 571,column 1,is_stmt,isa 1
    1503 000002fa B00B              ADD       SP, SP, #44           ; [DPU_3_PIPE]  ; [ORIG 16-BIT INS]
    1504                            .dwcfi  cfa_offset, 4
    1505                    $C$DW$109       .dwtag  DW_TAG_TI_branch
    1506                            .dwattr $C$DW$109, DW_AT_low_pc(0x00)
    1507                            .dwattr $C$DW$109, DW_AT_TI_return
    1508                    
    1509 000002fc BD00              POP       {PC}                  ; [DPU_3_PIPE]  ; [ORIG 16-BIT INS]
    1510                            .dwcfi  cfa_offset, 0
    1511                            ; BRANCH OCCURS                  ; [] 
    1512                            .dwattr $C$DW$92, DW_AT_TI_end_file("C:/TI_ARM_Tiva_Projects/Source/event_groups.c")
    1513                            .dwattr $C$DW$92, DW_AT_TI_end_line(0x23b)
    1514                            .dwattr $C$DW$92, DW_AT_TI_end_column(0x01)
    1515                            .dwendentry
    1516                            .dwendtag $C$DW$92
    1517                    
    1518                    ;******************************************************************************
    1519                    ;* CONSTANT TABLE                                                             *
    1520                    ;******************************************************************************
    1521 000002fe                   .sect   ".text"
    1522                            .align  4
    1523 000002fe ED0446C0  ||$C$CON1||:    .bits   -536810236,32
         00000302 0000E000 
    1524 00000304                   .sect   ".text"
    1525                            .clink
    1526                            .thumbfunc vEventGroupDelete
    1527 00000304                   .thumb
    1528                            .global vEventGroupDelete
    1529                    
    1530                    $C$DW$110       .dwtag  DW_TAG_subprogram
    1531                            .dwattr $C$DW$110, DW_AT_name("vEventGroupDelete")
    1532                            .dwattr $C$DW$110, DW_AT_low_pc(vEventGroupDelete)
    1533                            .dwattr $C$DW$110, DW_AT_high_pc(0x00)
    1534                            .dwattr $C$DW$110, DW_AT_TI_symbol_name("vEventGroupDelete")
    1535                            .dwattr $C$DW$110, DW_AT_external
    1536                            .dwattr $C$DW$110, DW_AT_TI_begin_file("C:/TI_ARM_Tiva_Projects/Source/event_groups.c")
    1537                            .dwattr $C$DW$110, DW_AT_TI_begin_line(0x23e)
    1538                            .dwattr $C$DW$110, DW_AT_TI_begin_column(0x06)
    1539                            .dwattr $C$DW$110, DW_AT_decl_file("C:/TI_ARM_Tiva_Projects/Source/event_groups.c")
TI ARM Assembler PC v15.12.1 Tue Oct 18 10:42:40 2016

Tools Copyright (c) 1996-2015 Texas Instruments Incorporated
event_groups.asm                                                     PAGE   29

    1540                            .dwattr $C$DW$110, DW_AT_decl_line(0x23e)
    1541                            .dwattr $C$DW$110, DW_AT_decl_column(0x06)
    1542                            .dwattr $C$DW$110, DW_AT_TI_max_frame_size(0x10)
    1543                            .dwpsn  file "C:/TI_ARM_Tiva_Projects/Source/event_groups.c",line 575,column 1,is_stmt,address
    1544                    
    1545                            .dwfde $C$DW$CIE, vEventGroupDelete
    1546                    $C$DW$111       .dwtag  DW_TAG_formal_parameter
    1547                            .dwattr $C$DW$111, DW_AT_name("xEventGroup")
    1548                            .dwattr $C$DW$111, DW_AT_TI_symbol_name("xEventGroup")
    1549                            .dwattr $C$DW$111, DW_AT_type(*$C$DW$T$69)
    1550                            .dwattr $C$DW$111, DW_AT_location[DW_OP_reg0]
    1551                    
    1552                    
    1553                    ;*****************************************************************************
    1554                    ;* FUNCTION NAME: vEventGroupDelete                                          *
    1555                    ;*                                                                           *
    1556                    ;*   Regs Modified     : A1,A2,A3,A4,V9,SP,LR,SR,D0,D0_hi,D1,D1_hi,D2,D2_hi, *
    1557                    ;*                           D3,D3_hi,D4,D4_hi,D5,D5_hi,D6,D6_hi,D7,D7_hi,   *
    1558                    ;*                           FPEXC,FPSCR                                     *
    1559                    ;*   Regs Used         : A1,A2,A3,A4,V9,SP,LR,SR,D0,D0_hi,D1,D1_hi,D2,D2_hi, *
    1560                    ;*                           D3,D3_hi,D4,D4_hi,D5,D5_hi,D6,D6_hi,D7,D7_hi,   *
    1561                    ;*                           FPEXC,FPSCR                                     *
    1562                    ;*   Local Frame Size  : 0 Args + 12 Auto + 4 Save = 16 byte                 *
    1563                    ;*****************************************************************************
    1564 00000304           vEventGroupDelete:
    1565                    ;* --------------------------------------------------------------------------*
    1566                            .dwcfi  cfa_offset, 0
    1567 00000304 B50E              PUSH      {A2, A3, A4, LR}      ; [DPU_3_PIPE]  ; [ORIG 16-BIT INS]
    1568                            .dwcfi  cfa_offset, 16
    1569                            .dwcfi  save_reg_to_mem, 14, -4
    1570                            .dwcfi  save_reg_to_mem, 3, -8
    1571                            .dwcfi  save_reg_to_mem, 2, -12
    1572                            .dwcfi  save_reg_to_mem, 1, -16
    1573                    $C$DW$112       .dwtag  DW_TAG_variable
    1574                            .dwattr $C$DW$112, DW_AT_name("xEventGroup")
    1575                            .dwattr $C$DW$112, DW_AT_TI_symbol_name("xEventGroup")
    1576                            .dwattr $C$DW$112, DW_AT_type(*$C$DW$T$69)
    1577                            .dwattr $C$DW$112, DW_AT_location[DW_OP_breg13 0]
    1578                    
    1579                    $C$DW$113       .dwtag  DW_TAG_variable
    1580                            .dwattr $C$DW$113, DW_AT_name("pxEventBits")
    1581                            .dwattr $C$DW$113, DW_AT_TI_symbol_name("pxEventBits")
    1582                            .dwattr $C$DW$113, DW_AT_type(*$C$DW$T$156)
    1583                            .dwattr $C$DW$113, DW_AT_location[DW_OP_breg13 4]
    1584                    
    1585                    $C$DW$114       .dwtag  DW_TAG_variable
    1586                            .dwattr $C$DW$114, DW_AT_name("pxTasksWaitingForBits")
    1587                            .dwattr $C$DW$114, DW_AT_TI_symbol_name("pxTasksWaitingForBits")
    1588                            .dwattr $C$DW$114, DW_AT_type(*$C$DW$T$158)
    1589                            .dwattr $C$DW$114, DW_AT_location[DW_OP_breg13 8]
    1590                    
    1591 00000306 9000              STR       A1, [SP, #0]          ; [DPU_3_PIPE] |575|  ; [ORIG 16-BIT INS]
    1592                            .dwpsn  file "C:/TI_ARM_Tiva_Projects/Source/event_groups.c",line 576,column 27,is_stmt,isa 1
    1593 00000308 9800              LDR       A1, [SP, #0]          ; [DPU_3_PIPE] |576|  ; [ORIG 16-BIT INS]
    1594 0000030a 9001              STR       A1, [SP, #4]          ; [DPU_3_PIPE] |576|  ; [ORIG 16-BIT INS]
TI ARM Assembler PC v15.12.1 Tue Oct 18 10:42:40 2016

Tools Copyright (c) 1996-2015 Texas Instruments Incorporated
event_groups.asm                                                     PAGE   30

    1595                            .dwpsn  file "C:/TI_ARM_Tiva_Projects/Source/event_groups.c",line 577,column 37,is_stmt,isa 1
    1596 0000030c 9801              LDR       A1, [SP, #4]          ; [DPU_3_PIPE] |577|  ; [ORIG 16-BIT INS]
    1597 0000030e 1D00              ADDS      A1, A1, #4            ; [DPU_3_PIPE] |577|  ; [ORIG 16-BIT INS]
    1598 00000310 9002              STR       A1, [SP, #8]          ; [DPU_3_PIPE] |577|  ; [ORIG 16-BIT INS]
    1599                            .dwpsn  file "C:/TI_ARM_Tiva_Projects/Source/event_groups.c",line 579,column 2,is_stmt,isa 1
    1600                    $C$DW$115       .dwtag  DW_TAG_TI_branch
    1601                            .dwattr $C$DW$115, DW_AT_low_pc(0x00)
    1602                            .dwattr $C$DW$115, DW_AT_name("vTaskSuspendAll")
    1603                            .dwattr $C$DW$115, DW_AT_TI_call
    1604                    
    1605 00000312 FFFEF7FF!         BL        vTaskSuspendAll       ; [DPU_3_PIPE] |579|  ; [KEEP 32-BIT INS]
    1606                            ; CALL OCCURS {vTaskSuspendAll }  ; [] |579| 
    1607                            .dwpsn  file "C:/TI_ARM_Tiva_Projects/Source/event_groups.c",line 583,column 3,is_stmt,isa 1
    1608 00000316 E005              B         ||$C$L25||            ; [DPU_3_PIPE] |583|  ; [ORIG 16-BIT INS]
    1609                            ; BRANCH OCCURS {||$C$L25||}     ; [] |583| 
    1610                    ;* --------------------------------------------------------------------------*
    1611 00000318           ||$C$L24||:    
    1612                            .dwpsn  file "C:/TI_ARM_Tiva_Projects/Source/event_groups.c",line 588,column 4,is_stmt,isa 1
    1613 00000318 9802              LDR       A1, [SP, #8]          ; [DPU_3_PIPE] |588|  ; [ORIG 16-BIT INS]
    1614 0000031a 68C0              LDR       A1, [A1, #12]         ; [DPU_3_PIPE] |588|  ; [ORIG 16-BIT INS]
    1615 0000031c 7100F04F          MOV       A2, #33554432         ; [DPU_3_PIPE] |588|  ; [KEEP 32-BIT INS]
    1616                    $C$DW$116       .dwtag  DW_TAG_TI_branch
    1617                            .dwattr $C$DW$116, DW_AT_low_pc(0x00)
    1618                            .dwattr $C$DW$116, DW_AT_name("xTaskRemoveFromUnorderedEventList")
    1619                            .dwattr $C$DW$116, DW_AT_TI_call
    1620                    
    1621 00000320 FFFEF7FF!         BL        xTaskRemoveFromUnorderedEventList ; [DPU_3_PIPE] |588|  ; [KEEP 32-BIT INS]
    1622                            ; CALL OCCURS {xTaskRemoveFromUnorderedEventList }  ; [] |588| 
    1623                    ;* --------------------------------------------------------------------------*
    1624                    ;*   BEGIN LOOP ||$C$L25||
    1625                    ;* --------------------------------------------------------------------------*
    1626 00000324           ||$C$L25||:    
    1627                            .dwpsn  file "C:/TI_ARM_Tiva_Projects/Source/event_groups.c",line 583,column 10,is_stmt,isa 1
    1628 00000324 9802              LDR       A1, [SP, #8]          ; [DPU_3_PIPE] |583|  ; [ORIG 16-BIT INS]
    1629 00000326 6800              LDR       A1, [A1, #0]          ; [DPU_3_PIPE] |583|  ; [ORIG 16-BIT INS]
    1630 00000328 2800              CMP       A1, #0                ; [DPU_3_PIPE] |583|  ; [ORIG 16-BIT INS]
    1631 0000032a D1F5              BNE       ||$C$L24||            ; [DPU_3_PIPE] |583|  ; [ORIG 16-BIT INS]
    1632                            ; BRANCHCC OCCURS {||$C$L24||}   ; [] |583| 
    1633                    ;* --------------------------------------------------------------------------*
    1634                            .dwpsn  file "C:/TI_ARM_Tiva_Projects/Source/event_groups.c",line 591,column 3,is_stmt,isa 1
    1635 0000032c 9801              LDR       A1, [SP, #4]          ; [DPU_3_PIPE] |591|  ; [ORIG 16-BIT INS]
    1636                    $C$DW$117       .dwtag  DW_TAG_TI_branch
    1637                            .dwattr $C$DW$117, DW_AT_low_pc(0x00)
    1638                            .dwattr $C$DW$117, DW_AT_name("vPortFree")
    1639                            .dwattr $C$DW$117, DW_AT_TI_call
    1640                    
    1641 0000032e FFFEF7FF!         BL        vPortFree             ; [DPU_3_PIPE] |591|  ; [KEEP 32-BIT INS]
    1642                            ; CALL OCCURS {vPortFree }       ; [] |591| 
    1643                            .dwpsn  file "C:/TI_ARM_Tiva_Projects/Source/event_groups.c",line 593,column 2,is_stmt,isa 1
    1644                    $C$DW$118       .dwtag  DW_TAG_TI_branch
    1645                            .dwattr $C$DW$118, DW_AT_low_pc(0x00)
    1646                            .dwattr $C$DW$118, DW_AT_name("xTaskResumeAll")
    1647                            .dwattr $C$DW$118, DW_AT_TI_call
    1648                    
    1649 00000332 FFFEF7FF!         BL        xTaskResumeAll        ; [DPU_3_PIPE] |593|  ; [KEEP 32-BIT INS]
TI ARM Assembler PC v15.12.1 Tue Oct 18 10:42:40 2016

Tools Copyright (c) 1996-2015 Texas Instruments Incorporated
event_groups.asm                                                     PAGE   31

    1650                            ; CALL OCCURS {xTaskResumeAll }  ; [] |593| 
    1651                            .dwpsn  file "C:/TI_ARM_Tiva_Projects/Source/event_groups.c",line 594,column 1,is_stmt,isa 1
    1652                    $C$DW$119       .dwtag  DW_TAG_TI_branch
    1653                            .dwattr $C$DW$119, DW_AT_low_pc(0x00)
    1654                            .dwattr $C$DW$119, DW_AT_TI_return
    1655                    
    1656 00000336 BD0E              POP       {A2, A3, A4, PC}      ; [DPU_3_PIPE]  ; [ORIG 16-BIT INS]
    1657                            .dwcfi  cfa_offset, 0
    1658                            ; BRANCH OCCURS                  ; [] 
    1659                            .dwattr $C$DW$110, DW_AT_TI_end_file("C:/TI_ARM_Tiva_Projects/Source/event_groups.c")
    1660                            .dwattr $C$DW$110, DW_AT_TI_end_line(0x252)
    1661                            .dwattr $C$DW$110, DW_AT_TI_end_column(0x01)
    1662                            .dwendentry
    1663                            .dwendtag $C$DW$110
    1664                    
    1665 00000338                   .sect   ".text"
    1666                            .clink
    1667                            .thumbfunc vEventGroupSetBitsCallback
    1668 00000338                   .thumb
    1669                            .global vEventGroupSetBitsCallback
    1670                    
    1671                    $C$DW$120       .dwtag  DW_TAG_subprogram
    1672                            .dwattr $C$DW$120, DW_AT_name("vEventGroupSetBitsCallback")
    1673                            .dwattr $C$DW$120, DW_AT_low_pc(vEventGroupSetBitsCallback)
    1674                            .dwattr $C$DW$120, DW_AT_high_pc(0x00)
    1675                            .dwattr $C$DW$120, DW_AT_TI_symbol_name("vEventGroupSetBitsCallback")
    1676                            .dwattr $C$DW$120, DW_AT_external
    1677                            .dwattr $C$DW$120, DW_AT_TI_begin_file("C:/TI_ARM_Tiva_Projects/Source/event_groups.c")
    1678                            .dwattr $C$DW$120, DW_AT_TI_begin_line(0x257)
    1679                            .dwattr $C$DW$120, DW_AT_TI_begin_column(0x06)
    1680                            .dwattr $C$DW$120, DW_AT_decl_file("C:/TI_ARM_Tiva_Projects/Source/event_groups.c")
    1681                            .dwattr $C$DW$120, DW_AT_decl_line(0x257)
    1682                            .dwattr $C$DW$120, DW_AT_decl_column(0x06)
    1683                            .dwattr $C$DW$120, DW_AT_TI_max_frame_size(0x10)
    1684                            .dwpsn  file "C:/TI_ARM_Tiva_Projects/Source/event_groups.c",line 600,column 1,is_stmt,address
    1685                    
    1686                            .dwfde $C$DW$CIE, vEventGroupSetBitsCallback
    1687                    $C$DW$121       .dwtag  DW_TAG_formal_parameter
    1688                            .dwattr $C$DW$121, DW_AT_name("pvEventGroup")
    1689                            .dwattr $C$DW$121, DW_AT_TI_symbol_name("pvEventGroup")
    1690                            .dwattr $C$DW$121, DW_AT_type(*$C$DW$T$3)
    1691                            .dwattr $C$DW$121, DW_AT_location[DW_OP_reg0]
    1692                    
    1693                    $C$DW$122       .dwtag  DW_TAG_formal_parameter
    1694                            .dwattr $C$DW$122, DW_AT_name("ulBitsToSet")
    1695                            .dwattr $C$DW$122, DW_AT_TI_symbol_name("ulBitsToSet")
    1696                            .dwattr $C$DW$122, DW_AT_type(*$C$DW$T$85)
    1697                            .dwattr $C$DW$122, DW_AT_location[DW_OP_reg1]
    1698                    
    1699                    
    1700                    ;*****************************************************************************
    1701                    ;* FUNCTION NAME: vEventGroupSetBitsCallback                                 *
    1702                    ;*                                                                           *
    1703                    ;*   Regs Modified     : A1,A2,A3,A4,V9,SP,LR,SR,D0,D0_hi,D1,D1_hi,D2,D2_hi, *
    1704                    ;*                           D3,D3_hi,D4,D4_hi,D5,D5_hi,D6,D6_hi,D7,D7_hi,   *
TI ARM Assembler PC v15.12.1 Tue Oct 18 10:42:40 2016

Tools Copyright (c) 1996-2015 Texas Instruments Incorporated
event_groups.asm                                                     PAGE   32

    1705                    ;*                           FPEXC,FPSCR                                     *
    1706                    ;*   Regs Used         : A1,A2,A3,A4,V9,SP,LR,SR,D0,D0_hi,D1,D1_hi,D2,D2_hi, *
    1707                    ;*                           D3,D3_hi,D4,D4_hi,D5,D5_hi,D6,D6_hi,D7,D7_hi,   *
    1708                    ;*                           FPEXC,FPSCR                                     *
    1709                    ;*   Local Frame Size  : 0 Args + 8 Auto + 4 Save = 12 byte                  *
    1710                    ;*****************************************************************************
    1711 00000338           vEventGroupSetBitsCallback:
    1712                    ;* --------------------------------------------------------------------------*
    1713                            .dwcfi  cfa_offset, 0
    1714 00000338 B50E              PUSH      {A2, A3, A4, LR}      ; [DPU_3_PIPE]  ; [ORIG 16-BIT INS]
    1715                            .dwcfi  cfa_offset, 16
    1716                            .dwcfi  save_reg_to_mem, 14, -4
    1717                            .dwcfi  save_reg_to_mem, 3, -8
    1718                            .dwcfi  save_reg_to_mem, 2, -12
    1719                            .dwcfi  save_reg_to_mem, 1, -16
    1720                    $C$DW$123       .dwtag  DW_TAG_variable
    1721                            .dwattr $C$DW$123, DW_AT_name("pvEventGroup")
    1722                            .dwattr $C$DW$123, DW_AT_TI_symbol_name("pvEventGroup")
    1723                            .dwattr $C$DW$123, DW_AT_type(*$C$DW$T$3)
    1724                            .dwattr $C$DW$123, DW_AT_location[DW_OP_breg13 0]
    1725                    
    1726                    $C$DW$124       .dwtag  DW_TAG_variable
    1727                            .dwattr $C$DW$124, DW_AT_name("ulBitsToSet")
    1728                            .dwattr $C$DW$124, DW_AT_TI_symbol_name("ulBitsToSet")
    1729                            .dwattr $C$DW$124, DW_AT_type(*$C$DW$T$85)
    1730                            .dwattr $C$DW$124, DW_AT_location[DW_OP_breg13 4]
    1731                    
    1732 0000033a 9101              STR       A2, [SP, #4]          ; [DPU_3_PIPE] |600|  ; [ORIG 16-BIT INS]
    1733 0000033c 9000              STR       A1, [SP, #0]          ; [DPU_3_PIPE] |600|  ; [ORIG 16-BIT INS]
    1734                            .dwpsn  file "C:/TI_ARM_Tiva_Projects/Source/event_groups.c",line 601,column 2,is_stmt,isa 1
    1735 0000033e 9800              LDR       A1, [SP, #0]          ; [DPU_3_PIPE] |601|  ; [ORIG 16-BIT INS]
    1736 00000340 9901              LDR       A2, [SP, #4]          ; [DPU_3_PIPE] |601|  ; [ORIG 16-BIT INS]
    1737                    $C$DW$125       .dwtag  DW_TAG_TI_branch
    1738                            .dwattr $C$DW$125, DW_AT_low_pc(0x00)
    1739                            .dwattr $C$DW$125, DW_AT_name("xEventGroupSetBits")
    1740                            .dwattr $C$DW$125, DW_AT_TI_call
    1741                    
    1742 00000342 FF78F7FF          BL        xEventGroupSetBits    ; [DPU_3_PIPE] |601|  ; [KEEP 32-BIT INS]
    1743                            ; CALL OCCURS {xEventGroupSetBits }  ; [] |601| 
    1744                            .dwpsn  file "C:/TI_ARM_Tiva_Projects/Source/event_groups.c",line 602,column 1,is_stmt,isa 1
    1745                    $C$DW$126       .dwtag  DW_TAG_TI_branch
    1746                            .dwattr $C$DW$126, DW_AT_low_pc(0x00)
    1747                            .dwattr $C$DW$126, DW_AT_TI_return
    1748                    
    1749 00000346 BD0E              POP       {A2, A3, A4, PC}      ; [DPU_3_PIPE]  ; [ORIG 16-BIT INS]
    1750                            .dwcfi  cfa_offset, 0
    1751                            ; BRANCH OCCURS                  ; [] 
    1752                            .dwattr $C$DW$120, DW_AT_TI_end_file("C:/TI_ARM_Tiva_Projects/Source/event_groups.c")
    1753                            .dwattr $C$DW$120, DW_AT_TI_end_line(0x25a)
    1754                            .dwattr $C$DW$120, DW_AT_TI_end_column(0x01)
    1755                            .dwendentry
    1756                            .dwendtag $C$DW$120
    1757                    
    1758 00000348                   .sect   ".text"
    1759                            .clink
TI ARM Assembler PC v15.12.1 Tue Oct 18 10:42:40 2016

Tools Copyright (c) 1996-2015 Texas Instruments Incorporated
event_groups.asm                                                     PAGE   33

    1760                            .thumbfunc vEventGroupClearBitsCallback
    1761 00000348                   .thumb
    1762                            .global vEventGroupClearBitsCallback
    1763                    
    1764                    $C$DW$127       .dwtag  DW_TAG_subprogram
    1765                            .dwattr $C$DW$127, DW_AT_name("vEventGroupClearBitsCallback")
    1766                            .dwattr $C$DW$127, DW_AT_low_pc(vEventGroupClearBitsCallback)
    1767                            .dwattr $C$DW$127, DW_AT_high_pc(0x00)
    1768                            .dwattr $C$DW$127, DW_AT_TI_symbol_name("vEventGroupClearBitsCallback")
    1769                            .dwattr $C$DW$127, DW_AT_external
    1770                            .dwattr $C$DW$127, DW_AT_TI_begin_file("C:/TI_ARM_Tiva_Projects/Source/event_groups.c")
    1771                            .dwattr $C$DW$127, DW_AT_TI_begin_line(0x25f)
    1772                            .dwattr $C$DW$127, DW_AT_TI_begin_column(0x06)
    1773                            .dwattr $C$DW$127, DW_AT_decl_file("C:/TI_ARM_Tiva_Projects/Source/event_groups.c")
    1774                            .dwattr $C$DW$127, DW_AT_decl_line(0x25f)
    1775                            .dwattr $C$DW$127, DW_AT_decl_column(0x06)
    1776                            .dwattr $C$DW$127, DW_AT_TI_max_frame_size(0x10)
    1777                            .dwpsn  file "C:/TI_ARM_Tiva_Projects/Source/event_groups.c",line 608,column 1,is_stmt,address
    1778                    
    1779                            .dwfde $C$DW$CIE, vEventGroupClearBitsCallback
    1780                    $C$DW$128       .dwtag  DW_TAG_formal_parameter
    1781                            .dwattr $C$DW$128, DW_AT_name("pvEventGroup")
    1782                            .dwattr $C$DW$128, DW_AT_TI_symbol_name("pvEventGroup")
    1783                            .dwattr $C$DW$128, DW_AT_type(*$C$DW$T$3)
    1784                            .dwattr $C$DW$128, DW_AT_location[DW_OP_reg0]
    1785                    
    1786                    $C$DW$129       .dwtag  DW_TAG_formal_parameter
    1787                            .dwattr $C$DW$129, DW_AT_name("ulBitsToClear")
    1788                            .dwattr $C$DW$129, DW_AT_TI_symbol_name("ulBitsToClear")
    1789                            .dwattr $C$DW$129, DW_AT_type(*$C$DW$T$85)
    1790                            .dwattr $C$DW$129, DW_AT_location[DW_OP_reg1]
    1791                    
    1792                    
    1793                    ;*****************************************************************************
    1794                    ;* FUNCTION NAME: vEventGroupClearBitsCallback                               *
    1795                    ;*                                                                           *
    1796                    ;*   Regs Modified     : A1,A2,A3,A4,V9,SP,LR,SR,D0,D0_hi,D1,D1_hi,D2,D2_hi, *
    1797                    ;*                           D3,D3_hi,D4,D4_hi,D5,D5_hi,D6,D6_hi,D7,D7_hi,   *
    1798                    ;*                           FPEXC,FPSCR                                     *
    1799                    ;*   Regs Used         : A1,A2,A3,A4,V9,SP,LR,SR,D0,D0_hi,D1,D1_hi,D2,D2_hi, *
    1800                    ;*                           D3,D3_hi,D4,D4_hi,D5,D5_hi,D6,D6_hi,D7,D7_hi,   *
    1801                    ;*                           FPEXC,FPSCR                                     *
    1802                    ;*   Local Frame Size  : 0 Args + 8 Auto + 4 Save = 12 byte                  *
    1803                    ;*****************************************************************************
    1804 00000348           vEventGroupClearBitsCallback:
    1805                    ;* --------------------------------------------------------------------------*
    1806                            .dwcfi  cfa_offset, 0
    1807 00000348 B50E              PUSH      {A2, A3, A4, LR}      ; [DPU_3_PIPE]  ; [ORIG 16-BIT INS]
    1808                            .dwcfi  cfa_offset, 16
    1809                            .dwcfi  save_reg_to_mem, 14, -4
    1810                            .dwcfi  save_reg_to_mem, 3, -8
    1811                            .dwcfi  save_reg_to_mem, 2, -12
    1812                            .dwcfi  save_reg_to_mem, 1, -16
    1813                    $C$DW$130       .dwtag  DW_TAG_variable
    1814                            .dwattr $C$DW$130, DW_AT_name("pvEventGroup")
TI ARM Assembler PC v15.12.1 Tue Oct 18 10:42:40 2016

Tools Copyright (c) 1996-2015 Texas Instruments Incorporated
event_groups.asm                                                     PAGE   34

    1815                            .dwattr $C$DW$130, DW_AT_TI_symbol_name("pvEventGroup")
    1816                            .dwattr $C$DW$130, DW_AT_type(*$C$DW$T$3)
    1817                            .dwattr $C$DW$130, DW_AT_location[DW_OP_breg13 0]
    1818                    
    1819                    $C$DW$131       .dwtag  DW_TAG_variable
    1820                            .dwattr $C$DW$131, DW_AT_name("ulBitsToClear")
    1821                            .dwattr $C$DW$131, DW_AT_TI_symbol_name("ulBitsToClear")
    1822                            .dwattr $C$DW$131, DW_AT_type(*$C$DW$T$85)
    1823                            .dwattr $C$DW$131, DW_AT_location[DW_OP_breg13 4]
    1824                    
    1825 0000034a 9101              STR       A2, [SP, #4]          ; [DPU_3_PIPE] |608|  ; [ORIG 16-BIT INS]
    1826 0000034c 9000              STR       A1, [SP, #0]          ; [DPU_3_PIPE] |608|  ; [ORIG 16-BIT INS]
    1827                            .dwpsn  file "C:/TI_ARM_Tiva_Projects/Source/event_groups.c",line 609,column 2,is_stmt,isa 1
    1828 0000034e 9800              LDR       A1, [SP, #0]          ; [DPU_3_PIPE] |609|  ; [ORIG 16-BIT INS]
    1829 00000350 9901              LDR       A2, [SP, #4]          ; [DPU_3_PIPE] |609|  ; [ORIG 16-BIT INS]
    1830                    $C$DW$132       .dwtag  DW_TAG_TI_branch
    1831                            .dwattr $C$DW$132, DW_AT_low_pc(0x00)
    1832                            .dwattr $C$DW$132, DW_AT_name("xEventGroupClearBits")
    1833                            .dwattr $C$DW$132, DW_AT_TI_call
    1834                    
    1835 00000352 FF42F7FF          BL        xEventGroupClearBits  ; [DPU_3_PIPE] |609|  ; [KEEP 32-BIT INS]
    1836                            ; CALL OCCURS {xEventGroupClearBits }  ; [] |609| 
    1837                            .dwpsn  file "C:/TI_ARM_Tiva_Projects/Source/event_groups.c",line 610,column 1,is_stmt,isa 1
    1838                    $C$DW$133       .dwtag  DW_TAG_TI_branch
    1839                            .dwattr $C$DW$133, DW_AT_low_pc(0x00)
    1840                            .dwattr $C$DW$133, DW_AT_TI_return
    1841                    
    1842 00000356 BD0E              POP       {A2, A3, A4, PC}      ; [DPU_3_PIPE]  ; [ORIG 16-BIT INS]
    1843                            .dwcfi  cfa_offset, 0
    1844                            ; BRANCH OCCURS                  ; [] 
    1845                            .dwattr $C$DW$127, DW_AT_TI_end_file("C:/TI_ARM_Tiva_Projects/Source/event_groups.c")
    1846                            .dwattr $C$DW$127, DW_AT_TI_end_line(0x262)
    1847                            .dwattr $C$DW$127, DW_AT_TI_end_column(0x01)
    1848                            .dwendentry
    1849                            .dwendtag $C$DW$127
    1850                    
    1851 00000358                   .sect   ".text"
    1852                            .clink
    1853                            .thumbfunc prvTestWaitCondition
    1854 00000358                   .thumb
    1855                    
    1856                    $C$DW$134       .dwtag  DW_TAG_subprogram
    1857                            .dwattr $C$DW$134, DW_AT_name("prvTestWaitCondition")
    1858                            .dwattr $C$DW$134, DW_AT_low_pc(prvTestWaitCondition)
    1859                            .dwattr $C$DW$134, DW_AT_high_pc(0x00)
    1860                            .dwattr $C$DW$134, DW_AT_TI_symbol_name("prvTestWaitCondition")
    1861                            .dwattr $C$DW$134, DW_AT_type(*$C$DW$T$59)
    1862                            .dwattr $C$DW$134, DW_AT_TI_begin_file("C:/TI_ARM_Tiva_Projects/Source/event_groups.c")
    1863                            .dwattr $C$DW$134, DW_AT_TI_begin_line(0x265)
    1864                            .dwattr $C$DW$134, DW_AT_TI_begin_column(0x13)
    1865                            .dwattr $C$DW$134, DW_AT_decl_file("C:/TI_ARM_Tiva_Projects/Source/event_groups.c")
    1866                            .dwattr $C$DW$134, DW_AT_decl_line(0x265)
    1867                            .dwattr $C$DW$134, DW_AT_decl_column(0x13)
    1868                            .dwattr $C$DW$134, DW_AT_TI_max_frame_size(0x10)
    1869                            .dwpsn  file "C:/TI_ARM_Tiva_Projects/Source/event_groups.c",line 614,column 1,is_stmt,address
TI ARM Assembler PC v15.12.1 Tue Oct 18 10:42:40 2016

Tools Copyright (c) 1996-2015 Texas Instruments Incorporated
event_groups.asm                                                     PAGE   35

    1870                    
    1871                            .dwfde $C$DW$CIE, prvTestWaitCondition
    1872                    $C$DW$135       .dwtag  DW_TAG_formal_parameter
    1873                            .dwattr $C$DW$135, DW_AT_name("uxCurrentEventBits")
    1874                            .dwattr $C$DW$135, DW_AT_TI_symbol_name("uxCurrentEventBits")
    1875                            .dwattr $C$DW$135, DW_AT_type(*$C$DW$T$112)
    1876                            .dwattr $C$DW$135, DW_AT_location[DW_OP_reg0]
    1877                    
    1878                    $C$DW$136       .dwtag  DW_TAG_formal_parameter
    1879                            .dwattr $C$DW$136, DW_AT_name("uxBitsToWaitFor")
    1880                            .dwattr $C$DW$136, DW_AT_TI_symbol_name("uxBitsToWaitFor")
    1881                            .dwattr $C$DW$136, DW_AT_type(*$C$DW$T$112)
    1882                            .dwattr $C$DW$136, DW_AT_location[DW_OP_reg1]
    1883                    
    1884                    $C$DW$137       .dwtag  DW_TAG_formal_parameter
    1885                            .dwattr $C$DW$137, DW_AT_name("xWaitForAllBits")
    1886                            .dwattr $C$DW$137, DW_AT_TI_symbol_name("xWaitForAllBits")
    1887                            .dwattr $C$DW$137, DW_AT_type(*$C$DW$T$107)
    1888                            .dwattr $C$DW$137, DW_AT_location[DW_OP_reg2]
    1889                    
    1890                    
    1891                    ;*****************************************************************************
    1892                    ;* FUNCTION NAME: prvTestWaitCondition                                       *
    1893                    ;*                                                                           *
    1894                    ;*   Regs Modified     : A1,A2,A3,SP,SR                                      *
    1895                    ;*   Regs Used         : A1,A2,A3,SP,LR,SR                                   *
    1896                    ;*   Local Frame Size  : 0 Args + 16 Auto + 0 Save = 16 byte                 *
    1897                    ;*****************************************************************************
    1898 00000358           prvTestWaitCondition:
    1899                    ;* --------------------------------------------------------------------------*
    1900                            .dwcfi  cfa_offset, 0
    1901 00000358 0D10F1AD          SUB       SP, SP, #16           ; [DPU_3_PIPE]  ; [KEEP 32-BIT INS]
    1902                            .dwcfi  cfa_offset, 16
    1903                    $C$DW$138       .dwtag  DW_TAG_variable
    1904                            .dwattr $C$DW$138, DW_AT_name("uxCurrentEventBits")
    1905                            .dwattr $C$DW$138, DW_AT_TI_symbol_name("uxCurrentEventBits")
    1906                            .dwattr $C$DW$138, DW_AT_type(*$C$DW$T$112)
    1907                            .dwattr $C$DW$138, DW_AT_location[DW_OP_breg13 0]
    1908                    
    1909                    $C$DW$139       .dwtag  DW_TAG_variable
    1910                            .dwattr $C$DW$139, DW_AT_name("uxBitsToWaitFor")
    1911                            .dwattr $C$DW$139, DW_AT_TI_symbol_name("uxBitsToWaitFor")
    1912                            .dwattr $C$DW$139, DW_AT_type(*$C$DW$T$112)
    1913                            .dwattr $C$DW$139, DW_AT_location[DW_OP_breg13 4]
    1914                    
    1915                    $C$DW$140       .dwtag  DW_TAG_variable
    1916                            .dwattr $C$DW$140, DW_AT_name("xWaitForAllBits")
    1917                            .dwattr $C$DW$140, DW_AT_TI_symbol_name("xWaitForAllBits")
    1918                            .dwattr $C$DW$140, DW_AT_type(*$C$DW$T$107)
    1919                            .dwattr $C$DW$140, DW_AT_location[DW_OP_breg13 8]
    1920                    
    1921                    $C$DW$141       .dwtag  DW_TAG_variable
    1922                            .dwattr $C$DW$141, DW_AT_name("xWaitConditionMet")
    1923                            .dwattr $C$DW$141, DW_AT_TI_symbol_name("xWaitConditionMet")
    1924                            .dwattr $C$DW$141, DW_AT_type(*$C$DW$T$59)
TI ARM Assembler PC v15.12.1 Tue Oct 18 10:42:40 2016

Tools Copyright (c) 1996-2015 Texas Instruments Incorporated
event_groups.asm                                                     PAGE   36

    1925                            .dwattr $C$DW$141, DW_AT_location[DW_OP_breg13 12]
    1926                    
    1927 0000035c 9202              STR       A3, [SP, #8]          ; [DPU_3_PIPE] |614|  ; [ORIG 16-BIT INS]
    1928 0000035e 9101              STR       A2, [SP, #4]          ; [DPU_3_PIPE] |614|  ; [ORIG 16-BIT INS]
    1929 00000360 9000              STR       A1, [SP, #0]          ; [DPU_3_PIPE] |614|  ; [ORIG 16-BIT INS]
    1930                            .dwpsn  file "C:/TI_ARM_Tiva_Projects/Source/event_groups.c",line 615,column 30,is_stmt,isa 1
    1931 00000362 2000              MOVS      A1, #0                ; [DPU_3_PIPE] |615|  ; [ORIG 16-BIT INS]
    1932 00000364 9003              STR       A1, [SP, #12]         ; [DPU_3_PIPE] |615|  ; [ORIG 16-BIT INS]
    1933                            .dwpsn  file "C:/TI_ARM_Tiva_Projects/Source/event_groups.c",line 617,column 2,is_stmt,isa 1
    1934 00000366 9802              LDR       A1, [SP, #8]          ; [DPU_3_PIPE] |617|  ; [ORIG 16-BIT INS]
    1935 00000368 B930              CBNZ      A1, ||$C$L26||        ; []  ; [ORIG 16-BIT INS]
    1936                            ; BRANCHCC OCCURS {||$C$L26||}   ; [] |617| 
    1937                    ;* --------------------------------------------------------------------------*
    1938                            .dwpsn  file "C:/TI_ARM_Tiva_Projects/Source/event_groups.c",line 621,column 3,is_stmt,isa 1
    1939 0000036a 9800              LDR       A1, [SP, #0]          ; [DPU_3_PIPE] |621|  ; [ORIG 16-BIT INS]
    1940 0000036c 9901              LDR       A2, [SP, #4]          ; [DPU_3_PIPE] |621|  ; [ORIG 16-BIT INS]
    1941 0000036e 4201              TST       A2, A1                ; [DPU_3_PIPE] |621|  ; [ORIG 16-BIT INS]
    1942 00000370 D00A              BEQ       ||$C$L27||            ; [DPU_3_PIPE] |621|  ; [ORIG 16-BIT INS]
    1943                            ; BRANCHCC OCCURS {||$C$L27||}   ; [] |621| 
    1944                    ;* --------------------------------------------------------------------------*
    1945                            .dwpsn  file "C:/TI_ARM_Tiva_Projects/Source/event_groups.c",line 623,column 4,is_stmt,isa 1
    1946 00000372 2001              MOVS      A1, #1                ; [DPU_3_PIPE] |623|  ; [ORIG 16-BIT INS]
    1947 00000374 9003              STR       A1, [SP, #12]         ; [DPU_3_PIPE] |623|  ; [ORIG 16-BIT INS]
    1948                            .dwpsn  file "C:/TI_ARM_Tiva_Projects/Source/event_groups.c",line 624,column 3,is_stmt,isa 1
    1949 00000376 E007              B         ||$C$L27||            ; [DPU_3_PIPE] |624|  ; [ORIG 16-BIT INS]
    1950                            ; BRANCH OCCURS {||$C$L27||}     ; [] |624| 
    1951                    ;* --------------------------------------------------------------------------*
    1952                    ;* --------------------------------------------------------------------------*
    1953 00000378           ||$C$L26||:    
    1954                            .dwpsn  file "C:/TI_ARM_Tiva_Projects/Source/event_groups.c",line 634,column 3,is_stmt,isa 1
    1955 00000378 9A00              LDR       A3, [SP, #0]          ; [DPU_3_PIPE] |634|  ; [ORIG 16-BIT INS]
    1956 0000037a 9801              LDR       A1, [SP, #4]          ; [DPU_3_PIPE] |634|  ; [ORIG 16-BIT INS]
    1957 0000037c 9901              LDR       A2, [SP, #4]          ; [DPU_3_PIPE] |634|  ; [ORIG 16-BIT INS]
    1958 0000037e 4010              ANDS      A1, A1, A3            ; [DPU_3_PIPE] |634|  ; [ORIG 16-BIT INS]
    1959 00000380 4281              CMP       A2, A1                ; [DPU_3_PIPE] |634|  ; [ORIG 16-BIT INS]
    1960 00000382 D101              BNE       ||$C$L27||            ; [DPU_3_PIPE] |634|  ; [ORIG 16-BIT INS]
    1961                            ; BRANCHCC OCCURS {||$C$L27||}   ; [] |634| 
    1962                    ;* --------------------------------------------------------------------------*
    1963                            .dwpsn  file "C:/TI_ARM_Tiva_Projects/Source/event_groups.c",line 636,column 4,is_stmt,isa 1
    1964 00000384 2001              MOVS      A1, #1                ; [DPU_3_PIPE] |636|  ; [ORIG 16-BIT INS]
    1965 00000386 9003              STR       A1, [SP, #12]         ; [DPU_3_PIPE] |636|  ; [ORIG 16-BIT INS]
    1966                            .dwpsn  file "C:/TI_ARM_Tiva_Projects/Source/event_groups.c",line 637,column 3,is_stmt,isa 1
    1967                    ;* --------------------------------------------------------------------------*
    1968 00000388           ||$C$L27||:    
    1969                            .dwpsn  file "C:/TI_ARM_Tiva_Projects/Source/event_groups.c",line 644,column 2,is_stmt,isa 1
    1970 00000388 9803              LDR       A1, [SP, #12]         ; [DPU_3_PIPE] |644|  ; [ORIG 16-BIT INS]
    1971                            .dwpsn  file "C:/TI_ARM_Tiva_Projects/Source/event_groups.c",line 645,column 1,is_stmt,isa 1
    1972 0000038a B004              ADD       SP, SP, #16           ; [DPU_3_PIPE]  ; [ORIG 16-BIT INS]
    1973                            .dwcfi  cfa_offset, 0
    1974                    $C$DW$142       .dwtag  DW_TAG_TI_branch
    1975                            .dwattr $C$DW$142, DW_AT_low_pc(0x00)
    1976                            .dwattr $C$DW$142, DW_AT_TI_return
    1977                    
    1978 0000038c 4770              BX        LR                    ; [DPU_3_PIPE]  ; [ORIG 16-BIT INS]
    1979                            ; BRANCH OCCURS                  ; [] 
TI ARM Assembler PC v15.12.1 Tue Oct 18 10:42:40 2016

Tools Copyright (c) 1996-2015 Texas Instruments Incorporated
event_groups.asm                                                     PAGE   37

    1980                            .dwattr $C$DW$134, DW_AT_TI_end_file("C:/TI_ARM_Tiva_Projects/Source/event_groups.c")
    1981                            .dwattr $C$DW$134, DW_AT_TI_end_line(0x285)
    1982                            .dwattr $C$DW$134, DW_AT_TI_end_column(0x01)
    1983                            .dwendentry
    1984                            .dwendtag $C$DW$134
    1985                    
    1986 0000038e                   .sect   ".text"
    1987                            .clink
    1988                            .thumbfunc uxEventGroupGetNumber
    1989 0000038e                   .thumb
    1990                            .global uxEventGroupGetNumber
    1991                    
    1992                    $C$DW$143       .dwtag  DW_TAG_subprogram
    1993                            .dwattr $C$DW$143, DW_AT_name("uxEventGroupGetNumber")
    1994                            .dwattr $C$DW$143, DW_AT_low_pc(uxEventGroupGetNumber)
    1995                            .dwattr $C$DW$143, DW_AT_high_pc(0x00)
    1996                            .dwattr $C$DW$143, DW_AT_TI_symbol_name("uxEventGroupGetNumber")
    1997                            .dwattr $C$DW$143, DW_AT_external
    1998                            .dwattr $C$DW$143, DW_AT_type(*$C$DW$T$31)
    1999                            .dwattr $C$DW$143, DW_AT_TI_begin_file("C:/TI_ARM_Tiva_Projects/Source/event_groups.c")
    2000                            .dwattr $C$DW$143, DW_AT_TI_begin_line(0x299)
    2001                            .dwattr $C$DW$143, DW_AT_TI_begin_column(0x0e)
    2002                            .dwattr $C$DW$143, DW_AT_decl_file("C:/TI_ARM_Tiva_Projects/Source/event_groups.c")
    2003                            .dwattr $C$DW$143, DW_AT_decl_line(0x299)
    2004                            .dwattr $C$DW$143, DW_AT_decl_column(0x0e)
    2005                            .dwattr $C$DW$143, DW_AT_TI_max_frame_size(0x10)
    2006                            .dwpsn  file "C:/TI_ARM_Tiva_Projects/Source/event_groups.c",line 666,column 2,is_stmt,address
    2007                    
    2008                            .dwfde $C$DW$CIE, uxEventGroupGetNumber
    2009                    $C$DW$144       .dwtag  DW_TAG_formal_parameter
    2010                            .dwattr $C$DW$144, DW_AT_name("xEventGroup")
    2011                            .dwattr $C$DW$144, DW_AT_TI_symbol_name("xEventGroup")
    2012                            .dwattr $C$DW$144, DW_AT_type(*$C$DW$T$3)
    2013                            .dwattr $C$DW$144, DW_AT_location[DW_OP_reg0]
    2014                    
    2015                    
    2016                    ;*****************************************************************************
    2017                    ;* FUNCTION NAME: uxEventGroupGetNumber                                      *
    2018                    ;*                                                                           *
    2019                    ;*   Regs Modified     : A1,SP,SR                                            *
    2020                    ;*   Regs Used         : A1,SP,LR,SR                                         *
    2021                    ;*   Local Frame Size  : 0 Args + 12 Auto + 0 Save = 12 byte                 *
    2022                    ;*****************************************************************************
    2023 0000038e           uxEventGroupGetNumber:
    2024                    ;* --------------------------------------------------------------------------*
    2025                            .dwcfi  cfa_offset, 0
    2026 0000038e 0D10F1AD          SUB       SP, SP, #16           ; [DPU_3_PIPE]  ; [KEEP 32-BIT INS]
    2027                            .dwcfi  cfa_offset, 16
    2028                    $C$DW$145       .dwtag  DW_TAG_variable
    2029                            .dwattr $C$DW$145, DW_AT_name("xEventGroup")
    2030                            .dwattr $C$DW$145, DW_AT_TI_symbol_name("xEventGroup")
    2031                            .dwattr $C$DW$145, DW_AT_type(*$C$DW$T$3)
    2032                            .dwattr $C$DW$145, DW_AT_location[DW_OP_breg13 0]
    2033                    
    2034                    $C$DW$146       .dwtag  DW_TAG_variable
TI ARM Assembler PC v15.12.1 Tue Oct 18 10:42:40 2016

Tools Copyright (c) 1996-2015 Texas Instruments Incorporated
event_groups.asm                                                     PAGE   38

    2035                            .dwattr $C$DW$146, DW_AT_name("xReturn")
    2036                            .dwattr $C$DW$146, DW_AT_TI_symbol_name("xReturn")
    2037                            .dwattr $C$DW$146, DW_AT_type(*$C$DW$T$31)
    2038                            .dwattr $C$DW$146, DW_AT_location[DW_OP_breg13 4]
    2039                    
    2040                    $C$DW$147       .dwtag  DW_TAG_variable
    2041                            .dwattr $C$DW$147, DW_AT_name("pxEventBits")
    2042                            .dwattr $C$DW$147, DW_AT_TI_symbol_name("pxEventBits")
    2043                            .dwattr $C$DW$147, DW_AT_type(*$C$DW$T$156)
    2044                            .dwattr $C$DW$147, DW_AT_location[DW_OP_breg13 8]
    2045                    
    2046 00000392 9000              STR       A1, [SP, #0]          ; [DPU_3_PIPE] |666|  ; [ORIG 16-BIT INS]
    2047                            .dwpsn  file "C:/TI_ARM_Tiva_Projects/Source/event_groups.c",line 668,column 28,is_stmt,isa 1
    2048 00000394 9800              LDR       A1, [SP, #0]          ; [DPU_3_PIPE] |668|  ; [ORIG 16-BIT INS]
    2049 00000396 9002              STR       A1, [SP, #8]          ; [DPU_3_PIPE] |668|  ; [ORIG 16-BIT INS]
    2050                            .dwpsn  file "C:/TI_ARM_Tiva_Projects/Source/event_groups.c",line 670,column 3,is_stmt,isa 1
    2051 00000398 9800              LDR       A1, [SP, #0]          ; [DPU_3_PIPE] |670|  ; [ORIG 16-BIT INS]
    2052 0000039a B910              CBNZ      A1, ||$C$L28||        ; []  ; [ORIG 16-BIT INS]
    2053                            ; BRANCHCC OCCURS {||$C$L28||}   ; [] |670| 
    2054                    ;* --------------------------------------------------------------------------*
    2055                            .dwpsn  file "C:/TI_ARM_Tiva_Projects/Source/event_groups.c",line 672,column 4,is_stmt,isa 1
    2056 0000039c 2000              MOVS      A1, #0                ; [DPU_3_PIPE] |672|  ; [ORIG 16-BIT INS]
    2057 0000039e 9001              STR       A1, [SP, #4]          ; [DPU_3_PIPE] |672|  ; [ORIG 16-BIT INS]
    2058                            .dwpsn  file "C:/TI_ARM_Tiva_Projects/Source/event_groups.c",line 673,column 3,is_stmt,isa 1
    2059 000003a0 E002              B         ||$C$L29||            ; [DPU_3_PIPE] |673|  ; [ORIG 16-BIT INS]
    2060                            ; BRANCH OCCURS {||$C$L29||}     ; [] |673| 
    2061                    ;* --------------------------------------------------------------------------*
    2062 000003a2           ||$C$L28||:    
    2063                            .dwpsn  file "C:/TI_ARM_Tiva_Projects/Source/event_groups.c",line 676,column 4,is_stmt,isa 1
    2064 000003a2 9802              LDR       A1, [SP, #8]          ; [DPU_3_PIPE] |676|  ; [ORIG 16-BIT INS]
    2065 000003a4 6980              LDR       A1, [A1, #24]         ; [DPU_3_PIPE] |676|  ; [ORIG 16-BIT INS]
    2066 000003a6 9001              STR       A1, [SP, #4]          ; [DPU_3_PIPE] |676|  ; [ORIG 16-BIT INS]
    2067                    ;* --------------------------------------------------------------------------*
    2068 000003a8           ||$C$L29||:    
    2069                            .dwpsn  file "C:/TI_ARM_Tiva_Projects/Source/event_groups.c",line 679,column 3,is_stmt,isa 1
    2070 000003a8 9801              LDR       A1, [SP, #4]          ; [DPU_3_PIPE] |679|  ; [ORIG 16-BIT INS]
    2071                            .dwpsn  file "C:/TI_ARM_Tiva_Projects/Source/event_groups.c",line 680,column 2,is_stmt,isa 1
    2072 000003aa B004              ADD       SP, SP, #16           ; [DPU_3_PIPE]  ; [ORIG 16-BIT INS]
    2073                            .dwcfi  cfa_offset, 0
    2074                    $C$DW$148       .dwtag  DW_TAG_TI_branch
    2075                            .dwattr $C$DW$148, DW_AT_low_pc(0x00)
    2076                            .dwattr $C$DW$148, DW_AT_TI_return
    2077                    
    2078 000003ac 4770              BX        LR                    ; [DPU_3_PIPE]  ; [ORIG 16-BIT INS]
    2079                            ; BRANCH OCCURS                  ; [] 
    2080                            .dwattr $C$DW$143, DW_AT_TI_end_file("C:/TI_ARM_Tiva_Projects/Source/event_groups.c")
    2081                            .dwattr $C$DW$143, DW_AT_TI_end_line(0x2a8)
    2082                            .dwattr $C$DW$143, DW_AT_TI_end_column(0x02)
    2083                            .dwendentry
    2084                            .dwendtag $C$DW$143
    2085                    
    2086                    ;*****************************************************************************
    2087                    ;* UNDEFINED EXTERNAL REFERENCES                                             *
    2088                    ;*****************************************************************************
    2089                            .global vPortEnterCritical
TI ARM Assembler PC v15.12.1 Tue Oct 18 10:42:40 2016

Tools Copyright (c) 1996-2015 Texas Instruments Incorporated
event_groups.asm                                                     PAGE   39

    2090                            .global vPortExitCritical
    2091                            .global pvPortMalloc
    2092                            .global vPortFree
    2093                            .global vListInitialise
    2094                            .global vTaskSuspendAll
    2095                            .global xTaskResumeAll
    2096                            .global vTaskPlaceOnUnorderedEventList
    2097                            .global xTaskRemoveFromUnorderedEventList
    2098                            .global uxTaskResetEventItemValue
    2099                    
    2100                    ;******************************************************************************
    2101                    ;* BUILD ATTRIBUTES                                                           *
    2102                    ;******************************************************************************
    2103                            .battr "aeabi", Tag_File, 1, Tag_ABI_PCS_wchar_t(2)
    2104                            .battr "aeabi", Tag_File, 1, Tag_ABI_FP_rounding(0)
    2105                            .battr "aeabi", Tag_File, 1, Tag_ABI_FP_denormal(0)
    2106                            .battr "aeabi", Tag_File, 1, Tag_ABI_FP_exceptions(0)
    2107                            .battr "aeabi", Tag_File, 1, Tag_ABI_FP_number_model(1)
    2108                            .battr "aeabi", Tag_File, 1, Tag_ABI_enum_size(1)
    2109                            .battr "aeabi", Tag_File, 1, Tag_ABI_optimization_goals(5)
    2110                            .battr "aeabi", Tag_File, 1, Tag_ABI_FP_optimization_goals(0)
    2111                            .battr "TI", Tag_File, 1, Tag_Bitfield_layout(2)
    2112                            .battr "TI", Tag_File, 1, Tag_FP_interface(1)
    2113                    
    2114                    ;******************************************************************************
    2115                    ;* TYPE INFORMATION                                                           *
    2116                    ;******************************************************************************
    2117                    
    2118                    $C$DW$T$55      .dwtag  DW_TAG_enumeration_type
    2119                            .dwattr $C$DW$T$55, DW_AT_byte_size(0x01)
    2120                    $C$DW$149       .dwtag  DW_TAG_enumerator
    2121                            .dwattr $C$DW$149, DW_AT_name("eRunning")
    2122                            .dwattr $C$DW$149, DW_AT_const_value(0x00)
    2123                            .dwattr $C$DW$149, DW_AT_decl_file("C:/TI_ARM_Tiva_Projects/Source/include/task.h")
    2124                            .dwattr $C$DW$149, DW_AT_decl_line(0x72)
    2125                            .dwattr $C$DW$149, DW_AT_decl_column(0x02)
    2126                    
    2127                    $C$DW$150       .dwtag  DW_TAG_enumerator
    2128                            .dwattr $C$DW$150, DW_AT_name("eReady")
    2129                            .dwattr $C$DW$150, DW_AT_const_value(0x01)
    2130                            .dwattr $C$DW$150, DW_AT_decl_file("C:/TI_ARM_Tiva_Projects/Source/include/task.h")
    2131                            .dwattr $C$DW$150, DW_AT_decl_line(0x73)
    2132                            .dwattr $C$DW$150, DW_AT_decl_column(0x02)
    2133                    
    2134                    $C$DW$151       .dwtag  DW_TAG_enumerator
    2135                            .dwattr $C$DW$151, DW_AT_name("eBlocked")
    2136                            .dwattr $C$DW$151, DW_AT_const_value(0x02)
    2137                            .dwattr $C$DW$151, DW_AT_decl_file("C:/TI_ARM_Tiva_Projects/Source/include/task.h")
    2138                            .dwattr $C$DW$151, DW_AT_decl_line(0x74)
    2139                            .dwattr $C$DW$151, DW_AT_decl_column(0x02)
    2140                    
    2141                    $C$DW$152       .dwtag  DW_TAG_enumerator
    2142                            .dwattr $C$DW$152, DW_AT_name("eSuspended")
    2143                            .dwattr $C$DW$152, DW_AT_const_value(0x03)
    2144                            .dwattr $C$DW$152, DW_AT_decl_file("C:/TI_ARM_Tiva_Projects/Source/include/task.h")
TI ARM Assembler PC v15.12.1 Tue Oct 18 10:42:40 2016

Tools Copyright (c) 1996-2015 Texas Instruments Incorporated
event_groups.asm                                                     PAGE   40

    2145                            .dwattr $C$DW$152, DW_AT_decl_line(0x75)
    2146                            .dwattr $C$DW$152, DW_AT_decl_column(0x02)
    2147                    
    2148                    $C$DW$153       .dwtag  DW_TAG_enumerator
    2149                            .dwattr $C$DW$153, DW_AT_name("eDeleted")
    2150                            .dwattr $C$DW$153, DW_AT_const_value(0x04)
    2151                            .dwattr $C$DW$153, DW_AT_decl_file("C:/TI_ARM_Tiva_Projects/Source/include/task.h")
    2152                            .dwattr $C$DW$153, DW_AT_decl_line(0x76)
    2153                            .dwattr $C$DW$153, DW_AT_decl_column(0x02)
    2154                    
    2155                            .dwattr $C$DW$T$55, DW_AT_decl_file("C:/TI_ARM_Tiva_Projects/Source/include/task.h")
    2156                            .dwattr $C$DW$T$55, DW_AT_decl_line(0x71)
    2157                            .dwattr $C$DW$T$55, DW_AT_decl_column(0x01)
    2158                            .dwendtag $C$DW$T$55
    2159                    
    2160                    $C$DW$T$56      .dwtag  DW_TAG_typedef
    2161                            .dwattr $C$DW$T$56, DW_AT_name("eTaskState")
    2162                            .dwattr $C$DW$T$56, DW_AT_type(*$C$DW$T$55)
    2163                            .dwattr $C$DW$T$56, DW_AT_language(DW_LANG_C)
    2164                            .dwattr $C$DW$T$56, DW_AT_decl_file("C:/TI_ARM_Tiva_Projects/Source/include/task.h")
    2165                            .dwattr $C$DW$T$56, DW_AT_decl_line(0x77)
    2166                            .dwattr $C$DW$T$56, DW_AT_decl_column(0x03)
    2167                    
    2168                    
    2169                    $C$DW$T$61      .dwtag  DW_TAG_enumeration_type
    2170                            .dwattr $C$DW$T$61, DW_AT_byte_size(0x01)
    2171                    $C$DW$154       .dwtag  DW_TAG_enumerator
    2172                            .dwattr $C$DW$154, DW_AT_name("eNoAction")
    2173                            .dwattr $C$DW$154, DW_AT_const_value(0x00)
    2174                            .dwattr $C$DW$154, DW_AT_decl_file("C:/TI_ARM_Tiva_Projects/Source/include/task.h")
    2175                            .dwattr $C$DW$154, DW_AT_decl_line(0x7c)
    2176                            .dwattr $C$DW$154, DW_AT_decl_column(0x02)
    2177                    
    2178                    $C$DW$155       .dwtag  DW_TAG_enumerator
    2179                            .dwattr $C$DW$155, DW_AT_name("eSetBits")
    2180                            .dwattr $C$DW$155, DW_AT_const_value(0x01)
    2181                            .dwattr $C$DW$155, DW_AT_decl_file("C:/TI_ARM_Tiva_Projects/Source/include/task.h")
    2182                            .dwattr $C$DW$155, DW_AT_decl_line(0x7d)
    2183                            .dwattr $C$DW$155, DW_AT_decl_column(0x02)
    2184                    
    2185                    $C$DW$156       .dwtag  DW_TAG_enumerator
    2186                            .dwattr $C$DW$156, DW_AT_name("eIncrement")
    2187                            .dwattr $C$DW$156, DW_AT_const_value(0x02)
    2188                            .dwattr $C$DW$156, DW_AT_decl_file("C:/TI_ARM_Tiva_Projects/Source/include/task.h")
    2189                            .dwattr $C$DW$156, DW_AT_decl_line(0x7e)
    2190                            .dwattr $C$DW$156, DW_AT_decl_column(0x02)
    2191                    
    2192                    $C$DW$157       .dwtag  DW_TAG_enumerator
    2193                            .dwattr $C$DW$157, DW_AT_name("eSetValueWithOverwrite")
    2194                            .dwattr $C$DW$157, DW_AT_const_value(0x03)
    2195                            .dwattr $C$DW$157, DW_AT_decl_file("C:/TI_ARM_Tiva_Projects/Source/include/task.h")
    2196                            .dwattr $C$DW$157, DW_AT_decl_line(0x7f)
    2197                            .dwattr $C$DW$157, DW_AT_decl_column(0x02)
    2198                    
    2199                    $C$DW$158       .dwtag  DW_TAG_enumerator
TI ARM Assembler PC v15.12.1 Tue Oct 18 10:42:40 2016

Tools Copyright (c) 1996-2015 Texas Instruments Incorporated
event_groups.asm                                                     PAGE   41

    2200                            .dwattr $C$DW$158, DW_AT_name("eSetValueWithoutOverwrite")
    2201                            .dwattr $C$DW$158, DW_AT_const_value(0x04)
    2202                            .dwattr $C$DW$158, DW_AT_decl_file("C:/TI_ARM_Tiva_Projects/Source/include/task.h")
    2203                            .dwattr $C$DW$158, DW_AT_decl_line(0x80)
    2204                            .dwattr $C$DW$158, DW_AT_decl_column(0x02)
    2205                    
    2206                            .dwattr $C$DW$T$61, DW_AT_decl_file("C:/TI_ARM_Tiva_Projects/Source/include/task.h")
    2207                            .dwattr $C$DW$T$61, DW_AT_decl_line(0x7b)
    2208                            .dwattr $C$DW$T$61, DW_AT_decl_column(0x01)
    2209                            .dwendtag $C$DW$T$61
    2210                    
    2211                    $C$DW$T$62      .dwtag  DW_TAG_typedef
    2212                            .dwattr $C$DW$T$62, DW_AT_name("eNotifyAction")
    2213                            .dwattr $C$DW$T$62, DW_AT_type(*$C$DW$T$61)
    2214                            .dwattr $C$DW$T$62, DW_AT_language(DW_LANG_C)
    2215                            .dwattr $C$DW$T$62, DW_AT_decl_file("C:/TI_ARM_Tiva_Projects/Source/include/task.h")
    2216                            .dwattr $C$DW$T$62, DW_AT_decl_line(0x81)
    2217                            .dwattr $C$DW$T$62, DW_AT_decl_column(0x03)
    2218                    
    2219                    
    2220                    $C$DW$T$63      .dwtag  DW_TAG_enumeration_type
    2221                            .dwattr $C$DW$T$63, DW_AT_byte_size(0x01)
    2222                    $C$DW$159       .dwtag  DW_TAG_enumerator
    2223                            .dwattr $C$DW$159, DW_AT_name("eAbortSleep")
    2224                            .dwattr $C$DW$159, DW_AT_const_value(0x00)
    2225                            .dwattr $C$DW$159, DW_AT_decl_file("C:/TI_ARM_Tiva_Projects/Source/include/task.h")
    2226                            .dwattr $C$DW$159, DW_AT_decl_line(0xb5)
    2227                            .dwattr $C$DW$159, DW_AT_decl_column(0x02)
    2228                    
    2229                    $C$DW$160       .dwtag  DW_TAG_enumerator
    2230                            .dwattr $C$DW$160, DW_AT_name("eStandardSleep")
    2231                            .dwattr $C$DW$160, DW_AT_const_value(0x01)
    2232                            .dwattr $C$DW$160, DW_AT_decl_file("C:/TI_ARM_Tiva_Projects/Source/include/task.h")
    2233                            .dwattr $C$DW$160, DW_AT_decl_line(0xb6)
    2234                            .dwattr $C$DW$160, DW_AT_decl_column(0x02)
    2235                    
    2236                    $C$DW$161       .dwtag  DW_TAG_enumerator
    2237                            .dwattr $C$DW$161, DW_AT_name("eNoTasksWaitingTimeout")
    2238                            .dwattr $C$DW$161, DW_AT_const_value(0x02)
    2239                            .dwattr $C$DW$161, DW_AT_decl_file("C:/TI_ARM_Tiva_Projects/Source/include/task.h")
    2240                            .dwattr $C$DW$161, DW_AT_decl_line(0xb7)
    2241                            .dwattr $C$DW$161, DW_AT_decl_column(0x02)
    2242                    
    2243                            .dwattr $C$DW$T$63, DW_AT_decl_file("C:/TI_ARM_Tiva_Projects/Source/include/task.h")
    2244                            .dwattr $C$DW$T$63, DW_AT_decl_line(0xb4)
    2245                            .dwattr $C$DW$T$63, DW_AT_decl_column(0x01)
    2246                            .dwendtag $C$DW$T$63
    2247                    
    2248                    $C$DW$T$64      .dwtag  DW_TAG_typedef
    2249                            .dwattr $C$DW$T$64, DW_AT_name("eSleepModeStatus")
    2250                            .dwattr $C$DW$T$64, DW_AT_type(*$C$DW$T$63)
    2251                            .dwattr $C$DW$T$64, DW_AT_language(DW_LANG_C)
    2252                            .dwattr $C$DW$T$64, DW_AT_decl_file("C:/TI_ARM_Tiva_Projects/Source/include/task.h")
    2253                            .dwattr $C$DW$T$64, DW_AT_decl_line(0xb8)
    2254                            .dwattr $C$DW$T$64, DW_AT_decl_column(0x03)
TI ARM Assembler PC v15.12.1 Tue Oct 18 10:42:40 2016

Tools Copyright (c) 1996-2015 Texas Instruments Incorporated
event_groups.asm                                                     PAGE   42

    2255                    
    2256                    
    2257                    $C$DW$T$19      .dwtag  DW_TAG_structure_type
    2258                            .dwattr $C$DW$T$19, DW_AT_byte_size(0x08)
    2259                    $C$DW$162       .dwtag  DW_TAG_member
    2260                            .dwattr $C$DW$162, DW_AT_type(*$C$DW$T$10)
    2261                            .dwattr $C$DW$162, DW_AT_name("quot")
    2262                            .dwattr $C$DW$162, DW_AT_TI_symbol_name("quot")
    2263                            .dwattr $C$DW$162, DW_AT_data_member_location[DW_OP_plus_uconst 0x0]
    2264                            .dwattr $C$DW$162, DW_AT_accessibility(DW_ACCESS_public)
    2265                            .dwattr $C$DW$162, DW_AT_decl_file("C:/TI_CodeComposer/ccsv6/tools/compiler/ti-cgt-arm_15.12.1
    2266                            .dwattr $C$DW$162, DW_AT_decl_line(0x5c)
    2267                            .dwattr $C$DW$162, DW_AT_decl_column(0x16)
    2268                    
    2269                    $C$DW$163       .dwtag  DW_TAG_member
    2270                            .dwattr $C$DW$163, DW_AT_type(*$C$DW$T$10)
    2271                            .dwattr $C$DW$163, DW_AT_name("rem")
    2272                            .dwattr $C$DW$163, DW_AT_TI_symbol_name("rem")
    2273                            .dwattr $C$DW$163, DW_AT_data_member_location[DW_OP_plus_uconst 0x4]
    2274                            .dwattr $C$DW$163, DW_AT_accessibility(DW_ACCESS_public)
    2275                            .dwattr $C$DW$163, DW_AT_decl_file("C:/TI_CodeComposer/ccsv6/tools/compiler/ti-cgt-arm_15.12.1
    2276                            .dwattr $C$DW$163, DW_AT_decl_line(0x5c)
    2277                            .dwattr $C$DW$163, DW_AT_decl_column(0x1c)
    2278                    
    2279                            .dwattr $C$DW$T$19, DW_AT_decl_file("C:/TI_CodeComposer/ccsv6/tools/compiler/ti-cgt-arm_15.12.
    2280                            .dwattr $C$DW$T$19, DW_AT_decl_line(0x5c)
    2281                            .dwattr $C$DW$T$19, DW_AT_decl_column(0x10)
    2282                            .dwendtag $C$DW$T$19
    2283                    
    2284                    $C$DW$T$65      .dwtag  DW_TAG_typedef
    2285                            .dwattr $C$DW$T$65, DW_AT_name("div_t")
    2286                            .dwattr $C$DW$T$65, DW_AT_type(*$C$DW$T$19)
    2287                            .dwattr $C$DW$T$65, DW_AT_language(DW_LANG_C)
    2288                            .dwattr $C$DW$T$65, DW_AT_decl_file("C:/TI_CodeComposer/ccsv6/tools/compiler/ti-cgt-arm_15.12.
    2289                            .dwattr $C$DW$T$65, DW_AT_decl_line(0x5c)
    2290                            .dwattr $C$DW$T$65, DW_AT_decl_column(0x23)
    2291                    
    2292                    
    2293                    $C$DW$T$20      .dwtag  DW_TAG_structure_type
    2294                            .dwattr $C$DW$T$20, DW_AT_byte_size(0x08)
    2295                    $C$DW$164       .dwtag  DW_TAG_member
    2296                            .dwattr $C$DW$164, DW_AT_type(*$C$DW$T$10)
    2297                            .dwattr $C$DW$164, DW_AT_name("quot")
    2298                            .dwattr $C$DW$164, DW_AT_TI_symbol_name("quot")
    2299                            .dwattr $C$DW$164, DW_AT_data_member_location[DW_OP_plus_uconst 0x0]
    2300                            .dwattr $C$DW$164, DW_AT_accessibility(DW_ACCESS_public)
    2301                            .dwattr $C$DW$164, DW_AT_decl_file("C:/TI_CodeComposer/ccsv6/tools/compiler/ti-cgt-arm_15.12.1
    2302                            .dwattr $C$DW$164, DW_AT_decl_line(0x5e)
    2303                            .dwattr $C$DW$164, DW_AT_decl_column(0x16)
    2304                    
    2305                    $C$DW$165       .dwtag  DW_TAG_member
    2306                            .dwattr $C$DW$165, DW_AT_type(*$C$DW$T$10)
    2307                            .dwattr $C$DW$165, DW_AT_name("rem")
    2308                            .dwattr $C$DW$165, DW_AT_TI_symbol_name("rem")
    2309                            .dwattr $C$DW$165, DW_AT_data_member_location[DW_OP_plus_uconst 0x4]
TI ARM Assembler PC v15.12.1 Tue Oct 18 10:42:40 2016

Tools Copyright (c) 1996-2015 Texas Instruments Incorporated
event_groups.asm                                                     PAGE   43

    2310                            .dwattr $C$DW$165, DW_AT_accessibility(DW_ACCESS_public)
    2311                            .dwattr $C$DW$165, DW_AT_decl_file("C:/TI_CodeComposer/ccsv6/tools/compiler/ti-cgt-arm_15.12.1
    2312                            .dwattr $C$DW$165, DW_AT_decl_line(0x5e)
    2313                            .dwattr $C$DW$165, DW_AT_decl_column(0x1c)
    2314                    
    2315                            .dwattr $C$DW$T$20, DW_AT_decl_file("C:/TI_CodeComposer/ccsv6/tools/compiler/ti-cgt-arm_15.12.
    2316                            .dwattr $C$DW$T$20, DW_AT_decl_line(0x5e)
    2317                            .dwattr $C$DW$T$20, DW_AT_decl_column(0x10)
    2318                            .dwendtag $C$DW$T$20
    2319                    
    2320                    $C$DW$T$66      .dwtag  DW_TAG_typedef
    2321                            .dwattr $C$DW$T$66, DW_AT_name("ldiv_t")
    2322                            .dwattr $C$DW$T$66, DW_AT_type(*$C$DW$T$20)
    2323                            .dwattr $C$DW$T$66, DW_AT_language(DW_LANG_C)
    2324                            .dwattr $C$DW$T$66, DW_AT_decl_file("C:/TI_CodeComposer/ccsv6/tools/compiler/ti-cgt-arm_15.12.
    2325                            .dwattr $C$DW$T$66, DW_AT_decl_line(0x5e)
    2326                            .dwattr $C$DW$T$66, DW_AT_decl_column(0x23)
    2327                    
    2328                    
    2329                    $C$DW$T$21      .dwtag  DW_TAG_structure_type
    2330                            .dwattr $C$DW$T$21, DW_AT_byte_size(0x10)
    2331                    $C$DW$166       .dwtag  DW_TAG_member
    2332                            .dwattr $C$DW$166, DW_AT_type(*$C$DW$T$14)
    2333                            .dwattr $C$DW$166, DW_AT_name("quot")
    2334                            .dwattr $C$DW$166, DW_AT_TI_symbol_name("quot")
    2335                            .dwattr $C$DW$166, DW_AT_data_member_location[DW_OP_plus_uconst 0x0]
    2336                            .dwattr $C$DW$166, DW_AT_accessibility(DW_ACCESS_public)
    2337                            .dwattr $C$DW$166, DW_AT_decl_file("C:/TI_CodeComposer/ccsv6/tools/compiler/ti-cgt-arm_15.12.1
    2338                            .dwattr $C$DW$166, DW_AT_decl_line(0x61)
    2339                            .dwattr $C$DW$166, DW_AT_decl_column(0x1c)
    2340                    
    2341                    $C$DW$167       .dwtag  DW_TAG_member
    2342                            .dwattr $C$DW$167, DW_AT_type(*$C$DW$T$14)
    2343                            .dwattr $C$DW$167, DW_AT_name("rem")
    2344                            .dwattr $C$DW$167, DW_AT_TI_symbol_name("rem")
    2345                            .dwattr $C$DW$167, DW_AT_data_member_location[DW_OP_plus_uconst 0x8]
    2346                            .dwattr $C$DW$167, DW_AT_accessibility(DW_ACCESS_public)
    2347                            .dwattr $C$DW$167, DW_AT_decl_file("C:/TI_CodeComposer/ccsv6/tools/compiler/ti-cgt-arm_15.12.1
    2348                            .dwattr $C$DW$167, DW_AT_decl_line(0x61)
    2349                            .dwattr $C$DW$167, DW_AT_decl_column(0x22)
    2350                    
    2351                            .dwattr $C$DW$T$21, DW_AT_decl_file("C:/TI_CodeComposer/ccsv6/tools/compiler/ti-cgt-arm_15.12.
    2352                            .dwattr $C$DW$T$21, DW_AT_decl_line(0x61)
    2353                            .dwattr $C$DW$T$21, DW_AT_decl_column(0x10)
    2354                            .dwendtag $C$DW$T$21
    2355                    
    2356                    $C$DW$T$67      .dwtag  DW_TAG_typedef
    2357                            .dwattr $C$DW$T$67, DW_AT_name("lldiv_t")
    2358                            .dwattr $C$DW$T$67, DW_AT_type(*$C$DW$T$21)
    2359                            .dwattr $C$DW$T$67, DW_AT_language(DW_LANG_C)
    2360                            .dwattr $C$DW$T$67, DW_AT_decl_file("C:/TI_CodeComposer/ccsv6/tools/compiler/ti-cgt-arm_15.12.
    2361                            .dwattr $C$DW$T$67, DW_AT_decl_line(0x61)
    2362                            .dwattr $C$DW$T$67, DW_AT_decl_column(0x29)
    2363                    
    2364                    
TI ARM Assembler PC v15.12.1 Tue Oct 18 10:42:40 2016

Tools Copyright (c) 1996-2015 Texas Instruments Incorporated
event_groups.asm                                                     PAGE   44

    2365                    $C$DW$T$25      .dwtag  DW_TAG_structure_type
    2366                            .dwattr $C$DW$T$25, DW_AT_name("HeapRegion")
    2367                            .dwattr $C$DW$T$25, DW_AT_byte_size(0x08)
    2368                    $C$DW$168       .dwtag  DW_TAG_member
    2369                            .dwattr $C$DW$168, DW_AT_type(*$C$DW$T$23)
    2370                            .dwattr $C$DW$168, DW_AT_name("pucStartAddress")
    2371                            .dwattr $C$DW$168, DW_AT_TI_symbol_name("pucStartAddress")
    2372                            .dwattr $C$DW$168, DW_AT_data_member_location[DW_OP_plus_uconst 0x0]
    2373                            .dwattr $C$DW$168, DW_AT_accessibility(DW_ACCESS_public)
    2374                            .dwattr $C$DW$168, DW_AT_decl_file("C:\TI_ARM_Tiva_Projects\Source\include\portable.h")
    2375                            .dwattr $C$DW$168, DW_AT_decl_line(0x96)
    2376                            .dwattr $C$DW$168, DW_AT_decl_column(0x0b)
    2377                    
    2378                    $C$DW$169       .dwtag  DW_TAG_member
    2379                            .dwattr $C$DW$169, DW_AT_type(*$C$DW$T$24)
    2380                            .dwattr $C$DW$169, DW_AT_name("xSizeInBytes")
    2381                            .dwattr $C$DW$169, DW_AT_TI_symbol_name("xSizeInBytes")
    2382                            .dwattr $C$DW$169, DW_AT_data_member_location[DW_OP_plus_uconst 0x4]
    2383                            .dwattr $C$DW$169, DW_AT_accessibility(DW_ACCESS_public)
    2384                            .dwattr $C$DW$169, DW_AT_decl_file("C:\TI_ARM_Tiva_Projects\Source\include\portable.h")
    2385                            .dwattr $C$DW$169, DW_AT_decl_line(0x97)
    2386                            .dwattr $C$DW$169, DW_AT_decl_column(0x09)
    2387                    
    2388                            .dwattr $C$DW$T$25, DW_AT_decl_file("C:\TI_ARM_Tiva_Projects\Source\include\portable.h")
    2389                            .dwattr $C$DW$T$25, DW_AT_decl_line(0x94)
    2390                            .dwattr $C$DW$T$25, DW_AT_decl_column(0x10)
    2391                            .dwendtag $C$DW$T$25
    2392                    
    2393                    $C$DW$T$68      .dwtag  DW_TAG_typedef
    2394                            .dwattr $C$DW$T$68, DW_AT_name("HeapRegion_t")
    2395                            .dwattr $C$DW$T$68, DW_AT_type(*$C$DW$T$25)
    2396                            .dwattr $C$DW$T$68, DW_AT_language(DW_LANG_C)
    2397                            .dwattr $C$DW$T$68, DW_AT_decl_file("C:\TI_ARM_Tiva_Projects\Source\include\portable.h")
    2398                            .dwattr $C$DW$T$68, DW_AT_decl_line(0x98)
    2399                            .dwattr $C$DW$T$68, DW_AT_decl_column(0x03)
    2400                    
    2401                    $C$DW$T$2       .dwtag  DW_TAG_unspecified_type
    2402                            .dwattr $C$DW$T$2, DW_AT_name("void")
    2403                    
    2404                    $C$DW$T$3       .dwtag  DW_TAG_pointer_type
    2405                            .dwattr $C$DW$T$3, DW_AT_type(*$C$DW$T$2)
    2406                            .dwattr $C$DW$T$3, DW_AT_address_class(0x20)
    2407                    
    2408                    $C$DW$T$69      .dwtag  DW_TAG_typedef
    2409                            .dwattr $C$DW$T$69, DW_AT_name("EventGroupHandle_t")
    2410                            .dwattr $C$DW$T$69, DW_AT_type(*$C$DW$T$3)
    2411                            .dwattr $C$DW$T$69, DW_AT_language(DW_LANG_C)
    2412                            .dwattr $C$DW$T$69, DW_AT_decl_file("C:/TI_ARM_Tiva_Projects/Source/include/event_groups.h")
    2413                            .dwattr $C$DW$T$69, DW_AT_decl_line(0x7a)
    2414                            .dwattr $C$DW$T$69, DW_AT_decl_column(0x10)
    2415                    
    2416                    $C$DW$T$54      .dwtag  DW_TAG_typedef
    2417                            .dwattr $C$DW$T$54, DW_AT_name("TaskHandle_t")
    2418                            .dwattr $C$DW$T$54, DW_AT_type(*$C$DW$T$3)
    2419                            .dwattr $C$DW$T$54, DW_AT_language(DW_LANG_C)
TI ARM Assembler PC v15.12.1 Tue Oct 18 10:42:40 2016

Tools Copyright (c) 1996-2015 Texas Instruments Incorporated
event_groups.asm                                                     PAGE   45

    2420                            .dwattr $C$DW$T$54, DW_AT_decl_file("C:/TI_ARM_Tiva_Projects/Source/include/task.h")
    2421                            .dwattr $C$DW$T$54, DW_AT_decl_line(0x67)
    2422                            .dwattr $C$DW$T$54, DW_AT_decl_column(0x10)
    2423                    
    2424                    $C$DW$T$71      .dwtag  DW_TAG_typedef
    2425                            .dwattr $C$DW$T$71, DW_AT_name("TimerHandle_t")
    2426                            .dwattr $C$DW$T$71, DW_AT_type(*$C$DW$T$3)
    2427                            .dwattr $C$DW$T$71, DW_AT_language(DW_LANG_C)
    2428                            .dwattr $C$DW$T$71, DW_AT_decl_file("C:/TI_ARM_Tiva_Projects/Source/include/timers.h")
    2429                            .dwattr $C$DW$T$71, DW_AT_decl_line(0x76)
    2430                            .dwattr $C$DW$T$71, DW_AT_decl_column(0x10)
    2431                    
    2432                    
    2433                    $C$DW$T$41      .dwtag  DW_TAG_subroutine_type
    2434                            .dwattr $C$DW$T$41, DW_AT_language(DW_LANG_C)
    2435                    $C$DW$170       .dwtag  DW_TAG_formal_parameter
    2436                            .dwattr $C$DW$170, DW_AT_type(*$C$DW$T$3)
    2437                    
    2438                            .dwendtag $C$DW$T$41
    2439                    
    2440                    $C$DW$T$42      .dwtag  DW_TAG_pointer_type
    2441                            .dwattr $C$DW$T$42, DW_AT_type(*$C$DW$T$41)
    2442                            .dwattr $C$DW$T$42, DW_AT_address_class(0x20)
    2443                    
    2444                    $C$DW$T$43      .dwtag  DW_TAG_typedef
    2445                            .dwattr $C$DW$T$43, DW_AT_name("TaskFunction_t")
    2446                            .dwattr $C$DW$T$43, DW_AT_type(*$C$DW$T$42)
    2447                            .dwattr $C$DW$T$43, DW_AT_language(DW_LANG_C)
    2448                            .dwattr $C$DW$T$43, DW_AT_decl_file("C:\TI_ARM_Tiva_Projects\Source\include\projdefs.h")
    2449                            .dwattr $C$DW$T$43, DW_AT_decl_line(0x4d)
    2450                            .dwattr $C$DW$T$43, DW_AT_decl_column(0x10)
    2451                    
    2452                    
    2453                    $C$DW$T$74      .dwtag  DW_TAG_subroutine_type
    2454                            .dwattr $C$DW$T$74, DW_AT_language(DW_LANG_C)
    2455                            .dwendtag $C$DW$T$74
    2456                    
    2457                    $C$DW$T$75      .dwtag  DW_TAG_pointer_type
    2458                            .dwattr $C$DW$T$75, DW_AT_type(*$C$DW$T$74)
    2459                            .dwattr $C$DW$T$75, DW_AT_address_class(0x20)
    2460                    
    2461                    $C$DW$T$76      .dwtag  DW_TAG_typedef
    2462                            .dwattr $C$DW$T$76, DW_AT_name("__TI_atexit_fn")
    2463                            .dwattr $C$DW$T$76, DW_AT_type(*$C$DW$T$75)
    2464                            .dwattr $C$DW$T$76, DW_AT_language(DW_LANG_C)
    2465                            .dwattr $C$DW$T$76, DW_AT_decl_file("C:/TI_CodeComposer/ccsv6/tools/compiler/ti-cgt-arm_15.12.
    2466                            .dwattr $C$DW$T$76, DW_AT_decl_line(0xb9)
    2467                            .dwattr $C$DW$T$76, DW_AT_decl_column(0x14)
    2468                    
    2469                    $C$DW$T$87      .dwtag  DW_TAG_const_type
    2470                            .dwattr $C$DW$T$87, DW_AT_type(*$C$DW$T$2)
    2471                    
    2472                    $C$DW$T$88      .dwtag  DW_TAG_pointer_type
    2473                            .dwattr $C$DW$T$88, DW_AT_type(*$C$DW$T$87)
    2474                            .dwattr $C$DW$T$88, DW_AT_address_class(0x20)
TI ARM Assembler PC v15.12.1 Tue Oct 18 10:42:40 2016

Tools Copyright (c) 1996-2015 Texas Instruments Incorporated
event_groups.asm                                                     PAGE   46

    2475                    
    2476                    
    2477                    $C$DW$T$89      .dwtag  DW_TAG_subroutine_type
    2478                            .dwattr $C$DW$T$89, DW_AT_language(DW_LANG_C)
    2479                    $C$DW$171       .dwtag  DW_TAG_formal_parameter
    2480                            .dwattr $C$DW$171, DW_AT_type(*$C$DW$T$71)
    2481                    
    2482                            .dwendtag $C$DW$T$89
    2483                    
    2484                    $C$DW$T$90      .dwtag  DW_TAG_pointer_type
    2485                            .dwattr $C$DW$T$90, DW_AT_type(*$C$DW$T$89)
    2486                            .dwattr $C$DW$T$90, DW_AT_address_class(0x20)
    2487                    
    2488                    $C$DW$T$91      .dwtag  DW_TAG_typedef
    2489                            .dwattr $C$DW$T$91, DW_AT_name("TimerCallbackFunction_t")
    2490                            .dwattr $C$DW$T$91, DW_AT_type(*$C$DW$T$90)
    2491                            .dwattr $C$DW$T$91, DW_AT_language(DW_LANG_C)
    2492                            .dwattr $C$DW$T$91, DW_AT_decl_file("C:/TI_ARM_Tiva_Projects/Source/include/timers.h")
    2493                            .dwattr $C$DW$T$91, DW_AT_decl_line(0x7b)
    2494                            .dwattr $C$DW$T$91, DW_AT_decl_column(0x10)
    2495                    
    2496                    
    2497                    $C$DW$T$92      .dwtag  DW_TAG_subroutine_type
    2498                            .dwattr $C$DW$T$92, DW_AT_language(DW_LANG_C)
    2499                    $C$DW$172       .dwtag  DW_TAG_formal_parameter
    2500                            .dwattr $C$DW$172, DW_AT_type(*$C$DW$T$3)
    2501                    
    2502                    $C$DW$173       .dwtag  DW_TAG_formal_parameter
    2503                            .dwattr $C$DW$173, DW_AT_type(*$C$DW$T$27)
    2504                    
    2505                            .dwendtag $C$DW$T$92
    2506                    
    2507                    $C$DW$T$93      .dwtag  DW_TAG_pointer_type
    2508                            .dwattr $C$DW$T$93, DW_AT_type(*$C$DW$T$92)
    2509                            .dwattr $C$DW$T$93, DW_AT_address_class(0x20)
    2510                    
    2511                    $C$DW$T$94      .dwtag  DW_TAG_typedef
    2512                            .dwattr $C$DW$T$94, DW_AT_name("PendedFunction_t")
    2513                            .dwattr $C$DW$T$94, DW_AT_type(*$C$DW$T$93)
    2514                            .dwattr $C$DW$T$94, DW_AT_language(DW_LANG_C)
    2515                            .dwattr $C$DW$T$94, DW_AT_decl_file("C:/TI_ARM_Tiva_Projects/Source/include/timers.h")
    2516                            .dwattr $C$DW$T$94, DW_AT_decl_line(0x81)
    2517                            .dwattr $C$DW$T$94, DW_AT_decl_column(0x10)
    2518                    
    2519                    $C$DW$T$4       .dwtag  DW_TAG_base_type
    2520                            .dwattr $C$DW$T$4, DW_AT_encoding(DW_ATE_boolean)
    2521                            .dwattr $C$DW$T$4, DW_AT_name("bool")
    2522                            .dwattr $C$DW$T$4, DW_AT_byte_size(0x01)
    2523                    
    2524                    $C$DW$T$5       .dwtag  DW_TAG_base_type
    2525                            .dwattr $C$DW$T$5, DW_AT_encoding(DW_ATE_signed_char)
    2526                            .dwattr $C$DW$T$5, DW_AT_name("signed char")
    2527                            .dwattr $C$DW$T$5, DW_AT_byte_size(0x01)
    2528                    
    2529                    $C$DW$T$95      .dwtag  DW_TAG_typedef
TI ARM Assembler PC v15.12.1 Tue Oct 18 10:42:40 2016

Tools Copyright (c) 1996-2015 Texas Instruments Incorporated
event_groups.asm                                                     PAGE   47

    2530                            .dwattr $C$DW$T$95, DW_AT_name("int8_t")
    2531                            .dwattr $C$DW$T$95, DW_AT_type(*$C$DW$T$5)
    2532                            .dwattr $C$DW$T$95, DW_AT_language(DW_LANG_C)
    2533                            .dwattr $C$DW$T$95, DW_AT_decl_file("C:/TI_CodeComposer/ccsv6/tools/compiler/ti-cgt-arm_15.12.
    2534                            .dwattr $C$DW$T$95, DW_AT_decl_line(0x2a)
    2535                            .dwattr $C$DW$T$95, DW_AT_decl_column(0x1d)
    2536                    
    2537                    $C$DW$T$96      .dwtag  DW_TAG_typedef
    2538                            .dwattr $C$DW$T$96, DW_AT_name("int_least8_t")
    2539                            .dwattr $C$DW$T$96, DW_AT_type(*$C$DW$T$95)
    2540                            .dwattr $C$DW$T$96, DW_AT_language(DW_LANG_C)
    2541                            .dwattr $C$DW$T$96, DW_AT_decl_file("C:/TI_CodeComposer/ccsv6/tools/compiler/ti-cgt-arm_15.12.
    2542                            .dwattr $C$DW$T$96, DW_AT_decl_line(0x37)
    2543                            .dwattr $C$DW$T$96, DW_AT_decl_column(0x17)
    2544                    
    2545                    $C$DW$T$6       .dwtag  DW_TAG_base_type
    2546                            .dwattr $C$DW$T$6, DW_AT_encoding(DW_ATE_unsigned_char)
    2547                            .dwattr $C$DW$T$6, DW_AT_name("unsigned char")
    2548                            .dwattr $C$DW$T$6, DW_AT_byte_size(0x01)
    2549                    
    2550                    $C$DW$T$22      .dwtag  DW_TAG_typedef
    2551                            .dwattr $C$DW$T$22, DW_AT_name("uint8_t")
    2552                            .dwattr $C$DW$T$22, DW_AT_type(*$C$DW$T$6)
    2553                            .dwattr $C$DW$T$22, DW_AT_language(DW_LANG_C)
    2554                            .dwattr $C$DW$T$22, DW_AT_decl_file("C:/TI_CodeComposer/ccsv6/tools/compiler/ti-cgt-arm_15.12.
    2555                            .dwattr $C$DW$T$22, DW_AT_decl_line(0x2b)
    2556                            .dwattr $C$DW$T$22, DW_AT_decl_column(0x1c)
    2557                    
    2558                    $C$DW$T$23      .dwtag  DW_TAG_pointer_type
    2559                            .dwattr $C$DW$T$23, DW_AT_type(*$C$DW$T$22)
    2560                            .dwattr $C$DW$T$23, DW_AT_address_class(0x20)
    2561                    
    2562                    $C$DW$T$97      .dwtag  DW_TAG_typedef
    2563                            .dwattr $C$DW$T$97, DW_AT_name("portCHAR")
    2564                            .dwattr $C$DW$T$97, DW_AT_type(*$C$DW$T$22)
    2565                            .dwattr $C$DW$T$97, DW_AT_language(DW_LANG_C)
    2566                            .dwattr $C$DW$T$97, DW_AT_decl_file("C:/TI_ARM_Tiva_Projects/Source/portable/CCS/ARM_CM4F/port
    2567                            .dwattr $C$DW$T$97, DW_AT_decl_line(0x60)
    2568                            .dwattr $C$DW$T$97, DW_AT_decl_column(0x12)
    2569                    
    2570                    $C$DW$T$98      .dwtag  DW_TAG_typedef
    2571                            .dwattr $C$DW$T$98, DW_AT_name("uint_least8_t")
    2572                            .dwattr $C$DW$T$98, DW_AT_type(*$C$DW$T$22)
    2573                            .dwattr $C$DW$T$98, DW_AT_language(DW_LANG_C)
    2574                            .dwattr $C$DW$T$98, DW_AT_decl_file("C:/TI_CodeComposer/ccsv6/tools/compiler/ti-cgt-arm_15.12.
    2575                            .dwattr $C$DW$T$98, DW_AT_decl_line(0x38)
    2576                            .dwattr $C$DW$T$98, DW_AT_decl_column(0x16)
    2577                    
    2578                    $C$DW$T$7       .dwtag  DW_TAG_base_type
    2579                            .dwattr $C$DW$T$7, DW_AT_encoding(DW_ATE_signed_char)
    2580                            .dwattr $C$DW$T$7, DW_AT_name("wchar_t")
    2581                            .dwattr $C$DW$T$7, DW_AT_byte_size(0x02)
    2582                    
    2583                    $C$DW$T$8       .dwtag  DW_TAG_base_type
    2584                            .dwattr $C$DW$T$8, DW_AT_encoding(DW_ATE_signed)
TI ARM Assembler PC v15.12.1 Tue Oct 18 10:42:40 2016

Tools Copyright (c) 1996-2015 Texas Instruments Incorporated
event_groups.asm                                                     PAGE   48

    2585                            .dwattr $C$DW$T$8, DW_AT_name("short")
    2586                            .dwattr $C$DW$T$8, DW_AT_byte_size(0x02)
    2587                    
    2588                    $C$DW$T$99      .dwtag  DW_TAG_typedef
    2589                            .dwattr $C$DW$T$99, DW_AT_name("int16_t")
    2590                            .dwattr $C$DW$T$99, DW_AT_type(*$C$DW$T$8)
    2591                            .dwattr $C$DW$T$99, DW_AT_language(DW_LANG_C)
    2592                            .dwattr $C$DW$T$99, DW_AT_decl_file("C:/TI_CodeComposer/ccsv6/tools/compiler/ti-cgt-arm_15.12.
    2593                            .dwattr $C$DW$T$99, DW_AT_decl_line(0x2c)
    2594                            .dwattr $C$DW$T$99, DW_AT_decl_column(0x1d)
    2595                    
    2596                    $C$DW$T$100     .dwtag  DW_TAG_typedef
    2597                            .dwattr $C$DW$T$100, DW_AT_name("int_least16_t")
    2598                            .dwattr $C$DW$T$100, DW_AT_type(*$C$DW$T$99)
    2599                            .dwattr $C$DW$T$100, DW_AT_language(DW_LANG_C)
    2600                            .dwattr $C$DW$T$100, DW_AT_decl_file("C:/TI_CodeComposer/ccsv6/tools/compiler/ti-cgt-arm_15.12
    2601                            .dwattr $C$DW$T$100, DW_AT_decl_line(0x3a)
    2602                            .dwattr $C$DW$T$100, DW_AT_decl_column(0x17)
    2603                    
    2604                    $C$DW$T$101     .dwtag  DW_TAG_typedef
    2605                            .dwattr $C$DW$T$101, DW_AT_name("portSHORT")
    2606                            .dwattr $C$DW$T$101, DW_AT_type(*$C$DW$T$99)
    2607                            .dwattr $C$DW$T$101, DW_AT_language(DW_LANG_C)
    2608                            .dwattr $C$DW$T$101, DW_AT_decl_file("C:/TI_ARM_Tiva_Projects/Source/portable/CCS/ARM_CM4F/por
    2609                            .dwattr $C$DW$T$101, DW_AT_decl_line(0x64)
    2610                            .dwattr $C$DW$T$101, DW_AT_decl_column(0x12)
    2611                    
    2612                    $C$DW$T$9       .dwtag  DW_TAG_base_type
    2613                            .dwattr $C$DW$T$9, DW_AT_encoding(DW_ATE_unsigned)
    2614                            .dwattr $C$DW$T$9, DW_AT_name("unsigned short")
    2615                            .dwattr $C$DW$T$9, DW_AT_byte_size(0x02)
    2616                    
    2617                    $C$DW$T$48      .dwtag  DW_TAG_typedef
    2618                            .dwattr $C$DW$T$48, DW_AT_name("uint16_t")
    2619                            .dwattr $C$DW$T$48, DW_AT_type(*$C$DW$T$9)
    2620                            .dwattr $C$DW$T$48, DW_AT_language(DW_LANG_C)
    2621                            .dwattr $C$DW$T$48, DW_AT_decl_file("C:/TI_CodeComposer/ccsv6/tools/compiler/ti-cgt-arm_15.12.
    2622                            .dwattr $C$DW$T$48, DW_AT_decl_line(0x2d)
    2623                            .dwattr $C$DW$T$48, DW_AT_decl_column(0x1c)
    2624                    
    2625                    $C$DW$T$102     .dwtag  DW_TAG_typedef
    2626                            .dwattr $C$DW$T$102, DW_AT_name("uint_least16_t")
    2627                            .dwattr $C$DW$T$102, DW_AT_type(*$C$DW$T$48)
    2628                            .dwattr $C$DW$T$102, DW_AT_language(DW_LANG_C)
    2629                            .dwattr $C$DW$T$102, DW_AT_decl_file("C:/TI_CodeComposer/ccsv6/tools/compiler/ti-cgt-arm_15.12
    2630                            .dwattr $C$DW$T$102, DW_AT_decl_line(0x3b)
    2631                            .dwattr $C$DW$T$102, DW_AT_decl_column(0x16)
    2632                    
    2633                    $C$DW$T$103     .dwtag  DW_TAG_typedef
    2634                            .dwattr $C$DW$T$103, DW_AT_name("wchar_t")
    2635                            .dwattr $C$DW$T$103, DW_AT_type(*$C$DW$T$9)
    2636                            .dwattr $C$DW$T$103, DW_AT_language(DW_LANG_C)
    2637                            .dwattr $C$DW$T$103, DW_AT_decl_file("C:/TI_CodeComposer/ccsv6/tools/compiler/ti-cgt-arm_15.12
    2638                            .dwattr $C$DW$T$103, DW_AT_decl_line(0x78)
    2639                            .dwattr $C$DW$T$103, DW_AT_decl_column(0x1a)
TI ARM Assembler PC v15.12.1 Tue Oct 18 10:42:40 2016

Tools Copyright (c) 1996-2015 Texas Instruments Incorporated
event_groups.asm                                                     PAGE   49

    2640                    
    2641                    $C$DW$T$10      .dwtag  DW_TAG_base_type
    2642                            .dwattr $C$DW$T$10, DW_AT_encoding(DW_ATE_signed)
    2643                            .dwattr $C$DW$T$10, DW_AT_name("int")
    2644                            .dwattr $C$DW$T$10, DW_AT_byte_size(0x04)
    2645                    
    2646                    
    2647                    $C$DW$T$104     .dwtag  DW_TAG_subroutine_type
    2648                            .dwattr $C$DW$T$104, DW_AT_type(*$C$DW$T$10)
    2649                            .dwattr $C$DW$T$104, DW_AT_language(DW_LANG_C)
    2650                    $C$DW$174       .dwtag  DW_TAG_formal_parameter
    2651                            .dwattr $C$DW$174, DW_AT_type(*$C$DW$T$88)
    2652                    
    2653                    $C$DW$175       .dwtag  DW_TAG_formal_parameter
    2654                            .dwattr $C$DW$175, DW_AT_type(*$C$DW$T$88)
    2655                    
    2656                            .dwendtag $C$DW$T$104
    2657                    
    2658                    $C$DW$T$105     .dwtag  DW_TAG_pointer_type
    2659                            .dwattr $C$DW$T$105, DW_AT_type(*$C$DW$T$104)
    2660                            .dwattr $C$DW$T$105, DW_AT_address_class(0x20)
    2661                    
    2662                    $C$DW$T$106     .dwtag  DW_TAG_typedef
    2663                            .dwattr $C$DW$T$106, DW_AT_name("__TI_compar_fn")
    2664                            .dwattr $C$DW$T$106, DW_AT_type(*$C$DW$T$105)
    2665                            .dwattr $C$DW$T$106, DW_AT_language(DW_LANG_C)
    2666                            .dwattr $C$DW$T$106, DW_AT_decl_file("C:/TI_CodeComposer/ccsv6/tools/compiler/ti-cgt-arm_15.12
    2667                            .dwattr $C$DW$T$106, DW_AT_decl_line(0xbc)
    2668                            .dwattr $C$DW$T$106, DW_AT_decl_column(0x13)
    2669                    
    2670                    $C$DW$T$58      .dwtag  DW_TAG_typedef
    2671                            .dwattr $C$DW$T$58, DW_AT_name("int32_t")
    2672                            .dwattr $C$DW$T$58, DW_AT_type(*$C$DW$T$10)
    2673                            .dwattr $C$DW$T$58, DW_AT_language(DW_LANG_C)
    2674                            .dwattr $C$DW$T$58, DW_AT_decl_file("C:/TI_CodeComposer/ccsv6/tools/compiler/ti-cgt-arm_15.12.
    2675                            .dwattr $C$DW$T$58, DW_AT_decl_line(0x2e)
    2676                            .dwattr $C$DW$T$58, DW_AT_decl_column(0x1d)
    2677                    
    2678                    $C$DW$T$59      .dwtag  DW_TAG_typedef
    2679                            .dwattr $C$DW$T$59, DW_AT_name("BaseType_t")
    2680                            .dwattr $C$DW$T$59, DW_AT_type(*$C$DW$T$58)
    2681                            .dwattr $C$DW$T$59, DW_AT_language(DW_LANG_C)
    2682                            .dwattr $C$DW$T$59, DW_AT_decl_file("C:/TI_ARM_Tiva_Projects/Source/portable/CCS/ARM_CM4F/port
    2683                            .dwattr $C$DW$T$59, DW_AT_decl_line(0x69)
    2684                            .dwattr $C$DW$T$59, DW_AT_decl_column(0x12)
    2685                    
    2686                    $C$DW$T$107     .dwtag  DW_TAG_const_type
    2687                            .dwattr $C$DW$T$107, DW_AT_type(*$C$DW$T$59)
    2688                    
    2689                    
    2690                    $C$DW$T$115     .dwtag  DW_TAG_subroutine_type
    2691                            .dwattr $C$DW$T$115, DW_AT_type(*$C$DW$T$59)
    2692                            .dwattr $C$DW$T$115, DW_AT_language(DW_LANG_C)
    2693                    $C$DW$176       .dwtag  DW_TAG_formal_parameter
    2694                            .dwattr $C$DW$176, DW_AT_type(*$C$DW$T$3)
TI ARM Assembler PC v15.12.1 Tue Oct 18 10:42:40 2016

Tools Copyright (c) 1996-2015 Texas Instruments Incorporated
event_groups.asm                                                     PAGE   50

    2695                    
    2696                            .dwendtag $C$DW$T$115
    2697                    
    2698                    $C$DW$T$116     .dwtag  DW_TAG_pointer_type
    2699                            .dwattr $C$DW$T$116, DW_AT_type(*$C$DW$T$115)
    2700                            .dwattr $C$DW$T$116, DW_AT_address_class(0x20)
    2701                    
    2702                    $C$DW$T$117     .dwtag  DW_TAG_typedef
    2703                            .dwattr $C$DW$T$117, DW_AT_name("TaskHookFunction_t")
    2704                            .dwattr $C$DW$T$117, DW_AT_type(*$C$DW$T$116)
    2705                            .dwattr $C$DW$T$117, DW_AT_language(DW_LANG_C)
    2706                            .dwattr $C$DW$T$117, DW_AT_decl_file("C:/TI_ARM_Tiva_Projects/Source/include/task.h")
    2707                            .dwattr $C$DW$T$117, DW_AT_decl_line(0x6d)
    2708                            .dwattr $C$DW$T$117, DW_AT_decl_column(0x16)
    2709                    
    2710                    $C$DW$T$118     .dwtag  DW_TAG_typedef
    2711                            .dwattr $C$DW$T$118, DW_AT_name("int_fast16_t")
    2712                            .dwattr $C$DW$T$118, DW_AT_type(*$C$DW$T$58)
    2713                            .dwattr $C$DW$T$118, DW_AT_language(DW_LANG_C)
    2714                            .dwattr $C$DW$T$118, DW_AT_decl_file("C:/TI_CodeComposer/ccsv6/tools/compiler/ti-cgt-arm_15.12
    2715                            .dwattr $C$DW$T$118, DW_AT_decl_line(0x47)
    2716                            .dwattr $C$DW$T$118, DW_AT_decl_column(0x17)
    2717                    
    2718                    $C$DW$T$119     .dwtag  DW_TAG_typedef
    2719                            .dwattr $C$DW$T$119, DW_AT_name("int_fast32_t")
    2720                            .dwattr $C$DW$T$119, DW_AT_type(*$C$DW$T$58)
    2721                            .dwattr $C$DW$T$119, DW_AT_language(DW_LANG_C)
    2722                            .dwattr $C$DW$T$119, DW_AT_decl_file("C:/TI_CodeComposer/ccsv6/tools/compiler/ti-cgt-arm_15.12
    2723                            .dwattr $C$DW$T$119, DW_AT_decl_line(0x4a)
    2724                            .dwattr $C$DW$T$119, DW_AT_decl_column(0x17)
    2725                    
    2726                    $C$DW$T$120     .dwtag  DW_TAG_typedef
    2727                            .dwattr $C$DW$T$120, DW_AT_name("int_fast8_t")
    2728                            .dwattr $C$DW$T$120, DW_AT_type(*$C$DW$T$58)
    2729                            .dwattr $C$DW$T$120, DW_AT_language(DW_LANG_C)
    2730                            .dwattr $C$DW$T$120, DW_AT_decl_file("C:/TI_CodeComposer/ccsv6/tools/compiler/ti-cgt-arm_15.12
    2731                            .dwattr $C$DW$T$120, DW_AT_decl_line(0x45)
    2732                            .dwattr $C$DW$T$120, DW_AT_decl_column(0x17)
    2733                    
    2734                    $C$DW$T$121     .dwtag  DW_TAG_typedef
    2735                            .dwattr $C$DW$T$121, DW_AT_name("int_least32_t")
    2736                            .dwattr $C$DW$T$121, DW_AT_type(*$C$DW$T$58)
    2737                            .dwattr $C$DW$T$121, DW_AT_language(DW_LANG_C)
    2738                            .dwattr $C$DW$T$121, DW_AT_decl_file("C:/TI_CodeComposer/ccsv6/tools/compiler/ti-cgt-arm_15.12
    2739                            .dwattr $C$DW$T$121, DW_AT_decl_line(0x3c)
    2740                            .dwattr $C$DW$T$121, DW_AT_decl_column(0x17)
    2741                    
    2742                    $C$DW$T$122     .dwtag  DW_TAG_typedef
    2743                            .dwattr $C$DW$T$122, DW_AT_name("portBASE_TYPE")
    2744                            .dwattr $C$DW$T$122, DW_AT_type(*$C$DW$T$58)
    2745                            .dwattr $C$DW$T$122, DW_AT_language(DW_LANG_C)
    2746                            .dwattr $C$DW$T$122, DW_AT_decl_file("C:/TI_ARM_Tiva_Projects/Source/portable/CCS/ARM_CM4F/por
    2747                            .dwattr $C$DW$T$122, DW_AT_decl_line(0x66)
    2748                            .dwattr $C$DW$T$122, DW_AT_decl_column(0x12)
    2749                    
TI ARM Assembler PC v15.12.1 Tue Oct 18 10:42:40 2016

Tools Copyright (c) 1996-2015 Texas Instruments Incorporated
event_groups.asm                                                     PAGE   51

    2750                    $C$DW$T$123     .dwtag  DW_TAG_typedef
    2751                            .dwattr $C$DW$T$123, DW_AT_name("portLONG")
    2752                            .dwattr $C$DW$T$123, DW_AT_type(*$C$DW$T$58)
    2753                            .dwattr $C$DW$T$123, DW_AT_language(DW_LANG_C)
    2754                            .dwattr $C$DW$T$123, DW_AT_decl_file("C:/TI_ARM_Tiva_Projects/Source/portable/CCS/ARM_CM4F/por
    2755                            .dwattr $C$DW$T$123, DW_AT_decl_line(0x63)
    2756                            .dwattr $C$DW$T$123, DW_AT_decl_column(0x12)
    2757                    
    2758                    $C$DW$T$124     .dwtag  DW_TAG_typedef
    2759                            .dwattr $C$DW$T$124, DW_AT_name("intptr_t")
    2760                            .dwattr $C$DW$T$124, DW_AT_type(*$C$DW$T$10)
    2761                            .dwattr $C$DW$T$124, DW_AT_language(DW_LANG_C)
    2762                            .dwattr $C$DW$T$124, DW_AT_decl_file("C:/TI_CodeComposer/ccsv6/tools/compiler/ti-cgt-arm_15.12
    2763                            .dwattr $C$DW$T$124, DW_AT_decl_line(0x52)
    2764                            .dwattr $C$DW$T$124, DW_AT_decl_column(0x1a)
    2765                    
    2766                    $C$DW$T$125     .dwtag  DW_TAG_typedef
    2767                            .dwattr $C$DW$T$125, DW_AT_name("ptrdiff_t")
    2768                            .dwattr $C$DW$T$125, DW_AT_type(*$C$DW$T$10)
    2769                            .dwattr $C$DW$T$125, DW_AT_language(DW_LANG_C)
    2770                            .dwattr $C$DW$T$125, DW_AT_decl_file("C:/TI_CodeComposer/ccsv6/tools/compiler/ti-cgt-arm_15.12
    2771                            .dwattr $C$DW$T$125, DW_AT_decl_line(0x36)
    2772                            .dwattr $C$DW$T$125, DW_AT_decl_column(0x1c)
    2773                    
    2774                    $C$DW$T$11      .dwtag  DW_TAG_base_type
    2775                            .dwattr $C$DW$T$11, DW_AT_encoding(DW_ATE_unsigned)
    2776                            .dwattr $C$DW$T$11, DW_AT_name("unsigned int")
    2777                            .dwattr $C$DW$T$11, DW_AT_byte_size(0x04)
    2778                    
    2779                    $C$DW$T$24      .dwtag  DW_TAG_typedef
    2780                            .dwattr $C$DW$T$24, DW_AT_name("size_t")
    2781                            .dwattr $C$DW$T$24, DW_AT_type(*$C$DW$T$11)
    2782                            .dwattr $C$DW$T$24, DW_AT_language(DW_LANG_C)
    2783                            .dwattr $C$DW$T$24, DW_AT_decl_file("C:/TI_CodeComposer/ccsv6/tools/compiler/ti-cgt-arm_15.12.
    2784                            .dwattr $C$DW$T$24, DW_AT_decl_line(0x72)
    2785                            .dwattr $C$DW$T$24, DW_AT_decl_column(0x19)
    2786                    
    2787                    $C$DW$T$27      .dwtag  DW_TAG_typedef
    2788                            .dwattr $C$DW$T$27, DW_AT_name("uint32_t")
    2789                            .dwattr $C$DW$T$27, DW_AT_type(*$C$DW$T$11)
    2790                            .dwattr $C$DW$T$27, DW_AT_language(DW_LANG_C)
    2791                            .dwattr $C$DW$T$27, DW_AT_decl_file("C:/TI_CodeComposer/ccsv6/tools/compiler/ti-cgt-arm_15.12.
    2792                            .dwattr $C$DW$T$27, DW_AT_decl_line(0x2f)
    2793                            .dwattr $C$DW$T$27, DW_AT_decl_column(0x1c)
    2794                    
    2795                    $C$DW$T$49      .dwtag  DW_TAG_typedef
    2796                            .dwattr $C$DW$T$49, DW_AT_name("StackType_t")
    2797                            .dwattr $C$DW$T$49, DW_AT_type(*$C$DW$T$27)
    2798                            .dwattr $C$DW$T$49, DW_AT_language(DW_LANG_C)
    2799                            .dwattr $C$DW$T$49, DW_AT_decl_file("C:/TI_ARM_Tiva_Projects/Source/portable/CCS/ARM_CM4F/port
    2800                            .dwattr $C$DW$T$49, DW_AT_decl_line(0x68)
    2801                            .dwattr $C$DW$T$49, DW_AT_decl_column(0x12)
    2802                    
    2803                    $C$DW$T$50      .dwtag  DW_TAG_pointer_type
    2804                            .dwattr $C$DW$T$50, DW_AT_type(*$C$DW$T$49)
TI ARM Assembler PC v15.12.1 Tue Oct 18 10:42:40 2016

Tools Copyright (c) 1996-2015 Texas Instruments Incorporated
event_groups.asm                                                     PAGE   52

    2805                            .dwattr $C$DW$T$50, DW_AT_address_class(0x20)
    2806                    
    2807                    $C$DW$T$28      .dwtag  DW_TAG_typedef
    2808                            .dwattr $C$DW$T$28, DW_AT_name("TickType_t")
    2809                            .dwattr $C$DW$T$28, DW_AT_type(*$C$DW$T$27)
    2810                            .dwattr $C$DW$T$28, DW_AT_language(DW_LANG_C)
    2811                            .dwattr $C$DW$T$28, DW_AT_decl_file("C:/TI_ARM_Tiva_Projects/Source/portable/CCS/ARM_CM4F/port
    2812                            .dwattr $C$DW$T$28, DW_AT_decl_line(0x70)
    2813                            .dwattr $C$DW$T$28, DW_AT_decl_column(0x13)
    2814                    
    2815                    $C$DW$T$29      .dwtag  DW_TAG_typedef
    2816                            .dwattr $C$DW$T$29, DW_AT_name("EventBits_t")
    2817                            .dwattr $C$DW$T$29, DW_AT_type(*$C$DW$T$28)
    2818                            .dwattr $C$DW$T$29, DW_AT_language(DW_LANG_C)
    2819                            .dwattr $C$DW$T$29, DW_AT_decl_file("C:/TI_ARM_Tiva_Projects/Source/include/event_groups.h")
    2820                            .dwattr $C$DW$T$29, DW_AT_decl_line(0x84)
    2821                            .dwattr $C$DW$T$29, DW_AT_decl_column(0x14)
    2822                    
    2823                    $C$DW$T$112     .dwtag  DW_TAG_const_type
    2824                            .dwattr $C$DW$T$112, DW_AT_type(*$C$DW$T$29)
    2825                    
    2826                    $C$DW$T$81      .dwtag  DW_TAG_const_type
    2827                            .dwattr $C$DW$T$81, DW_AT_type(*$C$DW$T$28)
    2828                    
    2829                    $C$DW$T$31      .dwtag  DW_TAG_typedef
    2830                            .dwattr $C$DW$T$31, DW_AT_name("UBaseType_t")
    2831                            .dwattr $C$DW$T$31, DW_AT_type(*$C$DW$T$27)
    2832                            .dwattr $C$DW$T$31, DW_AT_language(DW_LANG_C)
    2833                            .dwattr $C$DW$T$31, DW_AT_decl_file("C:/TI_ARM_Tiva_Projects/Source/portable/CCS/ARM_CM4F/port
    2834                            .dwattr $C$DW$T$31, DW_AT_decl_line(0x6a)
    2835                            .dwattr $C$DW$T$31, DW_AT_decl_column(0x12)
    2836                    
    2837                    $C$DW$T$136     .dwtag  DW_TAG_typedef
    2838                            .dwattr $C$DW$T$136, DW_AT_name("portSTACK_TYPE")
    2839                            .dwattr $C$DW$T$136, DW_AT_type(*$C$DW$T$27)
    2840                            .dwattr $C$DW$T$136, DW_AT_language(DW_LANG_C)
    2841                            .dwattr $C$DW$T$136, DW_AT_decl_file("C:/TI_ARM_Tiva_Projects/Source/portable/CCS/ARM_CM4F/por
    2842                            .dwattr $C$DW$T$136, DW_AT_decl_line(0x65)
    2843                            .dwattr $C$DW$T$136, DW_AT_decl_column(0x12)
    2844                    
    2845                    $C$DW$T$85      .dwtag  DW_TAG_const_type
    2846                            .dwattr $C$DW$T$85, DW_AT_type(*$C$DW$T$27)
    2847                    
    2848                    $C$DW$T$139     .dwtag  DW_TAG_typedef
    2849                            .dwattr $C$DW$T$139, DW_AT_name("uint_fast16_t")
    2850                            .dwattr $C$DW$T$139, DW_AT_type(*$C$DW$T$27)
    2851                            .dwattr $C$DW$T$139, DW_AT_language(DW_LANG_C)
    2852                            .dwattr $C$DW$T$139, DW_AT_decl_file("C:/TI_CodeComposer/ccsv6/tools/compiler/ti-cgt-arm_15.12
    2853                            .dwattr $C$DW$T$139, DW_AT_decl_line(0x48)
    2854                            .dwattr $C$DW$T$139, DW_AT_decl_column(0x16)
    2855                    
    2856                    $C$DW$T$140     .dwtag  DW_TAG_typedef
    2857                            .dwattr $C$DW$T$140, DW_AT_name("uint_fast32_t")
    2858                            .dwattr $C$DW$T$140, DW_AT_type(*$C$DW$T$27)
    2859                            .dwattr $C$DW$T$140, DW_AT_language(DW_LANG_C)
TI ARM Assembler PC v15.12.1 Tue Oct 18 10:42:40 2016

Tools Copyright (c) 1996-2015 Texas Instruments Incorporated
event_groups.asm                                                     PAGE   53

    2860                            .dwattr $C$DW$T$140, DW_AT_decl_file("C:/TI_CodeComposer/ccsv6/tools/compiler/ti-cgt-arm_15.12
    2861                            .dwattr $C$DW$T$140, DW_AT_decl_line(0x4b)
    2862                            .dwattr $C$DW$T$140, DW_AT_decl_column(0x16)
    2863                    
    2864                    $C$DW$T$141     .dwtag  DW_TAG_typedef
    2865                            .dwattr $C$DW$T$141, DW_AT_name("uint_fast8_t")
    2866                            .dwattr $C$DW$T$141, DW_AT_type(*$C$DW$T$27)
    2867                            .dwattr $C$DW$T$141, DW_AT_language(DW_LANG_C)
    2868                            .dwattr $C$DW$T$141, DW_AT_decl_file("C:/TI_CodeComposer/ccsv6/tools/compiler/ti-cgt-arm_15.12
    2869                            .dwattr $C$DW$T$141, DW_AT_decl_line(0x46)
    2870                            .dwattr $C$DW$T$141, DW_AT_decl_column(0x16)
    2871                    
    2872                    $C$DW$T$142     .dwtag  DW_TAG_typedef
    2873                            .dwattr $C$DW$T$142, DW_AT_name("uint_least32_t")
    2874                            .dwattr $C$DW$T$142, DW_AT_type(*$C$DW$T$27)
    2875                            .dwattr $C$DW$T$142, DW_AT_language(DW_LANG_C)
    2876                            .dwattr $C$DW$T$142, DW_AT_decl_file("C:/TI_CodeComposer/ccsv6/tools/compiler/ti-cgt-arm_15.12
    2877                            .dwattr $C$DW$T$142, DW_AT_decl_line(0x3d)
    2878                            .dwattr $C$DW$T$142, DW_AT_decl_column(0x16)
    2879                    
    2880                    $C$DW$T$143     .dwtag  DW_TAG_typedef
    2881                            .dwattr $C$DW$T$143, DW_AT_name("uintptr_t")
    2882                            .dwattr $C$DW$T$143, DW_AT_type(*$C$DW$T$11)
    2883                            .dwattr $C$DW$T$143, DW_AT_language(DW_LANG_C)
    2884                            .dwattr $C$DW$T$143, DW_AT_decl_file("C:/TI_CodeComposer/ccsv6/tools/compiler/ti-cgt-arm_15.12
    2885                            .dwattr $C$DW$T$143, DW_AT_decl_line(0x53)
    2886                            .dwattr $C$DW$T$143, DW_AT_decl_column(0x1a)
    2887                    
    2888                    $C$DW$T$12      .dwtag  DW_TAG_base_type
    2889                            .dwattr $C$DW$T$12, DW_AT_encoding(DW_ATE_signed)
    2890                            .dwattr $C$DW$T$12, DW_AT_name("long")
    2891                            .dwattr $C$DW$T$12, DW_AT_byte_size(0x04)
    2892                    
