TI ARM Assembler PC v15.12.1 Tue Oct 18 10:42:41 2016

Tools Copyright (c) 1996-2015 Texas Instruments Incorporated
list.asm                                                             PAGE    1

       1                    ;******************************************************************************
       2                    ;* TI ARM C/C++ Codegen                                       PC v15.12.1.LTS *
       3                    ;* Date/Time created: Tue Oct 18 10:42:41 2016                                *
       4                    ;******************************************************************************
       5                            .compiler_opts --abi=eabi --arm_vmrs_si_workaround=off --code_state=16 --diag_wrap=off --disab
       6 00000000                   .thumb
       7                    
       8                    $C$DW$CU        .dwtag  DW_TAG_compile_unit
       9                            .dwattr $C$DW$CU, DW_AT_name("C:/TI_ARM_Tiva_Projects/Source/list.c")
      10                            .dwattr $C$DW$CU, DW_AT_producer("TI TI ARM C/C++ Codegen PC v15.12.1.LTS Copyright (c) 1996-2
      11                            .dwattr $C$DW$CU, DW_AT_TI_version(0x01)
      12                            .dwattr $C$DW$CU, DW_AT_comp_dir("C:\TI_ARM_Tiva_Projects\Proj2_Magnetometer\Debug")
      13                    ;       C:\TI_CodeComposer\ccsv6\tools\compiler\ti-cgt-arm_15.12.1.LTS\bin\armacpia.exe -@C:\\Users\\R
      14 00000000                   .sect   ".text"
      15                            .clink
      16                            .thumbfunc vListInitialise
      17 00000000                   .thumb
      18                            .global vListInitialise
      19                    
      20                    $C$DW$1 .dwtag  DW_TAG_subprogram
      21                            .dwattr $C$DW$1, DW_AT_name("vListInitialise")
      22                            .dwattr $C$DW$1, DW_AT_low_pc(vListInitialise)
      23                            .dwattr $C$DW$1, DW_AT_high_pc(0x00)
      24                            .dwattr $C$DW$1, DW_AT_TI_symbol_name("vListInitialise")
      25                            .dwattr $C$DW$1, DW_AT_external
      26                            .dwattr $C$DW$1, DW_AT_TI_begin_file("C:/TI_ARM_Tiva_Projects/Source/list.c")
      27                            .dwattr $C$DW$1, DW_AT_TI_begin_line(0x4f)
      28                            .dwattr $C$DW$1, DW_AT_TI_begin_column(0x06)
      29                            .dwattr $C$DW$1, DW_AT_decl_file("C:/TI_ARM_Tiva_Projects/Source/list.c")
      30                            .dwattr $C$DW$1, DW_AT_decl_line(0x4f)
      31                            .dwattr $C$DW$1, DW_AT_decl_column(0x06)
      32                            .dwattr $C$DW$1, DW_AT_TI_max_frame_size(0x08)
      33                            .dwpsn  file "C:/TI_ARM_Tiva_Projects/Source/list.c",line 80,column 1,is_stmt,address vListIni
      34                    
      35                            .dwfde $C$DW$CIE, vListInitialise
      36                    $C$DW$2 .dwtag  DW_TAG_formal_parameter
      37                            .dwattr $C$DW$2, DW_AT_name("pxList")
      38                            .dwattr $C$DW$2, DW_AT_TI_symbol_name("pxList")
      39                            .dwattr $C$DW$2, DW_AT_type(*$C$DW$T$43)
      40                            .dwattr $C$DW$2, DW_AT_location[DW_OP_reg0]
      41                    
      42                    
      43                    ;*****************************************************************************
      44                    ;* FUNCTION NAME: vListInitialise                                            *
      45                    ;*                                                                           *
      46                    ;*   Regs Modified     : A1,A2,SP,SR                                         *
      47                    ;*   Regs Used         : A1,A2,SP,LR,SR                                      *
      48                    ;*   Local Frame Size  : 0 Args + 4 Auto + 0 Save = 4 byte                   *
      49                    ;*****************************************************************************
      50 00000000           vListInitialise:
      51                    ;* --------------------------------------------------------------------------*
      52                            .dwcfi  cfa_offset, 0
      53 00000000 0D08F1AD          SUB       SP, SP, #8            ; [DPU_3_PIPE]  ; [KEEP 32-BIT INS]
      54                            .dwcfi  cfa_offset, 8
      55                    $C$DW$3 .dwtag  DW_TAG_variable
TI ARM Assembler PC v15.12.1 Tue Oct 18 10:42:41 2016

Tools Copyright (c) 1996-2015 Texas Instruments Incorporated
list.asm                                                             PAGE    2

      56                            .dwattr $C$DW$3, DW_AT_name("pxList")
      57                            .dwattr $C$DW$3, DW_AT_TI_symbol_name("pxList")
      58                            .dwattr $C$DW$3, DW_AT_type(*$C$DW$T$43)
      59                            .dwattr $C$DW$3, DW_AT_location[DW_OP_breg13 0]
      60                    
      61 00000004 9000              STR       A1, [SP, #0]          ; [DPU_3_PIPE] |80|  ; [ORIG 16-BIT INS]
      62                            .dwpsn  file "C:/TI_ARM_Tiva_Projects/Source/list.c",line 84,column 2,is_stmt,isa 1
      63 00000006 9800              LDR       A1, [SP, #0]          ; [DPU_3_PIPE] |84|  ; [ORIG 16-BIT INS]
      64 00000008 9900              LDR       A2, [SP, #0]          ; [DPU_3_PIPE] |84|  ; [ORIG 16-BIT INS]
      65 0000000a 3008              ADDS      A1, A1, #8            ; [DPU_3_PIPE] |84|  ; [ORIG 16-BIT INS]
      66 0000000c 6048              STR       A1, [A2, #4]          ; [DPU_3_PIPE] |84|  ; [ORIG 16-BIT INS]
      67                            .dwpsn  file "C:/TI_ARM_Tiva_Projects/Source/list.c",line 88,column 2,is_stmt,isa 1
      68 0000000e 9800              LDR       A1, [SP, #0]          ; [DPU_3_PIPE] |88|  ; [ORIG 16-BIT INS]
      69 00000010 31FFF04F          MOV       A2, #-1               ; [DPU_3_PIPE] |88|  ; [KEEP 32-BIT INS]
      70 00000014 6081              STR       A2, [A1, #8]          ; [DPU_3_PIPE] |88|  ; [ORIG 16-BIT INS]
      71                            .dwpsn  file "C:/TI_ARM_Tiva_Projects/Source/list.c",line 92,column 2,is_stmt,isa 1
      72 00000016 9800              LDR       A1, [SP, #0]          ; [DPU_3_PIPE] |92|  ; [ORIG 16-BIT INS]
      73 00000018 9900              LDR       A2, [SP, #0]          ; [DPU_3_PIPE] |92|  ; [ORIG 16-BIT INS]
      74 0000001a 3008              ADDS      A1, A1, #8            ; [DPU_3_PIPE] |92|  ; [ORIG 16-BIT INS]
      75 0000001c 60C8              STR       A1, [A2, #12]         ; [DPU_3_PIPE] |92|  ; [ORIG 16-BIT INS]
      76                            .dwpsn  file "C:/TI_ARM_Tiva_Projects/Source/list.c",line 93,column 2,is_stmt,isa 1
      77 0000001e 9800              LDR       A1, [SP, #0]          ; [DPU_3_PIPE] |93|  ; [ORIG 16-BIT INS]
      78 00000020 9900              LDR       A2, [SP, #0]          ; [DPU_3_PIPE] |93|  ; [ORIG 16-BIT INS]
      79 00000022 3008              ADDS      A1, A1, #8            ; [DPU_3_PIPE] |93|  ; [ORIG 16-BIT INS]
      80 00000024 6108              STR       A1, [A2, #16]         ; [DPU_3_PIPE] |93|  ; [ORIG 16-BIT INS]
      81                            .dwpsn  file "C:/TI_ARM_Tiva_Projects/Source/list.c",line 95,column 2,is_stmt,isa 1
      82 00000026 9800              LDR       A1, [SP, #0]          ; [DPU_3_PIPE] |95|  ; [ORIG 16-BIT INS]
      83 00000028 2100              MOVS      A2, #0                ; [DPU_3_PIPE] |95|  ; [ORIG 16-BIT INS]
      84 0000002a 6001              STR       A2, [A1, #0]          ; [DPU_3_PIPE] |95|  ; [ORIG 16-BIT INS]
      85                            .dwpsn  file "C:/TI_ARM_Tiva_Projects/Source/list.c",line 101,column 1,is_stmt,isa 1
      86 0000002c B002              ADD       SP, SP, #8            ; [DPU_3_PIPE]  ; [ORIG 16-BIT INS]
      87                            .dwcfi  cfa_offset, 0
      88                    $C$DW$4 .dwtag  DW_TAG_TI_branch
      89                            .dwattr $C$DW$4, DW_AT_low_pc(0x00)
      90                            .dwattr $C$DW$4, DW_AT_TI_return
      91                    
      92 0000002e 4770              BX        LR                    ; [DPU_3_PIPE]  ; [ORIG 16-BIT INS]
      93                            ; BRANCH OCCURS                  ; [] 
      94                            .dwattr $C$DW$1, DW_AT_TI_end_file("C:/TI_ARM_Tiva_Projects/Source/list.c")
      95                            .dwattr $C$DW$1, DW_AT_TI_end_line(0x65)
      96                            .dwattr $C$DW$1, DW_AT_TI_end_column(0x01)
      97                            .dwendentry
      98                            .dwendtag $C$DW$1
      99                    
     100 00000030                   .sect   ".text"
     101                            .clink
     102                            .thumbfunc vListInitialiseItem
     103 00000030                   .thumb
     104                            .global vListInitialiseItem
     105                    
     106                    $C$DW$5 .dwtag  DW_TAG_subprogram
     107                            .dwattr $C$DW$5, DW_AT_name("vListInitialiseItem")
     108                            .dwattr $C$DW$5, DW_AT_low_pc(vListInitialiseItem)
     109                            .dwattr $C$DW$5, DW_AT_high_pc(0x00)
     110                            .dwattr $C$DW$5, DW_AT_TI_symbol_name("vListInitialiseItem")
TI ARM Assembler PC v15.12.1 Tue Oct 18 10:42:41 2016

Tools Copyright (c) 1996-2015 Texas Instruments Incorporated
list.asm                                                             PAGE    3

     111                            .dwattr $C$DW$5, DW_AT_external
     112                            .dwattr $C$DW$5, DW_AT_TI_begin_file("C:/TI_ARM_Tiva_Projects/Source/list.c")
     113                            .dwattr $C$DW$5, DW_AT_TI_begin_line(0x68)
     114                            .dwattr $C$DW$5, DW_AT_TI_begin_column(0x06)
     115                            .dwattr $C$DW$5, DW_AT_decl_file("C:/TI_ARM_Tiva_Projects/Source/list.c")
     116                            .dwattr $C$DW$5, DW_AT_decl_line(0x68)
     117                            .dwattr $C$DW$5, DW_AT_decl_column(0x06)
     118                            .dwattr $C$DW$5, DW_AT_TI_max_frame_size(0x08)
     119                            .dwpsn  file "C:/TI_ARM_Tiva_Projects/Source/list.c",line 105,column 1,is_stmt,address vListIn
     120                    
     121                            .dwfde $C$DW$CIE, vListInitialiseItem
     122                    $C$DW$6 .dwtag  DW_TAG_formal_parameter
     123                            .dwattr $C$DW$6, DW_AT_name("pxItem")
     124                            .dwattr $C$DW$6, DW_AT_TI_symbol_name("pxItem")
     125                            .dwattr $C$DW$6, DW_AT_type(*$C$DW$T$45)
     126                            .dwattr $C$DW$6, DW_AT_location[DW_OP_reg0]
     127                    
     128                    
     129                    ;*****************************************************************************
     130                    ;* FUNCTION NAME: vListInitialiseItem                                        *
     131                    ;*                                                                           *
     132                    ;*   Regs Modified     : A1,A2,SP,SR                                         *
     133                    ;*   Regs Used         : A1,A2,SP,LR,SR                                      *
     134                    ;*   Local Frame Size  : 0 Args + 4 Auto + 0 Save = 4 byte                   *
     135                    ;*****************************************************************************
     136 00000030           vListInitialiseItem:
     137                    ;* --------------------------------------------------------------------------*
     138                            .dwcfi  cfa_offset, 0
     139 00000030 0D08F1AD          SUB       SP, SP, #8            ; [DPU_3_PIPE]  ; [KEEP 32-BIT INS]
     140                            .dwcfi  cfa_offset, 8
     141                    $C$DW$7 .dwtag  DW_TAG_variable
     142                            .dwattr $C$DW$7, DW_AT_name("pxItem")
     143                            .dwattr $C$DW$7, DW_AT_TI_symbol_name("pxItem")
     144                            .dwattr $C$DW$7, DW_AT_type(*$C$DW$T$45)
     145                            .dwattr $C$DW$7, DW_AT_location[DW_OP_breg13 0]
     146                    
     147 00000034 9000              STR       A1, [SP, #0]          ; [DPU_3_PIPE] |105|  ; [ORIG 16-BIT INS]
     148                            .dwpsn  file "C:/TI_ARM_Tiva_Projects/Source/list.c",line 107,column 2,is_stmt,isa 1
     149 00000036 9800              LDR       A1, [SP, #0]          ; [DPU_3_PIPE] |107|  ; [ORIG 16-BIT INS]
     150 00000038 2100              MOVS      A2, #0                ; [DPU_3_PIPE] |107|  ; [ORIG 16-BIT INS]
     151 0000003a 6101              STR       A2, [A1, #16]         ; [DPU_3_PIPE] |107|  ; [ORIG 16-BIT INS]
     152                            .dwpsn  file "C:/TI_ARM_Tiva_Projects/Source/list.c",line 113,column 1,is_stmt,isa 1
     153 0000003c B002              ADD       SP, SP, #8            ; [DPU_3_PIPE]  ; [ORIG 16-BIT INS]
     154                            .dwcfi  cfa_offset, 0
     155                    $C$DW$8 .dwtag  DW_TAG_TI_branch
     156                            .dwattr $C$DW$8, DW_AT_low_pc(0x00)
     157                            .dwattr $C$DW$8, DW_AT_TI_return
     158                    
     159 0000003e 4770              BX        LR                    ; [DPU_3_PIPE]  ; [ORIG 16-BIT INS]
     160                            ; BRANCH OCCURS                  ; [] 
     161                            .dwattr $C$DW$5, DW_AT_TI_end_file("C:/TI_ARM_Tiva_Projects/Source/list.c")
     162                            .dwattr $C$DW$5, DW_AT_TI_end_line(0x71)
     163                            .dwattr $C$DW$5, DW_AT_TI_end_column(0x01)
     164                            .dwendentry
     165                            .dwendtag $C$DW$5
TI ARM Assembler PC v15.12.1 Tue Oct 18 10:42:41 2016

Tools Copyright (c) 1996-2015 Texas Instruments Incorporated
list.asm                                                             PAGE    4

     166                    
     167 00000040                   .sect   ".text"
     168                            .clink
     169                            .thumbfunc vListInsertEnd
     170 00000040                   .thumb
     171                            .global vListInsertEnd
     172                    
     173                    $C$DW$9 .dwtag  DW_TAG_subprogram
     174                            .dwattr $C$DW$9, DW_AT_name("vListInsertEnd")
     175                            .dwattr $C$DW$9, DW_AT_low_pc(vListInsertEnd)
     176                            .dwattr $C$DW$9, DW_AT_high_pc(0x00)
     177                            .dwattr $C$DW$9, DW_AT_TI_symbol_name("vListInsertEnd")
     178                            .dwattr $C$DW$9, DW_AT_external
     179                            .dwattr $C$DW$9, DW_AT_TI_begin_file("C:/TI_ARM_Tiva_Projects/Source/list.c")
     180                            .dwattr $C$DW$9, DW_AT_TI_begin_line(0x74)
     181                            .dwattr $C$DW$9, DW_AT_TI_begin_column(0x06)
     182                            .dwattr $C$DW$9, DW_AT_decl_file("C:/TI_ARM_Tiva_Projects/Source/list.c")
     183                            .dwattr $C$DW$9, DW_AT_decl_line(0x74)
     184                            .dwattr $C$DW$9, DW_AT_decl_column(0x06)
     185                            .dwattr $C$DW$9, DW_AT_TI_max_frame_size(0x10)
     186                            .dwpsn  file "C:/TI_ARM_Tiva_Projects/Source/list.c",line 117,column 1,is_stmt,address vListIn
     187                    
     188                            .dwfde $C$DW$CIE, vListInsertEnd
     189                    $C$DW$10        .dwtag  DW_TAG_formal_parameter
     190                            .dwattr $C$DW$10, DW_AT_name("pxList")
     191                            .dwattr $C$DW$10, DW_AT_TI_symbol_name("pxList")
     192                            .dwattr $C$DW$10, DW_AT_type(*$C$DW$T$43)
     193                            .dwattr $C$DW$10, DW_AT_location[DW_OP_reg0]
     194                    
     195                    $C$DW$11        .dwtag  DW_TAG_formal_parameter
     196                            .dwattr $C$DW$11, DW_AT_name("pxNewListItem")
     197                            .dwattr $C$DW$11, DW_AT_TI_symbol_name("pxNewListItem")
     198                            .dwattr $C$DW$11, DW_AT_type(*$C$DW$T$45)
     199                            .dwattr $C$DW$11, DW_AT_location[DW_OP_reg1]
     200                    
     201                    
     202                    ;*****************************************************************************
     203                    ;* FUNCTION NAME: vListInsertEnd                                             *
     204                    ;*                                                                           *
     205                    ;*   Regs Modified     : A1,A2,SP,SR                                         *
     206                    ;*   Regs Used         : A1,A2,SP,LR,SR                                      *
     207                    ;*   Local Frame Size  : 0 Args + 12 Auto + 0 Save = 12 byte                 *
     208                    ;*****************************************************************************
     209 00000040           vListInsertEnd:
     210                    ;* --------------------------------------------------------------------------*
     211                            .dwcfi  cfa_offset, 0
     212 00000040 0D10F1AD          SUB       SP, SP, #16           ; [DPU_3_PIPE]  ; [KEEP 32-BIT INS]
     213                            .dwcfi  cfa_offset, 16
     214                    $C$DW$12        .dwtag  DW_TAG_variable
     215                            .dwattr $C$DW$12, DW_AT_name("pxList")
     216                            .dwattr $C$DW$12, DW_AT_TI_symbol_name("pxList")
     217                            .dwattr $C$DW$12, DW_AT_type(*$C$DW$T$43)
     218                            .dwattr $C$DW$12, DW_AT_location[DW_OP_breg13 0]
     219                    
     220                    $C$DW$13        .dwtag  DW_TAG_variable
TI ARM Assembler PC v15.12.1 Tue Oct 18 10:42:41 2016

Tools Copyright (c) 1996-2015 Texas Instruments Incorporated
list.asm                                                             PAGE    5

     221                            .dwattr $C$DW$13, DW_AT_name("pxNewListItem")
     222                            .dwattr $C$DW$13, DW_AT_TI_symbol_name("pxNewListItem")
     223                            .dwattr $C$DW$13, DW_AT_type(*$C$DW$T$45)
     224                            .dwattr $C$DW$13, DW_AT_location[DW_OP_breg13 4]
     225                    
     226                    $C$DW$14        .dwtag  DW_TAG_variable
     227                            .dwattr $C$DW$14, DW_AT_name("pxIndex")
     228                            .dwattr $C$DW$14, DW_AT_TI_symbol_name("pxIndex")
     229                            .dwattr $C$DW$14, DW_AT_type(*$C$DW$T$45)
     230                            .dwattr $C$DW$14, DW_AT_location[DW_OP_breg13 8]
     231                    
     232 00000044 9101              STR       A2, [SP, #4]          ; [DPU_3_PIPE] |117|  ; [ORIG 16-BIT INS]
     233 00000046 9000              STR       A1, [SP, #0]          ; [DPU_3_PIPE] |117|  ; [ORIG 16-BIT INS]
     234                            .dwpsn  file "C:/TI_ARM_Tiva_Projects/Source/list.c",line 118,column 28,is_stmt,isa 1
     235 00000048 9800              LDR       A1, [SP, #0]          ; [DPU_3_PIPE] |118|  ; [ORIG 16-BIT INS]
     236 0000004a 6840              LDR       A1, [A1, #4]          ; [DPU_3_PIPE] |118|  ; [ORIG 16-BIT INS]
     237 0000004c 9002              STR       A1, [SP, #8]          ; [DPU_3_PIPE] |118|  ; [ORIG 16-BIT INS]
     238                            .dwpsn  file "C:/TI_ARM_Tiva_Projects/Source/list.c",line 129,column 2,is_stmt,isa 1
     239 0000004e 9901              LDR       A2, [SP, #4]          ; [DPU_3_PIPE] |129|  ; [ORIG 16-BIT INS]
     240 00000050 9802              LDR       A1, [SP, #8]          ; [DPU_3_PIPE] |129|  ; [ORIG 16-BIT INS]
     241 00000052 6048              STR       A1, [A2, #4]          ; [DPU_3_PIPE] |129|  ; [ORIG 16-BIT INS]
     242                            .dwpsn  file "C:/TI_ARM_Tiva_Projects/Source/list.c",line 130,column 2,is_stmt,isa 1
     243 00000054 9802              LDR       A1, [SP, #8]          ; [DPU_3_PIPE] |130|  ; [ORIG 16-BIT INS]
     244 00000056 9901              LDR       A2, [SP, #4]          ; [DPU_3_PIPE] |130|  ; [ORIG 16-BIT INS]
     245 00000058 6880              LDR       A1, [A1, #8]          ; [DPU_3_PIPE] |130|  ; [ORIG 16-BIT INS]
     246 0000005a 6088              STR       A1, [A2, #8]          ; [DPU_3_PIPE] |130|  ; [ORIG 16-BIT INS]
     247                            .dwpsn  file "C:/TI_ARM_Tiva_Projects/Source/list.c",line 135,column 2,is_stmt,isa 1
     248 0000005c 9902              LDR       A2, [SP, #8]          ; [DPU_3_PIPE] |135|  ; [ORIG 16-BIT INS]
     249 0000005e 9801              LDR       A1, [SP, #4]          ; [DPU_3_PIPE] |135|  ; [ORIG 16-BIT INS]
     250 00000060 6889              LDR       A2, [A2, #8]          ; [DPU_3_PIPE] |135|  ; [ORIG 16-BIT INS]
     251 00000062 6048              STR       A1, [A2, #4]          ; [DPU_3_PIPE] |135|  ; [ORIG 16-BIT INS]
     252                            .dwpsn  file "C:/TI_ARM_Tiva_Projects/Source/list.c",line 136,column 2,is_stmt,isa 1
     253 00000064 9801              LDR       A1, [SP, #4]          ; [DPU_3_PIPE] |136|  ; [ORIG 16-BIT INS]
     254 00000066 9902              LDR       A2, [SP, #8]          ; [DPU_3_PIPE] |136|  ; [ORIG 16-BIT INS]
     255 00000068 6088              STR       A1, [A2, #8]          ; [DPU_3_PIPE] |136|  ; [ORIG 16-BIT INS]
     256                            .dwpsn  file "C:/TI_ARM_Tiva_Projects/Source/list.c",line 139,column 2,is_stmt,isa 1
     257 0000006a 9800              LDR       A1, [SP, #0]          ; [DPU_3_PIPE] |139|  ; [ORIG 16-BIT INS]
     258 0000006c 9901              LDR       A2, [SP, #4]          ; [DPU_3_PIPE] |139|  ; [ORIG 16-BIT INS]
     259 0000006e 6108              STR       A1, [A2, #16]         ; [DPU_3_PIPE] |139|  ; [ORIG 16-BIT INS]
     260                            .dwpsn  file "C:/TI_ARM_Tiva_Projects/Source/list.c",line 141,column 2,is_stmt,isa 1
     261 00000070 9900              LDR       A2, [SP, #0]          ; [DPU_3_PIPE] |141|  ; [ORIG 16-BIT INS]
     262 00000072 6808              LDR       A1, [A2, #0]          ; [DPU_3_PIPE] |141|  ; [ORIG 16-BIT INS]
     263 00000074 1C40              ADDS      A1, A1, #1            ; [DPU_3_PIPE] |141|  ; [ORIG 16-BIT INS]
     264 00000076 6008              STR       A1, [A2, #0]          ; [DPU_3_PIPE] |141|  ; [ORIG 16-BIT INS]
     265                            .dwpsn  file "C:/TI_ARM_Tiva_Projects/Source/list.c",line 142,column 1,is_stmt,isa 1
     266 00000078 B004              ADD       SP, SP, #16           ; [DPU_3_PIPE]  ; [ORIG 16-BIT INS]
     267                            .dwcfi  cfa_offset, 0
     268                    $C$DW$15        .dwtag  DW_TAG_TI_branch
     269                            .dwattr $C$DW$15, DW_AT_low_pc(0x00)
     270                            .dwattr $C$DW$15, DW_AT_TI_return
     271                    
     272 0000007a 4770              BX        LR                    ; [DPU_3_PIPE]  ; [ORIG 16-BIT INS]
     273                            ; BRANCH OCCURS                  ; [] 
     274                            .dwattr $C$DW$9, DW_AT_TI_end_file("C:/TI_ARM_Tiva_Projects/Source/list.c")
     275                            .dwattr $C$DW$9, DW_AT_TI_end_line(0x8e)
TI ARM Assembler PC v15.12.1 Tue Oct 18 10:42:41 2016

Tools Copyright (c) 1996-2015 Texas Instruments Incorporated
list.asm                                                             PAGE    6

     276                            .dwattr $C$DW$9, DW_AT_TI_end_column(0x01)
     277                            .dwendentry
     278                            .dwendtag $C$DW$9
     279                    
     280 0000007c                   .sect   ".text"
     281                            .clink
     282                            .thumbfunc vListInsert
     283 0000007c                   .thumb
     284                            .global vListInsert
     285                    
     286                    $C$DW$16        .dwtag  DW_TAG_subprogram
     287                            .dwattr $C$DW$16, DW_AT_name("vListInsert")
     288                            .dwattr $C$DW$16, DW_AT_low_pc(vListInsert)
     289                            .dwattr $C$DW$16, DW_AT_high_pc(0x00)
     290                            .dwattr $C$DW$16, DW_AT_TI_symbol_name("vListInsert")
     291                            .dwattr $C$DW$16, DW_AT_external
     292                            .dwattr $C$DW$16, DW_AT_TI_begin_file("C:/TI_ARM_Tiva_Projects/Source/list.c")
     293                            .dwattr $C$DW$16, DW_AT_TI_begin_line(0x91)
     294                            .dwattr $C$DW$16, DW_AT_TI_begin_column(0x06)
     295                            .dwattr $C$DW$16, DW_AT_decl_file("C:/TI_ARM_Tiva_Projects/Source/list.c")
     296                            .dwattr $C$DW$16, DW_AT_decl_line(0x91)
     297                            .dwattr $C$DW$16, DW_AT_decl_column(0x06)
     298                            .dwattr $C$DW$16, DW_AT_TI_max_frame_size(0x10)
     299                            .dwpsn  file "C:/TI_ARM_Tiva_Projects/Source/list.c",line 146,column 1,is_stmt,address vListIn
     300                    
     301                            .dwfde $C$DW$CIE, vListInsert
     302                    $C$DW$17        .dwtag  DW_TAG_formal_parameter
     303                            .dwattr $C$DW$17, DW_AT_name("pxList")
     304                            .dwattr $C$DW$17, DW_AT_TI_symbol_name("pxList")
     305                            .dwattr $C$DW$17, DW_AT_type(*$C$DW$T$43)
     306                            .dwattr $C$DW$17, DW_AT_location[DW_OP_reg0]
     307                    
     308                    $C$DW$18        .dwtag  DW_TAG_formal_parameter
     309                            .dwattr $C$DW$18, DW_AT_name("pxNewListItem")
     310                            .dwattr $C$DW$18, DW_AT_TI_symbol_name("pxNewListItem")
     311                            .dwattr $C$DW$18, DW_AT_type(*$C$DW$T$45)
     312                            .dwattr $C$DW$18, DW_AT_location[DW_OP_reg1]
     313                    
     314                    
     315                    ;*****************************************************************************
     316                    ;* FUNCTION NAME: vListInsert                                                *
     317                    ;*                                                                           *
     318                    ;*   Regs Modified     : A1,A2,SP,SR                                         *
     319                    ;*   Regs Used         : A1,A2,SP,LR,SR                                      *
     320                    ;*   Local Frame Size  : 0 Args + 16 Auto + 0 Save = 16 byte                 *
     321                    ;*****************************************************************************
     322 0000007c           vListInsert:
     323                    ;* --------------------------------------------------------------------------*
     324                            .dwcfi  cfa_offset, 0
     325 0000007c 0D10F1AD          SUB       SP, SP, #16           ; [DPU_3_PIPE]  ; [KEEP 32-BIT INS]
     326                            .dwcfi  cfa_offset, 16
     327                    $C$DW$19        .dwtag  DW_TAG_variable
     328                            .dwattr $C$DW$19, DW_AT_name("pxList")
     329                            .dwattr $C$DW$19, DW_AT_TI_symbol_name("pxList")
     330                            .dwattr $C$DW$19, DW_AT_type(*$C$DW$T$43)
TI ARM Assembler PC v15.12.1 Tue Oct 18 10:42:41 2016

Tools Copyright (c) 1996-2015 Texas Instruments Incorporated
list.asm                                                             PAGE    7

     331                            .dwattr $C$DW$19, DW_AT_location[DW_OP_breg13 0]
     332                    
     333                    $C$DW$20        .dwtag  DW_TAG_variable
     334                            .dwattr $C$DW$20, DW_AT_name("pxNewListItem")
     335                            .dwattr $C$DW$20, DW_AT_TI_symbol_name("pxNewListItem")
     336                            .dwattr $C$DW$20, DW_AT_type(*$C$DW$T$45)
     337                            .dwattr $C$DW$20, DW_AT_location[DW_OP_breg13 4]
     338                    
     339                    $C$DW$21        .dwtag  DW_TAG_variable
     340                            .dwattr $C$DW$21, DW_AT_name("pxIterator")
     341                            .dwattr $C$DW$21, DW_AT_TI_symbol_name("pxIterator")
     342                            .dwattr $C$DW$21, DW_AT_type(*$C$DW$T$30)
     343                            .dwattr $C$DW$21, DW_AT_location[DW_OP_breg13 8]
     344                    
     345                    $C$DW$22        .dwtag  DW_TAG_variable
     346                            .dwattr $C$DW$22, DW_AT_name("xValueOfInsertion")
     347                            .dwattr $C$DW$22, DW_AT_TI_symbol_name("xValueOfInsertion")
     348                            .dwattr $C$DW$22, DW_AT_type(*$C$DW$T$80)
     349                            .dwattr $C$DW$22, DW_AT_location[DW_OP_breg13 12]
     350                    
     351 00000080 9101              STR       A2, [SP, #4]          ; [DPU_3_PIPE] |146|  ; [ORIG 16-BIT INS]
     352 00000082 9000              STR       A1, [SP, #0]          ; [DPU_3_PIPE] |146|  ; [ORIG 16-BIT INS]
     353                            .dwpsn  file "C:/TI_ARM_Tiva_Projects/Source/list.c",line 148,column 36,is_stmt,isa 1
     354 00000084 9801              LDR       A1, [SP, #4]          ; [DPU_3_PIPE] |148|  ; [ORIG 16-BIT INS]
     355 00000086 6800              LDR       A1, [A1, #0]          ; [DPU_3_PIPE] |148|  ; [ORIG 16-BIT INS]
     356 00000088 9003              STR       A1, [SP, #12]         ; [DPU_3_PIPE] |148|  ; [ORIG 16-BIT INS]
     357                            .dwpsn  file "C:/TI_ARM_Tiva_Projects/Source/list.c",line 164,column 2,is_stmt,isa 1
     358 0000008a 9803              LDR       A1, [SP, #12]         ; [DPU_3_PIPE] |164|  ; [ORIG 16-BIT INS]
     359 0000008c 3FFFF1B0          CMP       A1, #-1               ; [DPU_3_PIPE] |164|  ; [KEEP 32-BIT INS]
     360 00000090 D103              BNE       ||$C$L1||             ; [DPU_3_PIPE] |164|  ; [ORIG 16-BIT INS]
     361                            ; BRANCHCC OCCURS {||$C$L1||}    ; [] |164| 
     362                    ;* --------------------------------------------------------------------------*
     363                            .dwpsn  file "C:/TI_ARM_Tiva_Projects/Source/list.c",line 166,column 3,is_stmt,isa 1
     364 00000092 9800              LDR       A1, [SP, #0]          ; [DPU_3_PIPE] |166|  ; [ORIG 16-BIT INS]
     365 00000094 6900              LDR       A1, [A1, #16]         ; [DPU_3_PIPE] |166|  ; [ORIG 16-BIT INS]
     366 00000096 9002              STR       A1, [SP, #8]          ; [DPU_3_PIPE] |166|  ; [ORIG 16-BIT INS]
     367                            .dwpsn  file "C:/TI_ARM_Tiva_Projects/Source/list.c",line 167,column 2,is_stmt,isa 1
     368 00000098 E00C              B         ||$C$L4||             ; [DPU_3_PIPE] |167|  ; [ORIG 16-BIT INS]
     369                            ; BRANCH OCCURS {||$C$L4||}      ; [] |167| 
     370                    ;* --------------------------------------------------------------------------*
     371 0000009a           ||$C$L1||:    
     372                            .dwpsn  file "C:/TI_ARM_Tiva_Projects/Source/list.c",line 192,column 8,is_stmt,isa 1
     373 0000009a 9800              LDR       A1, [SP, #0]          ; [DPU_3_PIPE] |192|  ; [ORIG 16-BIT INS]
     374 0000009c 3008              ADDS      A1, A1, #8            ; [DPU_3_PIPE] |192|  ; [ORIG 16-BIT INS]
     375 0000009e 9002              STR       A1, [SP, #8]          ; [DPU_3_PIPE] |192|  ; [ORIG 16-BIT INS]
     376 000000a0 E002              B         ||$C$L3||             ; [DPU_3_PIPE] |192|  ; [ORIG 16-BIT INS]
     377                            ; BRANCH OCCURS {||$C$L3||}      ; [] |192| 
     378                    ;* --------------------------------------------------------------------------*
     379 000000a2           ||$C$L2||:    
     380                            .dwpsn  file "C:/TI_ARM_Tiva_Projects/Source/list.c",line 192,column 114,is_stmt,isa 1
     381 000000a2 9802              LDR       A1, [SP, #8]          ; [DPU_3_PIPE] |192|  ; [ORIG 16-BIT INS]
     382 000000a4 6840              LDR       A1, [A1, #4]          ; [DPU_3_PIPE] |192|  ; [ORIG 16-BIT INS]
     383 000000a6 9002              STR       A1, [SP, #8]          ; [DPU_3_PIPE] |192|  ; [ORIG 16-BIT INS]
     384                    ;* --------------------------------------------------------------------------*
     385                    ;*   BEGIN LOOP ||$C$L3||
TI ARM Assembler PC v15.12.1 Tue Oct 18 10:42:41 2016

Tools Copyright (c) 1996-2015 Texas Instruments Incorporated
list.asm                                                             PAGE    8

     386                    ;* --------------------------------------------------------------------------*
     387 000000a8           ||$C$L3||:    
     388                            .dwpsn  file "C:/TI_ARM_Tiva_Projects/Source/list.c",line 192,column 61,is_stmt,isa 1
     389 000000a8 9802              LDR       A1, [SP, #8]          ; [DPU_3_PIPE] |192|  ; [ORIG 16-BIT INS]
     390 000000aa 6841              LDR       A2, [A1, #4]          ; [DPU_3_PIPE] |192|  ; [ORIG 16-BIT INS]
     391 000000ac 9803              LDR       A1, [SP, #12]         ; [DPU_3_PIPE] |192|  ; [ORIG 16-BIT INS]
     392 000000ae 6809              LDR       A2, [A2, #0]          ; [DPU_3_PIPE] |192|  ; [ORIG 16-BIT INS]
     393 000000b0 4288              CMP       A1, A2                ; [DPU_3_PIPE] |192|  ; [ORIG 16-BIT INS]
     394 000000b2 D2F6              BCS       ||$C$L2||             ; [DPU_3_PIPE] |192|  ; [ORIG 16-BIT INS]
     395                            ; BRANCHCC OCCURS {||$C$L2||}    ; [] |192| 
     396                    ;* --------------------------------------------------------------------------*
     397 000000b4           ||$C$L4||:    
     398                            .dwpsn  file "C:/TI_ARM_Tiva_Projects/Source/list.c",line 199,column 2,is_stmt,isa 1
     399 000000b4 9802              LDR       A1, [SP, #8]          ; [DPU_3_PIPE] |199|  ; [ORIG 16-BIT INS]
     400 000000b6 9901              LDR       A2, [SP, #4]          ; [DPU_3_PIPE] |199|  ; [ORIG 16-BIT INS]
     401 000000b8 6840              LDR       A1, [A1, #4]          ; [DPU_3_PIPE] |199|  ; [ORIG 16-BIT INS]
     402 000000ba 6048              STR       A1, [A2, #4]          ; [DPU_3_PIPE] |199|  ; [ORIG 16-BIT INS]
     403                            .dwpsn  file "C:/TI_ARM_Tiva_Projects/Source/list.c",line 200,column 2,is_stmt,isa 1
     404 000000bc 9901              LDR       A2, [SP, #4]          ; [DPU_3_PIPE] |200|  ; [ORIG 16-BIT INS]
     405 000000be 9801              LDR       A1, [SP, #4]          ; [DPU_3_PIPE] |200|  ; [ORIG 16-BIT INS]
     406 000000c0 6849              LDR       A2, [A2, #4]          ; [DPU_3_PIPE] |200|  ; [ORIG 16-BIT INS]
     407 000000c2 6088              STR       A1, [A2, #8]          ; [DPU_3_PIPE] |200|  ; [ORIG 16-BIT INS]
     408                            .dwpsn  file "C:/TI_ARM_Tiva_Projects/Source/list.c",line 201,column 2,is_stmt,isa 1
     409 000000c4 9802              LDR       A1, [SP, #8]          ; [DPU_3_PIPE] |201|  ; [ORIG 16-BIT INS]
     410 000000c6 9901              LDR       A2, [SP, #4]          ; [DPU_3_PIPE] |201|  ; [ORIG 16-BIT INS]
     411 000000c8 6088              STR       A1, [A2, #8]          ; [DPU_3_PIPE] |201|  ; [ORIG 16-BIT INS]
     412                            .dwpsn  file "C:/TI_ARM_Tiva_Projects/Source/list.c",line 202,column 2,is_stmt,isa 1
     413 000000ca 9801              LDR       A1, [SP, #4]          ; [DPU_3_PIPE] |202|  ; [ORIG 16-BIT INS]
     414 000000cc 9902              LDR       A2, [SP, #8]          ; [DPU_3_PIPE] |202|  ; [ORIG 16-BIT INS]
     415 000000ce 6048              STR       A1, [A2, #4]          ; [DPU_3_PIPE] |202|  ; [ORIG 16-BIT INS]
     416                            .dwpsn  file "C:/TI_ARM_Tiva_Projects/Source/list.c",line 206,column 2,is_stmt,isa 1
     417 000000d0 9800              LDR       A1, [SP, #0]          ; [DPU_3_PIPE] |206|  ; [ORIG 16-BIT INS]
     418 000000d2 9901              LDR       A2, [SP, #4]          ; [DPU_3_PIPE] |206|  ; [ORIG 16-BIT INS]
     419 000000d4 6108              STR       A1, [A2, #16]         ; [DPU_3_PIPE] |206|  ; [ORIG 16-BIT INS]
     420                            .dwpsn  file "C:/TI_ARM_Tiva_Projects/Source/list.c",line 208,column 2,is_stmt,isa 1
     421 000000d6 9900              LDR       A2, [SP, #0]          ; [DPU_3_PIPE] |208|  ; [ORIG 16-BIT INS]
     422 000000d8 6808              LDR       A1, [A2, #0]          ; [DPU_3_PIPE] |208|  ; [ORIG 16-BIT INS]
     423 000000da 1C40              ADDS      A1, A1, #1            ; [DPU_3_PIPE] |208|  ; [ORIG 16-BIT INS]
     424 000000dc 6008              STR       A1, [A2, #0]          ; [DPU_3_PIPE] |208|  ; [ORIG 16-BIT INS]
     425                            .dwpsn  file "C:/TI_ARM_Tiva_Projects/Source/list.c",line 209,column 1,is_stmt,isa 1
     426 000000de B004              ADD       SP, SP, #16           ; [DPU_3_PIPE]  ; [ORIG 16-BIT INS]
     427                            .dwcfi  cfa_offset, 0
     428                    $C$DW$23        .dwtag  DW_TAG_TI_branch
     429                            .dwattr $C$DW$23, DW_AT_low_pc(0x00)
     430                            .dwattr $C$DW$23, DW_AT_TI_return
     431                    
     432 000000e0 4770              BX        LR                    ; [DPU_3_PIPE]  ; [ORIG 16-BIT INS]
     433                            ; BRANCH OCCURS                  ; [] 
     434                            .dwattr $C$DW$16, DW_AT_TI_end_file("C:/TI_ARM_Tiva_Projects/Source/list.c")
     435                            .dwattr $C$DW$16, DW_AT_TI_end_line(0xd1)
     436                            .dwattr $C$DW$16, DW_AT_TI_end_column(0x01)
     437                            .dwendentry
     438                            .dwendtag $C$DW$16
     439                    
     440 000000e2                   .sect   ".text"
TI ARM Assembler PC v15.12.1 Tue Oct 18 10:42:41 2016

Tools Copyright (c) 1996-2015 Texas Instruments Incorporated
list.asm                                                             PAGE    9

     441                            .clink
     442                            .thumbfunc uxListRemove
     443 000000e2                   .thumb
     444                            .global uxListRemove
     445                    
     446                    $C$DW$24        .dwtag  DW_TAG_subprogram
     447                            .dwattr $C$DW$24, DW_AT_name("uxListRemove")
     448                            .dwattr $C$DW$24, DW_AT_low_pc(uxListRemove)
     449                            .dwattr $C$DW$24, DW_AT_high_pc(0x00)
     450                            .dwattr $C$DW$24, DW_AT_TI_symbol_name("uxListRemove")
     451                            .dwattr $C$DW$24, DW_AT_external
     452                            .dwattr $C$DW$24, DW_AT_type(*$C$DW$T$28)
     453                            .dwattr $C$DW$24, DW_AT_TI_begin_file("C:/TI_ARM_Tiva_Projects/Source/list.c")
     454                            .dwattr $C$DW$24, DW_AT_TI_begin_line(0xd4)
     455                            .dwattr $C$DW$24, DW_AT_TI_begin_column(0x0d)
     456                            .dwattr $C$DW$24, DW_AT_decl_file("C:/TI_ARM_Tiva_Projects/Source/list.c")
     457                            .dwattr $C$DW$24, DW_AT_decl_line(0xd4)
     458                            .dwattr $C$DW$24, DW_AT_decl_column(0x0d)
     459                            .dwattr $C$DW$24, DW_AT_TI_max_frame_size(0x08)
     460                            .dwpsn  file "C:/TI_ARM_Tiva_Projects/Source/list.c",line 213,column 1,is_stmt,address uxListR
     461                    
     462                            .dwfde $C$DW$CIE, uxListRemove
     463                    $C$DW$25        .dwtag  DW_TAG_formal_parameter
     464                            .dwattr $C$DW$25, DW_AT_name("pxItemToRemove")
     465                            .dwattr $C$DW$25, DW_AT_TI_symbol_name("pxItemToRemove")
     466                            .dwattr $C$DW$25, DW_AT_type(*$C$DW$T$45)
     467                            .dwattr $C$DW$25, DW_AT_location[DW_OP_reg0]
     468                    
     469                    
     470                    ;*****************************************************************************
     471                    ;* FUNCTION NAME: uxListRemove                                               *
     472                    ;*                                                                           *
     473                    ;*   Regs Modified     : A1,A2,SP,SR                                         *
     474                    ;*   Regs Used         : A1,A2,SP,LR,SR                                      *
     475                    ;*   Local Frame Size  : 0 Args + 8 Auto + 0 Save = 8 byte                   *
     476                    ;*****************************************************************************
     477 000000e2           uxListRemove:
     478                    ;* --------------------------------------------------------------------------*
     479                            .dwcfi  cfa_offset, 0
     480 000000e2 0D08F1AD          SUB       SP, SP, #8            ; [DPU_3_PIPE]  ; [KEEP 32-BIT INS]
     481                            .dwcfi  cfa_offset, 8
     482                    $C$DW$26        .dwtag  DW_TAG_variable
     483                            .dwattr $C$DW$26, DW_AT_name("pxItemToRemove")
     484                            .dwattr $C$DW$26, DW_AT_TI_symbol_name("pxItemToRemove")
     485                            .dwattr $C$DW$26, DW_AT_type(*$C$DW$T$45)
     486                            .dwattr $C$DW$26, DW_AT_location[DW_OP_breg13 0]
     487                    
     488                    $C$DW$27        .dwtag  DW_TAG_variable
     489                            .dwattr $C$DW$27, DW_AT_name("pxList")
     490                            .dwattr $C$DW$27, DW_AT_TI_symbol_name("pxList")
     491                            .dwattr $C$DW$27, DW_AT_type(*$C$DW$T$43)
     492                            .dwattr $C$DW$27, DW_AT_location[DW_OP_breg13 4]
     493                    
     494 000000e6 9000              STR       A1, [SP, #0]          ; [DPU_3_PIPE] |213|  ; [ORIG 16-BIT INS]
     495                            .dwpsn  file "C:/TI_ARM_Tiva_Projects/Source/list.c",line 216,column 23,is_stmt,isa 1
TI ARM Assembler PC v15.12.1 Tue Oct 18 10:42:41 2016

Tools Copyright (c) 1996-2015 Texas Instruments Incorporated
list.asm                                                             PAGE   10

     496 000000e8 9800              LDR       A1, [SP, #0]          ; [DPU_3_PIPE] |216|  ; [ORIG 16-BIT INS]
     497 000000ea 6900              LDR       A1, [A1, #16]         ; [DPU_3_PIPE] |216|  ; [ORIG 16-BIT INS]
     498 000000ec 9001              STR       A1, [SP, #4]          ; [DPU_3_PIPE] |216|  ; [ORIG 16-BIT INS]
     499                            .dwpsn  file "C:/TI_ARM_Tiva_Projects/Source/list.c",line 218,column 2,is_stmt,isa 1
     500 000000ee 9900              LDR       A2, [SP, #0]          ; [DPU_3_PIPE] |218|  ; [ORIG 16-BIT INS]
     501 000000f0 9800              LDR       A1, [SP, #0]          ; [DPU_3_PIPE] |218|  ; [ORIG 16-BIT INS]
     502 000000f2 6849              LDR       A2, [A2, #4]          ; [DPU_3_PIPE] |218|  ; [ORIG 16-BIT INS]
     503 000000f4 6880              LDR       A1, [A1, #8]          ; [DPU_3_PIPE] |218|  ; [ORIG 16-BIT INS]
     504 000000f6 6088              STR       A1, [A2, #8]          ; [DPU_3_PIPE] |218|  ; [ORIG 16-BIT INS]
     505                            .dwpsn  file "C:/TI_ARM_Tiva_Projects/Source/list.c",line 219,column 2,is_stmt,isa 1
     506 000000f8 9800              LDR       A1, [SP, #0]          ; [DPU_3_PIPE] |219|  ; [ORIG 16-BIT INS]
     507 000000fa 9900              LDR       A2, [SP, #0]          ; [DPU_3_PIPE] |219|  ; [ORIG 16-BIT INS]
     508 000000fc 6840              LDR       A1, [A1, #4]          ; [DPU_3_PIPE] |219|  ; [ORIG 16-BIT INS]
     509 000000fe 6889              LDR       A2, [A2, #8]          ; [DPU_3_PIPE] |219|  ; [ORIG 16-BIT INS]
     510 00000100 6048              STR       A1, [A2, #4]          ; [DPU_3_PIPE] |219|  ; [ORIG 16-BIT INS]
     511                            .dwpsn  file "C:/TI_ARM_Tiva_Projects/Source/list.c",line 225,column 2,is_stmt,isa 1
     512 00000102 9901              LDR       A2, [SP, #4]          ; [DPU_3_PIPE] |225|  ; [ORIG 16-BIT INS]
     513 00000104 9800              LDR       A1, [SP, #0]          ; [DPU_3_PIPE] |225|  ; [ORIG 16-BIT INS]
     514 00000106 6849              LDR       A2, [A2, #4]          ; [DPU_3_PIPE] |225|  ; [ORIG 16-BIT INS]
     515 00000108 4288              CMP       A1, A2                ; [DPU_3_PIPE] |225|  ; [ORIG 16-BIT INS]
     516 0000010a D103              BNE       ||$C$L5||             ; [DPU_3_PIPE] |225|  ; [ORIG 16-BIT INS]
     517                            ; BRANCHCC OCCURS {||$C$L5||}    ; [] |225| 
     518                    ;* --------------------------------------------------------------------------*
     519                            .dwpsn  file "C:/TI_ARM_Tiva_Projects/Source/list.c",line 227,column 3,is_stmt,isa 1
     520 0000010c 9800              LDR       A1, [SP, #0]          ; [DPU_3_PIPE] |227|  ; [ORIG 16-BIT INS]
     521 0000010e 9901              LDR       A2, [SP, #4]          ; [DPU_3_PIPE] |227|  ; [ORIG 16-BIT INS]
     522 00000110 6880              LDR       A1, [A1, #8]          ; [DPU_3_PIPE] |227|  ; [ORIG 16-BIT INS]
     523 00000112 6048              STR       A1, [A2, #4]          ; [DPU_3_PIPE] |227|  ; [ORIG 16-BIT INS]
     524                            .dwpsn  file "C:/TI_ARM_Tiva_Projects/Source/list.c",line 228,column 2,is_stmt,isa 1
     525                    ;* --------------------------------------------------------------------------*
     526 00000114           ||$C$L5||:    
     527                            .dwpsn  file "C:/TI_ARM_Tiva_Projects/Source/list.c",line 234,column 2,is_stmt,isa 1
     528 00000114 9800              LDR       A1, [SP, #0]          ; [DPU_3_PIPE] |234|  ; [ORIG 16-BIT INS]
     529 00000116 2100              MOVS      A2, #0                ; [DPU_3_PIPE] |234|  ; [ORIG 16-BIT INS]
     530 00000118 6101              STR       A2, [A1, #16]         ; [DPU_3_PIPE] |234|  ; [ORIG 16-BIT INS]
     531                            .dwpsn  file "C:/TI_ARM_Tiva_Projects/Source/list.c",line 235,column 2,is_stmt,isa 1
     532 0000011a 9901              LDR       A2, [SP, #4]          ; [DPU_3_PIPE] |235|  ; [ORIG 16-BIT INS]
     533 0000011c 6808              LDR       A1, [A2, #0]          ; [DPU_3_PIPE] |235|  ; [ORIG 16-BIT INS]
     534 0000011e 1E40              SUBS      A1, A1, #1            ; [DPU_3_PIPE] |235|  ; [ORIG 16-BIT INS]
     535 00000120 6008              STR       A1, [A2, #0]          ; [DPU_3_PIPE] |235|  ; [ORIG 16-BIT INS]
     536                            .dwpsn  file "C:/TI_ARM_Tiva_Projects/Source/list.c",line 237,column 2,is_stmt,isa 1
     537 00000122 9801              LDR       A1, [SP, #4]          ; [DPU_3_PIPE] |237|  ; [ORIG 16-BIT INS]
     538 00000124 6800              LDR       A1, [A1, #0]          ; [DPU_3_PIPE] |237|  ; [ORIG 16-BIT INS]
     539                            .dwpsn  file "C:/TI_ARM_Tiva_Projects/Source/list.c",line 238,column 1,is_stmt,isa 1
     540 00000126 B002              ADD       SP, SP, #8            ; [DPU_3_PIPE]  ; [ORIG 16-BIT INS]
     541                            .dwcfi  cfa_offset, 0
     542                    $C$DW$28        .dwtag  DW_TAG_TI_branch
     543                            .dwattr $C$DW$28, DW_AT_low_pc(0x00)
     544                            .dwattr $C$DW$28, DW_AT_TI_return
     545                    
     546 00000128 4770              BX        LR                    ; [DPU_3_PIPE]  ; [ORIG 16-BIT INS]
     547                            ; BRANCH OCCURS                  ; [] 
     548                            .dwattr $C$DW$24, DW_AT_TI_end_file("C:/TI_ARM_Tiva_Projects/Source/list.c")
     549                            .dwattr $C$DW$24, DW_AT_TI_end_line(0xee)
     550                            .dwattr $C$DW$24, DW_AT_TI_end_column(0x01)
TI ARM Assembler PC v15.12.1 Tue Oct 18 10:42:41 2016

Tools Copyright (c) 1996-2015 Texas Instruments Incorporated
list.asm                                                             PAGE   11

     551                            .dwendentry
     552                            .dwendtag $C$DW$24
     553                    
     554                    
     555                    ;******************************************************************************
     556                    ;* BUILD ATTRIBUTES                                                           *
     557                    ;******************************************************************************
     558                            .battr "aeabi", Tag_File, 1, Tag_ABI_PCS_wchar_t(2)
     559                            .battr "aeabi", Tag_File, 1, Tag_ABI_FP_rounding(0)
     560                            .battr "aeabi", Tag_File, 1, Tag_ABI_FP_denormal(0)
     561                            .battr "aeabi", Tag_File, 1, Tag_ABI_FP_exceptions(0)
     562                            .battr "aeabi", Tag_File, 1, Tag_ABI_FP_number_model(1)
     563                            .battr "aeabi", Tag_File, 1, Tag_ABI_enum_size(0)
     564                            .battr "aeabi", Tag_File, 1, Tag_ABI_optimization_goals(5)
     565                            .battr "aeabi", Tag_File, 1, Tag_ABI_FP_optimization_goals(0)
     566                            .battr "TI", Tag_File, 1, Tag_Bitfield_layout(2)
     567                            .battr "TI", Tag_File, 1, Tag_FP_interface(1)
     568                    
     569                    ;******************************************************************************
     570                    ;* TYPE INFORMATION                                                           *
     571                    ;******************************************************************************
     572                    
     573                    $C$DW$T$19      .dwtag  DW_TAG_structure_type
     574                            .dwattr $C$DW$T$19, DW_AT_byte_size(0x08)
     575                    $C$DW$29        .dwtag  DW_TAG_member
     576                            .dwattr $C$DW$29, DW_AT_type(*$C$DW$T$10)
     577                            .dwattr $C$DW$29, DW_AT_name("quot")
     578                            .dwattr $C$DW$29, DW_AT_TI_symbol_name("quot")
     579                            .dwattr $C$DW$29, DW_AT_data_member_location[DW_OP_plus_uconst 0x0]
     580                            .dwattr $C$DW$29, DW_AT_accessibility(DW_ACCESS_public)
     581                            .dwattr $C$DW$29, DW_AT_decl_file("C:/TI_CodeComposer/ccsv6/tools/compiler/ti-cgt-arm_15.12.1.
     582                            .dwattr $C$DW$29, DW_AT_decl_line(0x5c)
     583                            .dwattr $C$DW$29, DW_AT_decl_column(0x16)
     584                    
     585                    $C$DW$30        .dwtag  DW_TAG_member
     586                            .dwattr $C$DW$30, DW_AT_type(*$C$DW$T$10)
     587                            .dwattr $C$DW$30, DW_AT_name("rem")
     588                            .dwattr $C$DW$30, DW_AT_TI_symbol_name("rem")
     589                            .dwattr $C$DW$30, DW_AT_data_member_location[DW_OP_plus_uconst 0x4]
     590                            .dwattr $C$DW$30, DW_AT_accessibility(DW_ACCESS_public)
     591                            .dwattr $C$DW$30, DW_AT_decl_file("C:/TI_CodeComposer/ccsv6/tools/compiler/ti-cgt-arm_15.12.1.
     592                            .dwattr $C$DW$30, DW_AT_decl_line(0x5c)
     593                            .dwattr $C$DW$30, DW_AT_decl_column(0x1c)
     594                    
     595                            .dwattr $C$DW$T$19, DW_AT_decl_file("C:/TI_CodeComposer/ccsv6/tools/compiler/ti-cgt-arm_15.12.
     596                            .dwattr $C$DW$T$19, DW_AT_decl_line(0x5c)
     597                            .dwattr $C$DW$T$19, DW_AT_decl_column(0x10)
     598                            .dwendtag $C$DW$T$19
     599                    
     600                    $C$DW$T$37      .dwtag  DW_TAG_typedef
     601                            .dwattr $C$DW$T$37, DW_AT_name("div_t")
     602                            .dwattr $C$DW$T$37, DW_AT_type(*$C$DW$T$19)
     603                            .dwattr $C$DW$T$37, DW_AT_language(DW_LANG_C)
     604                            .dwattr $C$DW$T$37, DW_AT_decl_file("C:/TI_CodeComposer/ccsv6/tools/compiler/ti-cgt-arm_15.12.
     605                            .dwattr $C$DW$T$37, DW_AT_decl_line(0x5c)
TI ARM Assembler PC v15.12.1 Tue Oct 18 10:42:41 2016

Tools Copyright (c) 1996-2015 Texas Instruments Incorporated
list.asm                                                             PAGE   12

     606                            .dwattr $C$DW$T$37, DW_AT_decl_column(0x23)
     607                    
     608                    
     609                    $C$DW$T$20      .dwtag  DW_TAG_structure_type
     610                            .dwattr $C$DW$T$20, DW_AT_byte_size(0x08)
     611                    $C$DW$31        .dwtag  DW_TAG_member
     612                            .dwattr $C$DW$31, DW_AT_type(*$C$DW$T$10)
     613                            .dwattr $C$DW$31, DW_AT_name("quot")
     614                            .dwattr $C$DW$31, DW_AT_TI_symbol_name("quot")
     615                            .dwattr $C$DW$31, DW_AT_data_member_location[DW_OP_plus_uconst 0x0]
     616                            .dwattr $C$DW$31, DW_AT_accessibility(DW_ACCESS_public)
     617                            .dwattr $C$DW$31, DW_AT_decl_file("C:/TI_CodeComposer/ccsv6/tools/compiler/ti-cgt-arm_15.12.1.
     618                            .dwattr $C$DW$31, DW_AT_decl_line(0x5e)
     619                            .dwattr $C$DW$31, DW_AT_decl_column(0x16)
     620                    
     621                    $C$DW$32        .dwtag  DW_TAG_member
     622                            .dwattr $C$DW$32, DW_AT_type(*$C$DW$T$10)
     623                            .dwattr $C$DW$32, DW_AT_name("rem")
     624                            .dwattr $C$DW$32, DW_AT_TI_symbol_name("rem")
     625                            .dwattr $C$DW$32, DW_AT_data_member_location[DW_OP_plus_uconst 0x4]
     626                            .dwattr $C$DW$32, DW_AT_accessibility(DW_ACCESS_public)
     627                            .dwattr $C$DW$32, DW_AT_decl_file("C:/TI_CodeComposer/ccsv6/tools/compiler/ti-cgt-arm_15.12.1.
     628                            .dwattr $C$DW$32, DW_AT_decl_line(0x5e)
     629                            .dwattr $C$DW$32, DW_AT_decl_column(0x1c)
     630                    
     631                            .dwattr $C$DW$T$20, DW_AT_decl_file("C:/TI_CodeComposer/ccsv6/tools/compiler/ti-cgt-arm_15.12.
     632                            .dwattr $C$DW$T$20, DW_AT_decl_line(0x5e)
     633                            .dwattr $C$DW$T$20, DW_AT_decl_column(0x10)
     634                            .dwendtag $C$DW$T$20
     635                    
     636                    $C$DW$T$38      .dwtag  DW_TAG_typedef
     637                            .dwattr $C$DW$T$38, DW_AT_name("ldiv_t")
     638                            .dwattr $C$DW$T$38, DW_AT_type(*$C$DW$T$20)
     639                            .dwattr $C$DW$T$38, DW_AT_language(DW_LANG_C)
     640                            .dwattr $C$DW$T$38, DW_AT_decl_file("C:/TI_CodeComposer/ccsv6/tools/compiler/ti-cgt-arm_15.12.
     641                            .dwattr $C$DW$T$38, DW_AT_decl_line(0x5e)
     642                            .dwattr $C$DW$T$38, DW_AT_decl_column(0x23)
     643                    
     644                    
     645                    $C$DW$T$21      .dwtag  DW_TAG_structure_type
     646                            .dwattr $C$DW$T$21, DW_AT_byte_size(0x10)
     647                    $C$DW$33        .dwtag  DW_TAG_member
     648                            .dwattr $C$DW$33, DW_AT_type(*$C$DW$T$14)
     649                            .dwattr $C$DW$33, DW_AT_name("quot")
     650                            .dwattr $C$DW$33, DW_AT_TI_symbol_name("quot")
     651                            .dwattr $C$DW$33, DW_AT_data_member_location[DW_OP_plus_uconst 0x0]
     652                            .dwattr $C$DW$33, DW_AT_accessibility(DW_ACCESS_public)
     653                            .dwattr $C$DW$33, DW_AT_decl_file("C:/TI_CodeComposer/ccsv6/tools/compiler/ti-cgt-arm_15.12.1.
     654                            .dwattr $C$DW$33, DW_AT_decl_line(0x61)
     655                            .dwattr $C$DW$33, DW_AT_decl_column(0x1c)
     656                    
     657                    $C$DW$34        .dwtag  DW_TAG_member
     658                            .dwattr $C$DW$34, DW_AT_type(*$C$DW$T$14)
     659                            .dwattr $C$DW$34, DW_AT_name("rem")
     660                            .dwattr $C$DW$34, DW_AT_TI_symbol_name("rem")
TI ARM Assembler PC v15.12.1 Tue Oct 18 10:42:41 2016

Tools Copyright (c) 1996-2015 Texas Instruments Incorporated
list.asm                                                             PAGE   13

     661                            .dwattr $C$DW$34, DW_AT_data_member_location[DW_OP_plus_uconst 0x8]
     662                            .dwattr $C$DW$34, DW_AT_accessibility(DW_ACCESS_public)
     663                            .dwattr $C$DW$34, DW_AT_decl_file("C:/TI_CodeComposer/ccsv6/tools/compiler/ti-cgt-arm_15.12.1.
     664                            .dwattr $C$DW$34, DW_AT_decl_line(0x61)
     665                            .dwattr $C$DW$34, DW_AT_decl_column(0x22)
     666                    
     667                            .dwattr $C$DW$T$21, DW_AT_decl_file("C:/TI_CodeComposer/ccsv6/tools/compiler/ti-cgt-arm_15.12.
     668                            .dwattr $C$DW$T$21, DW_AT_decl_line(0x61)
     669                            .dwattr $C$DW$T$21, DW_AT_decl_column(0x10)
     670                            .dwendtag $C$DW$T$21
     671                    
     672                    $C$DW$T$39      .dwtag  DW_TAG_typedef
     673                            .dwattr $C$DW$T$39, DW_AT_name("lldiv_t")
     674                            .dwattr $C$DW$T$39, DW_AT_type(*$C$DW$T$21)
     675                            .dwattr $C$DW$T$39, DW_AT_language(DW_LANG_C)
     676                            .dwattr $C$DW$T$39, DW_AT_decl_file("C:/TI_CodeComposer/ccsv6/tools/compiler/ti-cgt-arm_15.12.
     677                            .dwattr $C$DW$T$39, DW_AT_decl_line(0x61)
     678                            .dwattr $C$DW$T$39, DW_AT_decl_column(0x29)
     679                    
     680                    
     681                    $C$DW$T$25      .dwtag  DW_TAG_structure_type
     682                            .dwattr $C$DW$T$25, DW_AT_name("HeapRegion")
     683                            .dwattr $C$DW$T$25, DW_AT_byte_size(0x08)
     684                    $C$DW$35        .dwtag  DW_TAG_member
     685                            .dwattr $C$DW$35, DW_AT_type(*$C$DW$T$23)
     686                            .dwattr $C$DW$35, DW_AT_name("pucStartAddress")
     687                            .dwattr $C$DW$35, DW_AT_TI_symbol_name("pucStartAddress")
     688                            .dwattr $C$DW$35, DW_AT_data_member_location[DW_OP_plus_uconst 0x0]
     689                            .dwattr $C$DW$35, DW_AT_accessibility(DW_ACCESS_public)
     690                            .dwattr $C$DW$35, DW_AT_decl_file("C:\TI_ARM_Tiva_Projects\Source\include\portable.h")
     691                            .dwattr $C$DW$35, DW_AT_decl_line(0x96)
     692                            .dwattr $C$DW$35, DW_AT_decl_column(0x0b)
     693                    
     694                    $C$DW$36        .dwtag  DW_TAG_member
     695                            .dwattr $C$DW$36, DW_AT_type(*$C$DW$T$24)
     696                            .dwattr $C$DW$36, DW_AT_name("xSizeInBytes")
     697                            .dwattr $C$DW$36, DW_AT_TI_symbol_name("xSizeInBytes")
     698                            .dwattr $C$DW$36, DW_AT_data_member_location[DW_OP_plus_uconst 0x4]
     699                            .dwattr $C$DW$36, DW_AT_accessibility(DW_ACCESS_public)
     700                            .dwattr $C$DW$36, DW_AT_decl_file("C:\TI_ARM_Tiva_Projects\Source\include\portable.h")
     701                            .dwattr $C$DW$36, DW_AT_decl_line(0x97)
     702                            .dwattr $C$DW$36, DW_AT_decl_column(0x09)
     703                    
     704                            .dwattr $C$DW$T$25, DW_AT_decl_file("C:\TI_ARM_Tiva_Projects\Source\include\portable.h")
     705                            .dwattr $C$DW$T$25, DW_AT_decl_line(0x94)
     706                            .dwattr $C$DW$T$25, DW_AT_decl_column(0x10)
     707                            .dwendtag $C$DW$T$25
     708                    
     709                    $C$DW$T$40      .dwtag  DW_TAG_typedef
     710                            .dwattr $C$DW$T$40, DW_AT_name("HeapRegion_t")
     711                            .dwattr $C$DW$T$40, DW_AT_type(*$C$DW$T$25)
     712                            .dwattr $C$DW$T$40, DW_AT_language(DW_LANG_C)
     713                            .dwattr $C$DW$T$40, DW_AT_decl_file("C:\TI_ARM_Tiva_Projects\Source\include\portable.h")
     714                            .dwattr $C$DW$T$40, DW_AT_decl_line(0x98)
     715                            .dwattr $C$DW$T$40, DW_AT_decl_column(0x03)
TI ARM Assembler PC v15.12.1 Tue Oct 18 10:42:41 2016

Tools Copyright (c) 1996-2015 Texas Instruments Incorporated
list.asm                                                             PAGE   14

     716                    
     717                    $C$DW$T$2       .dwtag  DW_TAG_unspecified_type
     718                            .dwattr $C$DW$T$2, DW_AT_name("void")
     719                    
     720                    $C$DW$T$3       .dwtag  DW_TAG_pointer_type
     721                            .dwattr $C$DW$T$3, DW_AT_type(*$C$DW$T$2)
     722                            .dwattr $C$DW$T$3, DW_AT_address_class(0x20)
     723                    
     724                    
     725                    $C$DW$T$48      .dwtag  DW_TAG_subroutine_type
     726                            .dwattr $C$DW$T$48, DW_AT_language(DW_LANG_C)
     727                            .dwendtag $C$DW$T$48
     728                    
     729                    $C$DW$T$49      .dwtag  DW_TAG_pointer_type
     730                            .dwattr $C$DW$T$49, DW_AT_type(*$C$DW$T$48)
     731                            .dwattr $C$DW$T$49, DW_AT_address_class(0x20)
     732                    
     733                    $C$DW$T$50      .dwtag  DW_TAG_typedef
     734                            .dwattr $C$DW$T$50, DW_AT_name("__TI_atexit_fn")
     735                            .dwattr $C$DW$T$50, DW_AT_type(*$C$DW$T$49)
     736                            .dwattr $C$DW$T$50, DW_AT_language(DW_LANG_C)
     737                            .dwattr $C$DW$T$50, DW_AT_decl_file("C:/TI_CodeComposer/ccsv6/tools/compiler/ti-cgt-arm_15.12.
     738                            .dwattr $C$DW$T$50, DW_AT_decl_line(0xb9)
     739                            .dwattr $C$DW$T$50, DW_AT_decl_column(0x14)
     740                    
     741                    $C$DW$T$51      .dwtag  DW_TAG_const_type
     742                            .dwattr $C$DW$T$51, DW_AT_type(*$C$DW$T$2)
     743                    
     744                    $C$DW$T$52      .dwtag  DW_TAG_pointer_type
     745                            .dwattr $C$DW$T$52, DW_AT_type(*$C$DW$T$51)
     746                            .dwattr $C$DW$T$52, DW_AT_address_class(0x20)
     747                    
     748                    
     749                    $C$DW$T$53      .dwtag  DW_TAG_subroutine_type
     750                            .dwattr $C$DW$T$53, DW_AT_language(DW_LANG_C)
     751                    $C$DW$37        .dwtag  DW_TAG_formal_parameter
     752                            .dwattr $C$DW$37, DW_AT_type(*$C$DW$T$3)
     753                    
     754                            .dwendtag $C$DW$T$53
     755                    
     756                    $C$DW$T$54      .dwtag  DW_TAG_pointer_type
     757                            .dwattr $C$DW$T$54, DW_AT_type(*$C$DW$T$53)
     758                            .dwattr $C$DW$T$54, DW_AT_address_class(0x20)
     759                    
     760                    $C$DW$T$55      .dwtag  DW_TAG_typedef
     761                            .dwattr $C$DW$T$55, DW_AT_name("TaskFunction_t")
     762                            .dwattr $C$DW$T$55, DW_AT_type(*$C$DW$T$54)
     763                            .dwattr $C$DW$T$55, DW_AT_language(DW_LANG_C)
     764                            .dwattr $C$DW$T$55, DW_AT_decl_file("C:\TI_ARM_Tiva_Projects\Source\include\projdefs.h")
     765                            .dwattr $C$DW$T$55, DW_AT_decl_line(0x4d)
     766                            .dwattr $C$DW$T$55, DW_AT_decl_column(0x10)
     767                    
     768                    $C$DW$T$4       .dwtag  DW_TAG_base_type
     769                            .dwattr $C$DW$T$4, DW_AT_encoding(DW_ATE_boolean)
     770                            .dwattr $C$DW$T$4, DW_AT_name("bool")
TI ARM Assembler PC v15.12.1 Tue Oct 18 10:42:41 2016

Tools Copyright (c) 1996-2015 Texas Instruments Incorporated
list.asm                                                             PAGE   15

     771                            .dwattr $C$DW$T$4, DW_AT_byte_size(0x01)
     772                    
     773                    $C$DW$T$5       .dwtag  DW_TAG_base_type
     774                            .dwattr $C$DW$T$5, DW_AT_encoding(DW_ATE_signed_char)
     775                            .dwattr $C$DW$T$5, DW_AT_name("signed char")
     776                            .dwattr $C$DW$T$5, DW_AT_byte_size(0x01)
     777                    
     778                    $C$DW$T$56      .dwtag  DW_TAG_typedef
     779                            .dwattr $C$DW$T$56, DW_AT_name("int8_t")
     780                            .dwattr $C$DW$T$56, DW_AT_type(*$C$DW$T$5)
     781                            .dwattr $C$DW$T$56, DW_AT_language(DW_LANG_C)
     782                            .dwattr $C$DW$T$56, DW_AT_decl_file("C:/TI_CodeComposer/ccsv6/tools/compiler/ti-cgt-arm_15.12.
     783                            .dwattr $C$DW$T$56, DW_AT_decl_line(0x2a)
     784                            .dwattr $C$DW$T$56, DW_AT_decl_column(0x1d)
     785                    
     786                    $C$DW$T$57      .dwtag  DW_TAG_typedef
     787                            .dwattr $C$DW$T$57, DW_AT_name("int_least8_t")
     788                            .dwattr $C$DW$T$57, DW_AT_type(*$C$DW$T$56)
     789                            .dwattr $C$DW$T$57, DW_AT_language(DW_LANG_C)
     790                            .dwattr $C$DW$T$57, DW_AT_decl_file("C:/TI_CodeComposer/ccsv6/tools/compiler/ti-cgt-arm_15.12.
     791                            .dwattr $C$DW$T$57, DW_AT_decl_line(0x37)
     792                            .dwattr $C$DW$T$57, DW_AT_decl_column(0x17)
     793                    
     794                    $C$DW$T$6       .dwtag  DW_TAG_base_type
     795                            .dwattr $C$DW$T$6, DW_AT_encoding(DW_ATE_unsigned_char)
     796                            .dwattr $C$DW$T$6, DW_AT_name("unsigned char")
     797                            .dwattr $C$DW$T$6, DW_AT_byte_size(0x01)
     798                    
     799                    $C$DW$T$22      .dwtag  DW_TAG_typedef
     800                            .dwattr $C$DW$T$22, DW_AT_name("uint8_t")
     801                            .dwattr $C$DW$T$22, DW_AT_type(*$C$DW$T$6)
     802                            .dwattr $C$DW$T$22, DW_AT_language(DW_LANG_C)
     803                            .dwattr $C$DW$T$22, DW_AT_decl_file("C:/TI_CodeComposer/ccsv6/tools/compiler/ti-cgt-arm_15.12.
     804                            .dwattr $C$DW$T$22, DW_AT_decl_line(0x2b)
     805                            .dwattr $C$DW$T$22, DW_AT_decl_column(0x1c)
     806                    
     807                    $C$DW$T$23      .dwtag  DW_TAG_pointer_type
     808                            .dwattr $C$DW$T$23, DW_AT_type(*$C$DW$T$22)
     809                            .dwattr $C$DW$T$23, DW_AT_address_class(0x20)
     810                    
     811                    $C$DW$T$58      .dwtag  DW_TAG_typedef
     812                            .dwattr $C$DW$T$58, DW_AT_name("portCHAR")
     813                            .dwattr $C$DW$T$58, DW_AT_type(*$C$DW$T$22)
     814                            .dwattr $C$DW$T$58, DW_AT_language(DW_LANG_C)
     815                            .dwattr $C$DW$T$58, DW_AT_decl_file("C:/TI_ARM_Tiva_Projects/Source/portable/CCS/ARM_CM4F/port
     816                            .dwattr $C$DW$T$58, DW_AT_decl_line(0x60)
     817                            .dwattr $C$DW$T$58, DW_AT_decl_column(0x12)
     818                    
     819                    $C$DW$T$59      .dwtag  DW_TAG_typedef
     820                            .dwattr $C$DW$T$59, DW_AT_name("uint_least8_t")
     821                            .dwattr $C$DW$T$59, DW_AT_type(*$C$DW$T$22)
     822                            .dwattr $C$DW$T$59, DW_AT_language(DW_LANG_C)
     823                            .dwattr $C$DW$T$59, DW_AT_decl_file("C:/TI_CodeComposer/ccsv6/tools/compiler/ti-cgt-arm_15.12.
     824                            .dwattr $C$DW$T$59, DW_AT_decl_line(0x38)
     825                            .dwattr $C$DW$T$59, DW_AT_decl_column(0x16)
TI ARM Assembler PC v15.12.1 Tue Oct 18 10:42:41 2016

Tools Copyright (c) 1996-2015 Texas Instruments Incorporated
list.asm                                                             PAGE   16

     826                    
     827                    $C$DW$T$7       .dwtag  DW_TAG_base_type
     828                            .dwattr $C$DW$T$7, DW_AT_encoding(DW_ATE_signed_char)
     829                            .dwattr $C$DW$T$7, DW_AT_name("wchar_t")
     830                            .dwattr $C$DW$T$7, DW_AT_byte_size(0x02)
     831                    
     832                    $C$DW$T$8       .dwtag  DW_TAG_base_type
     833                            .dwattr $C$DW$T$8, DW_AT_encoding(DW_ATE_signed)
     834                            .dwattr $C$DW$T$8, DW_AT_name("short")
     835                            .dwattr $C$DW$T$8, DW_AT_byte_size(0x02)
     836                    
     837                    $C$DW$T$60      .dwtag  DW_TAG_typedef
     838                            .dwattr $C$DW$T$60, DW_AT_name("int16_t")
     839                            .dwattr $C$DW$T$60, DW_AT_type(*$C$DW$T$8)
     840                            .dwattr $C$DW$T$60, DW_AT_language(DW_LANG_C)
     841                            .dwattr $C$DW$T$60, DW_AT_decl_file("C:/TI_CodeComposer/ccsv6/tools/compiler/ti-cgt-arm_15.12.
     842                            .dwattr $C$DW$T$60, DW_AT_decl_line(0x2c)
     843                            .dwattr $C$DW$T$60, DW_AT_decl_column(0x1d)
     844                    
     845                    $C$DW$T$61      .dwtag  DW_TAG_typedef
     846                            .dwattr $C$DW$T$61, DW_AT_name("int_least16_t")
     847                            .dwattr $C$DW$T$61, DW_AT_type(*$C$DW$T$60)
     848                            .dwattr $C$DW$T$61, DW_AT_language(DW_LANG_C)
     849                            .dwattr $C$DW$T$61, DW_AT_decl_file("C:/TI_CodeComposer/ccsv6/tools/compiler/ti-cgt-arm_15.12.
     850                            .dwattr $C$DW$T$61, DW_AT_decl_line(0x3a)
     851                            .dwattr $C$DW$T$61, DW_AT_decl_column(0x17)
     852                    
     853                    $C$DW$T$62      .dwtag  DW_TAG_typedef
     854                            .dwattr $C$DW$T$62, DW_AT_name("portSHORT")
     855                            .dwattr $C$DW$T$62, DW_AT_type(*$C$DW$T$60)
     856                            .dwattr $C$DW$T$62, DW_AT_language(DW_LANG_C)
     857                            .dwattr $C$DW$T$62, DW_AT_decl_file("C:/TI_ARM_Tiva_Projects/Source/portable/CCS/ARM_CM4F/port
     858                            .dwattr $C$DW$T$62, DW_AT_decl_line(0x64)
     859                            .dwattr $C$DW$T$62, DW_AT_decl_column(0x12)
     860                    
     861                    $C$DW$T$9       .dwtag  DW_TAG_base_type
     862                            .dwattr $C$DW$T$9, DW_AT_encoding(DW_ATE_unsigned)
     863                            .dwattr $C$DW$T$9, DW_AT_name("unsigned short")
     864                            .dwattr $C$DW$T$9, DW_AT_byte_size(0x02)
     865                    
     866                    $C$DW$T$63      .dwtag  DW_TAG_typedef
     867                            .dwattr $C$DW$T$63, DW_AT_name("uint16_t")
     868                            .dwattr $C$DW$T$63, DW_AT_type(*$C$DW$T$9)
     869                            .dwattr $C$DW$T$63, DW_AT_language(DW_LANG_C)
     870                            .dwattr $C$DW$T$63, DW_AT_decl_file("C:/TI_CodeComposer/ccsv6/tools/compiler/ti-cgt-arm_15.12.
     871                            .dwattr $C$DW$T$63, DW_AT_decl_line(0x2d)
     872                            .dwattr $C$DW$T$63, DW_AT_decl_column(0x1c)
     873                    
     874                    $C$DW$T$64      .dwtag  DW_TAG_typedef
     875                            .dwattr $C$DW$T$64, DW_AT_name("uint_least16_t")
     876                            .dwattr $C$DW$T$64, DW_AT_type(*$C$DW$T$63)
     877                            .dwattr $C$DW$T$64, DW_AT_language(DW_LANG_C)
     878                            .dwattr $C$DW$T$64, DW_AT_decl_file("C:/TI_CodeComposer/ccsv6/tools/compiler/ti-cgt-arm_15.12.
     879                            .dwattr $C$DW$T$64, DW_AT_decl_line(0x3b)
     880                            .dwattr $C$DW$T$64, DW_AT_decl_column(0x16)
TI ARM Assembler PC v15.12.1 Tue Oct 18 10:42:41 2016

Tools Copyright (c) 1996-2015 Texas Instruments Incorporated
list.asm                                                             PAGE   17

     881                    
     882                    $C$DW$T$65      .dwtag  DW_TAG_typedef
     883                            .dwattr $C$DW$T$65, DW_AT_name("wchar_t")
     884                            .dwattr $C$DW$T$65, DW_AT_type(*$C$DW$T$9)
     885                            .dwattr $C$DW$T$65, DW_AT_language(DW_LANG_C)
     886                            .dwattr $C$DW$T$65, DW_AT_decl_file("C:/TI_CodeComposer/ccsv6/tools/compiler/ti-cgt-arm_15.12.
     887                            .dwattr $C$DW$T$65, DW_AT_decl_line(0x78)
     888                            .dwattr $C$DW$T$65, DW_AT_decl_column(0x1a)
     889                    
     890                    $C$DW$T$10      .dwtag  DW_TAG_base_type
     891                            .dwattr $C$DW$T$10, DW_AT_encoding(DW_ATE_signed)
     892                            .dwattr $C$DW$T$10, DW_AT_name("int")
     893                            .dwattr $C$DW$T$10, DW_AT_byte_size(0x04)
     894                    
     895                    
     896                    $C$DW$T$66      .dwtag  DW_TAG_subroutine_type
     897                            .dwattr $C$DW$T$66, DW_AT_type(*$C$DW$T$10)
     898                            .dwattr $C$DW$T$66, DW_AT_language(DW_LANG_C)
     899                    $C$DW$38        .dwtag  DW_TAG_formal_parameter
     900                            .dwattr $C$DW$38, DW_AT_type(*$C$DW$T$52)
     901                    
     902                    $C$DW$39        .dwtag  DW_TAG_formal_parameter
     903                            .dwattr $C$DW$39, DW_AT_type(*$C$DW$T$52)
     904                    
     905                            .dwendtag $C$DW$T$66
     906                    
     907                    $C$DW$T$67      .dwtag  DW_TAG_pointer_type
     908                            .dwattr $C$DW$T$67, DW_AT_type(*$C$DW$T$66)
     909                            .dwattr $C$DW$T$67, DW_AT_address_class(0x20)
     910                    
     911                    $C$DW$T$68      .dwtag  DW_TAG_typedef
     912                            .dwattr $C$DW$T$68, DW_AT_name("__TI_compar_fn")
     913                            .dwattr $C$DW$T$68, DW_AT_type(*$C$DW$T$67)
     914                            .dwattr $C$DW$T$68, DW_AT_language(DW_LANG_C)
     915                            .dwattr $C$DW$T$68, DW_AT_decl_file("C:/TI_CodeComposer/ccsv6/tools/compiler/ti-cgt-arm_15.12.
     916                            .dwattr $C$DW$T$68, DW_AT_decl_line(0xbc)
     917                            .dwattr $C$DW$T$68, DW_AT_decl_column(0x13)
     918                    
     919                    $C$DW$T$69      .dwtag  DW_TAG_typedef
     920                            .dwattr $C$DW$T$69, DW_AT_name("int32_t")
     921                            .dwattr $C$DW$T$69, DW_AT_type(*$C$DW$T$10)
     922                            .dwattr $C$DW$T$69, DW_AT_language(DW_LANG_C)
     923                            .dwattr $C$DW$T$69, DW_AT_decl_file("C:/TI_CodeComposer/ccsv6/tools/compiler/ti-cgt-arm_15.12.
     924                            .dwattr $C$DW$T$69, DW_AT_decl_line(0x2e)
     925                            .dwattr $C$DW$T$69, DW_AT_decl_column(0x1d)
     926                    
     927                    $C$DW$T$70      .dwtag  DW_TAG_typedef
     928                            .dwattr $C$DW$T$70, DW_AT_name("BaseType_t")
     929                            .dwattr $C$DW$T$70, DW_AT_type(*$C$DW$T$69)
     930                            .dwattr $C$DW$T$70, DW_AT_language(DW_LANG_C)
     931                            .dwattr $C$DW$T$70, DW_AT_decl_file("C:/TI_ARM_Tiva_Projects/Source/portable/CCS/ARM_CM4F/port
     932                            .dwattr $C$DW$T$70, DW_AT_decl_line(0x69)
     933                            .dwattr $C$DW$T$70, DW_AT_decl_column(0x12)
     934                    
     935                    $C$DW$T$71      .dwtag  DW_TAG_typedef
TI ARM Assembler PC v15.12.1 Tue Oct 18 10:42:41 2016

Tools Copyright (c) 1996-2015 Texas Instruments Incorporated
list.asm                                                             PAGE   18

     936                            .dwattr $C$DW$T$71, DW_AT_name("int_fast16_t")
     937                            .dwattr $C$DW$T$71, DW_AT_type(*$C$DW$T$69)
     938                            .dwattr $C$DW$T$71, DW_AT_language(DW_LANG_C)
     939                            .dwattr $C$DW$T$71, DW_AT_decl_file("C:/TI_CodeComposer/ccsv6/tools/compiler/ti-cgt-arm_15.12.
     940                            .dwattr $C$DW$T$71, DW_AT_decl_line(0x47)
     941                            .dwattr $C$DW$T$71, DW_AT_decl_column(0x17)
     942                    
     943                    $C$DW$T$72      .dwtag  DW_TAG_typedef
     944                            .dwattr $C$DW$T$72, DW_AT_name("int_fast32_t")
     945                            .dwattr $C$DW$T$72, DW_AT_type(*$C$DW$T$69)
     946                            .dwattr $C$DW$T$72, DW_AT_language(DW_LANG_C)
     947                            .dwattr $C$DW$T$72, DW_AT_decl_file("C:/TI_CodeComposer/ccsv6/tools/compiler/ti-cgt-arm_15.12.
     948                            .dwattr $C$DW$T$72, DW_AT_decl_line(0x4a)
     949                            .dwattr $C$DW$T$72, DW_AT_decl_column(0x17)
     950                    
     951                    $C$DW$T$73      .dwtag  DW_TAG_typedef
     952                            .dwattr $C$DW$T$73, DW_AT_name("int_fast8_t")
     953                            .dwattr $C$DW$T$73, DW_AT_type(*$C$DW$T$69)
     954                            .dwattr $C$DW$T$73, DW_AT_language(DW_LANG_C)
     955                            .dwattr $C$DW$T$73, DW_AT_decl_file("C:/TI_CodeComposer/ccsv6/tools/compiler/ti-cgt-arm_15.12.
     956                            .dwattr $C$DW$T$73, DW_AT_decl_line(0x45)
     957                            .dwattr $C$DW$T$73, DW_AT_decl_column(0x17)
     958                    
     959                    $C$DW$T$74      .dwtag  DW_TAG_typedef
     960                            .dwattr $C$DW$T$74, DW_AT_name("int_least32_t")
     961                            .dwattr $C$DW$T$74, DW_AT_type(*$C$DW$T$69)
     962                            .dwattr $C$DW$T$74, DW_AT_language(DW_LANG_C)
     963                            .dwattr $C$DW$T$74, DW_AT_decl_file("C:/TI_CodeComposer/ccsv6/tools/compiler/ti-cgt-arm_15.12.
     964                            .dwattr $C$DW$T$74, DW_AT_decl_line(0x3c)
     965                            .dwattr $C$DW$T$74, DW_AT_decl_column(0x17)
     966                    
     967                    $C$DW$T$75      .dwtag  DW_TAG_typedef
     968                            .dwattr $C$DW$T$75, DW_AT_name("portBASE_TYPE")
     969                            .dwattr $C$DW$T$75, DW_AT_type(*$C$DW$T$69)
     970                            .dwattr $C$DW$T$75, DW_AT_language(DW_LANG_C)
     971                            .dwattr $C$DW$T$75, DW_AT_decl_file("C:/TI_ARM_Tiva_Projects/Source/portable/CCS/ARM_CM4F/port
     972                            .dwattr $C$DW$T$75, DW_AT_decl_line(0x66)
     973                            .dwattr $C$DW$T$75, DW_AT_decl_column(0x12)
     974                    
     975                    $C$DW$T$76      .dwtag  DW_TAG_typedef
     976                            .dwattr $C$DW$T$76, DW_AT_name("portLONG")
     977                            .dwattr $C$DW$T$76, DW_AT_type(*$C$DW$T$69)
     978                            .dwattr $C$DW$T$76, DW_AT_language(DW_LANG_C)
     979                            .dwattr $C$DW$T$76, DW_AT_decl_file("C:/TI_ARM_Tiva_Projects/Source/portable/CCS/ARM_CM4F/port
     980                            .dwattr $C$DW$T$76, DW_AT_decl_line(0x63)
     981                            .dwattr $C$DW$T$76, DW_AT_decl_column(0x12)
     982                    
     983                    $C$DW$T$77      .dwtag  DW_TAG_typedef
     984                            .dwattr $C$DW$T$77, DW_AT_name("intptr_t")
     985                            .dwattr $C$DW$T$77, DW_AT_type(*$C$DW$T$10)
     986                            .dwattr $C$DW$T$77, DW_AT_language(DW_LANG_C)
     987                            .dwattr $C$DW$T$77, DW_AT_decl_file("C:/TI_CodeComposer/ccsv6/tools/compiler/ti-cgt-arm_15.12.
     988                            .dwattr $C$DW$T$77, DW_AT_decl_line(0x52)
     989                            .dwattr $C$DW$T$77, DW_AT_decl_column(0x1a)
     990                    
TI ARM Assembler PC v15.12.1 Tue Oct 18 10:42:41 2016

Tools Copyright (c) 1996-2015 Texas Instruments Incorporated
list.asm                                                             PAGE   19

     991                    $C$DW$T$78      .dwtag  DW_TAG_typedef
     992                            .dwattr $C$DW$T$78, DW_AT_name("ptrdiff_t")
     993                            .dwattr $C$DW$T$78, DW_AT_type(*$C$DW$T$10)
     994                            .dwattr $C$DW$T$78, DW_AT_language(DW_LANG_C)
     995                            .dwattr $C$DW$T$78, DW_AT_decl_file("C:/TI_CodeComposer/ccsv6/tools/compiler/ti-cgt-arm_15.12.
     996                            .dwattr $C$DW$T$78, DW_AT_decl_line(0x36)
     997                            .dwattr $C$DW$T$78, DW_AT_decl_column(0x1c)
     998                    
     999                    $C$DW$T$11      .dwtag  DW_TAG_base_type
    1000                            .dwattr $C$DW$T$11, DW_AT_encoding(DW_ATE_unsigned)
    1001                            .dwattr $C$DW$T$11, DW_AT_name("unsigned int")
    1002                            .dwattr $C$DW$T$11, DW_AT_byte_size(0x04)
    1003                    
    1004                    $C$DW$T$24      .dwtag  DW_TAG_typedef
    1005                            .dwattr $C$DW$T$24, DW_AT_name("size_t")
    1006                            .dwattr $C$DW$T$24, DW_AT_type(*$C$DW$T$11)
    1007                            .dwattr $C$DW$T$24, DW_AT_language(DW_LANG_C)
    1008                            .dwattr $C$DW$T$24, DW_AT_decl_file("C:/TI_CodeComposer/ccsv6/tools/compiler/ti-cgt-arm_15.12.
    1009                            .dwattr $C$DW$T$24, DW_AT_decl_line(0x72)
    1010                            .dwattr $C$DW$T$24, DW_AT_decl_column(0x19)
    1011                    
    1012                    $C$DW$T$27      .dwtag  DW_TAG_typedef
    1013                            .dwattr $C$DW$T$27, DW_AT_name("uint32_t")
    1014                            .dwattr $C$DW$T$27, DW_AT_type(*$C$DW$T$11)
    1015                            .dwattr $C$DW$T$27, DW_AT_language(DW_LANG_C)
    1016                            .dwattr $C$DW$T$27, DW_AT_decl_file("C:/TI_CodeComposer/ccsv6/tools/compiler/ti-cgt-arm_15.12.
    1017                            .dwattr $C$DW$T$27, DW_AT_decl_line(0x2f)
    1018                            .dwattr $C$DW$T$27, DW_AT_decl_column(0x1c)
    1019                    
    1020                    $C$DW$T$79      .dwtag  DW_TAG_typedef
    1021                            .dwattr $C$DW$T$79, DW_AT_name("StackType_t")
    1022                            .dwattr $C$DW$T$79, DW_AT_type(*$C$DW$T$27)
    1023                            .dwattr $C$DW$T$79, DW_AT_language(DW_LANG_C)
    1024                            .dwattr $C$DW$T$79, DW_AT_decl_file("C:/TI_ARM_Tiva_Projects/Source/portable/CCS/ARM_CM4F/port
    1025                            .dwattr $C$DW$T$79, DW_AT_decl_line(0x68)
    1026                            .dwattr $C$DW$T$79, DW_AT_decl_column(0x12)
    1027                    
    1028                    $C$DW$T$33      .dwtag  DW_TAG_typedef
    1029                            .dwattr $C$DW$T$33, DW_AT_name("TickType_t")
    1030                            .dwattr $C$DW$T$33, DW_AT_type(*$C$DW$T$27)
    1031                            .dwattr $C$DW$T$33, DW_AT_language(DW_LANG_C)
    1032                            .dwattr $C$DW$T$33, DW_AT_decl_file("C:/TI_ARM_Tiva_Projects/Source/portable/CCS/ARM_CM4F/port
    1033                            .dwattr $C$DW$T$33, DW_AT_decl_line(0x70)
    1034                            .dwattr $C$DW$T$33, DW_AT_decl_column(0x13)
    1035                    
    1036                    $C$DW$T$80      .dwtag  DW_TAG_const_type
    1037                            .dwattr $C$DW$T$80, DW_AT_type(*$C$DW$T$33)
    1038                    
    1039                    $C$DW$T$28      .dwtag  DW_TAG_typedef
    1040                            .dwattr $C$DW$T$28, DW_AT_name("UBaseType_t")
    1041                            .dwattr $C$DW$T$28, DW_AT_type(*$C$DW$T$27)
    1042                            .dwattr $C$DW$T$28, DW_AT_language(DW_LANG_C)
    1043                            .dwattr $C$DW$T$28, DW_AT_decl_file("C:/TI_ARM_Tiva_Projects/Source/portable/CCS/ARM_CM4F/port
    1044                            .dwattr $C$DW$T$28, DW_AT_decl_line(0x6a)
    1045                            .dwattr $C$DW$T$28, DW_AT_decl_column(0x12)
TI ARM Assembler PC v15.12.1 Tue Oct 18 10:42:41 2016

Tools Copyright (c) 1996-2015 Texas Instruments Incorporated
list.asm                                                             PAGE   20

    1046                    
    1047                    $C$DW$T$82      .dwtag  DW_TAG_typedef
    1048                            .dwattr $C$DW$T$82, DW_AT_name("portSTACK_TYPE")
    1049                            .dwattr $C$DW$T$82, DW_AT_type(*$C$DW$T$27)
    1050                            .dwattr $C$DW$T$82, DW_AT_language(DW_LANG_C)
    1051                            .dwattr $C$DW$T$82, DW_AT_decl_file("C:/TI_ARM_Tiva_Projects/Source/portable/CCS/ARM_CM4F/port
    1052                            .dwattr $C$DW$T$82, DW_AT_decl_line(0x65)
    1053                            .dwattr $C$DW$T$82, DW_AT_decl_column(0x12)
    1054                    
    1055                    $C$DW$T$83      .dwtag  DW_TAG_typedef
    1056                            .dwattr $C$DW$T$83, DW_AT_name("uint_fast16_t")
    1057                            .dwattr $C$DW$T$83, DW_AT_type(*$C$DW$T$27)
    1058                            .dwattr $C$DW$T$83, DW_AT_language(DW_LANG_C)
    1059                            .dwattr $C$DW$T$83, DW_AT_decl_file("C:/TI_CodeComposer/ccsv6/tools/compiler/ti-cgt-arm_15.12.
    1060                            .dwattr $C$DW$T$83, DW_AT_decl_line(0x48)
    1061                            .dwattr $C$DW$T$83, DW_AT_decl_column(0x16)
    1062                    
    1063                    $C$DW$T$84      .dwtag  DW_TAG_typedef
    1064                            .dwattr $C$DW$T$84, DW_AT_name("uint_fast32_t")
    1065                            .dwattr $C$DW$T$84, DW_AT_type(*$C$DW$T$27)
    1066                            .dwattr $C$DW$T$84, DW_AT_language(DW_LANG_C)
    1067                            .dwattr $C$DW$T$84, DW_AT_decl_file("C:/TI_CodeComposer/ccsv6/tools/compiler/ti-cgt-arm_15.12.
    1068                            .dwattr $C$DW$T$84, DW_AT_decl_line(0x4b)
    1069                            .dwattr $C$DW$T$84, DW_AT_decl_column(0x16)
    1070                    
    1071                    $C$DW$T$85      .dwtag  DW_TAG_typedef
    1072                            .dwattr $C$DW$T$85, DW_AT_name("uint_fast8_t")
    1073                            .dwattr $C$DW$T$85, DW_AT_type(*$C$DW$T$27)
    1074                            .dwattr $C$DW$T$85, DW_AT_language(DW_LANG_C)
    1075                            .dwattr $C$DW$T$85, DW_AT_decl_file("C:/TI_CodeComposer/ccsv6/tools/compiler/ti-cgt-arm_15.12.
    1076                            .dwattr $C$DW$T$85, DW_AT_decl_line(0x46)
    1077                            .dwattr $C$DW$T$85, DW_AT_decl_column(0x16)
    1078                    
    1079                    $C$DW$T$86      .dwtag  DW_TAG_typedef
    1080                            .dwattr $C$DW$T$86, DW_AT_name("uint_least32_t")
    1081                            .dwattr $C$DW$T$86, DW_AT_type(*$C$DW$T$27)
    1082                            .dwattr $C$DW$T$86, DW_AT_language(DW_LANG_C)
    1083                            .dwattr $C$DW$T$86, DW_AT_decl_file("C:/TI_CodeComposer/ccsv6/tools/compiler/ti-cgt-arm_15.12.
    1084                            .dwattr $C$DW$T$86, DW_AT_decl_line(0x3d)
    1085                            .dwattr $C$DW$T$86, DW_AT_decl_column(0x16)
    1086                    
    1087                    $C$DW$T$87      .dwtag  DW_TAG_typedef
    1088                            .dwattr $C$DW$T$87, DW_AT_name("uintptr_t")
    1089                            .dwattr $C$DW$T$87, DW_AT_type(*$C$DW$T$11)
    1090                            .dwattr $C$DW$T$87, DW_AT_language(DW_LANG_C)
    1091                            .dwattr $C$DW$T$87, DW_AT_decl_file("C:/TI_CodeComposer/ccsv6/tools/compiler/ti-cgt-arm_15.12.
    1092                            .dwattr $C$DW$T$87, DW_AT_decl_line(0x53)
    1093                            .dwattr $C$DW$T$87, DW_AT_decl_column(0x1a)
    1094                    
    1095                    $C$DW$T$12      .dwtag  DW_TAG_base_type
    1096                            .dwattr $C$DW$T$12, DW_AT_encoding(DW_ATE_signed)
    1097                            .dwattr $C$DW$T$12, DW_AT_name("long")
    1098                            .dwattr $C$DW$T$12, DW_AT_byte_size(0x04)
    1099                    
    1100                    $C$DW$T$13      .dwtag  DW_TAG_base_type
TI ARM Assembler PC v15.12.1 Tue Oct 18 10:42:41 2016

Tools Copyright (c) 1996-2015 Texas Instruments Incorporated
list.asm                                                             PAGE   21

    1101                            .dwattr $C$DW$T$13, DW_AT_encoding(DW_ATE_unsigned)
    1102                            .dwattr $C$DW$T$13, DW_AT_name("unsigned long")
    1103                            .dwattr $C$DW$T$13, DW_AT_byte_size(0x04)
    1104                    
    1105                    $C$DW$T$14      .dwtag  DW_TAG_base_type
    1106                            .dwattr $C$DW$T$14, DW_AT_encoding(DW_ATE_signed)
    1107                            .dwattr $C$DW$T$14, DW_AT_name("long long")
    1108                            .dwattr $C$DW$T$14, DW_AT_byte_size(0x08)
    1109                    
    1110                    $C$DW$T$88      .dwtag  DW_TAG_typedef
    1111                            .dwattr $C$DW$T$88, DW_AT_name("int64_t")
    1112                            .dwattr $C$DW$T$88, DW_AT_type(*$C$DW$T$14)
    1113                            .dwattr $C$DW$T$88, DW_AT_language(DW_LANG_C)
    1114                            .dwattr $C$DW$T$88, DW_AT_decl_file("C:/TI_CodeComposer/ccsv6/tools/compiler/ti-cgt-arm_15.12.
    1115                            .dwattr $C$DW$T$88, DW_AT_decl_line(0x32)
    1116                            .dwattr $C$DW$T$88, DW_AT_decl_column(0x21)
    1117                    
    1118                    $C$DW$T$89      .dwtag  DW_TAG_typedef
    1119                            .dwattr $C$DW$T$89, DW_AT_name("int_fast64_t")
    1120                            .dwattr $C$DW$T$89, DW_AT_type(*$C$DW$T$88)
    1121                            .dwattr $C$DW$T$89, DW_AT_language(DW_LANG_C)
    1122                            .dwattr $C$DW$T$89, DW_AT_decl_file("C:/TI_CodeComposer/ccsv6/tools/compiler/ti-cgt-arm_15.12.
    1123                            .dwattr $C$DW$T$89, DW_AT_decl_line(0x4e)
    1124                            .dwattr $C$DW$T$89, DW_AT_decl_column(0x17)
    1125                    
    1126                    $C$DW$T$90      .dwtag  DW_TAG_typedef
    1127                            .dwattr $C$DW$T$90, DW_AT_name("int_least64_t")
    1128                            .dwattr $C$DW$T$90, DW_AT_type(*$C$DW$T$88)
    1129                            .dwattr $C$DW$T$90, DW_AT_language(DW_LANG_C)
    1130                            .dwattr $C$DW$T$90, DW_AT_decl_file("C:/TI_CodeComposer/ccsv6/tools/compiler/ti-cgt-arm_15.12.
    1131                            .dwattr $C$DW$T$90, DW_AT_decl_line(0x40)
    1132                            .dwattr $C$DW$T$90, DW_AT_decl_column(0x17)
    1133                    
    1134                    $C$DW$T$91      .dwtag  DW_TAG_typedef
    1135                            .dwattr $C$DW$T$91, DW_AT_name("portDOUBLE")
    1136                            .dwattr $C$DW$T$91, DW_AT_type(*$C$DW$T$88)
    1137                            .dwattr $C$DW$T$91, DW_AT_language(DW_LANG_C)
    1138                            .dwattr $C$DW$T$91, DW_AT_decl_file("C:/TI_ARM_Tiva_Projects/Source/portable/CCS/ARM_CM4F/port
    1139                            .dwattr $C$DW$T$91, DW_AT_decl_line(0x62)
    1140                            .dwattr $C$DW$T$91, DW_AT_decl_column(0x12)
    1141                    
    1142                    $C$DW$T$92      .dwtag  DW_TAG_typedef
    1143                            .dwattr $C$DW$T$92, DW_AT_name("intmax_t")
    1144                            .dwattr $C$DW$T$92, DW_AT_type(*$C$DW$T$14)
    1145                            .dwattr $C$DW$T$92, DW_AT_language(DW_LANG_C)
    1146                            .dwattr $C$DW$T$92, DW_AT_decl_file("C:/TI_CodeComposer/ccsv6/tools/compiler/ti-cgt-arm_15.12.
    1147                            .dwattr $C$DW$T$92, DW_AT_decl_line(0x56)
    1148                            .dwattr $C$DW$T$92, DW_AT_decl_column(0x20)
    1149                    
    1150                    $C$DW$T$15      .dwtag  DW_TAG_base_type
    1151                            .dwattr $C$DW$T$15, DW_AT_encoding(DW_ATE_unsigned)
    1152                            .dwattr $C$DW$T$15, DW_AT_name("unsigned long long")
    1153                            .dwattr $C$DW$T$15, DW_AT_byte_size(0x08)
    1154                    
    1155                    $C$DW$T$93      .dwtag  DW_TAG_typedef
TI ARM Assembler PC v15.12.1 Tue Oct 18 10:42:41 2016

Tools Copyright (c) 1996-2015 Texas Instruments Incorporated
list.asm                                                             PAGE   22

    1156                            .dwattr $C$DW$T$93, DW_AT_name("uint64_t")
    1157                            .dwattr $C$DW$T$93, DW_AT_type(*$C$DW$T$15)
    1158                            .dwattr $C$DW$T$93, DW_AT_language(DW_LANG_C)
    1159                            .dwattr $C$DW$T$93, DW_AT_decl_file("C:/TI_CodeComposer/ccsv6/tools/compiler/ti-cgt-arm_15.12.
    1160                            .dwattr $C$DW$T$93, DW_AT_decl_line(0x33)
    1161                            .dwattr $C$DW$T$93, DW_AT_decl_column(0x20)
    1162                    
    1163                    $C$DW$T$94      .dwtag  DW_TAG_typedef
    1164                            .dwattr $C$DW$T$94, DW_AT_name("uint_fast64_t")
    1165                            .dwattr $C$DW$T$94, DW_AT_type(*$C$DW$T$93)
    1166                            .dwattr $C$DW$T$94, DW_AT_language(DW_LANG_C)
    1167                            .dwattr $C$DW$T$94, DW_AT_decl_file("C:/TI_CodeComposer/ccsv6/tools/compiler/ti-cgt-arm_15.12.
    1168                            .dwattr $C$DW$T$94, DW_AT_decl_line(0x4f)
    1169                            .dwattr $C$DW$T$94, DW_AT_decl_column(0x16)
    1170                    
    1171                    $C$DW$T$95      .dwtag  DW_TAG_typedef
    1172                            .dwattr $C$DW$T$95, DW_AT_name("uint_least64_t")
    1173                            .dwattr $C$DW$T$95, DW_AT_type(*$C$DW$T$93)
    1174                            .dwattr $C$DW$T$95, DW_AT_language(DW_LANG_C)
    1175                            .dwattr $C$DW$T$95, DW_AT_decl_file("C:/TI_CodeComposer/ccsv6/tools/compiler/ti-cgt-arm_15.12.
    1176                            .dwattr $C$DW$T$95, DW_AT_decl_line(0x41)
    1177                            .dwattr $C$DW$T$95, DW_AT_decl_column(0x16)
    1178                    
    1179                    $C$DW$T$96      .dwtag  DW_TAG_typedef
    1180                            .dwattr $C$DW$T$96, DW_AT_name("uintmax_t")
    1181                            .dwattr $C$DW$T$96, DW_AT_type(*$C$DW$T$15)
    1182                            .dwattr $C$DW$T$96, DW_AT_language(DW_LANG_C)
    1183                            .dwattr $C$DW$T$96, DW_AT_decl_file("C:/TI_CodeComposer/ccsv6/tools/compiler/ti-cgt-arm_15.12.
    1184                            .dwattr $C$DW$T$96, DW_AT_decl_line(0x57)
    1185                            .dwattr $C$DW$T$96, DW_AT_decl_column(0x20)
    1186                    
    1187                    $C$DW$T$16      .dwtag  DW_TAG_base_type
    1188                            .dwattr $C$DW$T$16, DW_AT_encoding(DW_ATE_float)
    1189                            .dwattr $C$DW$T$16, DW_AT_name("float")
    1190                            .dwattr $C$DW$T$16, DW_AT_byte_size(0x04)
    1191                    
    1192                    $C$DW$T$97      .dwtag  DW_TAG_typedef
    1193                            .dwattr $C$DW$T$97, DW_AT_name("portFLOAT")
    1194                            .dwattr $C$DW$T$97, DW_AT_type(*$C$DW$T$16)
    1195                            .dwattr $C$DW$T$97, DW_AT_language(DW_LANG_C)
    1196                            .dwattr $C$DW$T$97, DW_AT_decl_file("C:/TI_ARM_Tiva_Projects/Source/portable/CCS/ARM_CM4F/port
    1197                            .dwattr $C$DW$T$97, DW_AT_decl_line(0x61)
    1198                            .dwattr $C$DW$T$97, DW_AT_decl_column(0x10)
    1199                    
    1200                    $C$DW$T$17      .dwtag  DW_TAG_base_type
    1201                            .dwattr $C$DW$T$17, DW_AT_encoding(DW_ATE_float)
    1202                            .dwattr $C$DW$T$17, DW_AT_name("double")
    1203                            .dwattr $C$DW$T$17, DW_AT_byte_size(0x08)
    1204                    
    1205                    $C$DW$T$18      .dwtag  DW_TAG_base_type
    1206                            .dwattr $C$DW$T$18, DW_AT_encoding(DW_ATE_float)
    1207                            .dwattr $C$DW$T$18, DW_AT_name("long double")
    1208                            .dwattr $C$DW$T$18, DW_AT_byte_size(0x08)
    1209                    
    1210                    
TI ARM Assembler PC v15.12.1 Tue Oct 18 10:42:41 2016

Tools Copyright (c) 1996-2015 Texas Instruments Incorporated
list.asm                                                             PAGE   23

    1211                    $C$DW$T$26      .dwtag  DW_TAG_structure_type
    1212                            .dwattr $C$DW$T$26, DW_AT_name("__va_list")
    1213                            .dwattr $C$DW$T$26, DW_AT_byte_size(0x04)
    1214                    $C$DW$40        .dwtag  DW_TAG_member
    1215                            .dwattr $C$DW$40, DW_AT_type(*$C$DW$T$3)
    1216                            .dwattr $C$DW$40, DW_AT_name("__ap")
    1217                            .dwattr $C$DW$40, DW_AT_TI_symbol_name("__ap")
    1218                            .dwattr $C$DW$40, DW_AT_data_member_location[DW_OP_plus_uconst 0x0]
    1219                            .dwattr $C$DW$40, DW_AT_accessibility(DW_ACCESS_public)
    1220                            .dwattr $C$DW$40, DW_AT_decl_file("C:/TI_CodeComposer/ccsv6/tools/compiler/ti-cgt-arm_15.12.1.
    1221                            .dwattr $C$DW$40, DW_AT_decl_line(0x38)
    1222                            .dwattr $C$DW$40, DW_AT_decl_column(0x0c)
    1223                    
    1224                            .dwattr $C$DW$T$26, DW_AT_decl_file("C:/TI_CodeComposer/ccsv6/tools/compiler/ti-cgt-arm_15.12.
    1225                            .dwattr $C$DW$T$26, DW_AT_decl_line(0x37)
    1226                            .dwattr $C$DW$T$26, DW_AT_decl_column(0x10)
    1227                            .dwendtag $C$DW$T$26
    1228                    
    1229                    $C$DW$T$98      .dwtag  DW_TAG_typedef
    1230                            .dwattr $C$DW$T$98, DW_AT_name("va_list")
    1231                            .dwattr $C$DW$T$98, DW_AT_type(*$C$DW$T$26)
    1232                            .dwattr $C$DW$T$98, DW_AT_language(DW_LANG_C)
    1233                            .dwattr $C$DW$T$98, DW_AT_decl_file("C:/TI_CodeComposer/ccsv6/tools/compiler/ti-cgt-arm_15.12.
    1234                            .dwattr $C$DW$T$98, DW_AT_decl_line(0x39)
    1235                            .dwattr $C$DW$T$98, DW_AT_decl_column(0x03)
    1236                    
    1237                    
    1238                    $C$DW$T$32      .dwtag  DW_TAG_structure_type
    1239                            .dwattr $C$DW$T$32, DW_AT_name("xLIST")
    1240                            .dwattr $C$DW$T$32, DW_AT_byte_size(0x14)
    1241                    $C$DW$41        .dwtag  DW_TAG_member
    1242                            .dwattr $C$DW$41, DW_AT_type(*$C$DW$T$28)
    1243                            .dwattr $C$DW$41, DW_AT_name("uxNumberOfItems")
    1244                            .dwattr $C$DW$41, DW_AT_TI_symbol_name("uxNumberOfItems")
    1245                            .dwattr $C$DW$41, DW_AT_data_member_location[DW_OP_plus_uconst 0x0]
    1246                            .dwattr $C$DW$41, DW_AT_accessibility(DW_ACCESS_public)
    1247                            .dwattr $C$DW$41, DW_AT_decl_file("C:/TI_ARM_Tiva_Projects/Source/include/list.h")
    1248                            .dwattr $C$DW$41, DW_AT_decl_line(0xd0)
    1249                            .dwattr $C$DW$41, DW_AT_decl_column(0x22)
    1250                    
    1251                    $C$DW$42        .dwtag  DW_TAG_member
    1252                            .dwattr $C$DW$42, DW_AT_type(*$C$DW$T$30)
    1253                            .dwattr $C$DW$42, DW_AT_name("pxIndex")
    1254                            .dwattr $C$DW$42, DW_AT_TI_symbol_name("pxIndex")
    1255                            .dwattr $C$DW$42, DW_AT_data_member_location[DW_OP_plus_uconst 0x4]
    1256                            .dwattr $C$DW$42, DW_AT_accessibility(DW_ACCESS_public)
    1257                            .dwattr $C$DW$42, DW_AT_decl_file("C:/TI_ARM_Tiva_Projects/Source/include/list.h")
    1258                            .dwattr $C$DW$42, DW_AT_decl_line(0xd1)
    1259                            .dwattr $C$DW$42, DW_AT_decl_column(0x23)
    1260                    
    1261                    $C$DW$43        .dwtag  DW_TAG_member
    1262                            .dwattr $C$DW$43, DW_AT_type(*$C$DW$T$31)
    1263                            .dwattr $C$DW$43, DW_AT_name("xListEnd")
    1264                            .dwattr $C$DW$43, DW_AT_TI_symbol_name("xListEnd")
    1265                            .dwattr $C$DW$43, DW_AT_data_member_location[DW_OP_plus_uconst 0x8]
TI ARM Assembler PC v15.12.1 Tue Oct 18 10:42:41 2016

Tools Copyright (c) 1996-2015 Texas Instruments Incorporated
list.asm                                                             PAGE   24

    1266                            .dwattr $C$DW$43, DW_AT_accessibility(DW_ACCESS_public)
    1267                            .dwattr $C$DW$43, DW_AT_decl_file("C:/TI_ARM_Tiva_Projects/Source/include/list.h")
    1268                            .dwattr $C$DW$43, DW_AT_decl_line(0xd2)
    1269                            .dwattr $C$DW$43, DW_AT_decl_column(0x11)
    1270                    
    1271                            .dwattr $C$DW$T$32, DW_AT_decl_file("C:/TI_ARM_Tiva_Projects/Source/include/list.h")
    1272                            .dwattr $C$DW$T$32, DW_AT_decl_line(0xcd)
    1273                            .dwattr $C$DW$T$32, DW_AT_decl_column(0x10)
    1274                            .dwendtag $C$DW$T$32
    1275                    
    1276                    $C$DW$T$41      .dwtag  DW_TAG_typedef
    1277                            .dwattr $C$DW$T$41, DW_AT_name("List_t")
    1278                            .dwattr $C$DW$T$41, DW_AT_type(*$C$DW$T$32)
    1279                            .dwattr $C$DW$T$41, DW_AT_language(DW_LANG_C)
    1280                            .dwattr $C$DW$T$41, DW_AT_decl_file("C:/TI_ARM_Tiva_Projects/Source/include/list.h")
    1281                            .dwattr $C$DW$T$41, DW_AT_decl_line(0xd4)
    1282                            .dwattr $C$DW$T$41, DW_AT_decl_column(0x03)
    1283                    
    1284                    $C$DW$T$42      .dwtag  DW_TAG_pointer_type
    1285                            .dwattr $C$DW$T$42, DW_AT_type(*$C$DW$T$41)
    1286                            .dwattr $C$DW$T$42, DW_AT_address_class(0x20)
    1287                    
    1288                    $C$DW$T$43      .dwtag  DW_TAG_const_type
    1289                            .dwattr $C$DW$T$43, DW_AT_type(*$C$DW$T$42)
    1290                    
    1291                    
    1292                    $C$DW$T$35      .dwtag  DW_TAG_structure_type
    1293                            .dwattr $C$DW$T$35, DW_AT_name("xLIST_ITEM")
    1294                            .dwattr $C$DW$T$35, DW_AT_byte_size(0x14)
    1295                    $C$DW$44        .dwtag  DW_TAG_member
    1296                            .dwattr $C$DW$44, DW_AT_type(*$C$DW$T$33)
    1297                            .dwattr $C$DW$44, DW_AT_name("xItemValue")
    1298                            .dwattr $C$DW$44, DW_AT_TI_symbol_name("xItemValue")
    1299                            .dwattr $C$DW$44, DW_AT_data_member_location[DW_OP_plus_uconst 0x0]
    1300                            .dwattr $C$DW$44, DW_AT_accessibility(DW_ACCESS_public)
    1301                            .dwattr $C$DW$44, DW_AT_decl_file("C:/TI_ARM_Tiva_Projects/Source/include/list.h")
    1302                            .dwattr $C$DW$44, DW_AT_decl_line(0xb8)
    1303                            .dwattr $C$DW$44, DW_AT_decl_column(0x21)
    1304                    
    1305                    $C$DW$45        .dwtag  DW_TAG_member
    1306                            .dwattr $C$DW$45, DW_AT_type(*$C$DW$T$34)
    1307                            .dwattr $C$DW$45, DW_AT_name("pxNext")
    1308                            .dwattr $C$DW$45, DW_AT_TI_symbol_name("pxNext")
    1309                            .dwattr $C$DW$45, DW_AT_data_member_location[DW_OP_plus_uconst 0x4]
    1310                            .dwattr $C$DW$45, DW_AT_accessibility(DW_ACCESS_public)
    1311                            .dwattr $C$DW$45, DW_AT_decl_file("C:/TI_ARM_Tiva_Projects/Source/include/list.h")
    1312                            .dwattr $C$DW$45, DW_AT_decl_line(0xb9)
    1313                            .dwattr $C$DW$45, DW_AT_decl_column(0x2a)
    1314                    
    1315                    $C$DW$46        .dwtag  DW_TAG_member
    1316                            .dwattr $C$DW$46, DW_AT_type(*$C$DW$T$34)
    1317                            .dwattr $C$DW$46, DW_AT_name("pxPrevious")
    1318                            .dwattr $C$DW$46, DW_AT_TI_symbol_name("pxPrevious")
    1319                            .dwattr $C$DW$46, DW_AT_data_member_location[DW_OP_plus_uconst 0x8]
    1320                            .dwattr $C$DW$46, DW_AT_accessibility(DW_ACCESS_public)
TI ARM Assembler PC v15.12.1 Tue Oct 18 10:42:41 2016

Tools Copyright (c) 1996-2015 Texas Instruments Incorporated
list.asm                                                             PAGE   25

    1321                            .dwattr $C$DW$46, DW_AT_decl_file("C:/TI_ARM_Tiva_Projects/Source/include/list.h")
    1322                            .dwattr $C$DW$46, DW_AT_decl_line(0xba)
    1323                            .dwattr $C$DW$46, DW_AT_decl_column(0x2a)
    1324                    
    1325                    $C$DW$47        .dwtag  DW_TAG_member
    1326                            .dwattr $C$DW$47, DW_AT_type(*$C$DW$T$3)
    1327                            .dwattr $C$DW$47, DW_AT_name("pvOwner")
    1328                            .dwattr $C$DW$47, DW_AT_TI_symbol_name("pvOwner")
    1329                            .dwattr $C$DW$47, DW_AT_data_member_location[DW_OP_plus_uconst 0xc]
    1330                            .dwattr $C$DW$47, DW_AT_accessibility(DW_ACCESS_public)
    1331                            .dwattr $C$DW$47, DW_AT_decl_file("C:/TI_ARM_Tiva_Projects/Source/include/list.h")
    1332                            .dwattr $C$DW$47, DW_AT_decl_line(0xbb)
    1333                            .dwattr $C$DW$47, DW_AT_decl_column(0x09)
    1334                    
    1335                    $C$DW$48        .dwtag  DW_TAG_member
    1336                            .dwattr $C$DW$48, DW_AT_type(*$C$DW$T$3)
    1337                            .dwattr $C$DW$48, DW_AT_name("pvContainer")
    1338                            .dwattr $C$DW$48, DW_AT_TI_symbol_name("pvContainer")
    1339                            .dwattr $C$DW$48, DW_AT_data_member_location[DW_OP_plus_uconst 0x10]
    1340                            .dwattr $C$DW$48, DW_AT_accessibility(DW_ACCESS_public)
    1341                            .dwattr $C$DW$48, DW_AT_decl_file("C:/TI_ARM_Tiva_Projects/Source/include/list.h")
    1342                            .dwattr $C$DW$48, DW_AT_decl_line(0xbc)
    1343                            .dwattr $C$DW$48, DW_AT_decl_column(0x1d)
    1344                    
    1345                            .dwattr $C$DW$T$35, DW_AT_decl_file("C:/TI_ARM_Tiva_Projects/Source/include/list.h")
    1346                            .dwattr $C$DW$T$35, DW_AT_decl_line(0xb5)
    1347                            .dwattr $C$DW$T$35, DW_AT_decl_column(0x08)
    1348                            .dwendtag $C$DW$T$35
    1349                    
    1350                    $C$DW$T$29      .dwtag  DW_TAG_typedef
    1351                            .dwattr $C$DW$T$29, DW_AT_name("ListItem_t")
    1352                            .dwattr $C$DW$T$29, DW_AT_type(*$C$DW$T$35)
    1353                            .dwattr $C$DW$T$29, DW_AT_language(DW_LANG_C)
    1354                            .dwattr $C$DW$T$29, DW_AT_decl_file("C:/TI_ARM_Tiva_Projects/Source/include/list.h")
    1355                            .dwattr $C$DW$T$29, DW_AT_decl_line(0xbf)
    1356                            .dwattr $C$DW$T$29, DW_AT_decl_column(0x1b)
    1357                    
    1358                    $C$DW$T$30      .dwtag  DW_TAG_pointer_type
    1359                            .dwattr $C$DW$T$30, DW_AT_type(*$C$DW$T$29)
    1360                            .dwattr $C$DW$T$30, DW_AT_address_class(0x20)
    1361                    
    1362                    $C$DW$T$45      .dwtag  DW_TAG_const_type
    1363                            .dwattr $C$DW$T$45, DW_AT_type(*$C$DW$T$30)
    1364                    
    1365                    $C$DW$T$34      .dwtag  DW_TAG_pointer_type
    1366                            .dwattr $C$DW$T$34, DW_AT_type(*$C$DW$T$35)
    1367                            .dwattr $C$DW$T$34, DW_AT_address_class(0x20)
    1368                    
    1369                    
    1370                    $C$DW$T$36      .dwtag  DW_TAG_structure_type
    1371                            .dwattr $C$DW$T$36, DW_AT_name("xMINI_LIST_ITEM")
    1372                            .dwattr $C$DW$T$36, DW_AT_byte_size(0x0c)
    1373                    $C$DW$49        .dwtag  DW_TAG_member
    1374                            .dwattr $C$DW$49, DW_AT_type(*$C$DW$T$33)
    1375                            .dwattr $C$DW$49, DW_AT_name("xItemValue")
TI ARM Assembler PC v15.12.1 Tue Oct 18 10:42:41 2016

Tools Copyright (c) 1996-2015 Texas Instruments Incorporated
list.asm                                                             PAGE   26

    1376                            .dwattr $C$DW$49, DW_AT_TI_symbol_name("xItemValue")
    1377                            .dwattr $C$DW$49, DW_AT_data_member_location[DW_OP_plus_uconst 0x0]
    1378                            .dwattr $C$DW$49, DW_AT_accessibility(DW_ACCESS_public)
    1379                            .dwattr $C$DW$49, DW_AT_decl_file("C:/TI_ARM_Tiva_Projects/Source/include/list.h")
    1380                            .dwattr $C$DW$49, DW_AT_decl_line(0xc4)
    1381                            .dwattr $C$DW$49, DW_AT_decl_column(0x21)
    1382                    
    1383                    $C$DW$50        .dwtag  DW_TAG_member
    1384                            .dwattr $C$DW$50, DW_AT_type(*$C$DW$T$34)
    1385                            .dwattr $C$DW$50, DW_AT_name("pxNext")
    1386                            .dwattr $C$DW$50, DW_AT_TI_symbol_name("pxNext")
    1387                            .dwattr $C$DW$50, DW_AT_data_member_location[DW_OP_plus_uconst 0x4]
    1388                            .dwattr $C$DW$50, DW_AT_accessibility(DW_ACCESS_public)
    1389                            .dwattr $C$DW$50, DW_AT_decl_file("C:/TI_ARM_Tiva_Projects/Source/include/list.h")
    1390                            .dwattr $C$DW$50, DW_AT_decl_line(0xc5)
    1391                            .dwattr $C$DW$50, DW_AT_decl_column(0x2a)
    1392                    
    1393                    $C$DW$51        .dwtag  DW_TAG_member
    1394                            .dwattr $C$DW$51, DW_AT_type(*$C$DW$T$34)
    1395                            .dwattr $C$DW$51, DW_AT_name("pxPrevious")
    1396                            .dwattr $C$DW$51, DW_AT_TI_symbol_name("pxPrevious")
    1397                            .dwattr $C$DW$51, DW_AT_data_member_location[DW_OP_plus_uconst 0x8]
    1398                            .dwattr $C$DW$51, DW_AT_accessibility(DW_ACCESS_public)
    1399                            .dwattr $C$DW$51, DW_AT_decl_file("C:/TI_ARM_Tiva_Projects/Source/include/list.h")
    1400                            .dwattr $C$DW$51, DW_AT_decl_line(0xc6)
    1401                            .dwattr $C$DW$51, DW_AT_decl_column(0x2a)
    1402                    
    1403                            .dwattr $C$DW$T$36, DW_AT_decl_file("C:/TI_ARM_Tiva_Projects/Source/include/list.h")
    1404                            .dwattr $C$DW$T$36, DW_AT_decl_line(0xc1)
    1405                            .dwattr $C$DW$T$36, DW_AT_decl_column(0x08)
    1406                            .dwendtag $C$DW$T$36
    1407                    
    1408                    $C$DW$T$31      .dwtag  DW_TAG_typedef
    1409                            .dwattr $C$DW$T$31, DW_AT_name("MiniListItem_t")
    1410                            .dwattr $C$DW$T$31, DW_AT_type(*$C$DW$T$36)
    1411                            .dwattr $C$DW$T$31, DW_AT_language(DW_LANG_C)
    1412                            .dwattr $C$DW$T$31, DW_AT_decl_file("C:/TI_ARM_Tiva_Projects/Source/include/list.h")
    1413                            .dwattr $C$DW$T$31, DW_AT_decl_line(0xc8)
    1414                            .dwattr $C$DW$T$31, DW_AT_decl_column(0x20)
    1415                    
    1416                            .dwattr $C$DW$CU, DW_AT_language(DW_LANG_C)
    1417                    
    1418                    ;***************************************************************
    1419                    ;* DWARF CIE ENTRIES                                           *
    1420                    ;***************************************************************
    1421                    
    1422                    $C$DW$CIE       .dwcie 14
    1423                            .dwcfi  cfa_register, 13
    1424                            .dwcfi  cfa_offset, 0
    1425                            .dwcfi  undefined, 0
    1426                            .dwcfi  undefined, 1
    1427                            .dwcfi  undefined, 2
    1428                            .dwcfi  undefined, 3
    1429                            .dwcfi  same_value, 4
    1430                            .dwcfi  same_value, 5
TI ARM Assembler PC v15.12.1 Tue Oct 18 10:42:41 2016

Tools Copyright (c) 1996-2015 Texas Instruments Incorporated
list.asm                                                             PAGE   27

    1431                            .dwcfi  same_value, 6
    1432                            .dwcfi  same_value, 7
    1433                            .dwcfi  same_value, 8
    1434                            .dwcfi  same_value, 9
    1435                            .dwcfi  same_value, 10
    1436                            .dwcfi  same_value, 11
    1437                            .dwcfi  undefined, 12
    1438                            .dwcfi  undefined, 13
    1439                            .dwcfi  undefined, 14
    1440                            .dwcfi  undefined, 14
    1441                            .dwcfi  undefined, 7
    1442                            .dwcfi  undefined, 64
    1443                            .dwcfi  undefined, 65
    1444                            .dwcfi  undefined, 66
    1445                            .dwcfi  undefined, 67
    1446                            .dwcfi  undefined, 68
    1447                            .dwcfi  undefined, 69
    1448                            .dwcfi  undefined, 70
    1449                            .dwcfi  undefined, 71
    1450                            .dwcfi  undefined, 72
    1451                            .dwcfi  undefined, 73
    1452                            .dwcfi  undefined, 74
    1453                            .dwcfi  undefined, 75
    1454                            .dwcfi  undefined, 76
    1455                            .dwcfi  undefined, 77
    1456                            .dwcfi  undefined, 78
    1457                            .dwcfi  undefined, 79
    1458                            .dwcfi  same_value, 80
    1459                            .dwcfi  same_value, 81
    1460                            .dwcfi  same_value, 82
    1461                            .dwcfi  same_value, 83
    1462                            .dwcfi  same_value, 84
    1463                            .dwcfi  same_value, 85
    1464                            .dwcfi  same_value, 86
    1465                            .dwcfi  same_value, 87
    1466                            .dwcfi  same_value, 88
    1467                            .dwcfi  same_value, 89
    1468                            .dwcfi  same_value, 90
    1469                            .dwcfi  same_value, 91
    1470                            .dwcfi  same_value, 92
    1471                            .dwcfi  same_value, 93
    1472                            .dwcfi  same_value, 94
    1473                            .dwcfi  same_value, 95
    1474                            .dwendentry
    1475                            .dwendtag $C$DW$CU
    1476                    

--------------------------
Thumb2 Statistics
--------------------------
Number of Thumb2 ins converted to Thumb = 0 (0%)
Number of Thumb ins in input = 155 (95%)
Number of Thumb2 ins encoded as Thumb2 = 7 (100%)
Number of Thumb2 ins converted to 2 OPND Thumb = 9


No Assembly Errors, No Assembly Warnings
