TI ARM Assembler PC v15.12.1 Tue Oct 18 10:42:39 2016

Tools Copyright (c) 1996-2015 Texas Instruments Incorporated
heap_2.asm                                                           PAGE    1

       1                    ;******************************************************************************
       2                    ;* TI ARM C/C++ Codegen                                       PC v15.12.1.LTS *
       3                    ;* Date/Time created: Tue Oct 18 10:42:39 2016                                *
       4                    ;******************************************************************************
       5                            .compiler_opts --abi=eabi --arm_vmrs_si_workaround=off --code_state=16 --diag_wrap=off --disab
       6 00000000                   .thumb
       7                    
       8                    $C$DW$CU        .dwtag  DW_TAG_compile_unit
       9                            .dwattr $C$DW$CU, DW_AT_name("../heap_2.c")
      10                            .dwattr $C$DW$CU, DW_AT_producer("TI TI ARM C/C++ Codegen PC v15.12.1.LTS Copyright (c) 1996-2
      11                            .dwattr $C$DW$CU, DW_AT_TI_version(0x01)
      12                            .dwattr $C$DW$CU, DW_AT_comp_dir("C:\TI_ARM_Tiva_Projects\Proj2_Magnetometer\Debug")
      13                    
      14                    $C$DW$1 .dwtag  DW_TAG_subprogram
      15                            .dwattr $C$DW$1, DW_AT_name("vTaskSuspendAll")
      16                            .dwattr $C$DW$1, DW_AT_TI_symbol_name("vTaskSuspendAll")
      17                            .dwattr $C$DW$1, DW_AT_declaration
      18                            .dwattr $C$DW$1, DW_AT_external
      19                            .dwattr $C$DW$1, DW_AT_decl_file("C:/TI_ARM_Tiva_Projects/Source/include/task.h")
      20                            .dwattr $C$DW$1, DW_AT_decl_line(0x3e6)
      21                            .dwattr $C$DW$1, DW_AT_decl_column(0x06)
      22                            .dwendtag $C$DW$1
      23                    
      24                    
      25                    $C$DW$2 .dwtag  DW_TAG_subprogram
      26                            .dwattr $C$DW$2, DW_AT_name("xTaskResumeAll")
      27                            .dwattr $C$DW$2, DW_AT_TI_symbol_name("xTaskResumeAll")
      28                            .dwattr $C$DW$2, DW_AT_type(*$C$DW$T$63)
      29                            .dwattr $C$DW$2, DW_AT_declaration
      30                            .dwattr $C$DW$2, DW_AT_external
      31                            .dwattr $C$DW$2, DW_AT_decl_file("C:/TI_ARM_Tiva_Projects/Source/include/task.h")
      32                            .dwattr $C$DW$2, DW_AT_decl_line(0x41c)
      33                            .dwattr $C$DW$2, DW_AT_decl_column(0x0c)
      34                            .dwendtag $C$DW$2
      35                    
      36 00000000           xHeap:  .usect  ".bss:xHeap",50000,8
      37                            .clink ".bss:xHeap"
      38                    $C$DW$3 .dwtag  DW_TAG_variable
      39                            .dwattr $C$DW$3, DW_AT_name("xHeap")
      40                            .dwattr $C$DW$3, DW_AT_TI_symbol_name("xHeap")
      41                            .dwattr $C$DW$3, DW_AT_type(*$C$DW$T$44)
      42                            .dwattr $C$DW$3, DW_AT_location[DW_OP_addr xHeap]
      43                            .dwattr $C$DW$3, DW_AT_decl_file("../heap_2.c")
      44                            .dwattr $C$DW$3, DW_AT_decl_line(0x3f)
      45                            .dwattr $C$DW$3, DW_AT_decl_column(0x03)
      46                    
      47 00000000                   .sect   ".const"
      48                            .align  2
      49                            .elfsym heapSTRUCT_SIZE,SYM_SIZE(2)
      50 00000000           heapSTRUCT_SIZE:
      51 00000000 00000010          .bits   16,16                   ; heapSTRUCT_SIZE @ 0
      52                    
      53                    $C$DW$4 .dwtag  DW_TAG_variable
      54                            .dwattr $C$DW$4, DW_AT_name("heapSTRUCT_SIZE")
      55                            .dwattr $C$DW$4, DW_AT_TI_symbol_name("heapSTRUCT_SIZE")
TI ARM Assembler PC v15.12.1 Tue Oct 18 10:42:39 2016

Tools Copyright (c) 1996-2015 Texas Instruments Incorporated
heap_2.asm                                                           PAGE    2

      56                            .dwattr $C$DW$4, DW_AT_type(*$C$DW$T$89)
      57                            .dwattr $C$DW$4, DW_AT_location[DW_OP_addr heapSTRUCT_SIZE]
      58                            .dwattr $C$DW$4, DW_AT_decl_file("../heap_2.c")
      59                            .dwattr $C$DW$4, DW_AT_decl_line(0x4a)
      60                            .dwattr $C$DW$4, DW_AT_decl_column(0x1e)
      61                    
      62 00000000           xStart: .usect  ".bss:xStart",8,4
      63                            .clink ".bss:xStart"
      64                    $C$DW$5 .dwtag  DW_TAG_variable
      65                            .dwattr $C$DW$5, DW_AT_name("xStart")
      66                            .dwattr $C$DW$5, DW_AT_TI_symbol_name("xStart")
      67                            .dwattr $C$DW$5, DW_AT_type(*$C$DW$T$72)
      68                            .dwattr $C$DW$5, DW_AT_location[DW_OP_addr xStart]
      69                            .dwattr $C$DW$5, DW_AT_decl_file("../heap_2.c")
      70                            .dwattr $C$DW$5, DW_AT_decl_line(0x4e)
      71                            .dwattr $C$DW$5, DW_AT_decl_column(0x13)
      72                    
      73 00000000           xEnd:   .usect  ".bss:xEnd",8,4
      74                            .clink ".bss:xEnd"
      75                    $C$DW$6 .dwtag  DW_TAG_variable
      76                            .dwattr $C$DW$6, DW_AT_name("xEnd")
      77                            .dwattr $C$DW$6, DW_AT_TI_symbol_name("xEnd")
      78                            .dwattr $C$DW$6, DW_AT_type(*$C$DW$T$72)
      79                            .dwattr $C$DW$6, DW_AT_location[DW_OP_addr xEnd]
      80                            .dwattr $C$DW$6, DW_AT_decl_file("../heap_2.c")
      81                            .dwattr $C$DW$6, DW_AT_decl_line(0x4e)
      82                            .dwattr $C$DW$6, DW_AT_decl_column(0x1b)
      83                    
      84 00000000                   .data
      85                            .align  4
      86                            .elfsym xFreeBytesRemaining,SYM_SIZE(4)
      87 00000000           xFreeBytesRemaining:
      88 00000000 0000C350          .bits   50000,32                        ; xFreeBytesRemaining @ 0
      89                    
      90                    $C$DW$7 .dwtag  DW_TAG_variable
      91                            .dwattr $C$DW$7, DW_AT_name("xFreeBytesRemaining")
      92                            .dwattr $C$DW$7, DW_AT_TI_symbol_name("xFreeBytesRemaining")
      93                            .dwattr $C$DW$7, DW_AT_type(*$C$DW$T$23)
      94                            .dwattr $C$DW$7, DW_AT_location[DW_OP_addr xFreeBytesRemaining]
      95                            .dwattr $C$DW$7, DW_AT_decl_file("../heap_2.c")
      96                            .dwattr $C$DW$7, DW_AT_decl_line(0x52)
      97                            .dwattr $C$DW$7, DW_AT_decl_column(0x0f)
      98                    
      99 00000004                   .data
     100                            .align  4
     101                            .elfsym xHeapHasBeenInitialised$1,SYM_SIZE(4)
     102 00000004           xHeapHasBeenInitialised$1:
     103 00000004 00000000          .bits   0,32                    ; xHeapHasBeenInitialised$1 @ 0
     104                    
     105                    ;       C:\TI_CodeComposer\ccsv6\tools\compiler\ti-cgt-arm_15.12.1.LTS\bin\armacpia.exe -@C:\\Users\\R
     106 00000000                   .sect   ".text"
     107                            .clink
     108                            .thumbfunc pvPortMalloc
     109 00000000                   .thumb
     110                            .global pvPortMalloc
TI ARM Assembler PC v15.12.1 Tue Oct 18 10:42:39 2016

Tools Copyright (c) 1996-2015 Texas Instruments Incorporated
heap_2.asm                                                           PAGE    3

     111                    
     112                    $C$DW$8 .dwtag  DW_TAG_subprogram
     113                            .dwattr $C$DW$8, DW_AT_name("pvPortMalloc")
     114                            .dwattr $C$DW$8, DW_AT_low_pc(pvPortMalloc)
     115                            .dwattr $C$DW$8, DW_AT_high_pc(0x00)
     116                            .dwattr $C$DW$8, DW_AT_TI_symbol_name("pvPortMalloc")
     117                            .dwattr $C$DW$8, DW_AT_external
     118                            .dwattr $C$DW$8, DW_AT_type(*$C$DW$T$3)
     119                            .dwattr $C$DW$8, DW_AT_TI_begin_file("../heap_2.c")
     120                            .dwattr $C$DW$8, DW_AT_TI_begin_line(0x85)
     121                            .dwattr $C$DW$8, DW_AT_TI_begin_column(0x07)
     122                            .dwattr $C$DW$8, DW_AT_decl_file("../heap_2.c")
     123                            .dwattr $C$DW$8, DW_AT_decl_line(0x85)
     124                            .dwattr $C$DW$8, DW_AT_decl_column(0x07)
     125                            .dwattr $C$DW$8, DW_AT_TI_max_frame_size(0x30)
     126                            .dwpsn  file "../heap_2.c",line 134,column 1,is_stmt,address pvPortMalloc,isa 1
     127                    
     128                            .dwfde $C$DW$CIE, pvPortMalloc
     129                    $C$DW$9 .dwtag  DW_TAG_variable
     130                            .dwattr $C$DW$9, DW_AT_name("xHeapHasBeenInitialised")
     131                            .dwattr $C$DW$9, DW_AT_TI_symbol_name("xHeapHasBeenInitialised$1")
     132                            .dwattr $C$DW$9, DW_AT_type(*$C$DW$T$104)
     133                            .dwattr $C$DW$9, DW_AT_location[DW_OP_addr xHeapHasBeenInitialised$1]
     134                    
     135                    $C$DW$10        .dwtag  DW_TAG_formal_parameter
     136                            .dwattr $C$DW$10, DW_AT_name("xWantedSize")
     137                            .dwattr $C$DW$10, DW_AT_TI_symbol_name("xWantedSize")
     138                            .dwattr $C$DW$10, DW_AT_type(*$C$DW$T$23)
     139                            .dwattr $C$DW$10, DW_AT_location[DW_OP_reg0]
     140                    
     141                    
     142                    ;*****************************************************************************
     143                    ;* FUNCTION NAME: pvPortMalloc                                               *
     144                    ;*                                                                           *
     145                    ;*   Regs Modified     : A1,A2,A3,A4,V1,V2,V3,V9,SP,LR,SR,D0,D0_hi,D1,D1_hi, *
     146                    ;*                           D2,D2_hi,D3,D3_hi,D4,D4_hi,D5,D5_hi,D6,D6_hi,D7,*
     147                    ;*                           D7_hi,FPEXC,FPSCR                               *
     148                    ;*   Regs Used         : A1,A2,A3,A4,V1,V2,V3,V9,SP,LR,SR,D0,D0_hi,D1,D1_hi, *
     149                    ;*                           D2,D2_hi,D3,D3_hi,D4,D4_hi,D5,D5_hi,D6,D6_hi,D7,*
     150                    ;*                           D7_hi,FPEXC,FPSCR                               *
     151                    ;*   Local Frame Size  : 0 Args + 28 Auto + 16 Save = 44 byte                *
     152                    ;*****************************************************************************
     153 00000000           pvPortMalloc:
     154                    ;* --------------------------------------------------------------------------*
     155                            .dwcfi  cfa_offset, 0
     156 00000000 B570              PUSH      {V1, V2, V3, LR}      ; [DPU_3_PIPE]  ; [ORIG 16-BIT INS]
     157                            .dwcfi  cfa_offset, 16
     158                            .dwcfi  save_reg_to_mem, 14, -4
     159                            .dwcfi  save_reg_to_mem, 6, -8
     160                            .dwcfi  save_reg_to_mem, 5, -12
     161                            .dwcfi  save_reg_to_mem, 4, -16
     162 00000002 0D20F1AD          SUB       SP, SP, #32           ; [DPU_3_PIPE]  ; [KEEP 32-BIT INS]
     163                            .dwcfi  cfa_offset, 48
     164                    $C$DW$11        .dwtag  DW_TAG_variable
     165                            .dwattr $C$DW$11, DW_AT_name("xWantedSize")
TI ARM Assembler PC v15.12.1 Tue Oct 18 10:42:39 2016

Tools Copyright (c) 1996-2015 Texas Instruments Incorporated
heap_2.asm                                                           PAGE    4

     166                            .dwattr $C$DW$11, DW_AT_TI_symbol_name("xWantedSize")
     167                            .dwattr $C$DW$11, DW_AT_type(*$C$DW$T$23)
     168                            .dwattr $C$DW$11, DW_AT_location[DW_OP_breg13 0]
     169                    
     170                    $C$DW$12        .dwtag  DW_TAG_variable
     171                            .dwattr $C$DW$12, DW_AT_name("pxBlock")
     172                            .dwattr $C$DW$12, DW_AT_TI_symbol_name("pxBlock")
     173                            .dwattr $C$DW$12, DW_AT_type(*$C$DW$T$73)
     174                            .dwattr $C$DW$12, DW_AT_location[DW_OP_breg13 4]
     175                    
     176                    $C$DW$13        .dwtag  DW_TAG_variable
     177                            .dwattr $C$DW$13, DW_AT_name("pxPreviousBlock")
     178                            .dwattr $C$DW$13, DW_AT_TI_symbol_name("pxPreviousBlock")
     179                            .dwattr $C$DW$13, DW_AT_type(*$C$DW$T$73)
     180                            .dwattr $C$DW$13, DW_AT_location[DW_OP_breg13 8]
     181                    
     182                    $C$DW$14        .dwtag  DW_TAG_variable
     183                            .dwattr $C$DW$14, DW_AT_name("pxNewBlockLink")
     184                            .dwattr $C$DW$14, DW_AT_TI_symbol_name("pxNewBlockLink")
     185                            .dwattr $C$DW$14, DW_AT_type(*$C$DW$T$73)
     186                            .dwattr $C$DW$14, DW_AT_location[DW_OP_breg13 12]
     187                    
     188                    $C$DW$15        .dwtag  DW_TAG_variable
     189                            .dwattr $C$DW$15, DW_AT_name("pvReturn")
     190                            .dwattr $C$DW$15, DW_AT_TI_symbol_name("pvReturn")
     191                            .dwattr $C$DW$15, DW_AT_type(*$C$DW$T$3)
     192                            .dwattr $C$DW$15, DW_AT_location[DW_OP_breg13 16]
     193                    
     194 00000006 9000              STR       A1, [SP, #0]          ; [DPU_3_PIPE] |134|  ; [ORIG 16-BIT INS]
     195                            .dwpsn  file "../heap_2.c",line 137,column 16,is_stmt,isa 1
     196 00000008 2000              MOVS      A1, #0                ; [DPU_3_PIPE] |137|  ; [ORIG 16-BIT INS]
     197 0000000a 9004              STR       A1, [SP, #16]         ; [DPU_3_PIPE] |137|  ; [ORIG 16-BIT INS]
     198                            .dwpsn  file "../heap_2.c",line 139,column 2,is_stmt,isa 1
     199                    $C$DW$16        .dwtag  DW_TAG_TI_branch
     200                            .dwattr $C$DW$16, DW_AT_low_pc(0x00)
     201                            .dwattr $C$DW$16, DW_AT_name("vTaskSuspendAll")
     202                            .dwattr $C$DW$16, DW_AT_TI_call
     203                    
     204 0000000c FFFEF7FF!         BL        vTaskSuspendAll       ; [DPU_3_PIPE] |139|  ; [KEEP 32-BIT INS]
     205                            ; CALL OCCURS {vTaskSuspendAll }  ; [] |139| 
     206                            .dwpsn  file "../heap_2.c",line 143,column 3,is_stmt,isa 1
     207 00000010 4861              LDR       A1, $C$CON1           ; [DPU_3_PIPE] |143|  ; [ORIG 16-BIT INS]
     208 00000012 6800              LDR       A1, [A1, #0]          ; [DPU_3_PIPE] |143|  ; [ORIG 16-BIT INS]
     209 00000014 B9C0              CBNZ      A1, ||$C$L1||         ; []  ; [ORIG 16-BIT INS]
     210                            ; BRANCHCC OCCURS {||$C$L1||}    ; [] |143| 
     211                    ;* --------------------------------------------------------------------------*
     212                    
     213                    $C$DW$17        .dwtag  DW_TAG_lexical_block
     214                            .dwattr $C$DW$17, DW_AT_low_pc(0x00)
     215                            .dwattr $C$DW$17, DW_AT_high_pc(0x00)
     216                    $C$DW$18        .dwtag  DW_TAG_variable
     217                            .dwattr $C$DW$18, DW_AT_name("pxFirstFreeBlock")
     218                            .dwattr $C$DW$18, DW_AT_TI_symbol_name("pxFirstFreeBlock")
     219                            .dwattr $C$DW$18, DW_AT_type(*$C$DW$T$73)
     220                            .dwattr $C$DW$18, DW_AT_location[DW_OP_breg13 20]
TI ARM Assembler PC v15.12.1 Tue Oct 18 10:42:39 2016

Tools Copyright (c) 1996-2015 Texas Instruments Incorporated
heap_2.asm                                                           PAGE    5

     221                    
     222                            .dwpsn  file "../heap_2.c",line 145,column 4,is_stmt,isa 1
     223 00000016 4862              LDR       A1, $C$CON3           ; [DPU_3_PIPE] |145|  ; [ORIG 16-BIT INS]
     224 00000018 4B63              LDR       A4, $C$CON5           ; [DPU_3_PIPE] |145|  ; [ORIG 16-BIT INS]
     225 0000001a 3250F24C          MOV       A3, #50000            ; [DPU_3_PIPE] |145|  ; [KEEP 32-BIT INS]
     226 0000001e 4D60              LDR       V2, $C$CON3           ; [DPU_3_PIPE] |145|  ; [ORIG 16-BIT INS]
     227 00000020 4E5E              LDR       V3, $C$CON2           ; [DPU_3_PIPE] |145|  ; [ORIG 16-BIT INS]
     228 00000022 4962              LDR       A2, $C$CON6           ; [DPU_3_PIPE] |145|  ; [ORIG 16-BIT INS]
     229 00000024 9005              STR       A1, [SP, #20]         ; [DPU_3_PIPE] |145|  ; [ORIG 16-BIT INS]
     230 00000026 4C5F              LDR       V1, $C$CON4           ; [DPU_3_PIPE] |145|  ; [ORIG 16-BIT INS]
     231 00000028 601A              STR       A3, [A4, #0]          ; [DPU_3_PIPE] |145|  ; [ORIG 16-BIT INS]
     232 0000002a 2000              MOVS      A1, #0                ; [DPU_3_PIPE] |145|  ; [ORIG 16-BIT INS]
     233 0000002c 6035              STR       V2, [V3, #0]          ; [DPU_3_PIPE] |145|  ; [ORIG 16-BIT INS]
     234 0000002e 2200              MOVS      A3, #0                ; [DPU_3_PIPE] |145|  ; [ORIG 16-BIT INS]
     235 00000030 6008              STR       A1, [A2, #0]          ; [DPU_3_PIPE] |145|  ; [ORIG 16-BIT INS]
     236 00000032 9B05              LDR       A4, [SP, #20]         ; [DPU_3_PIPE] |145|  ; [ORIG 16-BIT INS]
     237 00000034 6022              STR       A3, [V1, #0]          ; [DPU_3_PIPE] |145|  ; [ORIG 16-BIT INS]
     238 00000036 3050F24C          MOV       A1, #50000            ; [DPU_3_PIPE] |145|  ; [KEEP 32-BIT INS]
     239 0000003a 495C              LDR       A2, $C$CON6           ; [DPU_3_PIPE] |145|  ; [ORIG 16-BIT INS]
     240 0000003c 6058              STR       A1, [A4, #4]          ; [DPU_3_PIPE] |145|  ; [ORIG 16-BIT INS]
     241 0000003e 9805              LDR       A1, [SP, #20]         ; [DPU_3_PIPE] |145|  ; [ORIG 16-BIT INS]
     242 00000040 6001              STR       A2, [A1, #0]          ; [DPU_3_PIPE] |145|  ; [ORIG 16-BIT INS]
     243                            .dwendtag $C$DW$17
     244                    
     245                            .dwpsn  file "../heap_2.c",line 146,column 4,is_stmt,isa 1
     246 00000042 4955              LDR       A2, $C$CON1           ; [DPU_3_PIPE] |146|  ; [ORIG 16-BIT INS]
     247 00000044 2001              MOVS      A1, #1                ; [DPU_3_PIPE] |146|  ; [ORIG 16-BIT INS]
     248 00000046 6008              STR       A1, [A2, #0]          ; [DPU_3_PIPE] |146|  ; [ORIG 16-BIT INS]
     249                    ;* --------------------------------------------------------------------------*
     250 00000048           ||$C$L1||:    
     251                            .dwpsn  file "../heap_2.c",line 151,column 3,is_stmt,isa 1
     252 00000048 9800              LDR       A1, [SP, #0]          ; [DPU_3_PIPE] |151|  ; [ORIG 16-BIT INS]
     253 0000004a B178              CBZ       A1, ||$C$L2||         ; []  ; [ORIG 16-BIT INS]
     254                            ; BRANCHCC OCCURS {||$C$L2||}    ; [] |151| 
     255                    ;* --------------------------------------------------------------------------*
     256                            .dwpsn  file "../heap_2.c",line 153,column 4,is_stmt,isa 1
     257 0000004c 4858              LDR       A1, $C$CON7           ; [DPU_3_PIPE] |153|  ; [ORIG 16-BIT INS]
     258 0000004e 9900              LDR       A2, [SP, #0]          ; [DPU_3_PIPE] |153|  ; [ORIG 16-BIT INS]
     259 00000050 8800              LDRH      A1, [A1, #0]          ; [DPU_3_PIPE] |153|  ; [ORIG 16-BIT INS]
     260 00000052 1840              ADDS      A1, A1, A2            ; [DPU_3_PIPE] |153|  ; [ORIG 16-BIT INS]
     261 00000054 9000              STR       A1, [SP, #0]          ; [DPU_3_PIPE] |153|  ; [ORIG 16-BIT INS]
     262                            .dwpsn  file "../heap_2.c",line 156,column 4,is_stmt,isa 1
     263 00000056 9800              LDR       A1, [SP, #0]          ; [DPU_3_PIPE] |156|  ; [ORIG 16-BIT INS]
     264 00000058 0F07F010          TST       A1, #7                ; [DPU_3_PIPE] |156|  ; [KEEP 32-BIT INS]
     265 0000005c D006              BEQ       ||$C$L2||             ; [DPU_3_PIPE] |156|  ; [ORIG 16-BIT INS]
     266                            ; BRANCHCC OCCURS {||$C$L2||}    ; [] |156| 
     267                    ;* --------------------------------------------------------------------------*
     268                            .dwpsn  file "../heap_2.c",line 159,column 5,is_stmt,isa 1
     269 0000005e 9800              LDR       A1, [SP, #0]          ; [DPU_3_PIPE] |159|  ; [ORIG 16-BIT INS]
     270 00000060 9900              LDR       A2, [SP, #0]          ; [DPU_3_PIPE] |159|  ; [ORIG 16-BIT INS]
     271 00000062 0007F000          AND       A1, A1, #7            ; [DPU_3_PIPE] |159|  ; [KEEP 32-BIT INS]
     272 00000066 1A09              SUBS      A2, A2, A1            ; [DPU_3_PIPE] |159|  ; [ORIG 16-BIT INS]
     273 00000068 3108              ADDS      A2, A2, #8            ; [DPU_3_PIPE] |159|  ; [ORIG 16-BIT INS]
     274 0000006a 9100              STR       A2, [SP, #0]          ; [DPU_3_PIPE] |159|  ; [ORIG 16-BIT INS]
     275                    ;* --------------------------------------------------------------------------*
TI ARM Assembler PC v15.12.1 Tue Oct 18 10:42:39 2016

Tools Copyright (c) 1996-2015 Texas Instruments Incorporated
heap_2.asm                                                           PAGE    6

     276 0000006c           ||$C$L2||:    
     277                            .dwpsn  file "../heap_2.c",line 163,column 3,is_stmt,isa 1
     278 0000006c 9800              LDR       A1, [SP, #0]          ; [DPU_3_PIPE] |163|  ; [ORIG 16-BIT INS]
     279 0000006e 2800              CMP       A1, #0                ; [DPU_3_PIPE] |163|  ; [ORIG 16-BIT INS]
     280 00000070 D057              BEQ       ||$C$L9||             ; [DPU_3_PIPE] |163|  ; [ORIG 16-BIT INS]
     281                            ; BRANCHCC OCCURS {||$C$L9||}    ; [] |163| 
     282                    ;* --------------------------------------------------------------------------*
     283 00000072 9800              LDR       A1, [SP, #0]          ; [DPU_3_PIPE] |163|  ; [ORIG 16-BIT INS]
     284 00000074 3150F24C          MOV       A2, #50000            ; [DPU_3_PIPE] |163|  ; [KEEP 32-BIT INS]
     285 00000078 4281              CMP       A2, A1                ; [DPU_3_PIPE] |163|  ; [ORIG 16-BIT INS]
     286 0000007a D952              BLS       ||$C$L9||             ; [DPU_3_PIPE] |163|  ; [ORIG 16-BIT INS]
     287                            ; BRANCHCC OCCURS {||$C$L9||}    ; [] |163| 
     288                    ;* --------------------------------------------------------------------------*
     289                            .dwpsn  file "../heap_2.c",line 167,column 4,is_stmt,isa 1
     290 0000007c 4847              LDR       A1, $C$CON2           ; [DPU_3_PIPE] |167|  ; [ORIG 16-BIT INS]
     291 0000007e 9002              STR       A1, [SP, #8]          ; [DPU_3_PIPE] |167|  ; [ORIG 16-BIT INS]
     292                            .dwpsn  file "../heap_2.c",line 168,column 4,is_stmt,isa 1
     293 00000080 4846              LDR       A1, $C$CON2           ; [DPU_3_PIPE] |168|  ; [ORIG 16-BIT INS]
     294 00000082 6800              LDR       A1, [A1, #0]          ; [DPU_3_PIPE] |168|  ; [ORIG 16-BIT INS]
     295 00000084 9001              STR       A1, [SP, #4]          ; [DPU_3_PIPE] |168|  ; [ORIG 16-BIT INS]
     296                            .dwpsn  file "../heap_2.c",line 169,column 4,is_stmt,isa 1
     297 00000086 E004              B         ||$C$L4||             ; [DPU_3_PIPE] |169|  ; [ORIG 16-BIT INS]
     298                            ; BRANCH OCCURS {||$C$L4||}      ; [] |169| 
     299                    ;* --------------------------------------------------------------------------*
     300 00000088           ||$C$L3||:    
     301                            .dwpsn  file "../heap_2.c",line 171,column 5,is_stmt,isa 1
     302 00000088 9801              LDR       A1, [SP, #4]          ; [DPU_3_PIPE] |171|  ; [ORIG 16-BIT INS]
     303 0000008a 9002              STR       A1, [SP, #8]          ; [DPU_3_PIPE] |171|  ; [ORIG 16-BIT INS]
     304                            .dwpsn  file "../heap_2.c",line 172,column 5,is_stmt,isa 1
     305 0000008c 9801              LDR       A1, [SP, #4]          ; [DPU_3_PIPE] |172|  ; [ORIG 16-BIT INS]
     306 0000008e 6800              LDR       A1, [A1, #0]          ; [DPU_3_PIPE] |172|  ; [ORIG 16-BIT INS]
     307 00000090 9001              STR       A1, [SP, #4]          ; [DPU_3_PIPE] |172|  ; [ORIG 16-BIT INS]
     308                    ;* --------------------------------------------------------------------------*
     309                    ;*   BEGIN LOOP ||$C$L4||
     310                    ;* --------------------------------------------------------------------------*
     311 00000092           ||$C$L4||:    
     312                            .dwpsn  file "../heap_2.c",line 169,column 11,is_stmt,isa 1
     313 00000092 9901              LDR       A2, [SP, #4]          ; [DPU_3_PIPE] |169|  ; [ORIG 16-BIT INS]
     314 00000094 9800              LDR       A1, [SP, #0]          ; [DPU_3_PIPE] |169|  ; [ORIG 16-BIT INS]
     315 00000096 6849              LDR       A2, [A2, #4]          ; [DPU_3_PIPE] |169|  ; [ORIG 16-BIT INS]
     316 00000098 4288              CMP       A1, A2                ; [DPU_3_PIPE] |169|  ; [ORIG 16-BIT INS]
     317 0000009a D903              BLS       ||$C$L5||             ; [DPU_3_PIPE] |169|  ; [ORIG 16-BIT INS]
     318                            ; BRANCHCC OCCURS {||$C$L5||}    ; [] |169| 
     319                    ;* --------------------------------------------------------------------------*
     320 0000009c 9801              LDR       A1, [SP, #4]          ; [DPU_3_PIPE] |169|  ; [ORIG 16-BIT INS]
     321 0000009e 6800              LDR       A1, [A1, #0]          ; [DPU_3_PIPE] |169|  ; [ORIG 16-BIT INS]
     322 000000a0 2800              CMP       A1, #0                ; [DPU_3_PIPE] |169|  ; [ORIG 16-BIT INS]
     323 000000a2 D1F1              BNE       ||$C$L3||             ; [DPU_3_PIPE] |169|  ; [ORIG 16-BIT INS]
     324                            ; BRANCHCC OCCURS {||$C$L3||}    ; [] |169| 
     325                    ;* --------------------------------------------------------------------------*
     326 000000a4           ||$C$L5||:    
     327                            .dwpsn  file "../heap_2.c",line 176,column 4,is_stmt,isa 1
     328 000000a4 4941              LDR       A2, $C$CON6           ; [DPU_3_PIPE] |176|  ; [ORIG 16-BIT INS]
     329 000000a6 9801              LDR       A1, [SP, #4]          ; [DPU_3_PIPE] |176|  ; [ORIG 16-BIT INS]
     330 000000a8 4281              CMP       A2, A1                ; [DPU_3_PIPE] |176|  ; [ORIG 16-BIT INS]
TI ARM Assembler PC v15.12.1 Tue Oct 18 10:42:39 2016

Tools Copyright (c) 1996-2015 Texas Instruments Incorporated
heap_2.asm                                                           PAGE    7

     331 000000aa D03A              BEQ       ||$C$L9||             ; [DPU_3_PIPE] |176|  ; [ORIG 16-BIT INS]
     332                            ; BRANCHCC OCCURS {||$C$L9||}    ; [] |176| 
     333                    ;* --------------------------------------------------------------------------*
     334                            .dwpsn  file "../heap_2.c",line 180,column 5,is_stmt,isa 1
     335 000000ac 9902              LDR       A2, [SP, #8]          ; [DPU_3_PIPE] |180|  ; [ORIG 16-BIT INS]
     336 000000ae 4840              LDR       A1, $C$CON7           ; [DPU_3_PIPE] |180|  ; [ORIG 16-BIT INS]
     337 000000b0 6809              LDR       A2, [A2, #0]          ; [DPU_3_PIPE] |180|  ; [ORIG 16-BIT INS]
     338 000000b2 8800              LDRH      A1, [A1, #0]          ; [DPU_3_PIPE] |180|  ; [ORIG 16-BIT INS]
     339 000000b4 1840              ADDS      A1, A1, A2            ; [DPU_3_PIPE] |180|  ; [ORIG 16-BIT INS]
     340 000000b6 9004              STR       A1, [SP, #16]         ; [DPU_3_PIPE] |180|  ; [ORIG 16-BIT INS]
     341                            .dwpsn  file "../heap_2.c",line 184,column 5,is_stmt,isa 1
     342 000000b8 9801              LDR       A1, [SP, #4]          ; [DPU_3_PIPE] |184|  ; [ORIG 16-BIT INS]
     343 000000ba 9902              LDR       A2, [SP, #8]          ; [DPU_3_PIPE] |184|  ; [ORIG 16-BIT INS]
     344 000000bc 6800              LDR       A1, [A1, #0]          ; [DPU_3_PIPE] |184|  ; [ORIG 16-BIT INS]
     345 000000be 6008              STR       A1, [A2, #0]          ; [DPU_3_PIPE] |184|  ; [ORIG 16-BIT INS]
     346                            .dwpsn  file "../heap_2.c",line 187,column 5,is_stmt,isa 1
     347 000000c0 493B              LDR       A2, $C$CON7           ; [DPU_3_PIPE] |187|  ; [ORIG 16-BIT INS]
     348 000000c2 9A00              LDR       A3, [SP, #0]          ; [DPU_3_PIPE] |187|  ; [ORIG 16-BIT INS]
     349 000000c4 9801              LDR       A1, [SP, #4]          ; [DPU_3_PIPE] |187|  ; [ORIG 16-BIT INS]
     350 000000c6 8809              LDRH      A2, [A2, #0]          ; [DPU_3_PIPE] |187|  ; [ORIG 16-BIT INS]
     351 000000c8 6840              LDR       A1, [A1, #4]          ; [DPU_3_PIPE] |187|  ; [ORIG 16-BIT INS]
     352 000000ca 1A80              SUBS      A1, A1, A3            ; [DPU_3_PIPE] |187|  ; [ORIG 16-BIT INS]
     353 000000cc 0F41EBB0          CMP       A1, A2, LSL #1        ; [DPU_3_PIPE] |187|  ; [KEEP 32-BIT INS]
     354 000000d0 D922              BLS       ||$C$L8||             ; [DPU_3_PIPE] |187|  ; [ORIG 16-BIT INS]
     355                            ; BRANCHCC OCCURS {||$C$L8||}    ; [] |187| 
     356                    ;* --------------------------------------------------------------------------*
     357                            .dwpsn  file "../heap_2.c",line 192,column 6,is_stmt,isa 1
     358 000000d2 9901              LDR       A2, [SP, #4]          ; [DPU_3_PIPE] |192|  ; [ORIG 16-BIT INS]
     359 000000d4 9800              LDR       A1, [SP, #0]          ; [DPU_3_PIPE] |192|  ; [ORIG 16-BIT INS]
     360 000000d6 1840              ADDS      A1, A1, A2            ; [DPU_3_PIPE] |192|  ; [ORIG 16-BIT INS]
     361 000000d8 9003              STR       A1, [SP, #12]         ; [DPU_3_PIPE] |192|  ; [ORIG 16-BIT INS]
     362                            .dwpsn  file "../heap_2.c",line 196,column 6,is_stmt,isa 1
     363 000000da 9801              LDR       A1, [SP, #4]          ; [DPU_3_PIPE] |196|  ; [ORIG 16-BIT INS]
     364 000000dc 9A00              LDR       A3, [SP, #0]          ; [DPU_3_PIPE] |196|  ; [ORIG 16-BIT INS]
     365 000000de 9903              LDR       A2, [SP, #12]         ; [DPU_3_PIPE] |196|  ; [ORIG 16-BIT INS]
     366 000000e0 6840              LDR       A1, [A1, #4]          ; [DPU_3_PIPE] |196|  ; [ORIG 16-BIT INS]
     367 000000e2 1A80              SUBS      A1, A1, A3            ; [DPU_3_PIPE] |196|  ; [ORIG 16-BIT INS]
     368 000000e4 6048              STR       A1, [A2, #4]          ; [DPU_3_PIPE] |196|  ; [ORIG 16-BIT INS]
     369                            .dwpsn  file "../heap_2.c",line 197,column 6,is_stmt,isa 1
     370 000000e6 9800              LDR       A1, [SP, #0]          ; [DPU_3_PIPE] |197|  ; [ORIG 16-BIT INS]
     371 000000e8 9901              LDR       A2, [SP, #4]          ; [DPU_3_PIPE] |197|  ; [ORIG 16-BIT INS]
     372 000000ea 6048              STR       A1, [A2, #4]          ; [DPU_3_PIPE] |197|  ; [ORIG 16-BIT INS]
     373                    
     374                    $C$DW$19        .dwtag  DW_TAG_lexical_block
     375                            .dwattr $C$DW$19, DW_AT_low_pc(0x00)
     376                            .dwattr $C$DW$19, DW_AT_high_pc(0x00)
     377                    $C$DW$20        .dwtag  DW_TAG_variable
     378                            .dwattr $C$DW$20, DW_AT_name("pxIterator")
     379                            .dwattr $C$DW$20, DW_AT_TI_symbol_name("pxIterator")
     380                            .dwattr $C$DW$20, DW_AT_type(*$C$DW$T$73)
     381                            .dwattr $C$DW$20, DW_AT_location[DW_OP_breg13 20]
     382                    
     383                    $C$DW$21        .dwtag  DW_TAG_variable
     384                            .dwattr $C$DW$21, DW_AT_name("xBlockSize")
     385                            .dwattr $C$DW$21, DW_AT_TI_symbol_name("xBlockSize")
TI ARM Assembler PC v15.12.1 Tue Oct 18 10:42:39 2016

Tools Copyright (c) 1996-2015 Texas Instruments Incorporated
heap_2.asm                                                           PAGE    8

     386                            .dwattr $C$DW$21, DW_AT_type(*$C$DW$T$23)
     387                            .dwattr $C$DW$21, DW_AT_location[DW_OP_breg13 24]
     388                    
     389                            .dwpsn  file "../heap_2.c",line 200,column 6,is_stmt,isa 1
     390 000000ec 9803              LDR       A1, [SP, #12]         ; [DPU_3_PIPE] |200|  ; [ORIG 16-BIT INS]
     391 000000ee 6840              LDR       A1, [A1, #4]          ; [DPU_3_PIPE] |200|  ; [ORIG 16-BIT INS]
     392 000000f0 9006              STR       A1, [SP, #24]         ; [DPU_3_PIPE] |200|  ; [ORIG 16-BIT INS]
     393 000000f2 482A              LDR       A1, $C$CON2           ; [DPU_3_PIPE] |200|  ; [ORIG 16-BIT INS]
     394 000000f4 9005              STR       A1, [SP, #20]         ; [DPU_3_PIPE] |200|  ; [ORIG 16-BIT INS]
     395 000000f6 E002              B         ||$C$L7||             ; [DPU_3_PIPE] |200|  ; [ORIG 16-BIT INS]
     396                            ; BRANCH OCCURS {||$C$L7||}      ; [] |200| 
     397                    ;* --------------------------------------------------------------------------*
     398 000000f8           ||$C$L6||:    
     399 000000f8 9805              LDR       A1, [SP, #20]         ; [DPU_3_PIPE] |200|  ; [ORIG 16-BIT INS]
     400 000000fa 6800              LDR       A1, [A1, #0]          ; [DPU_3_PIPE] |200|  ; [ORIG 16-BIT INS]
     401 000000fc 9005              STR       A1, [SP, #20]         ; [DPU_3_PIPE] |200|  ; [ORIG 16-BIT INS]
     402                    ;* --------------------------------------------------------------------------*
     403                    ;*   BEGIN LOOP ||$C$L7||
     404                    ;* --------------------------------------------------------------------------*
     405 000000fe           ||$C$L7||:    
     406 000000fe 9805              LDR       A1, [SP, #20]         ; [DPU_3_PIPE] |200|  ; [ORIG 16-BIT INS]
     407 00000100 6801              LDR       A2, [A1, #0]          ; [DPU_3_PIPE] |200|  ; [ORIG 16-BIT INS]
     408 00000102 9806              LDR       A1, [SP, #24]         ; [DPU_3_PIPE] |200|  ; [ORIG 16-BIT INS]
     409 00000104 6849              LDR       A2, [A2, #4]          ; [DPU_3_PIPE] |200|  ; [ORIG 16-BIT INS]
     410 00000106 4288              CMP       A1, A2                ; [DPU_3_PIPE] |200|  ; [ORIG 16-BIT INS]
     411 00000108 D8F6              BHI       ||$C$L6||             ; [DPU_3_PIPE] |200|  ; [ORIG 16-BIT INS]
     412                            ; BRANCHCC OCCURS {||$C$L6||}    ; [] |200| 
     413                    ;* --------------------------------------------------------------------------*
     414 0000010a 9805              LDR       A1, [SP, #20]         ; [DPU_3_PIPE] |200|  ; [ORIG 16-BIT INS]
     415 0000010c 9903              LDR       A2, [SP, #12]         ; [DPU_3_PIPE] |200|  ; [ORIG 16-BIT INS]
     416 0000010e 6800              LDR       A1, [A1, #0]          ; [DPU_3_PIPE] |200|  ; [ORIG 16-BIT INS]
     417 00000110 6008              STR       A1, [A2, #0]          ; [DPU_3_PIPE] |200|  ; [ORIG 16-BIT INS]
     418 00000112 9803              LDR       A1, [SP, #12]         ; [DPU_3_PIPE] |200|  ; [ORIG 16-BIT INS]
     419 00000114 9905              LDR       A2, [SP, #20]         ; [DPU_3_PIPE] |200|  ; [ORIG 16-BIT INS]
     420 00000116 6008              STR       A1, [A2, #0]          ; [DPU_3_PIPE] |200|  ; [ORIG 16-BIT INS]
     421                            .dwendtag $C$DW$19
     422                    
     423                    ;* --------------------------------------------------------------------------*
     424 00000118           ||$C$L8||:    
     425                            .dwpsn  file "../heap_2.c",line 203,column 5,is_stmt,isa 1
     426 00000118 4926              LDR       A2, $C$CON8           ; [DPU_3_PIPE] |203|  ; [ORIG 16-BIT INS]
     427 0000011a 9A00              LDR       A3, [SP, #0]          ; [DPU_3_PIPE] |203|  ; [ORIG 16-BIT INS]
     428 0000011c 6808              LDR       A1, [A2, #0]          ; [DPU_3_PIPE] |203|  ; [ORIG 16-BIT INS]
     429 0000011e 1A80              SUBS      A1, A1, A3            ; [DPU_3_PIPE] |203|  ; [ORIG 16-BIT INS]
     430 00000120 6008              STR       A1, [A2, #0]          ; [DPU_3_PIPE] |203|  ; [ORIG 16-BIT INS]
     431                    ;* --------------------------------------------------------------------------*
     432 00000122           ||$C$L9||:    
     433                            .dwpsn  file "../heap_2.c",line 207,column 2,is_stmt,isa 1
     434                    $C$DW$22        .dwtag  DW_TAG_TI_branch
     435                            .dwattr $C$DW$22, DW_AT_low_pc(0x00)
     436                            .dwattr $C$DW$22, DW_AT_name("xTaskResumeAll")
     437                            .dwattr $C$DW$22, DW_AT_TI_call
     438                    
     439 00000122 FFFEF7FF!         BL        xTaskResumeAll        ; [DPU_3_PIPE] |207|  ; [KEEP 32-BIT INS]
     440                            ; CALL OCCURS {xTaskResumeAll }  ; [] |207| 
TI ARM Assembler PC v15.12.1 Tue Oct 18 10:42:39 2016

Tools Copyright (c) 1996-2015 Texas Instruments Incorporated
heap_2.asm                                                           PAGE    9

     441                            .dwpsn  file "../heap_2.c",line 219,column 2,is_stmt,isa 1
     442 00000126 9804              LDR       A1, [SP, #16]         ; [DPU_3_PIPE] |219|  ; [ORIG 16-BIT INS]
     443                            .dwpsn  file "../heap_2.c",line 220,column 1,is_stmt,isa 1
     444 00000128 B008              ADD       SP, SP, #32           ; [DPU_3_PIPE]  ; [ORIG 16-BIT INS]
     445                            .dwcfi  cfa_offset, 16
     446                    $C$DW$23        .dwtag  DW_TAG_TI_branch
     447                            .dwattr $C$DW$23, DW_AT_low_pc(0x00)
     448                            .dwattr $C$DW$23, DW_AT_TI_return
     449                    
     450 0000012a BD70              POP       {V1, V2, V3, PC}      ; [DPU_3_PIPE]  ; [ORIG 16-BIT INS]
     451                            .dwcfi  cfa_offset, 0
     452                            ; BRANCH OCCURS                  ; [] 
     453                            .dwattr $C$DW$8, DW_AT_TI_end_file("../heap_2.c")
     454                            .dwattr $C$DW$8, DW_AT_TI_end_line(0xdc)
     455                            .dwattr $C$DW$8, DW_AT_TI_end_column(0x01)
     456                            .dwendentry
     457                            .dwendtag $C$DW$8
     458                    
     459 0000012c                   .sect   ".text"
     460                            .clink
     461                            .thumbfunc vPortFree
     462 0000012c                   .thumb
     463                            .global vPortFree
     464                    
     465                    $C$DW$24        .dwtag  DW_TAG_subprogram
     466                            .dwattr $C$DW$24, DW_AT_name("vPortFree")
     467                            .dwattr $C$DW$24, DW_AT_low_pc(vPortFree)
     468                            .dwattr $C$DW$24, DW_AT_high_pc(0x00)
     469                            .dwattr $C$DW$24, DW_AT_TI_symbol_name("vPortFree")
     470                            .dwattr $C$DW$24, DW_AT_external
     471                            .dwattr $C$DW$24, DW_AT_TI_begin_file("../heap_2.c")
     472                            .dwattr $C$DW$24, DW_AT_TI_begin_line(0xdf)
     473                            .dwattr $C$DW$24, DW_AT_TI_begin_column(0x06)
     474                            .dwattr $C$DW$24, DW_AT_decl_file("../heap_2.c")
     475                            .dwattr $C$DW$24, DW_AT_decl_line(0xdf)
     476                            .dwattr $C$DW$24, DW_AT_decl_column(0x06)
     477                            .dwattr $C$DW$24, DW_AT_TI_max_frame_size(0x18)
     478                            .dwpsn  file "../heap_2.c",line 224,column 1,is_stmt,address vPortFree,isa 1
     479                    
     480                            .dwfde $C$DW$CIE, vPortFree
     481                    $C$DW$25        .dwtag  DW_TAG_formal_parameter
     482                            .dwattr $C$DW$25, DW_AT_name("pv")
     483                            .dwattr $C$DW$25, DW_AT_TI_symbol_name("pv")
     484                            .dwattr $C$DW$25, DW_AT_type(*$C$DW$T$3)
     485                            .dwattr $C$DW$25, DW_AT_location[DW_OP_reg0]
     486                    
     487                    
     488                    ;*****************************************************************************
     489                    ;* FUNCTION NAME: vPortFree                                                  *
     490                    ;*                                                                           *
     491                    ;*   Regs Modified     : A1,A2,A3,A4,V9,SP,LR,SR,D0,D0_hi,D1,D1_hi,D2,D2_hi, *
     492                    ;*                           D3,D3_hi,D4,D4_hi,D5,D5_hi,D6,D6_hi,D7,D7_hi,   *
     493                    ;*                           FPEXC,FPSCR                                     *
     494                    ;*   Regs Used         : A1,A2,A3,A4,V9,SP,LR,SR,D0,D0_hi,D1,D1_hi,D2,D2_hi, *
     495                    ;*                           D3,D3_hi,D4,D4_hi,D5,D5_hi,D6,D6_hi,D7,D7_hi,   *
TI ARM Assembler PC v15.12.1 Tue Oct 18 10:42:39 2016

Tools Copyright (c) 1996-2015 Texas Instruments Incorporated
heap_2.asm                                                           PAGE   10

     496                    ;*                           FPEXC,FPSCR                                     *
     497                    ;*   Local Frame Size  : 0 Args + 20 Auto + 4 Save = 24 byte                 *
     498                    ;*****************************************************************************
     499 0000012c           vPortFree:
     500                    ;* --------------------------------------------------------------------------*
     501                            .dwcfi  cfa_offset, 0
     502 0000012c B500              PUSH      {LR}                  ; [DPU_3_PIPE]  ; [ORIG 16-BIT INS]
     503                            .dwcfi  cfa_offset, 4
     504                            .dwcfi  save_reg_to_mem, 14, -4
     505 0000012e 0D14F1AD          SUB       SP, SP, #20           ; [DPU_3_PIPE]  ; [KEEP 32-BIT INS]
     506                            .dwcfi  cfa_offset, 24
     507                    $C$DW$26        .dwtag  DW_TAG_variable
     508                            .dwattr $C$DW$26, DW_AT_name("pv")
     509                            .dwattr $C$DW$26, DW_AT_TI_symbol_name("pv")
     510                            .dwattr $C$DW$26, DW_AT_type(*$C$DW$T$3)
     511                            .dwattr $C$DW$26, DW_AT_location[DW_OP_breg13 0]
     512                    
     513                    $C$DW$27        .dwtag  DW_TAG_variable
     514                            .dwattr $C$DW$27, DW_AT_name("puc")
     515                            .dwattr $C$DW$27, DW_AT_TI_symbol_name("puc")
     516                            .dwattr $C$DW$27, DW_AT_type(*$C$DW$T$83)
     517                            .dwattr $C$DW$27, DW_AT_location[DW_OP_breg13 4]
     518                    
     519                    $C$DW$28        .dwtag  DW_TAG_variable
     520                            .dwattr $C$DW$28, DW_AT_name("pxLink")
     521                            .dwattr $C$DW$28, DW_AT_TI_symbol_name("pxLink")
     522                            .dwattr $C$DW$28, DW_AT_type(*$C$DW$T$73)
     523                            .dwattr $C$DW$28, DW_AT_location[DW_OP_breg13 8]
     524                    
     525 00000132 9000              STR       A1, [SP, #0]          ; [DPU_3_PIPE] |224|  ; [ORIG 16-BIT INS]
     526                            .dwpsn  file "../heap_2.c",line 225,column 20,is_stmt,isa 1
     527 00000134 9800              LDR       A1, [SP, #0]          ; [DPU_3_PIPE] |225|  ; [ORIG 16-BIT INS]
     528 00000136 9001              STR       A1, [SP, #4]          ; [DPU_3_PIPE] |225|  ; [ORIG 16-BIT INS]
     529                            .dwpsn  file "../heap_2.c",line 228,column 2,is_stmt,isa 1
     530 00000138 9800              LDR       A1, [SP, #0]          ; [DPU_3_PIPE] |228|  ; [ORIG 16-BIT INS]
     531 0000013a B330              CBZ       A1, ||$C$L12||        ; []  ; [ORIG 16-BIT INS]
     532                            ; BRANCHCC OCCURS {||$C$L12||}   ; [] |228| 
     533                    ;* --------------------------------------------------------------------------*
     534                            .dwpsn  file "../heap_2.c",line 232,column 3,is_stmt,isa 1
     535 0000013c 491C              LDR       A2, $C$CON7           ; [DPU_3_PIPE] |232|  ; [ORIG 16-BIT INS]
     536 0000013e 9801              LDR       A1, [SP, #4]          ; [DPU_3_PIPE] |232|  ; [ORIG 16-BIT INS]
     537 00000140 8809              LDRH      A2, [A2, #0]          ; [DPU_3_PIPE] |232|  ; [ORIG 16-BIT INS]
     538 00000142 1A40              SUBS      A1, A1, A2            ; [DPU_3_PIPE] |232|  ; [ORIG 16-BIT INS]
     539 00000144 9001              STR       A1, [SP, #4]          ; [DPU_3_PIPE] |232|  ; [ORIG 16-BIT INS]
     540                            .dwpsn  file "../heap_2.c",line 235,column 3,is_stmt,isa 1
     541 00000146 9801              LDR       A1, [SP, #4]          ; [DPU_3_PIPE] |235|  ; [ORIG 16-BIT INS]
     542 00000148 9002              STR       A1, [SP, #8]          ; [DPU_3_PIPE] |235|  ; [ORIG 16-BIT INS]
     543                            .dwpsn  file "../heap_2.c",line 237,column 3,is_stmt,isa 1
     544                    $C$DW$29        .dwtag  DW_TAG_TI_branch
     545                            .dwattr $C$DW$29, DW_AT_low_pc(0x00)
     546                            .dwattr $C$DW$29, DW_AT_name("vTaskSuspendAll")
     547                            .dwattr $C$DW$29, DW_AT_TI_call
     548                    
     549 0000014a FFFEF7FF!         BL        vTaskSuspendAll       ; [DPU_3_PIPE] |237|  ; [KEEP 32-BIT INS]
     550                            ; CALL OCCURS {vTaskSuspendAll }  ; [] |237| 
TI ARM Assembler PC v15.12.1 Tue Oct 18 10:42:39 2016

Tools Copyright (c) 1996-2015 Texas Instruments Incorporated
heap_2.asm                                                           PAGE   11

     551                    
     552                    $C$DW$30        .dwtag  DW_TAG_lexical_block
     553                            .dwattr $C$DW$30, DW_AT_low_pc(0x00)
     554                            .dwattr $C$DW$30, DW_AT_high_pc(0x00)
     555                    $C$DW$31        .dwtag  DW_TAG_variable
     556                            .dwattr $C$DW$31, DW_AT_name("pxIterator")
     557                            .dwattr $C$DW$31, DW_AT_TI_symbol_name("pxIterator")
     558                            .dwattr $C$DW$31, DW_AT_type(*$C$DW$T$73)
     559                            .dwattr $C$DW$31, DW_AT_location[DW_OP_breg13 12]
     560                    
     561                    $C$DW$32        .dwtag  DW_TAG_variable
     562                            .dwattr $C$DW$32, DW_AT_name("xBlockSize")
     563                            .dwattr $C$DW$32, DW_AT_TI_symbol_name("xBlockSize")
     564                            .dwattr $C$DW$32, DW_AT_type(*$C$DW$T$23)
     565                            .dwattr $C$DW$32, DW_AT_location[DW_OP_breg13 16]
     566                    
     567                            .dwpsn  file "../heap_2.c",line 240,column 4,is_stmt,isa 1
     568 0000014e 9802              LDR       A1, [SP, #8]          ; [DPU_3_PIPE] |240|  ; [ORIG 16-BIT INS]
     569 00000150 6840              LDR       A1, [A1, #4]          ; [DPU_3_PIPE] |240|  ; [ORIG 16-BIT INS]
     570 00000152 9004              STR       A1, [SP, #16]         ; [DPU_3_PIPE] |240|  ; [ORIG 16-BIT INS]
     571 00000154 4811              LDR       A1, $C$CON2           ; [DPU_3_PIPE] |240|  ; [ORIG 16-BIT INS]
     572 00000156 9003              STR       A1, [SP, #12]         ; [DPU_3_PIPE] |240|  ; [ORIG 16-BIT INS]
     573 00000158 E002              B         ||$C$L11||            ; [DPU_3_PIPE] |240|  ; [ORIG 16-BIT INS]
     574                            ; BRANCH OCCURS {||$C$L11||}     ; [] |240| 
     575                    ;* --------------------------------------------------------------------------*
     576 0000015a           ||$C$L10||:    
     577 0000015a 9803              LDR       A1, [SP, #12]         ; [DPU_3_PIPE] |240|  ; [ORIG 16-BIT INS]
     578 0000015c 6800              LDR       A1, [A1, #0]          ; [DPU_3_PIPE] |240|  ; [ORIG 16-BIT INS]
     579 0000015e 9003              STR       A1, [SP, #12]         ; [DPU_3_PIPE] |240|  ; [ORIG 16-BIT INS]
     580                    ;* --------------------------------------------------------------------------*
     581                    ;*   BEGIN LOOP ||$C$L11||
     582                    ;* --------------------------------------------------------------------------*
     583 00000160           ||$C$L11||:    
     584 00000160 9803              LDR       A1, [SP, #12]         ; [DPU_3_PIPE] |240|  ; [ORIG 16-BIT INS]
     585 00000162 6801              LDR       A2, [A1, #0]          ; [DPU_3_PIPE] |240|  ; [ORIG 16-BIT INS]
     586 00000164 9804              LDR       A1, [SP, #16]         ; [DPU_3_PIPE] |240|  ; [ORIG 16-BIT INS]
     587 00000166 6849              LDR       A2, [A2, #4]          ; [DPU_3_PIPE] |240|  ; [ORIG 16-BIT INS]
     588 00000168 4288              CMP       A1, A2                ; [DPU_3_PIPE] |240|  ; [ORIG 16-BIT INS]
     589 0000016a D8F6              BHI       ||$C$L10||            ; [DPU_3_PIPE] |240|  ; [ORIG 16-BIT INS]
     590                            ; BRANCHCC OCCURS {||$C$L10||}   ; [] |240| 
     591                    ;* --------------------------------------------------------------------------*
     592 0000016c 9803              LDR       A1, [SP, #12]         ; [DPU_3_PIPE] |240|  ; [ORIG 16-BIT INS]
     593 0000016e 9902              LDR       A2, [SP, #8]          ; [DPU_3_PIPE] |240|  ; [ORIG 16-BIT INS]
     594 00000170 6800              LDR       A1, [A1, #0]          ; [DPU_3_PIPE] |240|  ; [ORIG 16-BIT INS]
     595 00000172 6008              STR       A1, [A2, #0]          ; [DPU_3_PIPE] |240|  ; [ORIG 16-BIT INS]
     596 00000174 9802              LDR       A1, [SP, #8]          ; [DPU_3_PIPE] |240|  ; [ORIG 16-BIT INS]
     597 00000176 9903              LDR       A2, [SP, #12]         ; [DPU_3_PIPE] |240|  ; [ORIG 16-BIT INS]
     598 00000178 6008              STR       A1, [A2, #0]          ; [DPU_3_PIPE] |240|  ; [ORIG 16-BIT INS]
     599                            .dwendtag $C$DW$30
     600                    
     601                            .dwpsn  file "../heap_2.c",line 241,column 4,is_stmt,isa 1
     602 0000017a 490E              LDR       A2, $C$CON8           ; [DPU_3_PIPE] |241|  ; [ORIG 16-BIT INS]
     603 0000017c 9802              LDR       A1, [SP, #8]          ; [DPU_3_PIPE] |241|  ; [ORIG 16-BIT INS]
     604 0000017e 680A              LDR       A3, [A2, #0]          ; [DPU_3_PIPE] |241|  ; [ORIG 16-BIT INS]
     605 00000180 6840              LDR       A1, [A1, #4]          ; [DPU_3_PIPE] |241|  ; [ORIG 16-BIT INS]
TI ARM Assembler PC v15.12.1 Tue Oct 18 10:42:39 2016

Tools Copyright (c) 1996-2015 Texas Instruments Incorporated
heap_2.asm                                                           PAGE   12

     606 00000182 1880              ADDS      A1, A1, A3            ; [DPU_3_PIPE] |241|  ; [ORIG 16-BIT INS]
     607 00000184 6008              STR       A1, [A2, #0]          ; [DPU_3_PIPE] |241|  ; [ORIG 16-BIT INS]
     608                            .dwpsn  file "../heap_2.c",line 243,column 3,is_stmt,isa 1
     609                    $C$DW$33        .dwtag  DW_TAG_TI_branch
     610                            .dwattr $C$DW$33, DW_AT_low_pc(0x00)
     611                            .dwattr $C$DW$33, DW_AT_name("xTaskResumeAll")
     612                            .dwattr $C$DW$33, DW_AT_TI_call
     613                    
     614 00000186 FFFEF7FF!         BL        xTaskResumeAll        ; [DPU_3_PIPE] |243|  ; [KEEP 32-BIT INS]
     615                            ; CALL OCCURS {xTaskResumeAll }  ; [] |243| 
     616                            .dwpsn  file "../heap_2.c",line 245,column 1,is_stmt,isa 1
     617                    ;* --------------------------------------------------------------------------*
     618 0000018a           ||$C$L12||:    
     619 0000018a B005              ADD       SP, SP, #20           ; [DPU_3_PIPE]  ; [ORIG 16-BIT INS]
     620                            .dwcfi  cfa_offset, 4
     621                    $C$DW$34        .dwtag  DW_TAG_TI_branch
     622                            .dwattr $C$DW$34, DW_AT_low_pc(0x00)
     623                            .dwattr $C$DW$34, DW_AT_TI_return
     624                    
     625 0000018c BD00              POP       {PC}                  ; [DPU_3_PIPE]  ; [ORIG 16-BIT INS]
     626                            .dwcfi  cfa_offset, 0
     627                            ; BRANCH OCCURS                  ; [] 
     628                            .dwattr $C$DW$24, DW_AT_TI_end_file("../heap_2.c")
     629                            .dwattr $C$DW$24, DW_AT_TI_end_line(0xf5)
     630                            .dwattr $C$DW$24, DW_AT_TI_end_column(0x01)
     631                            .dwendentry
     632                            .dwendtag $C$DW$24
     633                    
     634 0000018e                   .sect   ".text"
     635                            .clink
     636                            .thumbfunc xPortGetFreeHeapSize
     637 0000018e                   .thumb
     638                            .global xPortGetFreeHeapSize
     639                    
     640                    $C$DW$35        .dwtag  DW_TAG_subprogram
     641                            .dwattr $C$DW$35, DW_AT_name("xPortGetFreeHeapSize")
     642                            .dwattr $C$DW$35, DW_AT_low_pc(xPortGetFreeHeapSize)
     643                            .dwattr $C$DW$35, DW_AT_high_pc(0x00)
     644                            .dwattr $C$DW$35, DW_AT_TI_symbol_name("xPortGetFreeHeapSize")
     645                            .dwattr $C$DW$35, DW_AT_external
     646                            .dwattr $C$DW$35, DW_AT_type(*$C$DW$T$23)
     647                            .dwattr $C$DW$35, DW_AT_TI_begin_file("../heap_2.c")
     648                            .dwattr $C$DW$35, DW_AT_TI_begin_line(0xf8)
     649                            .dwattr $C$DW$35, DW_AT_TI_begin_column(0x08)
     650                            .dwattr $C$DW$35, DW_AT_decl_file("../heap_2.c")
     651                            .dwattr $C$DW$35, DW_AT_decl_line(0xf8)
     652                            .dwattr $C$DW$35, DW_AT_decl_column(0x08)
     653                            .dwattr $C$DW$35, DW_AT_TI_max_frame_size(0x00)
     654                            .dwpsn  file "../heap_2.c",line 249,column 1,is_stmt,address xPortGetFreeHeapSize,isa 1
     655                    
     656                            .dwfde $C$DW$CIE, xPortGetFreeHeapSize
     657                    
     658                    ;*****************************************************************************
     659                    ;* FUNCTION NAME: xPortGetFreeHeapSize                                       *
     660                    ;*                                                                           *
TI ARM Assembler PC v15.12.1 Tue Oct 18 10:42:39 2016

Tools Copyright (c) 1996-2015 Texas Instruments Incorporated
heap_2.asm                                                           PAGE   13

     661                    ;*   Regs Modified     : A1                                                  *
     662                    ;*   Regs Used         : A1,LR                                               *
     663                    ;*   Local Frame Size  : 0 Args + 0 Auto + 0 Save = 0 byte                   *
     664                    ;*****************************************************************************
     665 0000018e           xPortGetFreeHeapSize:
     666                    ;* --------------------------------------------------------------------------*
     667                            .dwcfi  cfa_offset, 0
     668                            .dwpsn  file "../heap_2.c",line 250,column 2,is_stmt,isa 1
     669 0000018e 4809              LDR       A1, $C$CON8           ; [DPU_3_PIPE] |250|  ; [ORIG 16-BIT INS]
     670 00000190 6800              LDR       A1, [A1, #0]          ; [DPU_3_PIPE] |250|  ; [ORIG 16-BIT INS]
     671                            .dwpsn  file "../heap_2.c",line 251,column 1,is_stmt,isa 1
     672                    $C$DW$36        .dwtag  DW_TAG_TI_branch
     673                            .dwattr $C$DW$36, DW_AT_low_pc(0x00)
     674                            .dwattr $C$DW$36, DW_AT_TI_return
     675                    
     676 00000192 4770              BX        LR                    ; [DPU_3_PIPE]  ; [ORIG 16-BIT INS]
     677                            ; BRANCH OCCURS                  ; [] 
     678                            .dwattr $C$DW$35, DW_AT_TI_end_file("../heap_2.c")
     679                            .dwattr $C$DW$35, DW_AT_TI_end_line(0xfb)
     680                            .dwattr $C$DW$35, DW_AT_TI_end_column(0x01)
     681                            .dwendentry
     682                            .dwendtag $C$DW$35
     683                    
     684 00000194                   .sect   ".text"
     685                            .clink
     686                            .thumbfunc vPortInitialiseBlocks
     687 00000194                   .thumb
     688                            .global vPortInitialiseBlocks
     689                    
     690                    $C$DW$37        .dwtag  DW_TAG_subprogram
     691                            .dwattr $C$DW$37, DW_AT_name("vPortInitialiseBlocks")
     692                            .dwattr $C$DW$37, DW_AT_low_pc(vPortInitialiseBlocks)
     693                            .dwattr $C$DW$37, DW_AT_high_pc(0x00)
     694                            .dwattr $C$DW$37, DW_AT_TI_symbol_name("vPortInitialiseBlocks")
     695                            .dwattr $C$DW$37, DW_AT_external
     696                            .dwattr $C$DW$37, DW_AT_TI_begin_file("../heap_2.c")
     697                            .dwattr $C$DW$37, DW_AT_TI_begin_line(0xfe)
     698                            .dwattr $C$DW$37, DW_AT_TI_begin_column(0x06)
     699                            .dwattr $C$DW$37, DW_AT_decl_file("../heap_2.c")
     700                            .dwattr $C$DW$37, DW_AT_decl_line(0xfe)
     701                            .dwattr $C$DW$37, DW_AT_decl_column(0x06)
     702                            .dwattr $C$DW$37, DW_AT_TI_max_frame_size(0x00)
     703                            .dwpsn  file "../heap_2.c",line 255,column 1,is_stmt,address vPortInitialiseBlocks,isa 1
     704                    
     705                            .dwfde $C$DW$CIE, vPortInitialiseBlocks
     706                    
     707                    ;*****************************************************************************
     708                    ;* FUNCTION NAME: vPortInitialiseBlocks                                      *
     709                    ;*                                                                           *
     710                    ;*   Regs Modified     :                                                     *
     711                    ;*   Regs Used         : LR                                                  *
     712                    ;*   Local Frame Size  : 0 Args + 0 Auto + 0 Save = 0 byte                   *
     713                    ;*****************************************************************************
     714 00000194           vPortInitialiseBlocks:
     715                    ;* --------------------------------------------------------------------------*
TI ARM Assembler PC v15.12.1 Tue Oct 18 10:42:39 2016

Tools Copyright (c) 1996-2015 Texas Instruments Incorporated
heap_2.asm                                                           PAGE   14

     716                            .dwcfi  cfa_offset, 0
     717                            .dwpsn  file "../heap_2.c",line 257,column 1,is_stmt,isa 1
     718                    $C$DW$38        .dwtag  DW_TAG_TI_branch
     719                            .dwattr $C$DW$38, DW_AT_low_pc(0x00)
     720                            .dwattr $C$DW$38, DW_AT_TI_return
     721                    
     722 00000194 4770              BX        LR                    ; [DPU_3_PIPE]  ; [ORIG 16-BIT INS]
     723                            ; BRANCH OCCURS                  ; [] 
     724                            .dwattr $C$DW$37, DW_AT_TI_end_file("../heap_2.c")
     725                            .dwattr $C$DW$37, DW_AT_TI_end_line(0x101)
     726                            .dwattr $C$DW$37, DW_AT_TI_end_column(0x01)
     727                            .dwendentry
     728                            .dwendtag $C$DW$37
     729                    
     730                    ;******************************************************************************
     731                    ;* CONSTANT TABLE                                                             *
     732                    ;******************************************************************************
     733 00000196                   .sect   ".text"
     734                            .align  4
     735 00000196 000046C0! ||$C$CON1||:    .bits   xHeapHasBeenInitialised$1,32
         0000019a 00000000 
     736                            .align  4
     737 0000019a 00000000! ||$C$CON2||:    .bits   xStart,32
         0000019e 00000000 
     738                            .align  4
     739 0000019e 00000000! ||$C$CON3||:    .bits   xHeap,32
         000001a2 00000000 
     740                            .align  4
     741 000001a2 00040000! ||$C$CON4||:    .bits   xStart+4,32
         000001a6 00000000 
     742                            .align  4
     743 000001a6 00040000! ||$C$CON5||:    .bits   xEnd+4,32
         000001aa 00000000 
     744                            .align  4
     745 000001aa 00000000! ||$C$CON6||:    .bits   xEnd,32
         000001ae 00000000 
     746                            .align  4
     747 000001ae 00000000! ||$C$CON7||:    .bits   heapSTRUCT_SIZE,32
         000001b2 00000000 
     748                            .align  4
     749 000001b2 00000000! ||$C$CON8||:    .bits   xFreeBytesRemaining,32
         000001b6 00000000 
     750                    ;*****************************************************************************
     751                    ;* UNDEFINED EXTERNAL REFERENCES                                             *
     752                    ;*****************************************************************************
     753                            .global vTaskSuspendAll
     754                            .global xTaskResumeAll
     755                    
     756                    ;******************************************************************************
     757                    ;* BUILD ATTRIBUTES                                                           *
     758                    ;******************************************************************************
     759                            .battr "aeabi", Tag_File, 1, Tag_ABI_PCS_wchar_t(2)
     760                            .battr "aeabi", Tag_File, 1, Tag_ABI_FP_rounding(0)
     761                            .battr "aeabi", Tag_File, 1, Tag_ABI_FP_denormal(0)
     762                            .battr "aeabi", Tag_File, 1, Tag_ABI_FP_exceptions(0)
TI ARM Assembler PC v15.12.1 Tue Oct 18 10:42:39 2016

Tools Copyright (c) 1996-2015 Texas Instruments Incorporated
heap_2.asm                                                           PAGE   15

     763                            .battr "aeabi", Tag_File, 1, Tag_ABI_FP_number_model(1)
     764                            .battr "aeabi", Tag_File, 1, Tag_ABI_enum_size(1)
     765                            .battr "aeabi", Tag_File, 1, Tag_ABI_optimization_goals(5)
     766                            .battr "aeabi", Tag_File, 1, Tag_ABI_FP_optimization_goals(0)
     767                            .battr "TI", Tag_File, 1, Tag_Bitfield_layout(2)
     768                            .battr "TI", Tag_File, 1, Tag_FP_interface(1)
     769                    
     770                    ;******************************************************************************
     771                    ;* TYPE INFORMATION                                                           *
     772                    ;******************************************************************************
     773                    
     774                    $C$DW$T$59      .dwtag  DW_TAG_enumeration_type
     775                            .dwattr $C$DW$T$59, DW_AT_byte_size(0x01)
     776                    $C$DW$39        .dwtag  DW_TAG_enumerator
     777                            .dwattr $C$DW$39, DW_AT_name("eRunning")
     778                            .dwattr $C$DW$39, DW_AT_const_value(0x00)
     779                            .dwattr $C$DW$39, DW_AT_decl_file("C:/TI_ARM_Tiva_Projects/Source/include/task.h")
     780                            .dwattr $C$DW$39, DW_AT_decl_line(0x72)
     781                            .dwattr $C$DW$39, DW_AT_decl_column(0x02)
     782                    
     783                    $C$DW$40        .dwtag  DW_TAG_enumerator
     784                            .dwattr $C$DW$40, DW_AT_name("eReady")
     785                            .dwattr $C$DW$40, DW_AT_const_value(0x01)
     786                            .dwattr $C$DW$40, DW_AT_decl_file("C:/TI_ARM_Tiva_Projects/Source/include/task.h")
     787                            .dwattr $C$DW$40, DW_AT_decl_line(0x73)
     788                            .dwattr $C$DW$40, DW_AT_decl_column(0x02)
     789                    
     790                    $C$DW$41        .dwtag  DW_TAG_enumerator
     791                            .dwattr $C$DW$41, DW_AT_name("eBlocked")
     792                            .dwattr $C$DW$41, DW_AT_const_value(0x02)
     793                            .dwattr $C$DW$41, DW_AT_decl_file("C:/TI_ARM_Tiva_Projects/Source/include/task.h")
     794                            .dwattr $C$DW$41, DW_AT_decl_line(0x74)
     795                            .dwattr $C$DW$41, DW_AT_decl_column(0x02)
     796                    
     797                    $C$DW$42        .dwtag  DW_TAG_enumerator
     798                            .dwattr $C$DW$42, DW_AT_name("eSuspended")
     799                            .dwattr $C$DW$42, DW_AT_const_value(0x03)
     800                            .dwattr $C$DW$42, DW_AT_decl_file("C:/TI_ARM_Tiva_Projects/Source/include/task.h")
     801                            .dwattr $C$DW$42, DW_AT_decl_line(0x75)
     802                            .dwattr $C$DW$42, DW_AT_decl_column(0x02)
     803                    
     804                    $C$DW$43        .dwtag  DW_TAG_enumerator
     805                            .dwattr $C$DW$43, DW_AT_name("eDeleted")
     806                            .dwattr $C$DW$43, DW_AT_const_value(0x04)
     807                            .dwattr $C$DW$43, DW_AT_decl_file("C:/TI_ARM_Tiva_Projects/Source/include/task.h")
     808                            .dwattr $C$DW$43, DW_AT_decl_line(0x76)
     809                            .dwattr $C$DW$43, DW_AT_decl_column(0x02)
     810                    
     811                            .dwattr $C$DW$T$59, DW_AT_decl_file("C:/TI_ARM_Tiva_Projects/Source/include/task.h")
     812                            .dwattr $C$DW$T$59, DW_AT_decl_line(0x71)
     813                            .dwattr $C$DW$T$59, DW_AT_decl_column(0x01)
     814                            .dwendtag $C$DW$T$59
     815                    
     816                    $C$DW$T$60      .dwtag  DW_TAG_typedef
     817                            .dwattr $C$DW$T$60, DW_AT_name("eTaskState")
TI ARM Assembler PC v15.12.1 Tue Oct 18 10:42:39 2016

Tools Copyright (c) 1996-2015 Texas Instruments Incorporated
heap_2.asm                                                           PAGE   16

     818                            .dwattr $C$DW$T$60, DW_AT_type(*$C$DW$T$59)
     819                            .dwattr $C$DW$T$60, DW_AT_language(DW_LANG_C)
     820                            .dwattr $C$DW$T$60, DW_AT_decl_file("C:/TI_ARM_Tiva_Projects/Source/include/task.h")
     821                            .dwattr $C$DW$T$60, DW_AT_decl_line(0x77)
     822                            .dwattr $C$DW$T$60, DW_AT_decl_column(0x03)
     823                    
     824                    
     825                    $C$DW$T$65      .dwtag  DW_TAG_enumeration_type
     826                            .dwattr $C$DW$T$65, DW_AT_byte_size(0x01)
     827                    $C$DW$44        .dwtag  DW_TAG_enumerator
     828                            .dwattr $C$DW$44, DW_AT_name("eNoAction")
     829                            .dwattr $C$DW$44, DW_AT_const_value(0x00)
     830                            .dwattr $C$DW$44, DW_AT_decl_file("C:/TI_ARM_Tiva_Projects/Source/include/task.h")
     831                            .dwattr $C$DW$44, DW_AT_decl_line(0x7c)
     832                            .dwattr $C$DW$44, DW_AT_decl_column(0x02)
     833                    
     834                    $C$DW$45        .dwtag  DW_TAG_enumerator
     835                            .dwattr $C$DW$45, DW_AT_name("eSetBits")
     836                            .dwattr $C$DW$45, DW_AT_const_value(0x01)
     837                            .dwattr $C$DW$45, DW_AT_decl_file("C:/TI_ARM_Tiva_Projects/Source/include/task.h")
     838                            .dwattr $C$DW$45, DW_AT_decl_line(0x7d)
     839                            .dwattr $C$DW$45, DW_AT_decl_column(0x02)
     840                    
     841                    $C$DW$46        .dwtag  DW_TAG_enumerator
     842                            .dwattr $C$DW$46, DW_AT_name("eIncrement")
     843                            .dwattr $C$DW$46, DW_AT_const_value(0x02)
     844                            .dwattr $C$DW$46, DW_AT_decl_file("C:/TI_ARM_Tiva_Projects/Source/include/task.h")
     845                            .dwattr $C$DW$46, DW_AT_decl_line(0x7e)
     846                            .dwattr $C$DW$46, DW_AT_decl_column(0x02)
     847                    
     848                    $C$DW$47        .dwtag  DW_TAG_enumerator
     849                            .dwattr $C$DW$47, DW_AT_name("eSetValueWithOverwrite")
     850                            .dwattr $C$DW$47, DW_AT_const_value(0x03)
     851                            .dwattr $C$DW$47, DW_AT_decl_file("C:/TI_ARM_Tiva_Projects/Source/include/task.h")
     852                            .dwattr $C$DW$47, DW_AT_decl_line(0x7f)
     853                            .dwattr $C$DW$47, DW_AT_decl_column(0x02)
     854                    
     855                    $C$DW$48        .dwtag  DW_TAG_enumerator
     856                            .dwattr $C$DW$48, DW_AT_name("eSetValueWithoutOverwrite")
     857                            .dwattr $C$DW$48, DW_AT_const_value(0x04)
     858                            .dwattr $C$DW$48, DW_AT_decl_file("C:/TI_ARM_Tiva_Projects/Source/include/task.h")
     859                            .dwattr $C$DW$48, DW_AT_decl_line(0x80)
     860                            .dwattr $C$DW$48, DW_AT_decl_column(0x02)
     861                    
     862                            .dwattr $C$DW$T$65, DW_AT_decl_file("C:/TI_ARM_Tiva_Projects/Source/include/task.h")
     863                            .dwattr $C$DW$T$65, DW_AT_decl_line(0x7b)
     864                            .dwattr $C$DW$T$65, DW_AT_decl_column(0x01)
     865                            .dwendtag $C$DW$T$65
     866                    
     867                    $C$DW$T$66      .dwtag  DW_TAG_typedef
     868                            .dwattr $C$DW$T$66, DW_AT_name("eNotifyAction")
     869                            .dwattr $C$DW$T$66, DW_AT_type(*$C$DW$T$65)
     870                            .dwattr $C$DW$T$66, DW_AT_language(DW_LANG_C)
     871                            .dwattr $C$DW$T$66, DW_AT_decl_file("C:/TI_ARM_Tiva_Projects/Source/include/task.h")
     872                            .dwattr $C$DW$T$66, DW_AT_decl_line(0x81)
TI ARM Assembler PC v15.12.1 Tue Oct 18 10:42:39 2016

Tools Copyright (c) 1996-2015 Texas Instruments Incorporated
heap_2.asm                                                           PAGE   17

     873                            .dwattr $C$DW$T$66, DW_AT_decl_column(0x03)
     874                    
     875                    
     876                    $C$DW$T$67      .dwtag  DW_TAG_enumeration_type
     877                            .dwattr $C$DW$T$67, DW_AT_byte_size(0x01)
     878                    $C$DW$49        .dwtag  DW_TAG_enumerator
     879                            .dwattr $C$DW$49, DW_AT_name("eAbortSleep")
     880                            .dwattr $C$DW$49, DW_AT_const_value(0x00)
     881                            .dwattr $C$DW$49, DW_AT_decl_file("C:/TI_ARM_Tiva_Projects/Source/include/task.h")
     882                            .dwattr $C$DW$49, DW_AT_decl_line(0xb5)
     883                            .dwattr $C$DW$49, DW_AT_decl_column(0x02)
     884                    
     885                    $C$DW$50        .dwtag  DW_TAG_enumerator
     886                            .dwattr $C$DW$50, DW_AT_name("eStandardSleep")
     887                            .dwattr $C$DW$50, DW_AT_const_value(0x01)
     888                            .dwattr $C$DW$50, DW_AT_decl_file("C:/TI_ARM_Tiva_Projects/Source/include/task.h")
     889                            .dwattr $C$DW$50, DW_AT_decl_line(0xb6)
     890                            .dwattr $C$DW$50, DW_AT_decl_column(0x02)
     891                    
     892                    $C$DW$51        .dwtag  DW_TAG_enumerator
     893                            .dwattr $C$DW$51, DW_AT_name("eNoTasksWaitingTimeout")
     894                            .dwattr $C$DW$51, DW_AT_const_value(0x02)
     895                            .dwattr $C$DW$51, DW_AT_decl_file("C:/TI_ARM_Tiva_Projects/Source/include/task.h")
     896                            .dwattr $C$DW$51, DW_AT_decl_line(0xb7)
     897                            .dwattr $C$DW$51, DW_AT_decl_column(0x02)
     898                    
     899                            .dwattr $C$DW$T$67, DW_AT_decl_file("C:/TI_ARM_Tiva_Projects/Source/include/task.h")
     900                            .dwattr $C$DW$T$67, DW_AT_decl_line(0xb4)
     901                            .dwattr $C$DW$T$67, DW_AT_decl_column(0x01)
     902                            .dwendtag $C$DW$T$67
     903                    
     904                    $C$DW$T$68      .dwtag  DW_TAG_typedef
     905                            .dwattr $C$DW$T$68, DW_AT_name("eSleepModeStatus")
     906                            .dwattr $C$DW$T$68, DW_AT_type(*$C$DW$T$67)
     907                            .dwattr $C$DW$T$68, DW_AT_language(DW_LANG_C)
     908                            .dwattr $C$DW$T$68, DW_AT_decl_file("C:/TI_ARM_Tiva_Projects/Source/include/task.h")
     909                            .dwattr $C$DW$T$68, DW_AT_decl_line(0xb8)
     910                            .dwattr $C$DW$T$68, DW_AT_decl_column(0x03)
     911                    
     912                    
     913                    $C$DW$T$19      .dwtag  DW_TAG_structure_type
     914                            .dwattr $C$DW$T$19, DW_AT_byte_size(0x08)
     915                    $C$DW$52        .dwtag  DW_TAG_member
     916                            .dwattr $C$DW$52, DW_AT_type(*$C$DW$T$10)
     917                            .dwattr $C$DW$52, DW_AT_name("quot")
     918                            .dwattr $C$DW$52, DW_AT_TI_symbol_name("quot")
     919                            .dwattr $C$DW$52, DW_AT_data_member_location[DW_OP_plus_uconst 0x0]
     920                            .dwattr $C$DW$52, DW_AT_accessibility(DW_ACCESS_public)
     921                            .dwattr $C$DW$52, DW_AT_decl_file("C:/TI_CodeComposer/ccsv6/tools/compiler/ti-cgt-arm_15.12.1.
     922                            .dwattr $C$DW$52, DW_AT_decl_line(0x5c)
     923                            .dwattr $C$DW$52, DW_AT_decl_column(0x16)
     924                    
     925                    $C$DW$53        .dwtag  DW_TAG_member
     926                            .dwattr $C$DW$53, DW_AT_type(*$C$DW$T$10)
     927                            .dwattr $C$DW$53, DW_AT_name("rem")
TI ARM Assembler PC v15.12.1 Tue Oct 18 10:42:39 2016

Tools Copyright (c) 1996-2015 Texas Instruments Incorporated
heap_2.asm                                                           PAGE   18

     928                            .dwattr $C$DW$53, DW_AT_TI_symbol_name("rem")
     929                            .dwattr $C$DW$53, DW_AT_data_member_location[DW_OP_plus_uconst 0x4]
     930                            .dwattr $C$DW$53, DW_AT_accessibility(DW_ACCESS_public)
     931                            .dwattr $C$DW$53, DW_AT_decl_file("C:/TI_CodeComposer/ccsv6/tools/compiler/ti-cgt-arm_15.12.1.
     932                            .dwattr $C$DW$53, DW_AT_decl_line(0x5c)
     933                            .dwattr $C$DW$53, DW_AT_decl_column(0x1c)
     934                    
     935                            .dwattr $C$DW$T$19, DW_AT_decl_file("C:/TI_CodeComposer/ccsv6/tools/compiler/ti-cgt-arm_15.12.
     936                            .dwattr $C$DW$T$19, DW_AT_decl_line(0x5c)
     937                            .dwattr $C$DW$T$19, DW_AT_decl_column(0x10)
     938                            .dwendtag $C$DW$T$19
     939                    
     940                    $C$DW$T$69      .dwtag  DW_TAG_typedef
     941                            .dwattr $C$DW$T$69, DW_AT_name("div_t")
     942                            .dwattr $C$DW$T$69, DW_AT_type(*$C$DW$T$19)
     943                            .dwattr $C$DW$T$69, DW_AT_language(DW_LANG_C)
     944                            .dwattr $C$DW$T$69, DW_AT_decl_file("C:/TI_CodeComposer/ccsv6/tools/compiler/ti-cgt-arm_15.12.
     945                            .dwattr $C$DW$T$69, DW_AT_decl_line(0x5c)
     946                            .dwattr $C$DW$T$69, DW_AT_decl_column(0x23)
     947                    
     948                    
     949                    $C$DW$T$20      .dwtag  DW_TAG_structure_type
     950                            .dwattr $C$DW$T$20, DW_AT_byte_size(0x08)
     951                    $C$DW$54        .dwtag  DW_TAG_member
     952                            .dwattr $C$DW$54, DW_AT_type(*$C$DW$T$10)
     953                            .dwattr $C$DW$54, DW_AT_name("quot")
     954                            .dwattr $C$DW$54, DW_AT_TI_symbol_name("quot")
     955                            .dwattr $C$DW$54, DW_AT_data_member_location[DW_OP_plus_uconst 0x0]
     956                            .dwattr $C$DW$54, DW_AT_accessibility(DW_ACCESS_public)
     957                            .dwattr $C$DW$54, DW_AT_decl_file("C:/TI_CodeComposer/ccsv6/tools/compiler/ti-cgt-arm_15.12.1.
     958                            .dwattr $C$DW$54, DW_AT_decl_line(0x5e)
     959                            .dwattr $C$DW$54, DW_AT_decl_column(0x16)
     960                    
     961                    $C$DW$55        .dwtag  DW_TAG_member
     962                            .dwattr $C$DW$55, DW_AT_type(*$C$DW$T$10)
     963                            .dwattr $C$DW$55, DW_AT_name("rem")
     964                            .dwattr $C$DW$55, DW_AT_TI_symbol_name("rem")
     965                            .dwattr $C$DW$55, DW_AT_data_member_location[DW_OP_plus_uconst 0x4]
     966                            .dwattr $C$DW$55, DW_AT_accessibility(DW_ACCESS_public)
     967                            .dwattr $C$DW$55, DW_AT_decl_file("C:/TI_CodeComposer/ccsv6/tools/compiler/ti-cgt-arm_15.12.1.
     968                            .dwattr $C$DW$55, DW_AT_decl_line(0x5e)
     969                            .dwattr $C$DW$55, DW_AT_decl_column(0x1c)
     970                    
     971                            .dwattr $C$DW$T$20, DW_AT_decl_file("C:/TI_CodeComposer/ccsv6/tools/compiler/ti-cgt-arm_15.12.
     972                            .dwattr $C$DW$T$20, DW_AT_decl_line(0x5e)
     973                            .dwattr $C$DW$T$20, DW_AT_decl_column(0x10)
     974                            .dwendtag $C$DW$T$20
     975                    
     976                    $C$DW$T$70      .dwtag  DW_TAG_typedef
     977                            .dwattr $C$DW$T$70, DW_AT_name("ldiv_t")
     978                            .dwattr $C$DW$T$70, DW_AT_type(*$C$DW$T$20)
     979                            .dwattr $C$DW$T$70, DW_AT_language(DW_LANG_C)
     980                            .dwattr $C$DW$T$70, DW_AT_decl_file("C:/TI_CodeComposer/ccsv6/tools/compiler/ti-cgt-arm_15.12.
     981                            .dwattr $C$DW$T$70, DW_AT_decl_line(0x5e)
     982                            .dwattr $C$DW$T$70, DW_AT_decl_column(0x23)
TI ARM Assembler PC v15.12.1 Tue Oct 18 10:42:39 2016

Tools Copyright (c) 1996-2015 Texas Instruments Incorporated
heap_2.asm                                                           PAGE   19

     983                    
     984                    
     985                    $C$DW$T$21      .dwtag  DW_TAG_structure_type
     986                            .dwattr $C$DW$T$21, DW_AT_byte_size(0x10)
     987                    $C$DW$56        .dwtag  DW_TAG_member
     988                            .dwattr $C$DW$56, DW_AT_type(*$C$DW$T$14)
     989                            .dwattr $C$DW$56, DW_AT_name("quot")
     990                            .dwattr $C$DW$56, DW_AT_TI_symbol_name("quot")
     991                            .dwattr $C$DW$56, DW_AT_data_member_location[DW_OP_plus_uconst 0x0]
     992                            .dwattr $C$DW$56, DW_AT_accessibility(DW_ACCESS_public)
     993                            .dwattr $C$DW$56, DW_AT_decl_file("C:/TI_CodeComposer/ccsv6/tools/compiler/ti-cgt-arm_15.12.1.
     994                            .dwattr $C$DW$56, DW_AT_decl_line(0x61)
     995                            .dwattr $C$DW$56, DW_AT_decl_column(0x1c)
     996                    
     997                    $C$DW$57        .dwtag  DW_TAG_member
     998                            .dwattr $C$DW$57, DW_AT_type(*$C$DW$T$14)
     999                            .dwattr $C$DW$57, DW_AT_name("rem")
    1000                            .dwattr $C$DW$57, DW_AT_TI_symbol_name("rem")
    1001                            .dwattr $C$DW$57, DW_AT_data_member_location[DW_OP_plus_uconst 0x8]
    1002                            .dwattr $C$DW$57, DW_AT_accessibility(DW_ACCESS_public)
    1003                            .dwattr $C$DW$57, DW_AT_decl_file("C:/TI_CodeComposer/ccsv6/tools/compiler/ti-cgt-arm_15.12.1.
    1004                            .dwattr $C$DW$57, DW_AT_decl_line(0x61)
    1005                            .dwattr $C$DW$57, DW_AT_decl_column(0x22)
    1006                    
    1007                            .dwattr $C$DW$T$21, DW_AT_decl_file("C:/TI_CodeComposer/ccsv6/tools/compiler/ti-cgt-arm_15.12.
    1008                            .dwattr $C$DW$T$21, DW_AT_decl_line(0x61)
    1009                            .dwattr $C$DW$T$21, DW_AT_decl_column(0x10)
    1010                            .dwendtag $C$DW$T$21
    1011                    
    1012                    $C$DW$T$71      .dwtag  DW_TAG_typedef
    1013                            .dwattr $C$DW$T$71, DW_AT_name("lldiv_t")
    1014                            .dwattr $C$DW$T$71, DW_AT_type(*$C$DW$T$21)
    1015                            .dwattr $C$DW$T$71, DW_AT_language(DW_LANG_C)
    1016                            .dwattr $C$DW$T$71, DW_AT_decl_file("C:/TI_CodeComposer/ccsv6/tools/compiler/ti-cgt-arm_15.12.
    1017                            .dwattr $C$DW$T$71, DW_AT_decl_line(0x61)
    1018                            .dwattr $C$DW$T$71, DW_AT_decl_column(0x29)
    1019                    
    1020                    
    1021                    $C$DW$T$24      .dwtag  DW_TAG_structure_type
    1022                            .dwattr $C$DW$T$24, DW_AT_name("A_BLOCK_LINK")
    1023                            .dwattr $C$DW$T$24, DW_AT_byte_size(0x08)
    1024                    $C$DW$58        .dwtag  DW_TAG_member
    1025                            .dwattr $C$DW$58, DW_AT_type(*$C$DW$T$22)
    1026                            .dwattr $C$DW$58, DW_AT_name("pxNextFreeBlock")
    1027                            .dwattr $C$DW$58, DW_AT_TI_symbol_name("pxNextFreeBlock")
    1028                            .dwattr $C$DW$58, DW_AT_data_member_location[DW_OP_plus_uconst 0x0]
    1029                            .dwattr $C$DW$58, DW_AT_accessibility(DW_ACCESS_public)
    1030                            .dwattr $C$DW$58, DW_AT_decl_file("../heap_2.c")
    1031                            .dwattr $C$DW$58, DW_AT_decl_line(0x45)
    1032                            .dwattr $C$DW$58, DW_AT_decl_column(0x17)
    1033                    
    1034                    $C$DW$59        .dwtag  DW_TAG_member
    1035                            .dwattr $C$DW$59, DW_AT_type(*$C$DW$T$23)
    1036                            .dwattr $C$DW$59, DW_AT_name("xBlockSize")
    1037                            .dwattr $C$DW$59, DW_AT_TI_symbol_name("xBlockSize")
TI ARM Assembler PC v15.12.1 Tue Oct 18 10:42:39 2016

Tools Copyright (c) 1996-2015 Texas Instruments Incorporated
heap_2.asm                                                           PAGE   20

    1038                            .dwattr $C$DW$59, DW_AT_data_member_location[DW_OP_plus_uconst 0x4]
    1039                            .dwattr $C$DW$59, DW_AT_accessibility(DW_ACCESS_public)
    1040                            .dwattr $C$DW$59, DW_AT_decl_file("../heap_2.c")
    1041                            .dwattr $C$DW$59, DW_AT_decl_line(0x46)
    1042                            .dwattr $C$DW$59, DW_AT_decl_column(0x09)
    1043                    
    1044                            .dwattr $C$DW$T$24, DW_AT_decl_file("../heap_2.c")
    1045                            .dwattr $C$DW$T$24, DW_AT_decl_line(0x43)
    1046                            .dwattr $C$DW$T$24, DW_AT_decl_column(0x10)
    1047                            .dwendtag $C$DW$T$24
    1048                    
    1049                    $C$DW$T$22      .dwtag  DW_TAG_pointer_type
    1050                            .dwattr $C$DW$T$22, DW_AT_type(*$C$DW$T$24)
    1051                            .dwattr $C$DW$T$22, DW_AT_address_class(0x20)
    1052                    
    1053                    $C$DW$T$72      .dwtag  DW_TAG_typedef
    1054                            .dwattr $C$DW$T$72, DW_AT_name("xBlockLink")
    1055                            .dwattr $C$DW$T$72, DW_AT_type(*$C$DW$T$24)
    1056                            .dwattr $C$DW$T$72, DW_AT_language(DW_LANG_C)
    1057                            .dwattr $C$DW$T$72, DW_AT_decl_file("../heap_2.c")
    1058                            .dwattr $C$DW$T$72, DW_AT_decl_line(0x47)
    1059                            .dwattr $C$DW$T$72, DW_AT_decl_column(0x03)
    1060                    
    1061                    $C$DW$T$73      .dwtag  DW_TAG_pointer_type
    1062                            .dwattr $C$DW$T$73, DW_AT_type(*$C$DW$T$72)
    1063                            .dwattr $C$DW$T$73, DW_AT_address_class(0x20)
    1064                    
    1065                    
    1066                    $C$DW$T$27      .dwtag  DW_TAG_structure_type
    1067                            .dwattr $C$DW$T$27, DW_AT_name("HeapRegion")
    1068                            .dwattr $C$DW$T$27, DW_AT_byte_size(0x08)
    1069                    $C$DW$60        .dwtag  DW_TAG_member
    1070                            .dwattr $C$DW$60, DW_AT_type(*$C$DW$T$26)
    1071                            .dwattr $C$DW$60, DW_AT_name("pucStartAddress")
    1072                            .dwattr $C$DW$60, DW_AT_TI_symbol_name("pucStartAddress")
    1073                            .dwattr $C$DW$60, DW_AT_data_member_location[DW_OP_plus_uconst 0x0]
    1074                            .dwattr $C$DW$60, DW_AT_accessibility(DW_ACCESS_public)
    1075                            .dwattr $C$DW$60, DW_AT_decl_file("C:\TI_ARM_Tiva_Projects\Source\include\portable.h")
    1076                            .dwattr $C$DW$60, DW_AT_decl_line(0x96)
    1077                            .dwattr $C$DW$60, DW_AT_decl_column(0x0b)
    1078                    
    1079                    $C$DW$61        .dwtag  DW_TAG_member
    1080                            .dwattr $C$DW$61, DW_AT_type(*$C$DW$T$23)
    1081                            .dwattr $C$DW$61, DW_AT_name("xSizeInBytes")
    1082                            .dwattr $C$DW$61, DW_AT_TI_symbol_name("xSizeInBytes")
    1083                            .dwattr $C$DW$61, DW_AT_data_member_location[DW_OP_plus_uconst 0x4]
    1084                            .dwattr $C$DW$61, DW_AT_accessibility(DW_ACCESS_public)
    1085                            .dwattr $C$DW$61, DW_AT_decl_file("C:\TI_ARM_Tiva_Projects\Source\include\portable.h")
    1086                            .dwattr $C$DW$61, DW_AT_decl_line(0x97)
    1087                            .dwattr $C$DW$61, DW_AT_decl_column(0x09)
    1088                    
    1089                            .dwattr $C$DW$T$27, DW_AT_decl_file("C:\TI_ARM_Tiva_Projects\Source\include\portable.h")
    1090                            .dwattr $C$DW$T$27, DW_AT_decl_line(0x94)
    1091                            .dwattr $C$DW$T$27, DW_AT_decl_column(0x10)
    1092                            .dwendtag $C$DW$T$27
TI ARM Assembler PC v15.12.1 Tue Oct 18 10:42:39 2016

Tools Copyright (c) 1996-2015 Texas Instruments Incorporated
heap_2.asm                                                           PAGE   21

    1093                    
    1094                    $C$DW$T$74      .dwtag  DW_TAG_typedef
    1095                            .dwattr $C$DW$T$74, DW_AT_name("HeapRegion_t")
    1096                            .dwattr $C$DW$T$74, DW_AT_type(*$C$DW$T$27)
    1097                            .dwattr $C$DW$T$74, DW_AT_language(DW_LANG_C)
    1098                            .dwattr $C$DW$T$74, DW_AT_decl_file("C:\TI_ARM_Tiva_Projects\Source\include\portable.h")
    1099                            .dwattr $C$DW$T$74, DW_AT_decl_line(0x98)
    1100                            .dwattr $C$DW$T$74, DW_AT_decl_column(0x03)
    1101                    
    1102                    $C$DW$T$2       .dwtag  DW_TAG_unspecified_type
    1103                            .dwattr $C$DW$T$2, DW_AT_name("void")
    1104                    
    1105                    $C$DW$T$3       .dwtag  DW_TAG_pointer_type
    1106                            .dwattr $C$DW$T$3, DW_AT_type(*$C$DW$T$2)
    1107                            .dwattr $C$DW$T$3, DW_AT_address_class(0x20)
    1108                    
    1109                    $C$DW$T$58      .dwtag  DW_TAG_typedef
    1110                            .dwattr $C$DW$T$58, DW_AT_name("TaskHandle_t")
    1111                            .dwattr $C$DW$T$58, DW_AT_type(*$C$DW$T$3)
    1112                            .dwattr $C$DW$T$58, DW_AT_language(DW_LANG_C)
    1113                            .dwattr $C$DW$T$58, DW_AT_decl_file("C:/TI_ARM_Tiva_Projects/Source/include/task.h")
    1114                            .dwattr $C$DW$T$58, DW_AT_decl_line(0x67)
    1115                            .dwattr $C$DW$T$58, DW_AT_decl_column(0x10)
    1116                    
    1117                    
    1118                    $C$DW$T$45      .dwtag  DW_TAG_subroutine_type
    1119                            .dwattr $C$DW$T$45, DW_AT_language(DW_LANG_C)
    1120                    $C$DW$62        .dwtag  DW_TAG_formal_parameter
    1121                            .dwattr $C$DW$62, DW_AT_type(*$C$DW$T$3)
    1122                    
    1123                            .dwendtag $C$DW$T$45
    1124                    
    1125                    $C$DW$T$46      .dwtag  DW_TAG_pointer_type
    1126                            .dwattr $C$DW$T$46, DW_AT_type(*$C$DW$T$45)
    1127                            .dwattr $C$DW$T$46, DW_AT_address_class(0x20)
    1128                    
    1129                    $C$DW$T$47      .dwtag  DW_TAG_typedef
    1130                            .dwattr $C$DW$T$47, DW_AT_name("TaskFunction_t")
    1131                            .dwattr $C$DW$T$47, DW_AT_type(*$C$DW$T$46)
    1132                            .dwattr $C$DW$T$47, DW_AT_language(DW_LANG_C)
    1133                            .dwattr $C$DW$T$47, DW_AT_decl_file("C:\TI_ARM_Tiva_Projects\Source\include\projdefs.h")
    1134                            .dwattr $C$DW$T$47, DW_AT_decl_line(0x4d)
    1135                            .dwattr $C$DW$T$47, DW_AT_decl_column(0x10)
    1136                    
    1137                    
    1138                    $C$DW$T$76      .dwtag  DW_TAG_subroutine_type
    1139                            .dwattr $C$DW$T$76, DW_AT_language(DW_LANG_C)
    1140                            .dwendtag $C$DW$T$76
    1141                    
    1142                    $C$DW$T$77      .dwtag  DW_TAG_pointer_type
    1143                            .dwattr $C$DW$T$77, DW_AT_type(*$C$DW$T$76)
    1144                            .dwattr $C$DW$T$77, DW_AT_address_class(0x20)
    1145                    
    1146                    $C$DW$T$78      .dwtag  DW_TAG_typedef
    1147                            .dwattr $C$DW$T$78, DW_AT_name("__TI_atexit_fn")
TI ARM Assembler PC v15.12.1 Tue Oct 18 10:42:39 2016

Tools Copyright (c) 1996-2015 Texas Instruments Incorporated
heap_2.asm                                                           PAGE   22

    1148                            .dwattr $C$DW$T$78, DW_AT_type(*$C$DW$T$77)
    1149                            .dwattr $C$DW$T$78, DW_AT_language(DW_LANG_C)
    1150                            .dwattr $C$DW$T$78, DW_AT_decl_file("C:/TI_CodeComposer/ccsv6/tools/compiler/ti-cgt-arm_15.12.
    1151                            .dwattr $C$DW$T$78, DW_AT_decl_line(0xb9)
    1152                            .dwattr $C$DW$T$78, DW_AT_decl_column(0x14)
    1153                    
    1154                    $C$DW$T$79      .dwtag  DW_TAG_const_type
    1155                            .dwattr $C$DW$T$79, DW_AT_type(*$C$DW$T$2)
    1156                    
    1157                    $C$DW$T$80      .dwtag  DW_TAG_pointer_type
    1158                            .dwattr $C$DW$T$80, DW_AT_type(*$C$DW$T$79)
    1159                            .dwattr $C$DW$T$80, DW_AT_address_class(0x20)
    1160                    
    1161                    $C$DW$T$4       .dwtag  DW_TAG_base_type
    1162                            .dwattr $C$DW$T$4, DW_AT_encoding(DW_ATE_boolean)
    1163                            .dwattr $C$DW$T$4, DW_AT_name("bool")
    1164                            .dwattr $C$DW$T$4, DW_AT_byte_size(0x01)
    1165                    
    1166                    $C$DW$T$5       .dwtag  DW_TAG_base_type
    1167                            .dwattr $C$DW$T$5, DW_AT_encoding(DW_ATE_signed_char)
    1168                            .dwattr $C$DW$T$5, DW_AT_name("signed char")
    1169                            .dwattr $C$DW$T$5, DW_AT_byte_size(0x01)
    1170                    
    1171                    $C$DW$T$81      .dwtag  DW_TAG_typedef
    1172                            .dwattr $C$DW$T$81, DW_AT_name("int8_t")
    1173                            .dwattr $C$DW$T$81, DW_AT_type(*$C$DW$T$5)
    1174                            .dwattr $C$DW$T$81, DW_AT_language(DW_LANG_C)
    1175                            .dwattr $C$DW$T$81, DW_AT_decl_file("C:/TI_CodeComposer/ccsv6/tools/compiler/ti-cgt-arm_15.12.
    1176                            .dwattr $C$DW$T$81, DW_AT_decl_line(0x2a)
    1177                            .dwattr $C$DW$T$81, DW_AT_decl_column(0x1d)
    1178                    
    1179                    $C$DW$T$82      .dwtag  DW_TAG_typedef
    1180                            .dwattr $C$DW$T$82, DW_AT_name("int_least8_t")
    1181                            .dwattr $C$DW$T$82, DW_AT_type(*$C$DW$T$81)
    1182                            .dwattr $C$DW$T$82, DW_AT_language(DW_LANG_C)
    1183                            .dwattr $C$DW$T$82, DW_AT_decl_file("C:/TI_CodeComposer/ccsv6/tools/compiler/ti-cgt-arm_15.12.
    1184                            .dwattr $C$DW$T$82, DW_AT_decl_line(0x37)
    1185                            .dwattr $C$DW$T$82, DW_AT_decl_column(0x17)
    1186                    
    1187                    $C$DW$T$6       .dwtag  DW_TAG_base_type
    1188                            .dwattr $C$DW$T$6, DW_AT_encoding(DW_ATE_unsigned_char)
    1189                            .dwattr $C$DW$T$6, DW_AT_name("unsigned char")
    1190                            .dwattr $C$DW$T$6, DW_AT_byte_size(0x01)
    1191                    
    1192                    
    1193                    $C$DW$T$43      .dwtag  DW_TAG_array_type
    1194                            .dwattr $C$DW$T$43, DW_AT_type(*$C$DW$T$6)
    1195                            .dwattr $C$DW$T$43, DW_AT_language(DW_LANG_C)
    1196                            .dwattr $C$DW$T$43, DW_AT_byte_size(0xc350)
    1197                    $C$DW$63        .dwtag  DW_TAG_subrange_type
    1198                            .dwattr $C$DW$63, DW_AT_upper_bound(0xc34f)
    1199                    
    1200                            .dwendtag $C$DW$T$43
    1201                    
    1202                    $C$DW$T$83      .dwtag  DW_TAG_pointer_type
TI ARM Assembler PC v15.12.1 Tue Oct 18 10:42:39 2016

Tools Copyright (c) 1996-2015 Texas Instruments Incorporated
heap_2.asm                                                           PAGE   23

    1203                            .dwattr $C$DW$T$83, DW_AT_type(*$C$DW$T$6)
    1204                            .dwattr $C$DW$T$83, DW_AT_address_class(0x20)
    1205                    
    1206                    $C$DW$T$25      .dwtag  DW_TAG_typedef
    1207                            .dwattr $C$DW$T$25, DW_AT_name("uint8_t")
    1208                            .dwattr $C$DW$T$25, DW_AT_type(*$C$DW$T$6)
    1209                            .dwattr $C$DW$T$25, DW_AT_language(DW_LANG_C)
    1210                            .dwattr $C$DW$T$25, DW_AT_decl_file("C:/TI_CodeComposer/ccsv6/tools/compiler/ti-cgt-arm_15.12.
    1211                            .dwattr $C$DW$T$25, DW_AT_decl_line(0x2b)
    1212                            .dwattr $C$DW$T$25, DW_AT_decl_column(0x1c)
    1213                    
    1214                    $C$DW$T$26      .dwtag  DW_TAG_pointer_type
    1215                            .dwattr $C$DW$T$26, DW_AT_type(*$C$DW$T$25)
    1216                            .dwattr $C$DW$T$26, DW_AT_address_class(0x20)
    1217                    
    1218                    $C$DW$T$84      .dwtag  DW_TAG_typedef
    1219                            .dwattr $C$DW$T$84, DW_AT_name("portCHAR")
    1220                            .dwattr $C$DW$T$84, DW_AT_type(*$C$DW$T$25)
    1221                            .dwattr $C$DW$T$84, DW_AT_language(DW_LANG_C)
    1222                            .dwattr $C$DW$T$84, DW_AT_decl_file("C:/TI_ARM_Tiva_Projects/Source/portable/CCS/ARM_CM4F/port
    1223                            .dwattr $C$DW$T$84, DW_AT_decl_line(0x60)
    1224                            .dwattr $C$DW$T$84, DW_AT_decl_column(0x12)
    1225                    
    1226                    $C$DW$T$85      .dwtag  DW_TAG_typedef
    1227                            .dwattr $C$DW$T$85, DW_AT_name("uint_least8_t")
    1228                            .dwattr $C$DW$T$85, DW_AT_type(*$C$DW$T$25)
    1229                            .dwattr $C$DW$T$85, DW_AT_language(DW_LANG_C)
    1230                            .dwattr $C$DW$T$85, DW_AT_decl_file("C:/TI_CodeComposer/ccsv6/tools/compiler/ti-cgt-arm_15.12.
    1231                            .dwattr $C$DW$T$85, DW_AT_decl_line(0x38)
    1232                            .dwattr $C$DW$T$85, DW_AT_decl_column(0x16)
    1233                    
    1234                    $C$DW$T$7       .dwtag  DW_TAG_base_type
    1235                            .dwattr $C$DW$T$7, DW_AT_encoding(DW_ATE_signed_char)
    1236                            .dwattr $C$DW$T$7, DW_AT_name("wchar_t")
    1237                            .dwattr $C$DW$T$7, DW_AT_byte_size(0x02)
    1238                    
    1239                    $C$DW$T$8       .dwtag  DW_TAG_base_type
    1240                            .dwattr $C$DW$T$8, DW_AT_encoding(DW_ATE_signed)
    1241                            .dwattr $C$DW$T$8, DW_AT_name("short")
    1242                            .dwattr $C$DW$T$8, DW_AT_byte_size(0x02)
    1243                    
    1244                    $C$DW$T$86      .dwtag  DW_TAG_typedef
    1245                            .dwattr $C$DW$T$86, DW_AT_name("int16_t")
    1246                            .dwattr $C$DW$T$86, DW_AT_type(*$C$DW$T$8)
    1247                            .dwattr $C$DW$T$86, DW_AT_language(DW_LANG_C)
    1248                            .dwattr $C$DW$T$86, DW_AT_decl_file("C:/TI_CodeComposer/ccsv6/tools/compiler/ti-cgt-arm_15.12.
    1249                            .dwattr $C$DW$T$86, DW_AT_decl_line(0x2c)
    1250                            .dwattr $C$DW$T$86, DW_AT_decl_column(0x1d)
    1251                    
    1252                    $C$DW$T$87      .dwtag  DW_TAG_typedef
    1253                            .dwattr $C$DW$T$87, DW_AT_name("int_least16_t")
    1254                            .dwattr $C$DW$T$87, DW_AT_type(*$C$DW$T$86)
    1255                            .dwattr $C$DW$T$87, DW_AT_language(DW_LANG_C)
    1256                            .dwattr $C$DW$T$87, DW_AT_decl_file("C:/TI_CodeComposer/ccsv6/tools/compiler/ti-cgt-arm_15.12.
    1257                            .dwattr $C$DW$T$87, DW_AT_decl_line(0x3a)
TI ARM Assembler PC v15.12.1 Tue Oct 18 10:42:39 2016

Tools Copyright (c) 1996-2015 Texas Instruments Incorporated
heap_2.asm                                                           PAGE   24

    1258                            .dwattr $C$DW$T$87, DW_AT_decl_column(0x17)
    1259                    
    1260                    $C$DW$T$88      .dwtag  DW_TAG_typedef
    1261                            .dwattr $C$DW$T$88, DW_AT_name("portSHORT")
    1262                            .dwattr $C$DW$T$88, DW_AT_type(*$C$DW$T$86)
    1263                            .dwattr $C$DW$T$88, DW_AT_language(DW_LANG_C)
    1264                            .dwattr $C$DW$T$88, DW_AT_decl_file("C:/TI_ARM_Tiva_Projects/Source/portable/CCS/ARM_CM4F/port
    1265                            .dwattr $C$DW$T$88, DW_AT_decl_line(0x64)
    1266                            .dwattr $C$DW$T$88, DW_AT_decl_column(0x12)
    1267                    
    1268                    $C$DW$T$9       .dwtag  DW_TAG_base_type
    1269                            .dwattr $C$DW$T$9, DW_AT_encoding(DW_ATE_unsigned)
    1270                            .dwattr $C$DW$T$9, DW_AT_name("unsigned short")
    1271                            .dwattr $C$DW$T$9, DW_AT_byte_size(0x02)
    1272                    
    1273                    $C$DW$T$89      .dwtag  DW_TAG_const_type
    1274                            .dwattr $C$DW$T$89, DW_AT_type(*$C$DW$T$9)
    1275                    
    1276                    $C$DW$T$52      .dwtag  DW_TAG_typedef
    1277                            .dwattr $C$DW$T$52, DW_AT_name("uint16_t")
    1278                            .dwattr $C$DW$T$52, DW_AT_type(*$C$DW$T$9)
    1279                            .dwattr $C$DW$T$52, DW_AT_language(DW_LANG_C)
    1280                            .dwattr $C$DW$T$52, DW_AT_decl_file("C:/TI_CodeComposer/ccsv6/tools/compiler/ti-cgt-arm_15.12.
    1281                            .dwattr $C$DW$T$52, DW_AT_decl_line(0x2d)
    1282                            .dwattr $C$DW$T$52, DW_AT_decl_column(0x1c)
    1283                    
    1284                    $C$DW$T$90      .dwtag  DW_TAG_typedef
    1285                            .dwattr $C$DW$T$90, DW_AT_name("uint_least16_t")
    1286                            .dwattr $C$DW$T$90, DW_AT_type(*$C$DW$T$52)
    1287                            .dwattr $C$DW$T$90, DW_AT_language(DW_LANG_C)
    1288                            .dwattr $C$DW$T$90, DW_AT_decl_file("C:/TI_CodeComposer/ccsv6/tools/compiler/ti-cgt-arm_15.12.
    1289                            .dwattr $C$DW$T$90, DW_AT_decl_line(0x3b)
    1290                            .dwattr $C$DW$T$90, DW_AT_decl_column(0x16)
    1291                    
    1292                    $C$DW$T$91      .dwtag  DW_TAG_typedef
    1293                            .dwattr $C$DW$T$91, DW_AT_name("wchar_t")
    1294                            .dwattr $C$DW$T$91, DW_AT_type(*$C$DW$T$9)
    1295                            .dwattr $C$DW$T$91, DW_AT_language(DW_LANG_C)
    1296                            .dwattr $C$DW$T$91, DW_AT_decl_file("C:/TI_CodeComposer/ccsv6/tools/compiler/ti-cgt-arm_15.12.
    1297                            .dwattr $C$DW$T$91, DW_AT_decl_line(0x78)
    1298                            .dwattr $C$DW$T$91, DW_AT_decl_column(0x1a)
    1299                    
    1300                    $C$DW$T$10      .dwtag  DW_TAG_base_type
    1301                            .dwattr $C$DW$T$10, DW_AT_encoding(DW_ATE_signed)
    1302                            .dwattr $C$DW$T$10, DW_AT_name("int")
    1303                            .dwattr $C$DW$T$10, DW_AT_byte_size(0x04)
    1304                    
    1305                    
    1306                    $C$DW$T$92      .dwtag  DW_TAG_subroutine_type
    1307                            .dwattr $C$DW$T$92, DW_AT_type(*$C$DW$T$10)
    1308                            .dwattr $C$DW$T$92, DW_AT_language(DW_LANG_C)
    1309                    $C$DW$64        .dwtag  DW_TAG_formal_parameter
    1310                            .dwattr $C$DW$64, DW_AT_type(*$C$DW$T$80)
    1311                    
    1312                    $C$DW$65        .dwtag  DW_TAG_formal_parameter
TI ARM Assembler PC v15.12.1 Tue Oct 18 10:42:39 2016

Tools Copyright (c) 1996-2015 Texas Instruments Incorporated
heap_2.asm                                                           PAGE   25

    1313                            .dwattr $C$DW$65, DW_AT_type(*$C$DW$T$80)
    1314                    
    1315                            .dwendtag $C$DW$T$92
    1316                    
    1317                    $C$DW$T$93      .dwtag  DW_TAG_pointer_type
    1318                            .dwattr $C$DW$T$93, DW_AT_type(*$C$DW$T$92)
    1319                            .dwattr $C$DW$T$93, DW_AT_address_class(0x20)
    1320                    
    1321                    $C$DW$T$94      .dwtag  DW_TAG_typedef
    1322                            .dwattr $C$DW$T$94, DW_AT_name("__TI_compar_fn")
    1323                            .dwattr $C$DW$T$94, DW_AT_type(*$C$DW$T$93)
    1324                            .dwattr $C$DW$T$94, DW_AT_language(DW_LANG_C)
    1325                            .dwattr $C$DW$T$94, DW_AT_decl_file("C:/TI_CodeComposer/ccsv6/tools/compiler/ti-cgt-arm_15.12.
    1326                            .dwattr $C$DW$T$94, DW_AT_decl_line(0xbc)
    1327                            .dwattr $C$DW$T$94, DW_AT_decl_column(0x13)
    1328                    
    1329                    $C$DW$T$62      .dwtag  DW_TAG_typedef
    1330                            .dwattr $C$DW$T$62, DW_AT_name("int32_t")
    1331                            .dwattr $C$DW$T$62, DW_AT_type(*$C$DW$T$10)
    1332                            .dwattr $C$DW$T$62, DW_AT_language(DW_LANG_C)
    1333                            .dwattr $C$DW$T$62, DW_AT_decl_file("C:/TI_CodeComposer/ccsv6/tools/compiler/ti-cgt-arm_15.12.
    1334                            .dwattr $C$DW$T$62, DW_AT_decl_line(0x2e)
    1335                            .dwattr $C$DW$T$62, DW_AT_decl_column(0x1d)
    1336                    
    1337                    $C$DW$T$63      .dwtag  DW_TAG_typedef
    1338                            .dwattr $C$DW$T$63, DW_AT_name("BaseType_t")
    1339                            .dwattr $C$DW$T$63, DW_AT_type(*$C$DW$T$62)
    1340                            .dwattr $C$DW$T$63, DW_AT_language(DW_LANG_C)
    1341                            .dwattr $C$DW$T$63, DW_AT_decl_file("C:/TI_ARM_Tiva_Projects/Source/portable/CCS/ARM_CM4F/port
    1342                            .dwattr $C$DW$T$63, DW_AT_decl_line(0x69)
    1343                            .dwattr $C$DW$T$63, DW_AT_decl_column(0x12)
    1344                    
    1345                    
    1346                    $C$DW$T$97      .dwtag  DW_TAG_subroutine_type
    1347                            .dwattr $C$DW$T$97, DW_AT_type(*$C$DW$T$63)
    1348                            .dwattr $C$DW$T$97, DW_AT_language(DW_LANG_C)
    1349                    $C$DW$66        .dwtag  DW_TAG_formal_parameter
    1350                            .dwattr $C$DW$66, DW_AT_type(*$C$DW$T$3)
    1351                    
    1352                            .dwendtag $C$DW$T$97
    1353                    
    1354                    $C$DW$T$98      .dwtag  DW_TAG_pointer_type
    1355                            .dwattr $C$DW$T$98, DW_AT_type(*$C$DW$T$97)
    1356                            .dwattr $C$DW$T$98, DW_AT_address_class(0x20)
    1357                    
    1358                    $C$DW$T$99      .dwtag  DW_TAG_typedef
    1359                            .dwattr $C$DW$T$99, DW_AT_name("TaskHookFunction_t")
    1360                            .dwattr $C$DW$T$99, DW_AT_type(*$C$DW$T$98)
    1361                            .dwattr $C$DW$T$99, DW_AT_language(DW_LANG_C)
    1362                            .dwattr $C$DW$T$99, DW_AT_decl_file("C:/TI_ARM_Tiva_Projects/Source/include/task.h")
    1363                            .dwattr $C$DW$T$99, DW_AT_decl_line(0x6d)
    1364                            .dwattr $C$DW$T$99, DW_AT_decl_column(0x16)
    1365                    
    1366                    $C$DW$T$100     .dwtag  DW_TAG_typedef
    1367                            .dwattr $C$DW$T$100, DW_AT_name("int_fast16_t")
TI ARM Assembler PC v15.12.1 Tue Oct 18 10:42:39 2016

Tools Copyright (c) 1996-2015 Texas Instruments Incorporated
heap_2.asm                                                           PAGE   26

    1368                            .dwattr $C$DW$T$100, DW_AT_type(*$C$DW$T$62)
    1369                            .dwattr $C$DW$T$100, DW_AT_language(DW_LANG_C)
    1370                            .dwattr $C$DW$T$100, DW_AT_decl_file("C:/TI_CodeComposer/ccsv6/tools/compiler/ti-cgt-arm_15.12
    1371                            .dwattr $C$DW$T$100, DW_AT_decl_line(0x47)
    1372                            .dwattr $C$DW$T$100, DW_AT_decl_column(0x17)
    1373                    
    1374                    $C$DW$T$101     .dwtag  DW_TAG_typedef
    1375                            .dwattr $C$DW$T$101, DW_AT_name("int_fast32_t")
    1376                            .dwattr $C$DW$T$101, DW_AT_type(*$C$DW$T$62)
    1377                            .dwattr $C$DW$T$101, DW_AT_language(DW_LANG_C)
    1378                            .dwattr $C$DW$T$101, DW_AT_decl_file("C:/TI_CodeComposer/ccsv6/tools/compiler/ti-cgt-arm_15.12
    1379                            .dwattr $C$DW$T$101, DW_AT_decl_line(0x4a)
    1380                            .dwattr $C$DW$T$101, DW_AT_decl_column(0x17)
    1381                    
    1382                    $C$DW$T$102     .dwtag  DW_TAG_typedef
    1383                            .dwattr $C$DW$T$102, DW_AT_name("int_fast8_t")
    1384                            .dwattr $C$DW$T$102, DW_AT_type(*$C$DW$T$62)
    1385                            .dwattr $C$DW$T$102, DW_AT_language(DW_LANG_C)
    1386                            .dwattr $C$DW$T$102, DW_AT_decl_file("C:/TI_CodeComposer/ccsv6/tools/compiler/ti-cgt-arm_15.12
    1387                            .dwattr $C$DW$T$102, DW_AT_decl_line(0x45)
    1388                            .dwattr $C$DW$T$102, DW_AT_decl_column(0x17)
    1389                    
    1390                    $C$DW$T$103     .dwtag  DW_TAG_typedef
    1391                            .dwattr $C$DW$T$103, DW_AT_name("int_least32_t")
    1392                            .dwattr $C$DW$T$103, DW_AT_type(*$C$DW$T$62)
    1393                            .dwattr $C$DW$T$103, DW_AT_language(DW_LANG_C)
    1394                            .dwattr $C$DW$T$103, DW_AT_decl_file("C:/TI_CodeComposer/ccsv6/tools/compiler/ti-cgt-arm_15.12
    1395                            .dwattr $C$DW$T$103, DW_AT_decl_line(0x3c)
    1396                            .dwattr $C$DW$T$103, DW_AT_decl_column(0x17)
    1397                    
    1398                    $C$DW$T$104     .dwtag  DW_TAG_typedef
    1399                            .dwattr $C$DW$T$104, DW_AT_name("portBASE_TYPE")
    1400                            .dwattr $C$DW$T$104, DW_AT_type(*$C$DW$T$62)
    1401                            .dwattr $C$DW$T$104, DW_AT_language(DW_LANG_C)
    1402                            .dwattr $C$DW$T$104, DW_AT_decl_file("C:/TI_ARM_Tiva_Projects/Source/portable/CCS/ARM_CM4F/por
    1403                            .dwattr $C$DW$T$104, DW_AT_decl_line(0x66)
    1404                            .dwattr $C$DW$T$104, DW_AT_decl_column(0x12)
    1405                    
    1406                    $C$DW$T$105     .dwtag  DW_TAG_typedef
    1407                            .dwattr $C$DW$T$105, DW_AT_name("portLONG")
    1408                            .dwattr $C$DW$T$105, DW_AT_type(*$C$DW$T$62)
    1409                            .dwattr $C$DW$T$105, DW_AT_language(DW_LANG_C)
    1410                            .dwattr $C$DW$T$105, DW_AT_decl_file("C:/TI_ARM_Tiva_Projects/Source/portable/CCS/ARM_CM4F/por
    1411                            .dwattr $C$DW$T$105, DW_AT_decl_line(0x63)
    1412                            .dwattr $C$DW$T$105, DW_AT_decl_column(0x12)
    1413                    
    1414                    $C$DW$T$106     .dwtag  DW_TAG_typedef
    1415                            .dwattr $C$DW$T$106, DW_AT_name("intptr_t")
    1416                            .dwattr $C$DW$T$106, DW_AT_type(*$C$DW$T$10)
    1417                            .dwattr $C$DW$T$106, DW_AT_language(DW_LANG_C)
    1418                            .dwattr $C$DW$T$106, DW_AT_decl_file("C:/TI_CodeComposer/ccsv6/tools/compiler/ti-cgt-arm_15.12
    1419                            .dwattr $C$DW$T$106, DW_AT_decl_line(0x52)
    1420                            .dwattr $C$DW$T$106, DW_AT_decl_column(0x1a)
    1421                    
    1422                    $C$DW$T$107     .dwtag  DW_TAG_typedef
TI ARM Assembler PC v15.12.1 Tue Oct 18 10:42:39 2016

Tools Copyright (c) 1996-2015 Texas Instruments Incorporated
heap_2.asm                                                           PAGE   27

    1423                            .dwattr $C$DW$T$107, DW_AT_name("ptrdiff_t")
    1424                            .dwattr $C$DW$T$107, DW_AT_type(*$C$DW$T$10)
    1425                            .dwattr $C$DW$T$107, DW_AT_language(DW_LANG_C)
    1426                            .dwattr $C$DW$T$107, DW_AT_decl_file("C:/TI_CodeComposer/ccsv6/tools/compiler/ti-cgt-arm_15.12
    1427                            .dwattr $C$DW$T$107, DW_AT_decl_line(0x36)
    1428                            .dwattr $C$DW$T$107, DW_AT_decl_column(0x1c)
    1429                    
    1430                    $C$DW$T$11      .dwtag  DW_TAG_base_type
    1431                            .dwattr $C$DW$T$11, DW_AT_encoding(DW_ATE_unsigned)
    1432                            .dwattr $C$DW$T$11, DW_AT_name("unsigned int")
    1433                            .dwattr $C$DW$T$11, DW_AT_byte_size(0x04)
    1434                    
    1435                    $C$DW$T$23      .dwtag  DW_TAG_typedef
    1436                            .dwattr $C$DW$T$23, DW_AT_name("size_t")
    1437                            .dwattr $C$DW$T$23, DW_AT_type(*$C$DW$T$11)
    1438                            .dwattr $C$DW$T$23, DW_AT_language(DW_LANG_C)
    1439                            .dwattr $C$DW$T$23, DW_AT_decl_file("C:/TI_CodeComposer/ccsv6/tools/compiler/ti-cgt-arm_15.12.
    1440                            .dwattr $C$DW$T$23, DW_AT_decl_line(0x72)
    1441                            .dwattr $C$DW$T$23, DW_AT_decl_column(0x19)
    1442                    
    1443                    $C$DW$T$29      .dwtag  DW_TAG_typedef
    1444                            .dwattr $C$DW$T$29, DW_AT_name("uint32_t")
    1445                            .dwattr $C$DW$T$29, DW_AT_type(*$C$DW$T$11)
    1446                            .dwattr $C$DW$T$29, DW_AT_language(DW_LANG_C)
    1447                            .dwattr $C$DW$T$29, DW_AT_decl_file("C:/TI_CodeComposer/ccsv6/tools/compiler/ti-cgt-arm_15.12.
    1448                            .dwattr $C$DW$T$29, DW_AT_decl_line(0x2f)
    1449                            .dwattr $C$DW$T$29, DW_AT_decl_column(0x1c)
    1450                    
    1451                    $C$DW$T$53      .dwtag  DW_TAG_typedef
    1452                            .dwattr $C$DW$T$53, DW_AT_name("StackType_t")
    1453                            .dwattr $C$DW$T$53, DW_AT_type(*$C$DW$T$29)
    1454                            .dwattr $C$DW$T$53, DW_AT_language(DW_LANG_C)
    1455                            .dwattr $C$DW$T$53, DW_AT_decl_file("C:/TI_ARM_Tiva_Projects/Source/portable/CCS/ARM_CM4F/port
    1456                            .dwattr $C$DW$T$53, DW_AT_decl_line(0x68)
    1457                            .dwattr $C$DW$T$53, DW_AT_decl_column(0x12)
    1458                    
    1459                    $C$DW$T$54      .dwtag  DW_TAG_pointer_type
    1460                            .dwattr $C$DW$T$54, DW_AT_type(*$C$DW$T$53)
    1461                            .dwattr $C$DW$T$54, DW_AT_address_class(0x20)
    1462                    
    1463                    $C$DW$T$35      .dwtag  DW_TAG_typedef
    1464                            .dwattr $C$DW$T$35, DW_AT_name("TickType_t")
    1465                            .dwattr $C$DW$T$35, DW_AT_type(*$C$DW$T$29)
    1466                            .dwattr $C$DW$T$35, DW_AT_language(DW_LANG_C)
    1467                            .dwattr $C$DW$T$35, DW_AT_decl_file("C:/TI_ARM_Tiva_Projects/Source/portable/CCS/ARM_CM4F/port
    1468                            .dwattr $C$DW$T$35, DW_AT_decl_line(0x70)
    1469                            .dwattr $C$DW$T$35, DW_AT_decl_column(0x13)
    1470                    
    1471                    $C$DW$T$30      .dwtag  DW_TAG_typedef
    1472                            .dwattr $C$DW$T$30, DW_AT_name("UBaseType_t")
    1473                            .dwattr $C$DW$T$30, DW_AT_type(*$C$DW$T$29)
    1474                            .dwattr $C$DW$T$30, DW_AT_language(DW_LANG_C)
    1475                            .dwattr $C$DW$T$30, DW_AT_decl_file("C:/TI_ARM_Tiva_Projects/Source/portable/CCS/ARM_CM4F/port
    1476                            .dwattr $C$DW$T$30, DW_AT_decl_line(0x6a)
    1477                            .dwattr $C$DW$T$30, DW_AT_decl_column(0x12)
TI ARM Assembler PC v15.12.1 Tue Oct 18 10:42:39 2016

Tools Copyright (c) 1996-2015 Texas Instruments Incorporated
heap_2.asm                                                           PAGE   28

    1478                    
    1479                    $C$DW$T$109     .dwtag  DW_TAG_typedef
    1480                            .dwattr $C$DW$T$109, DW_AT_name("portSTACK_TYPE")
    1481                            .dwattr $C$DW$T$109, DW_AT_type(*$C$DW$T$29)
    1482                            .dwattr $C$DW$T$109, DW_AT_language(DW_LANG_C)
    1483                            .dwattr $C$DW$T$109, DW_AT_decl_file("C:/TI_ARM_Tiva_Projects/Source/portable/CCS/ARM_CM4F/por
    1484                            .dwattr $C$DW$T$109, DW_AT_decl_line(0x65)
    1485                            .dwattr $C$DW$T$109, DW_AT_decl_column(0x12)
    1486                    
    1487                    $C$DW$T$110     .dwtag  DW_TAG_typedef
    1488                            .dwattr $C$DW$T$110, DW_AT_name("uint_fast16_t")
    1489                            .dwattr $C$DW$T$110, DW_AT_type(*$C$DW$T$29)
    1490                            .dwattr $C$DW$T$110, DW_AT_language(DW_LANG_C)
    1491                            .dwattr $C$DW$T$110, DW_AT_decl_file("C:/TI_CodeComposer/ccsv6/tools/compiler/ti-cgt-arm_15.12
    1492                            .dwattr $C$DW$T$110, DW_AT_decl_line(0x48)
    1493                            .dwattr $C$DW$T$110, DW_AT_decl_column(0x16)
    1494                    
    1495                    $C$DW$T$111     .dwtag  DW_TAG_typedef
    1496                            .dwattr $C$DW$T$111, DW_AT_name("uint_fast32_t")
    1497                            .dwattr $C$DW$T$111, DW_AT_type(*$C$DW$T$29)
    1498                            .dwattr $C$DW$T$111, DW_AT_language(DW_LANG_C)
    1499                            .dwattr $C$DW$T$111, DW_AT_decl_file("C:/TI_CodeComposer/ccsv6/tools/compiler/ti-cgt-arm_15.12
    1500                            .dwattr $C$DW$T$111, DW_AT_decl_line(0x4b)
    1501                            .dwattr $C$DW$T$111, DW_AT_decl_column(0x16)
    1502                    
    1503                    $C$DW$T$112     .dwtag  DW_TAG_typedef
    1504                            .dwattr $C$DW$T$112, DW_AT_name("uint_fast8_t")
    1505                            .dwattr $C$DW$T$112, DW_AT_type(*$C$DW$T$29)
    1506                            .dwattr $C$DW$T$112, DW_AT_language(DW_LANG_C)
    1507                            .dwattr $C$DW$T$112, DW_AT_decl_file("C:/TI_CodeComposer/ccsv6/tools/compiler/ti-cgt-arm_15.12
    1508                            .dwattr $C$DW$T$112, DW_AT_decl_line(0x46)
    1509                            .dwattr $C$DW$T$112, DW_AT_decl_column(0x16)
    1510                    
    1511                    $C$DW$T$113     .dwtag  DW_TAG_typedef
    1512                            .dwattr $C$DW$T$113, DW_AT_name("uint_least32_t")
    1513                            .dwattr $C$DW$T$113, DW_AT_type(*$C$DW$T$29)
    1514                            .dwattr $C$DW$T$113, DW_AT_language(DW_LANG_C)
    1515                            .dwattr $C$DW$T$113, DW_AT_decl_file("C:/TI_CodeComposer/ccsv6/tools/compiler/ti-cgt-arm_15.12
    1516                            .dwattr $C$DW$T$113, DW_AT_decl_line(0x3d)
    1517                            .dwattr $C$DW$T$113, DW_AT_decl_column(0x16)
    1518                    
    1519                    $C$DW$T$114     .dwtag  DW_TAG_typedef
    1520                            .dwattr $C$DW$T$114, DW_AT_name("uintptr_t")
    1521                            .dwattr $C$DW$T$114, DW_AT_type(*$C$DW$T$11)
    1522                            .dwattr $C$DW$T$114, DW_AT_language(DW_LANG_C)
    1523                            .dwattr $C$DW$T$114, DW_AT_decl_file("C:/TI_CodeComposer/ccsv6/tools/compiler/ti-cgt-arm_15.12
    1524                            .dwattr $C$DW$T$114, DW_AT_decl_line(0x53)
    1525                            .dwattr $C$DW$T$114, DW_AT_decl_column(0x1a)
    1526                    
    1527                    $C$DW$T$12      .dwtag  DW_TAG_base_type
    1528                            .dwattr $C$DW$T$12, DW_AT_encoding(DW_ATE_signed)
    1529                            .dwattr $C$DW$T$12, DW_AT_name("long")
    1530                            .dwattr $C$DW$T$12, DW_AT_byte_size(0x04)
    1531                    
    1532                    $C$DW$T$13      .dwtag  DW_TAG_base_type
TI ARM Assembler PC v15.12.1 Tue Oct 18 10:42:39 2016

Tools Copyright (c) 1996-2015 Texas Instruments Incorporated
heap_2.asm                                                           PAGE   29

    1533                            .dwattr $C$DW$T$13, DW_AT_encoding(DW_ATE_unsigned)
    1534                            .dwattr $C$DW$T$13, DW_AT_name("unsigned long")
    1535                            .dwattr $C$DW$T$13, DW_AT_byte_size(0x04)
    1536                    
    1537                    $C$DW$T$14      .dwtag  DW_TAG_base_type
    1538                            .dwattr $C$DW$T$14, DW_AT_encoding(DW_ATE_signed)
    1539                            .dwattr $C$DW$T$14, DW_AT_name("long long")
    1540                            .dwattr $C$DW$T$14, DW_AT_byte_size(0x08)
    1541                    
    1542                    $C$DW$T$40      .dwtag  DW_TAG_typedef
    1543                            .dwattr $C$DW$T$40, DW_AT_name("int64_t")
    1544                            .dwattr $C$DW$T$40, DW_AT_type(*$C$DW$T$14)
    1545                            .dwattr $C$DW$T$40, DW_AT_language(DW_LANG_C)
    1546                            .dwattr $C$DW$T$40, DW_AT_decl_file("C:/TI_CodeComposer/ccsv6/tools/compiler/ti-cgt-arm_15.12.
    1547                            .dwattr $C$DW$T$40, DW_AT_decl_line(0x32)
    1548                            .dwattr $C$DW$T$40, DW_AT_decl_column(0x21)
    1549                    
    1550                    $C$DW$T$115     .dwtag  DW_TAG_typedef
    1551                            .dwattr $C$DW$T$115, DW_AT_name("int_fast64_t")
    1552                            .dwattr $C$DW$T$115, DW_AT_type(*$C$DW$T$40)
    1553                            .dwattr $C$DW$T$115, DW_AT_language(DW_LANG_C)
    1554                            .dwattr $C$DW$T$115, DW_AT_decl_file("C:/TI_CodeComposer/ccsv6/tools/compiler/ti-cgt-arm_15.12
    1555                            .dwattr $C$DW$T$115, DW_AT_decl_line(0x4e)
    1556                            .dwattr $C$DW$T$115, DW_AT_decl_column(0x17)
    1557                    
    1558                    $C$DW$T$116     .dwtag  DW_TAG_typedef
    1559                            .dwattr $C$DW$T$116, DW_AT_name("int_least64_t")
    1560                            .dwattr $C$DW$T$116, DW_AT_type(*$C$DW$T$40)
    1561                            .dwattr $C$DW$T$116, DW_AT_language(DW_LANG_C)
    1562                            .dwattr $C$DW$T$116, DW_AT_decl_file("C:/TI_CodeComposer/ccsv6/tools/compiler/ti-cgt-arm_15.12
    1563                            .dwattr $C$DW$T$116, DW_AT_decl_line(0x40)
    1564                            .dwattr $C$DW$T$116, DW_AT_decl_column(0x17)
    1565                    
    1566                    $C$DW$T$41      .dwtag  DW_TAG_typedef
    1567                            .dwattr $C$DW$T$41, DW_AT_name("portDOUBLE")
    1568                            .dwattr $C$DW$T$41, DW_AT_type(*$C$DW$T$40)
    1569                            .dwattr $C$DW$T$41, DW_AT_language(DW_LANG_C)
    1570                            .dwattr $C$DW$T$41, DW_AT_decl_file("C:/TI_ARM_Tiva_Projects/Source/portable/CCS/ARM_CM4F/port
    1571                            .dwattr $C$DW$T$41, DW_AT_decl_line(0x62)
    1572                            .dwattr $C$DW$T$41, DW_AT_decl_column(0x12)
    1573                    
    1574                    $C$DW$T$42      .dwtag  DW_TAG_volatile_type
    1575                            .dwattr $C$DW$T$42, DW_AT_type(*$C$DW$T$41)
    1576                    
    1577                    $C$DW$T$117     .dwtag  DW_TAG_typedef
    1578                            .dwattr $C$DW$T$117, DW_AT_name("intmax_t")
    1579                            .dwattr $C$DW$T$117, DW_AT_type(*$C$DW$T$14)
    1580                            .dwattr $C$DW$T$117, DW_AT_language(DW_LANG_C)
    1581                            .dwattr $C$DW$T$117, DW_AT_decl_file("C:/TI_CodeComposer/ccsv6/tools/compiler/ti-cgt-arm_15.12
    1582                            .dwattr $C$DW$T$117, DW_AT_decl_line(0x56)
    1583                            .dwattr $C$DW$T$117, DW_AT_decl_column(0x20)
    1584                    
    1585                    $C$DW$T$15      .dwtag  DW_TAG_base_type
    1586                            .dwattr $C$DW$T$15, DW_AT_encoding(DW_ATE_unsigned)
    1587                            .dwattr $C$DW$T$15, DW_AT_name("unsigned long long")
TI ARM Assembler PC v15.12.1 Tue Oct 18 10:42:39 2016

Tools Copyright (c) 1996-2015 Texas Instruments Incorporated
heap_2.asm                                                           PAGE   30

    1588                            .dwattr $C$DW$T$15, DW_AT_byte_size(0x08)
    1589                    
    1590                    $C$DW$T$118     .dwtag  DW_TAG_typedef
    1591                            .dwattr $C$DW$T$118, DW_AT_name("uint64_t")
    1592                            .dwattr $C$DW$T$118, DW_AT_type(*$C$DW$T$15)
    1593                            .dwattr $C$DW$T$118, DW_AT_language(DW_LANG_C)
    1594                            .dwattr $C$DW$T$118, DW_AT_decl_file("C:/TI_CodeComposer/ccsv6/tools/compiler/ti-cgt-arm_15.12
    1595                            .dwattr $C$DW$T$118, DW_AT_decl_line(0x33)
    1596                            .dwattr $C$DW$T$118, DW_AT_decl_column(0x20)
    1597                    
    1598                    $C$DW$T$119     .dwtag  DW_TAG_typedef
    1599                            .dwattr $C$DW$T$119, DW_AT_name("uint_fast64_t")
    1600                            .dwattr $C$DW$T$119, DW_AT_type(*$C$DW$T$118)
    1601                            .dwattr $C$DW$T$119, DW_AT_language(DW_LANG_C)
    1602                            .dwattr $C$DW$T$119, DW_AT_decl_file("C:/TI_CodeComposer/ccsv6/tools/compiler/ti-cgt-arm_15.12
    1603                            .dwattr $C$DW$T$119, DW_AT_decl_line(0x4f)
    1604                            .dwattr $C$DW$T$119, DW_AT_decl_column(0x16)
    1605                    
    1606                    $C$DW$T$120     .dwtag  DW_TAG_typedef
    1607                            .dwattr $C$DW$T$120, DW_AT_name("uint_least64_t")
    1608                            .dwattr $C$DW$T$120, DW_AT_type(*$C$DW$T$118)
    1609                            .dwattr $C$DW$T$120, DW_AT_language(DW_LANG_C)
    1610                            .dwattr $C$DW$T$120, DW_AT_decl_file("C:/TI_CodeComposer/ccsv6/tools/compiler/ti-cgt-arm_15.12
    1611                            .dwattr $C$DW$T$120, DW_AT_decl_line(0x41)
    1612                            .dwattr $C$DW$T$120, DW_AT_decl_column(0x16)
    1613                    
    1614                    $C$DW$T$121     .dwtag  DW_TAG_typedef
    1615                            .dwattr $C$DW$T$121, DW_AT_name("uintmax_t")
    1616                            .dwattr $C$DW$T$121, DW_AT_type(*$C$DW$T$15)
    1617                            .dwattr $C$DW$T$121, DW_AT_language(DW_LANG_C)
    1618                            .dwattr $C$DW$T$121, DW_AT_decl_file("C:/TI_CodeComposer/ccsv6/tools/compiler/ti-cgt-arm_15.12
    1619                            .dwattr $C$DW$T$121, DW_AT_decl_line(0x57)
    1620                            .dwattr $C$DW$T$121, DW_AT_decl_column(0x20)
    1621                    
    1622                    $C$DW$T$16      .dwtag  DW_TAG_base_type
    1623                            .dwattr $C$DW$T$16, DW_AT_encoding(DW_ATE_float)
    1624                            .dwattr $C$DW$T$16, DW_AT_name("float")
    1625                            .dwattr $C$DW$T$16, DW_AT_byte_size(0x04)
    1626                    
    1627                    $C$DW$T$122     .dwtag  DW_TAG_typedef
    1628                            .dwattr $C$DW$T$122, DW_AT_name("portFLOAT")
    1629                            .dwattr $C$DW$T$122, DW_AT_type(*$C$DW$T$16)
    1630                            .dwattr $C$DW$T$122, DW_AT_language(DW_LANG_C)
    1631                            .dwattr $C$DW$T$122, DW_AT_decl_file("C:/TI_ARM_Tiva_Projects/Source/portable/CCS/ARM_CM4F/por
    1632                            .dwattr $C$DW$T$122, DW_AT_decl_line(0x61)
    1633                            .dwattr $C$DW$T$122, DW_AT_decl_column(0x10)
    1634                    
    1635                    $C$DW$T$17      .dwtag  DW_TAG_base_type
    1636                            .dwattr $C$DW$T$17, DW_AT_encoding(DW_ATE_float)
    1637                            .dwattr $C$DW$T$17, DW_AT_name("double")
    1638                            .dwattr $C$DW$T$17, DW_AT_byte_size(0x08)
    1639                    
    1640                    $C$DW$T$18      .dwtag  DW_TAG_base_type
    1641                            .dwattr $C$DW$T$18, DW_AT_encoding(DW_ATE_float)
    1642                            .dwattr $C$DW$T$18, DW_AT_name("long double")
TI ARM Assembler PC v15.12.1 Tue Oct 18 10:42:39 2016

Tools Copyright (c) 1996-2015 Texas Instruments Incorporated
heap_2.asm                                                           PAGE   31

    1643                            .dwattr $C$DW$T$18, DW_AT_byte_size(0x08)
    1644                    
    1645                    $C$DW$T$49      .dwtag  DW_TAG_const_type
    1646                            .dwattr $C$DW$T$49, DW_AT_type(*$C$DW$T$6)
    1647                    
    1648                    $C$DW$T$50      .dwtag  DW_TAG_pointer_type
    1649                            .dwattr $C$DW$T$50, DW_AT_type(*$C$DW$T$49)
    1650                            .dwattr $C$DW$T$50, DW_AT_address_class(0x20)
    1651                    
    1652                    $C$DW$T$51      .dwtag  DW_TAG_const_type
    1653                            .dwattr $C$DW$T$51, DW_AT_type(*$C$DW$T$50)
    1654                    
    1655                    
    1656                    $C$DW$T$28      .dwtag  DW_TAG_structure_type
    1657                            .dwattr $C$DW$T$28, DW_AT_name("__va_list")
    1658                            .dwattr $C$DW$T$28, DW_AT_byte_size(0x04)
    1659                    $C$DW$67        .dwtag  DW_TAG_member
    1660                            .dwattr $C$DW$67, DW_AT_type(*$C$DW$T$3)
    1661                            .dwattr $C$DW$67, DW_AT_name("__ap")
    1662                            .dwattr $C$DW$67, DW_AT_TI_symbol_name("__ap")
    1663                            .dwattr $C$DW$67, DW_AT_data_member_location[DW_OP_plus_uconst 0x0]
    1664                            .dwattr $C$DW$67, DW_AT_accessibility(DW_ACCESS_public)
    1665                            .dwattr $C$DW$67, DW_AT_decl_file("C:/TI_CodeComposer/ccsv6/tools/compiler/ti-cgt-arm_15.12.1.
    1666                            .dwattr $C$DW$67, DW_AT_decl_line(0x38)
    1667                            .dwattr $C$DW$67, DW_AT_decl_column(0x0c)
    1668                    
    1669                            .dwattr $C$DW$T$28, DW_AT_decl_file("C:/TI_CodeComposer/ccsv6/tools/compiler/ti-cgt-arm_15.12.
    1670                            .dwattr $C$DW$T$28, DW_AT_decl_line(0x37)
    1671                            .dwattr $C$DW$T$28, DW_AT_decl_column(0x10)
    1672                            .dwendtag $C$DW$T$28
    1673                    
    1674                    $C$DW$T$123     .dwtag  DW_TAG_typedef
    1675                            .dwattr $C$DW$T$123, DW_AT_name("va_list")
    1676                            .dwattr $C$DW$T$123, DW_AT_type(*$C$DW$T$28)
    1677                            .dwattr $C$DW$T$123, DW_AT_language(DW_LANG_C)
    1678                            .dwattr $C$DW$T$123, DW_AT_decl_file("C:/TI_CodeComposer/ccsv6/tools/compiler/ti-cgt-arm_15.12
    1679                            .dwattr $C$DW$T$123, DW_AT_decl_line(0x39)
    1680                            .dwattr $C$DW$T$123, DW_AT_decl_column(0x03)
    1681                    
    1682                    
    1683                    $C$DW$T$34      .dwtag  DW_TAG_structure_type
    1684                            .dwattr $C$DW$T$34, DW_AT_name("xLIST")
    1685                            .dwattr $C$DW$T$34, DW_AT_byte_size(0x14)
    1686                    $C$DW$68        .dwtag  DW_TAG_member
    1687                            .dwattr $C$DW$68, DW_AT_type(*$C$DW$T$30)
    1688                            .dwattr $C$DW$68, DW_AT_name("uxNumberOfItems")
    1689                            .dwattr $C$DW$68, DW_AT_TI_symbol_name("uxNumberOfItems")
    1690                            .dwattr $C$DW$68, DW_AT_data_member_location[DW_OP_plus_uconst 0x0]
    1691                            .dwattr $C$DW$68, DW_AT_accessibility(DW_ACCESS_public)
    1692                            .dwattr $C$DW$68, DW_AT_decl_file("C:\TI_ARM_Tiva_Projects\Source\include\list.h")
    1693                            .dwattr $C$DW$68, DW_AT_decl_line(0xd0)
    1694                            .dwattr $C$DW$68, DW_AT_decl_column(0x22)
    1695                    
    1696                    $C$DW$69        .dwtag  DW_TAG_member
    1697                            .dwattr $C$DW$69, DW_AT_type(*$C$DW$T$32)
TI ARM Assembler PC v15.12.1 Tue Oct 18 10:42:39 2016

Tools Copyright (c) 1996-2015 Texas Instruments Incorporated
heap_2.asm                                                           PAGE   32

    1698                            .dwattr $C$DW$69, DW_AT_name("pxIndex")
    1699                            .dwattr $C$DW$69, DW_AT_TI_symbol_name("pxIndex")
    1700                            .dwattr $C$DW$69, DW_AT_data_member_location[DW_OP_plus_uconst 0x4]
    1701                            .dwattr $C$DW$69, DW_AT_accessibility(DW_ACCESS_public)
    1702                            .dwattr $C$DW$69, DW_AT_decl_file("C:\TI_ARM_Tiva_Projects\Source\include\list.h")
    1703                            .dwattr $C$DW$69, DW_AT_decl_line(0xd1)
    1704                            .dwattr $C$DW$69, DW_AT_decl_column(0x23)
    1705                    
    1706                    $C$DW$70        .dwtag  DW_TAG_member
    1707                            .dwattr $C$DW$70, DW_AT_type(*$C$DW$T$33)
    1708                            .dwattr $C$DW$70, DW_AT_name("xListEnd")
    1709                            .dwattr $C$DW$70, DW_AT_TI_symbol_name("xListEnd")
    1710                            .dwattr $C$DW$70, DW_AT_data_member_location[DW_OP_plus_uconst 0x8]
    1711                            .dwattr $C$DW$70, DW_AT_accessibility(DW_ACCESS_public)
    1712                            .dwattr $C$DW$70, DW_AT_decl_file("C:\TI_ARM_Tiva_Projects\Source\include\list.h")
    1713                            .dwattr $C$DW$70, DW_AT_decl_line(0xd2)
    1714                            .dwattr $C$DW$70, DW_AT_decl_column(0x11)
    1715                    
    1716                            .dwattr $C$DW$T$34, DW_AT_decl_file("C:\TI_ARM_Tiva_Projects\Source\include\list.h")
    1717                            .dwattr $C$DW$T$34, DW_AT_decl_line(0xcd)
    1718                            .dwattr $C$DW$T$34, DW_AT_decl_column(0x10)
    1719                            .dwendtag $C$DW$T$34
    1720                    
    1721                    $C$DW$T$124     .dwtag  DW_TAG_typedef
    1722                            .dwattr $C$DW$T$124, DW_AT_name("List_t")
    1723                            .dwattr $C$DW$T$124, DW_AT_type(*$C$DW$T$34)
    1724                            .dwattr $C$DW$T$124, DW_AT_language(DW_LANG_C)
    1725                            .dwattr $C$DW$T$124, DW_AT_decl_file("C:\TI_ARM_Tiva_Projects\Source\include\list.h")
    1726                            .dwattr $C$DW$T$124, DW_AT_decl_line(0xd4)
    1727                            .dwattr $C$DW$T$124, DW_AT_decl_column(0x03)
    1728                    
    1729                    
    1730                    $C$DW$T$37      .dwtag  DW_TAG_structure_type
    1731                            .dwattr $C$DW$T$37, DW_AT_name("xLIST_ITEM")
    1732                            .dwattr $C$DW$T$37, DW_AT_byte_size(0x14)
    1733                    $C$DW$71        .dwtag  DW_TAG_member
    1734                            .dwattr $C$DW$71, DW_AT_type(*$C$DW$T$35)
    1735                            .dwattr $C$DW$71, DW_AT_name("xItemValue")
    1736                            .dwattr $C$DW$71, DW_AT_TI_symbol_name("xItemValue")
    1737                            .dwattr $C$DW$71, DW_AT_data_member_location[DW_OP_plus_uconst 0x0]
    1738                            .dwattr $C$DW$71, DW_AT_accessibility(DW_ACCESS_public)
    1739                            .dwattr $C$DW$71, DW_AT_decl_file("C:\TI_ARM_Tiva_Projects\Source\include\list.h")
    1740                            .dwattr $C$DW$71, DW_AT_decl_line(0xb8)
    1741                            .dwattr $C$DW$71, DW_AT_decl_column(0x21)
    1742                    
    1743                    $C$DW$72        .dwtag  DW_TAG_member
    1744                            .dwattr $C$DW$72, DW_AT_type(*$C$DW$T$36)
    1745                            .dwattr $C$DW$72, DW_AT_name("pxNext")
    1746                            .dwattr $C$DW$72, DW_AT_TI_symbol_name("pxNext")
    1747                            .dwattr $C$DW$72, DW_AT_data_member_location[DW_OP_plus_uconst 0x4]
    1748                            .dwattr $C$DW$72, DW_AT_accessibility(DW_ACCESS_public)
    1749                            .dwattr $C$DW$72, DW_AT_decl_file("C:\TI_ARM_Tiva_Projects\Source\include\list.h")
    1750                            .dwattr $C$DW$72, DW_AT_decl_line(0xb9)
    1751                            .dwattr $C$DW$72, DW_AT_decl_column(0x2a)
    1752                    
TI ARM Assembler PC v15.12.1 Tue Oct 18 10:42:39 2016

Tools Copyright (c) 1996-2015 Texas Instruments Incorporated
heap_2.asm                                                           PAGE   33

    1753                    $C$DW$73        .dwtag  DW_TAG_member
    1754                            .dwattr $C$DW$73, DW_AT_type(*$C$DW$T$36)
    1755                            .dwattr $C$DW$73, DW_AT_name("pxPrevious")
    1756                            .dwattr $C$DW$73, DW_AT_TI_symbol_name("pxPrevious")
    1757                            .dwattr $C$DW$73, DW_AT_data_member_location[DW_OP_plus_uconst 0x8]
    1758                            .dwattr $C$DW$73, DW_AT_accessibility(DW_ACCESS_public)
    1759                            .dwattr $C$DW$73, DW_AT_decl_file("C:\TI_ARM_Tiva_Projects\Source\include\list.h")
    1760                            .dwattr $C$DW$73, DW_AT_decl_line(0xba)
    1761                            .dwattr $C$DW$73, DW_AT_decl_column(0x2a)
    1762                    
    1763                    $C$DW$74        .dwtag  DW_TAG_member
    1764                            .dwattr $C$DW$74, DW_AT_type(*$C$DW$T$3)
    1765                            .dwattr $C$DW$74, DW_AT_name("pvOwner")
    1766                            .dwattr $C$DW$74, DW_AT_TI_symbol_name("pvOwner")
    1767                            .dwattr $C$DW$74, DW_AT_data_member_location[DW_OP_plus_uconst 0xc]
    1768                            .dwattr $C$DW$74, DW_AT_accessibility(DW_ACCESS_public)
    1769                            .dwattr $C$DW$74, DW_AT_decl_file("C:\TI_ARM_Tiva_Projects\Source\include\list.h")
    1770                            .dwattr $C$DW$74, DW_AT_decl_line(0xbb)
    1771                            .dwattr $C$DW$74, DW_AT_decl_column(0x09)
    1772                    
    1773                    $C$DW$75        .dwtag  DW_TAG_member
    1774                            .dwattr $C$DW$75, DW_AT_type(*$C$DW$T$3)
    1775                            .dwattr $C$DW$75, DW_AT_name("pvContainer")
    1776                            .dwattr $C$DW$75, DW_AT_TI_symbol_name("pvContainer")
    1777                            .dwattr $C$DW$75, DW_AT_data_member_location[DW_OP_plus_uconst 0x10]
    1778                            .dwattr $C$DW$75, DW_AT_accessibility(DW_ACCESS_public)
    1779                            .dwattr $C$DW$75, DW_AT_decl_file("C:\TI_ARM_Tiva_Projects\Source\include\list.h")
    1780                            .dwattr $C$DW$75, DW_AT_decl_line(0xbc)
    1781                            .dwattr $C$DW$75, DW_AT_decl_column(0x1d)
    1782                    
    1783                            .dwattr $C$DW$T$37, DW_AT_decl_file("C:\TI_ARM_Tiva_Projects\Source\include\list.h")
    1784                            .dwattr $C$DW$T$37, DW_AT_decl_line(0xb5)
    1785                            .dwattr $C$DW$T$37, DW_AT_decl_column(0x08)
    1786                            .dwendtag $C$DW$T$37
    1787                    
    1788                    $C$DW$T$31      .dwtag  DW_TAG_typedef
    1789                            .dwattr $C$DW$T$31, DW_AT_name("ListItem_t")
    1790                            .dwattr $C$DW$T$31, DW_AT_type(*$C$DW$T$37)
    1791                            .dwattr $C$DW$T$31, DW_AT_language(DW_LANG_C)
    1792                            .dwattr $C$DW$T$31, DW_AT_decl_file("C:\TI_ARM_Tiva_Projects\Source\include\list.h")
    1793                            .dwattr $C$DW$T$31, DW_AT_decl_line(0xbf)
    1794                            .dwattr $C$DW$T$31, DW_AT_decl_column(0x1b)
    1795                    
    1796                    $C$DW$T$32      .dwtag  DW_TAG_pointer_type
    1797                            .dwattr $C$DW$T$32, DW_AT_type(*$C$DW$T$31)
    1798                            .dwattr $C$DW$T$32, DW_AT_address_class(0x20)
    1799                    
    1800                    $C$DW$T$36      .dwtag  DW_TAG_pointer_type
    1801                            .dwattr $C$DW$T$36, DW_AT_type(*$C$DW$T$37)
    1802                            .dwattr $C$DW$T$36, DW_AT_address_class(0x20)
    1803                    
    1804                    
    1805                    $C$DW$T$38      .dwtag  DW_TAG_structure_type
    1806                            .dwattr $C$DW$T$38, DW_AT_name("xMEMORY_REGION")
    1807                            .dwattr $C$DW$T$38, DW_AT_byte_size(0x0c)
TI ARM Assembler PC v15.12.1 Tue Oct 18 10:42:39 2016

Tools Copyright (c) 1996-2015 Texas Instruments Incorporated
heap_2.asm                                                           PAGE   34

    1808                    $C$DW$76        .dwtag  DW_TAG_member
    1809                            .dwattr $C$DW$76, DW_AT_type(*$C$DW$T$3)
    1810                            .dwattr $C$DW$76, DW_AT_name("pvBaseAddress")
    1811                            .dwattr $C$DW$76, DW_AT_TI_symbol_name("pvBaseAddress")
    1812                            .dwattr $C$DW$76, DW_AT_data_member_location[DW_OP_plus_uconst 0x0]
    1813                            .dwattr $C$DW$76, DW_AT_accessibility(DW_ACCESS_public)
    1814                            .dwattr $C$DW$76, DW_AT_decl_file("C:/TI_ARM_Tiva_Projects/Source/include/task.h")
    1815                            .dwattr $C$DW$76, DW_AT_decl_line(0x91)
    1816                            .dwattr $C$DW$76, DW_AT_decl_column(0x08)
    1817                    
    1818                    $C$DW$77        .dwtag  DW_TAG_member
    1819                            .dwattr $C$DW$77, DW_AT_type(*$C$DW$T$29)
    1820                            .dwattr $C$DW$77, DW_AT_name("ulLengthInBytes")
    1821                            .dwattr $C$DW$77, DW_AT_TI_symbol_name("ulLengthInBytes")
    1822                            .dwattr $C$DW$77, DW_AT_data_member_location[DW_OP_plus_uconst 0x4]
    1823                            .dwattr $C$DW$77, DW_AT_accessibility(DW_ACCESS_public)
    1824                            .dwattr $C$DW$77, DW_AT_decl_file("C:/TI_ARM_Tiva_Projects/Source/include/task.h")
    1825                            .dwattr $C$DW$77, DW_AT_decl_line(0x92)
    1826                            .dwattr $C$DW$77, DW_AT_decl_column(0x0b)
    1827                    
    1828                    $C$DW$78        .dwtag  DW_TAG_member
    1829                            .dwattr $C$DW$78, DW_AT_type(*$C$DW$T$29)
    1830                            .dwattr $C$DW$78, DW_AT_name("ulParameters")
    1831                            .dwattr $C$DW$78, DW_AT_TI_symbol_name("ulParameters")
    1832                            .dwattr $C$DW$78, DW_AT_data_member_location[DW_OP_plus_uconst 0x8]
    1833                            .dwattr $C$DW$78, DW_AT_accessibility(DW_ACCESS_public)
    1834                            .dwattr $C$DW$78, DW_AT_decl_file("C:/TI_ARM_Tiva_Projects/Source/include/task.h")
    1835                            .dwattr $C$DW$78, DW_AT_decl_line(0x93)
    1836                            .dwattr $C$DW$78, DW_AT_decl_column(0x0b)
    1837                    
    1838                            .dwattr $C$DW$T$38, DW_AT_decl_file("C:/TI_ARM_Tiva_Projects/Source/include/task.h")
    1839                            .dwattr $C$DW$T$38, DW_AT_decl_line(0x8f)
    1840                            .dwattr $C$DW$T$38, DW_AT_decl_column(0x10)
    1841                            .dwendtag $C$DW$T$38
    1842                    
    1843                    $C$DW$T$55      .dwtag  DW_TAG_typedef
    1844                            .dwattr $C$DW$T$55, DW_AT_name("MemoryRegion_t")
    1845                            .dwattr $C$DW$T$55, DW_AT_type(*$C$DW$T$38)
    1846                            .dwattr $C$DW$T$55, DW_AT_language(DW_LANG_C)
    1847                            .dwattr $C$DW$T$55, DW_AT_decl_file("C:/TI_ARM_Tiva_Projects/Source/include/task.h")
    1848                            .dwattr $C$DW$T$55, DW_AT_decl_line(0x94)
    1849                            .dwattr $C$DW$T$55, DW_AT_decl_column(0x03)
    1850                    
    1851                    
    1852                    $C$DW$T$56      .dwtag  DW_TAG_array_type
    1853                            .dwattr $C$DW$T$56, DW_AT_type(*$C$DW$T$55)
    1854                            .dwattr $C$DW$T$56, DW_AT_language(DW_LANG_C)
    1855                            .dwattr $C$DW$T$56, DW_AT_byte_size(0x0c)
    1856                    $C$DW$79        .dwtag  DW_TAG_subrange_type
    1857                            .dwattr $C$DW$79, DW_AT_upper_bound(0x00)
    1858                    
    1859                            .dwendtag $C$DW$T$56
    1860                    
    1861                    
    1862                    $C$DW$T$39      .dwtag  DW_TAG_structure_type
TI ARM Assembler PC v15.12.1 Tue Oct 18 10:42:39 2016

Tools Copyright (c) 1996-2015 Texas Instruments Incorporated
heap_2.asm                                                           PAGE   35

    1863                            .dwattr $C$DW$T$39, DW_AT_name("xMINI_LIST_ITEM")
    1864                            .dwattr $C$DW$T$39, DW_AT_byte_size(0x0c)
    1865                    $C$DW$80        .dwtag  DW_TAG_member
    1866                            .dwattr $C$DW$80, DW_AT_type(*$C$DW$T$35)
    1867                            .dwattr $C$DW$80, DW_AT_name("xItemValue")
    1868                            .dwattr $C$DW$80, DW_AT_TI_symbol_name("xItemValue")
    1869                            .dwattr $C$DW$80, DW_AT_data_member_location[DW_OP_plus_uconst 0x0]
    1870                            .dwattr $C$DW$80, DW_AT_accessibility(DW_ACCESS_public)
    1871                            .dwattr $C$DW$80, DW_AT_decl_file("C:\TI_ARM_Tiva_Projects\Source\include\list.h")
    1872                            .dwattr $C$DW$80, DW_AT_decl_line(0xc4)
    1873                            .dwattr $C$DW$80, DW_AT_decl_column(0x21)
    1874                    
    1875                    $C$DW$81        .dwtag  DW_TAG_member
    1876                            .dwattr $C$DW$81, DW_AT_type(*$C$DW$T$36)
    1877                            .dwattr $C$DW$81, DW_AT_name("pxNext")
    1878                            .dwattr $C$DW$81, DW_AT_TI_symbol_name("pxNext")
    1879                            .dwattr $C$DW$81, DW_AT_data_member_location[DW_OP_plus_uconst 0x4]
    1880                            .dwattr $C$DW$81, DW_AT_accessibility(DW_ACCESS_public)
    1881                            .dwattr $C$DW$81, DW_AT_decl_file("C:\TI_ARM_Tiva_Projects\Source\include\list.h")
    1882                            .dwattr $C$DW$81, DW_AT_decl_line(0xc5)
    1883                            .dwattr $C$DW$81, DW_AT_decl_column(0x2a)
    1884                    
    1885                    $C$DW$82        .dwtag  DW_TAG_member
    1886                            .dwattr $C$DW$82, DW_AT_type(*$C$DW$T$36)
    1887                            .dwattr $C$DW$82, DW_AT_name("pxPrevious")
    1888                            .dwattr $C$DW$82, DW_AT_TI_symbol_name("pxPrevious")
    1889                            .dwattr $C$DW$82, DW_AT_data_member_location[DW_OP_plus_uconst 0x8]
    1890                            .dwattr $C$DW$82, DW_AT_accessibility(DW_ACCESS_public)
    1891                            .dwattr $C$DW$82, DW_AT_decl_file("C:\TI_ARM_Tiva_Projects\Source\include\list.h")
    1892                            .dwattr $C$DW$82, DW_AT_decl_line(0xc6)
    1893                            .dwattr $C$DW$82, DW_AT_decl_column(0x2a)
    1894                    
    1895                            .dwattr $C$DW$T$39, DW_AT_decl_file("C:\TI_ARM_Tiva_Projects\Source\include\list.h")
    1896                            .dwattr $C$DW$T$39, DW_AT_decl_line(0xc1)
    1897                            .dwattr $C$DW$T$39, DW_AT_decl_column(0x08)
    1898                            .dwendtag $C$DW$T$39
    1899                    
    1900                    $C$DW$T$33      .dwtag  DW_TAG_typedef
    1901                            .dwattr $C$DW$T$33, DW_AT_name("MiniListItem_t")
    1902                            .dwattr $C$DW$T$33, DW_AT_type(*$C$DW$T$39)
    1903                            .dwattr $C$DW$T$33, DW_AT_language(DW_LANG_C)
    1904                            .dwattr $C$DW$T$33, DW_AT_decl_file("C:\TI_ARM_Tiva_Projects\Source\include\list.h")
    1905                            .dwattr $C$DW$T$33, DW_AT_decl_line(0xc8)
    1906                            .dwattr $C$DW$T$33, DW_AT_decl_column(0x20)
    1907                    
    1908                    
    1909                    $C$DW$T$44      .dwtag  DW_TAG_union_type
    1910                            .dwattr $C$DW$T$44, DW_AT_name("xRTOS_HEAP")
    1911                            .dwattr $C$DW$T$44, DW_AT_byte_size(0xc350)
    1912                    $C$DW$83        .dwtag  DW_TAG_member
    1913                            .dwattr $C$DW$83, DW_AT_type(*$C$DW$T$42)
    1914                            .dwattr $C$DW$83, DW_AT_name("dDummy")
    1915                            .dwattr $C$DW$83, DW_AT_TI_symbol_name("dDummy")
    1916                            .dwattr $C$DW$83, DW_AT_data_member_location[DW_OP_plus_uconst 0x0]
    1917                            .dwattr $C$DW$83, DW_AT_accessibility(DW_ACCESS_public)
TI ARM Assembler PC v15.12.1 Tue Oct 18 10:42:39 2016

Tools Copyright (c) 1996-2015 Texas Instruments Incorporated
heap_2.asm                                                           PAGE   36

    1918                            .dwattr $C$DW$83, DW_AT_decl_file("../heap_2.c")
    1919                            .dwattr $C$DW$83, DW_AT_decl_line(0x3a)
    1920                            .dwattr $C$DW$83, DW_AT_decl_column(0x17)
    1921                    
    1922                    $C$DW$84        .dwtag  DW_TAG_member
    1923                            .dwattr $C$DW$84, DW_AT_type(*$C$DW$T$43)
    1924                            .dwattr $C$DW$84, DW_AT_name("ucHeap")
    1925                            .dwattr $C$DW$84, DW_AT_TI_symbol_name("ucHeap")
    1926                            .dwattr $C$DW$84, DW_AT_data_member_location[DW_OP_plus_uconst 0x0]
    1927                            .dwattr $C$DW$84, DW_AT_accessibility(DW_ACCESS_public)
    1928                            .dwattr $C$DW$84, DW_AT_decl_file("../heap_2.c")
    1929                            .dwattr $C$DW$84, DW_AT_decl_line(0x3e)
    1930                            .dwattr $C$DW$84, DW_AT_decl_column(0x10)
    1931                    
    1932                            .dwattr $C$DW$T$44, DW_AT_decl_file("../heap_2.c")
    1933                            .dwattr $C$DW$T$44, DW_AT_decl_line(0x37)
    1934                            .dwattr $C$DW$T$44, DW_AT_decl_column(0x0e)
    1935                            .dwendtag $C$DW$T$44
    1936                    
    1937                    
    1938                    $C$DW$T$57      .dwtag  DW_TAG_structure_type
    1939                            .dwattr $C$DW$T$57, DW_AT_name("xTASK_PARAMETERS")
    1940                            .dwattr $C$DW$T$57, DW_AT_byte_size(0x24)
    1941                    $C$DW$85        .dwtag  DW_TAG_member
    1942                            .dwattr $C$DW$85, DW_AT_type(*$C$DW$T$47)
    1943                            .dwattr $C$DW$85, DW_AT_name("pvTaskCode")
    1944                            .dwattr $C$DW$85, DW_AT_TI_symbol_name("pvTaskCode")
    1945                            .dwattr $C$DW$85, DW_AT_data_member_location[DW_OP_plus_uconst 0x0]
    1946                            .dwattr $C$DW$85, DW_AT_accessibility(DW_ACCESS_public)
    1947                            .dwattr $C$DW$85, DW_AT_decl_file("C:/TI_ARM_Tiva_Projects/Source/include/task.h")
    1948                            .dwattr $C$DW$85, DW_AT_decl_line(0x9b)
    1949                            .dwattr $C$DW$85, DW_AT_decl_column(0x11)
    1950                    
    1951                    $C$DW$86        .dwtag  DW_TAG_member
    1952                            .dwattr $C$DW$86, DW_AT_type(*$C$DW$T$51)
    1953                            .dwattr $C$DW$86, DW_AT_name("pcName")
    1954                            .dwattr $C$DW$86, DW_AT_TI_symbol_name("pcName")
    1955                            .dwattr $C$DW$86, DW_AT_data_member_location[DW_OP_plus_uconst 0x4]
    1956                            .dwattr $C$DW$86, DW_AT_accessibility(DW_ACCESS_public)
    1957                            .dwattr $C$DW$86, DW_AT_decl_file("C:/TI_ARM_Tiva_Projects/Source/include/task.h")
    1958                            .dwattr $C$DW$86, DW_AT_decl_line(0x9c)
    1959                            .dwattr $C$DW$86, DW_AT_decl_column(0x15)
    1960                    
    1961                    $C$DW$87        .dwtag  DW_TAG_member
    1962                            .dwattr $C$DW$87, DW_AT_type(*$C$DW$T$52)
    1963                            .dwattr $C$DW$87, DW_AT_name("usStackDepth")
    1964                            .dwattr $C$DW$87, DW_AT_TI_symbol_name("usStackDepth")
    1965                            .dwattr $C$DW$87, DW_AT_data_member_location[DW_OP_plus_uconst 0x8]
    1966                            .dwattr $C$DW$87, DW_AT_accessibility(DW_ACCESS_public)
    1967                            .dwattr $C$DW$87, DW_AT_decl_file("C:/TI_ARM_Tiva_Projects/Source/include/task.h")
    1968                            .dwattr $C$DW$87, DW_AT_decl_line(0x9d)
    1969                            .dwattr $C$DW$87, DW_AT_decl_column(0x0b)
    1970                    
    1971                    $C$DW$88        .dwtag  DW_TAG_member
    1972                            .dwattr $C$DW$88, DW_AT_type(*$C$DW$T$3)
TI ARM Assembler PC v15.12.1 Tue Oct 18 10:42:39 2016

Tools Copyright (c) 1996-2015 Texas Instruments Incorporated
heap_2.asm                                                           PAGE   37

    1973                            .dwattr $C$DW$88, DW_AT_name("pvParameters")
    1974                            .dwattr $C$DW$88, DW_AT_TI_symbol_name("pvParameters")
    1975                            .dwattr $C$DW$88, DW_AT_data_member_location[DW_OP_plus_uconst 0xc]
    1976                            .dwattr $C$DW$88, DW_AT_accessibility(DW_ACCESS_public)
    1977                            .dwattr $C$DW$88, DW_AT_decl_file("C:/TI_ARM_Tiva_Projects/Source/include/task.h")
    1978                            .dwattr $C$DW$88, DW_AT_decl_line(0x9e)
    1979                            .dwattr $C$DW$88, DW_AT_decl_column(0x08)
    1980                    
    1981                    $C$DW$89        .dwtag  DW_TAG_member
    1982                            .dwattr $C$DW$89, DW_AT_type(*$C$DW$T$30)
    1983                            .dwattr $C$DW$89, DW_AT_name("uxPriority")
    1984                            .dwattr $C$DW$89, DW_AT_TI_symbol_name("uxPriority")
    1985                            .dwattr $C$DW$89, DW_AT_data_member_location[DW_OP_plus_uconst 0x10]
    1986                            .dwattr $C$DW$89, DW_AT_accessibility(DW_ACCESS_public)
    1987                            .dwattr $C$DW$89, DW_AT_decl_file("C:/TI_ARM_Tiva_Projects/Source/include/task.h")
    1988                            .dwattr $C$DW$89, DW_AT_decl_line(0x9f)
    1989                            .dwattr $C$DW$89, DW_AT_decl_column(0x0e)
    1990                    
    1991                    $C$DW$90        .dwtag  DW_TAG_member
    1992                            .dwattr $C$DW$90, DW_AT_type(*$C$DW$T$54)
    1993                            .dwattr $C$DW$90, DW_AT_name("puxStackBuffer")
    1994                            .dwattr $C$DW$90, DW_AT_TI_symbol_name("puxStackBuffer")
    1995                            .dwattr $C$DW$90, DW_AT_data_member_location[DW_OP_plus_uconst 0x14]
    1996                            .dwattr $C$DW$90, DW_AT_accessibility(DW_ACCESS_public)
    1997                            .dwattr $C$DW$90, DW_AT_decl_file("C:/TI_ARM_Tiva_Projects/Source/include/task.h")
    1998                            .dwattr $C$DW$90, DW_AT_decl_line(0xa0)
    1999                            .dwattr $C$DW$90, DW_AT_decl_column(0x0f)
    2000                    
    2001                    $C$DW$91        .dwtag  DW_TAG_member
    2002                            .dwattr $C$DW$91, DW_AT_type(*$C$DW$T$56)
    2003                            .dwattr $C$DW$91, DW_AT_name("xRegions")
    2004                            .dwattr $C$DW$91, DW_AT_TI_symbol_name("xRegions")
    2005                            .dwattr $C$DW$91, DW_AT_data_member_location[DW_OP_plus_uconst 0x18]
    2006                            .dwattr $C$DW$91, DW_AT_accessibility(DW_ACCESS_public)
    2007                            .dwattr $C$DW$91, DW_AT_decl_file("C:/TI_ARM_Tiva_Projects/Source/include/task.h")
    2008                            .dwattr $C$DW$91, DW_AT_decl_line(0xa1)
    2009                            .dwattr $C$DW$91, DW_AT_decl_column(0x11)
    2010                    
    2011                            .dwattr $C$DW$T$57, DW_AT_decl_file("C:/TI_ARM_Tiva_Projects/Source/include/task.h")
    2012                            .dwattr $C$DW$T$57, DW_AT_decl_line(0x99)
    2013                            .dwattr $C$DW$T$57, DW_AT_decl_column(0x10)
    2014                            .dwendtag $C$DW$T$57
    2015                    
    2016                    $C$DW$T$125     .dwtag  DW_TAG_typedef
    2017                            .dwattr $C$DW$T$125, DW_AT_name("TaskParameters_t")
    2018                            .dwattr $C$DW$T$125, DW_AT_type(*$C$DW$T$57)
    2019                            .dwattr $C$DW$T$125, DW_AT_language(DW_LANG_C)
    2020                            .dwattr $C$DW$T$125, DW_AT_decl_file("C:/TI_ARM_Tiva_Projects/Source/include/task.h")
    2021                            .dwattr $C$DW$T$125, DW_AT_decl_line(0xa2)
    2022                            .dwattr $C$DW$T$125, DW_AT_decl_column(0x03)
    2023                    
    2024                    
    2025                    $C$DW$T$61      .dwtag  DW_TAG_structure_type
    2026                            .dwattr $C$DW$T$61, DW_AT_name("xTASK_STATUS")
    2027                            .dwattr $C$DW$T$61, DW_AT_byte_size(0x20)
TI ARM Assembler PC v15.12.1 Tue Oct 18 10:42:39 2016

Tools Copyright (c) 1996-2015 Texas Instruments Incorporated
heap_2.asm                                                           PAGE   38

    2028                    $C$DW$92        .dwtag  DW_TAG_member
    2029                            .dwattr $C$DW$92, DW_AT_type(*$C$DW$T$58)
    2030                            .dwattr $C$DW$92, DW_AT_name("xHandle")
    2031                            .dwattr $C$DW$92, DW_AT_TI_symbol_name("xHandle")
    2032                            .dwattr $C$DW$92, DW_AT_data_member_location[DW_OP_plus_uconst 0x0]
    2033                            .dwattr $C$DW$92, DW_AT_accessibility(DW_ACCESS_public)
    2034                            .dwattr $C$DW$92, DW_AT_decl_file("C:/TI_ARM_Tiva_Projects/Source/include/task.h")
    2035                            .dwattr $C$DW$92, DW_AT_decl_line(0xa8)
    2036                            .dwattr $C$DW$92, DW_AT_decl_column(0x0f)
    2037                    
    2038                    $C$DW$93        .dwtag  DW_TAG_member
    2039                            .dwattr $C$DW$93, DW_AT_type(*$C$DW$T$50)
    2040                            .dwattr $C$DW$93, DW_AT_name("pcTaskName")
    2041                            .dwattr $C$DW$93, DW_AT_TI_symbol_name("pcTaskName")
    2042                            .dwattr $C$DW$93, DW_AT_data_member_location[DW_OP_plus_uconst 0x4]
    2043                            .dwattr $C$DW$93, DW_AT_accessibility(DW_ACCESS_public)
    2044                            .dwattr $C$DW$93, DW_AT_decl_file("C:/TI_ARM_Tiva_Projects/Source/include/task.h")
    2045                            .dwattr $C$DW$93, DW_AT_decl_line(0xa9)
    2046                            .dwattr $C$DW$93, DW_AT_decl_column(0x0e)
    2047                    
    2048                    $C$DW$94        .dwtag  DW_TAG_member
    2049                            .dwattr $C$DW$94, DW_AT_type(*$C$DW$T$30)
    2050                            .dwattr $C$DW$94, DW_AT_name("xTaskNumber")
    2051                            .dwattr $C$DW$94, DW_AT_TI_symbol_name("xTaskNumber")
    2052                            .dwattr $C$DW$94, DW_AT_data_member_location[DW_OP_plus_uconst 0x8]
    2053                            .dwattr $C$DW$94, DW_AT_accessibility(DW_ACCESS_public)
    2054                            .dwattr $C$DW$94, DW_AT_decl_file("C:/TI_ARM_Tiva_Projects/Source/include/task.h")
    2055                            .dwattr $C$DW$94, DW_AT_decl_line(0xaa)
    2056                            .dwattr $C$DW$94, DW_AT_decl_column(0x0e)
    2057                    
    2058                    $C$DW$95        .dwtag  DW_TAG_member
    2059                            .dwattr $C$DW$95, DW_AT_type(*$C$DW$T$60)
    2060                            .dwattr $C$DW$95, DW_AT_name("eCurrentState")
    2061                            .dwattr $C$DW$95, DW_AT_TI_symbol_name("eCurrentState")
    2062                            .dwattr $C$DW$95, DW_AT_data_member_location[DW_OP_plus_uconst 0xc]
    2063                            .dwattr $C$DW$95, DW_AT_accessibility(DW_ACCESS_public)
    2064                            .dwattr $C$DW$95, DW_AT_decl_file("C:/TI_ARM_Tiva_Projects/Source/include/task.h")
    2065                            .dwattr $C$DW$95, DW_AT_decl_line(0xab)
    2066                            .dwattr $C$DW$95, DW_AT_decl_column(0x0d)
    2067                    
    2068                    $C$DW$96        .dwtag  DW_TAG_member
    2069                            .dwattr $C$DW$96, DW_AT_type(*$C$DW$T$30)
    2070                            .dwattr $C$DW$96, DW_AT_name("uxCurrentPriority")
    2071                            .dwattr $C$DW$96, DW_AT_TI_symbol_name("uxCurrentPriority")
    2072                            .dwattr $C$DW$96, DW_AT_data_member_location[DW_OP_plus_uconst 0x10]
    2073                            .dwattr $C$DW$96, DW_AT_accessibility(DW_ACCESS_public)
    2074                            .dwattr $C$DW$96, DW_AT_decl_file("C:/TI_ARM_Tiva_Projects/Source/include/task.h")
    2075                            .dwattr $C$DW$96, DW_AT_decl_line(0xac)
    2076                            .dwattr $C$DW$96, DW_AT_decl_column(0x0e)
    2077                    
    2078                    $C$DW$97        .dwtag  DW_TAG_member
    2079                            .dwattr $C$DW$97, DW_AT_type(*$C$DW$T$30)
    2080                            .dwattr $C$DW$97, DW_AT_name("uxBasePriority")
    2081                            .dwattr $C$DW$97, DW_AT_TI_symbol_name("uxBasePriority")
    2082                            .dwattr $C$DW$97, DW_AT_data_member_location[DW_OP_plus_uconst 0x14]
TI ARM Assembler PC v15.12.1 Tue Oct 18 10:42:39 2016

Tools Copyright (c) 1996-2015 Texas Instruments Incorporated
heap_2.asm                                                           PAGE   39

    2083                            .dwattr $C$DW$97, DW_AT_accessibility(DW_ACCESS_public)
    2084                            .dwattr $C$DW$97, DW_AT_decl_file("C:/TI_ARM_Tiva_Projects/Source/include/task.h")
    2085                            .dwattr $C$DW$97, DW_AT_decl_line(0xad)
    2086                            .dwattr $C$DW$97, DW_AT_decl_column(0x0e)
    2087                    
    2088                    $C$DW$98        .dwtag  DW_TAG_member
    2089                            .dwattr $C$DW$98, DW_AT_type(*$C$DW$T$29)
    2090                            .dwattr $C$DW$98, DW_AT_name("ulRunTimeCounter")
    2091                            .dwattr $C$DW$98, DW_AT_TI_symbol_name("ulRunTimeCounter")
    2092                            .dwattr $C$DW$98, DW_AT_data_member_location[DW_OP_plus_uconst 0x18]
    2093                            .dwattr $C$DW$98, DW_AT_accessibility(DW_ACCESS_public)
    2094                            .dwattr $C$DW$98, DW_AT_decl_file("C:/TI_ARM_Tiva_Projects/Source/include/task.h")
    2095                            .dwattr $C$DW$98, DW_AT_decl_line(0xae)
    2096                            .dwattr $C$DW$98, DW_AT_decl_column(0x0b)
    2097                    
    2098                    $C$DW$99        .dwtag  DW_TAG_member
    2099                            .dwattr $C$DW$99, DW_AT_type(*$C$DW$T$52)
    2100                            .dwattr $C$DW$99, DW_AT_name("usStackHighWaterMark")
    2101                            .dwattr $C$DW$99, DW_AT_TI_symbol_name("usStackHighWaterMark")
    2102                            .dwattr $C$DW$99, DW_AT_data_member_location[DW_OP_plus_uconst 0x1c]
    2103                            .dwattr $C$DW$99, DW_AT_accessibility(DW_ACCESS_public)
    2104                            .dwattr $C$DW$99, DW_AT_decl_file("C:/TI_ARM_Tiva_Projects/Source/include/task.h")
    2105                            .dwattr $C$DW$99, DW_AT_decl_line(0xaf)
    2106                            .dwattr $C$DW$99, DW_AT_decl_column(0x0b)
    2107                    
    2108                            .dwattr $C$DW$T$61, DW_AT_decl_file("C:/TI_ARM_Tiva_Projects/Source/include/task.h")
    2109                            .dwattr $C$DW$T$61, DW_AT_decl_line(0xa6)
    2110                            .dwattr $C$DW$T$61, DW_AT_decl_column(0x10)
    2111                            .dwendtag $C$DW$T$61
    2112                    
    2113                    $C$DW$T$126     .dwtag  DW_TAG_typedef
    2114                            .dwattr $C$DW$T$126, DW_AT_name("TaskStatus_t")
    2115                            .dwattr $C$DW$T$126, DW_AT_type(*$C$DW$T$61)
    2116                            .dwattr $C$DW$T$126, DW_AT_language(DW_LANG_C)
    2117                            .dwattr $C$DW$T$126, DW_AT_decl_file("C:/TI_ARM_Tiva_Projects/Source/include/task.h")
    2118                            .dwattr $C$DW$T$126, DW_AT_decl_line(0xb0)
    2119                            .dwattr $C$DW$T$126, DW_AT_decl_column(0x03)
    2120                    
    2121                    
    2122                    $C$DW$T$64      .dwtag  DW_TAG_structure_type
    2123                            .dwattr $C$DW$T$64, DW_AT_name("xTIME_OUT")
    2124                            .dwattr $C$DW$T$64, DW_AT_byte_size(0x08)
    2125                    $C$DW$100       .dwtag  DW_TAG_member
    2126                            .dwattr $C$DW$100, DW_AT_type(*$C$DW$T$63)
    2127                            .dwattr $C$DW$100, DW_AT_name("xOverflowCount")
    2128                            .dwattr $C$DW$100, DW_AT_TI_symbol_name("xOverflowCount")
    2129                            .dwattr $C$DW$100, DW_AT_data_member_location[DW_OP_plus_uconst 0x0]
    2130                            .dwattr $C$DW$100, DW_AT_accessibility(DW_ACCESS_public)
    2131                            .dwattr $C$DW$100, DW_AT_decl_file("C:/TI_ARM_Tiva_Projects/Source/include/task.h")
    2132                            .dwattr $C$DW$100, DW_AT_decl_line(0x88)
    2133                            .dwattr $C$DW$100, DW_AT_decl_column(0x0d)
    2134                    
    2135                    $C$DW$101       .dwtag  DW_TAG_member
    2136                            .dwattr $C$DW$101, DW_AT_type(*$C$DW$T$35)
    2137                            .dwattr $C$DW$101, DW_AT_name("xTimeOnEntering")
TI ARM Assembler PC v15.12.1 Tue Oct 18 10:42:39 2016

Tools Copyright (c) 1996-2015 Texas Instruments Incorporated
heap_2.asm                                                           PAGE   40

    2138                            .dwattr $C$DW$101, DW_AT_TI_symbol_name("xTimeOnEntering")
    2139                            .dwattr $C$DW$101, DW_AT_data_member_location[DW_OP_plus_uconst 0x4]
    2140                            .dwattr $C$DW$101, DW_AT_accessibility(DW_ACCESS_public)
    2141                            .dwattr $C$DW$101, DW_AT_decl_file("C:/TI_ARM_Tiva_Projects/Source/include/task.h")
    2142                            .dwattr $C$DW$101, DW_AT_decl_line(0x89)
    2143                            .dwattr $C$DW$101, DW_AT_decl_column(0x0d)
    2144                    
    2145                            .dwattr $C$DW$T$64, DW_AT_decl_file("C:/TI_ARM_Tiva_Projects/Source/include/task.h")
    2146                            .dwattr $C$DW$T$64, DW_AT_decl_line(0x86)
    2147                            .dwattr $C$DW$T$64, DW_AT_decl_column(0x10)
    2148                            .dwendtag $C$DW$T$64
    2149                    
    2150                    $C$DW$T$127     .dwtag  DW_TAG_typedef
    2151                            .dwattr $C$DW$T$127, DW_AT_name("TimeOut_t")
    2152                            .dwattr $C$DW$T$127, DW_AT_type(*$C$DW$T$64)
    2153                            .dwattr $C$DW$T$127, DW_AT_language(DW_LANG_C)
    2154                            .dwattr $C$DW$T$127, DW_AT_decl_file("C:/TI_ARM_Tiva_Projects/Source/include/task.h")
    2155                            .dwattr $C$DW$T$127, DW_AT_decl_line(0x8a)
    2156                            .dwattr $C$DW$T$127, DW_AT_decl_column(0x03)
    2157                    
    2158                            .dwattr $C$DW$CU, DW_AT_language(DW_LANG_C)
    2159                    
    2160                    ;***************************************************************
    2161                    ;* DWARF CIE ENTRIES                                           *
    2162                    ;***************************************************************
    2163                    
    2164                    $C$DW$CIE       .dwcie 14
    2165                            .dwcfi  cfa_register, 13
    2166                            .dwcfi  cfa_offset, 0
    2167                            .dwcfi  undefined, 0
    2168                            .dwcfi  undefined, 1
    2169                            .dwcfi  undefined, 2
    2170                            .dwcfi  undefined, 3
    2171                            .dwcfi  same_value, 4
    2172                            .dwcfi  same_value, 5
    2173                            .dwcfi  same_value, 6
    2174                            .dwcfi  same_value, 7
    2175                            .dwcfi  same_value, 8
    2176                            .dwcfi  same_value, 9
    2177                            .dwcfi  same_value, 10
    2178                            .dwcfi  same_value, 11
    2179                            .dwcfi  undefined, 12
    2180                            .dwcfi  undefined, 13
    2181                            .dwcfi  undefined, 14
    2182                            .dwcfi  undefined, 14
    2183                            .dwcfi  undefined, 7
    2184                            .dwcfi  undefined, 64
    2185                            .dwcfi  undefined, 65
    2186                            .dwcfi  undefined, 66
    2187                            .dwcfi  undefined, 67
    2188                            .dwcfi  undefined, 68
    2189                            .dwcfi  undefined, 69
    2190                            .dwcfi  undefined, 70
    2191                            .dwcfi  undefined, 71
    2192                            .dwcfi  undefined, 72
TI ARM Assembler PC v15.12.1 Tue Oct 18 10:42:39 2016

Tools Copyright (c) 1996-2015 Texas Instruments Incorporated
heap_2.asm                                                           PAGE   41

    2193                            .dwcfi  undefined, 73
    2194                            .dwcfi  undefined, 74
    2195                            .dwcfi  undefined, 75
    2196                            .dwcfi  undefined, 76
    2197                            .dwcfi  undefined, 77
    2198                            .dwcfi  undefined, 78
    2199                            .dwcfi  undefined, 79
    2200                            .dwcfi  same_value, 80
    2201                            .dwcfi  same_value, 81
    2202                            .dwcfi  same_value, 82
    2203                            .dwcfi  same_value, 83
    2204                            .dwcfi  same_value, 84
    2205                            .dwcfi  same_value, 85
    2206                            .dwcfi  same_value, 86
    2207                            .dwcfi  same_value, 87
    2208                            .dwcfi  same_value, 88
    2209                            .dwcfi  same_value, 89
    2210                            .dwcfi  same_value, 90
    2211                            .dwcfi  same_value, 91
    2212                            .dwcfi  same_value, 92
    2213                            .dwcfi  same_value, 93
    2214                            .dwcfi  same_value, 94
    2215                            .dwcfi  same_value, 95
    2216                            .dwendentry
    2217                            .dwendtag $C$DW$CU
    2218                    

--------------------------
Thumb2 Statistics
--------------------------
Number of Thumb2 ins converted to Thumb = 0 (0%)
Number of Thumb ins in input = 188 (94%)
Number of Thumb2 ins encoded as Thumb2 = 12 (100%)
Number of Thumb2 ins converted to 2 OPND Thumb = 3


No Assembly Errors, No Assembly Warnings
