TI ARM Assembler PC v15.12.1 Thu Dec 01 13:25:52 2016

Tools Copyright (c) 1996-2015 Texas Instruments Incorporated
Magnetometer.asm                                                     PAGE    1

       1                    ;******************************************************************************
       2                    ;* TI ARM C/C++ Codegen                                       PC v15.12.1.LTS *
       3                    ;* Date/Time created: Thu Dec 01 13:25:52 2016                                *
       4                    ;******************************************************************************
       5                            .compiler_opts --abi=eabi --arm_vmrs_si_workaround=off --code_state=16 --diag_wrap=off --disab
       6 00000000                   .thumb
       7                    
       8                    $C$DW$CU        .dwtag  DW_TAG_compile_unit
       9                            .dwattr $C$DW$CU, DW_AT_name("../Tasks/Magnetometer.c")
      10                            .dwattr $C$DW$CU, DW_AT_producer("TI TI ARM C/C++ Codegen PC v15.12.1.LTS Copyright (c) 1996-2
      11                            .dwattr $C$DW$CU, DW_AT_TI_version(0x01)
      12                            .dwattr $C$DW$CU, DW_AT_comp_dir("C:\TI_ARM_Tiva_Projects\Proj2_Magnetometer\Debug")
      13                    
      14                    $C$DW$1 .dwtag  DW_TAG_subprogram
      15                            .dwattr $C$DW$1, DW_AT_name("vTaskDelay")
      16                            .dwattr $C$DW$1, DW_AT_TI_symbol_name("vTaskDelay")
      17                            .dwattr $C$DW$1, DW_AT_declaration
      18                            .dwattr $C$DW$1, DW_AT_external
      19                            .dwattr $C$DW$1, DW_AT_decl_file("C:/TI_ARM_Tiva_Projects/Source/include/task.h")
      20                            .dwattr $C$DW$1, DW_AT_decl_line(0x22b)
      21                            .dwattr $C$DW$1, DW_AT_decl_column(0x06)
      22                    $C$DW$2 .dwtag  DW_TAG_formal_parameter
      23                            .dwattr $C$DW$2, DW_AT_type(*$C$DW$T$106)
      24                    
      25                            .dwendtag $C$DW$1
      26                    
      27                    
      28                    $C$DW$3 .dwtag  DW_TAG_subprogram
      29                            .dwattr $C$DW$3, DW_AT_name("UARTprintf")
      30                            .dwattr $C$DW$3, DW_AT_TI_symbol_name("UARTprintf")
      31                            .dwattr $C$DW$3, DW_AT_declaration
      32                            .dwattr $C$DW$3, DW_AT_external
      33                            .dwattr $C$DW$3, DW_AT_decl_file("C:/TI_ARM_Tiva_Projects/Proj2_Magnetometer/Drivers/uartstdio
      34                            .dwattr $C$DW$3, DW_AT_decl_line(0x41)
      35                            .dwattr $C$DW$3, DW_AT_decl_column(0x0d)
      36                    $C$DW$4 .dwtag  DW_TAG_formal_parameter
      37                            .dwattr $C$DW$4, DW_AT_type(*$C$DW$T$73)
      38                    
      39                    $C$DW$5 .dwtag  DW_TAG_unspecified_parameters
      40                    
      41                            .dwendtag $C$DW$3
      42                    
      43                    
      44                    $C$DW$6 .dwtag  DW_TAG_subprogram
      45                            .dwattr $C$DW$6, DW_AT_name("I2CMCommand")
      46                            .dwattr $C$DW$6, DW_AT_TI_symbol_name("I2CMCommand")
      47                            .dwattr $C$DW$6, DW_AT_type(*$C$DW$T$25)
      48                            .dwattr $C$DW$6, DW_AT_declaration
      49                            .dwattr $C$DW$6, DW_AT_external
      50                            .dwattr $C$DW$6, DW_AT_decl_file("C:/TI_CodeComposer/TivaWare/sensorlib/i2cm_drv.h")
      51                            .dwattr $C$DW$6, DW_AT_decl_line(0x196)
      52                            .dwattr $C$DW$6, DW_AT_decl_column(0x15)
      53                    $C$DW$7 .dwtag  DW_TAG_formal_parameter
      54                            .dwattr $C$DW$7, DW_AT_type(*$C$DW$T$34)
      55                    
TI ARM Assembler PC v15.12.1 Thu Dec 01 13:25:52 2016

Tools Copyright (c) 1996-2015 Texas Instruments Incorporated
Magnetometer.asm                                                     PAGE    2

      56                    $C$DW$8 .dwtag  DW_TAG_formal_parameter
      57                            .dwattr $C$DW$8, DW_AT_type(*$C$DW$T$25)
      58                    
      59                    $C$DW$9 .dwtag  DW_TAG_formal_parameter
      60                            .dwattr $C$DW$9, DW_AT_type(*$C$DW$T$21)
      61                    
      62                    $C$DW$10        .dwtag  DW_TAG_formal_parameter
      63                            .dwattr $C$DW$10, DW_AT_type(*$C$DW$T$145)
      64                    
      65                    $C$DW$11        .dwtag  DW_TAG_formal_parameter
      66                            .dwattr $C$DW$11, DW_AT_type(*$C$DW$T$145)
      67                    
      68                    $C$DW$12        .dwtag  DW_TAG_formal_parameter
      69                            .dwattr $C$DW$12, DW_AT_type(*$C$DW$T$23)
      70                    
      71                    $C$DW$13        .dwtag  DW_TAG_formal_parameter
      72                            .dwattr $C$DW$13, DW_AT_type(*$C$DW$T$145)
      73                    
      74                    $C$DW$14        .dwtag  DW_TAG_formal_parameter
      75                            .dwattr $C$DW$14, DW_AT_type(*$C$DW$T$145)
      76                    
      77                    $C$DW$15        .dwtag  DW_TAG_formal_parameter
      78                            .dwattr $C$DW$15, DW_AT_type(*$C$DW$T$28)
      79                    
      80                    $C$DW$16        .dwtag  DW_TAG_formal_parameter
      81                            .dwattr $C$DW$16, DW_AT_type(*$C$DW$T$3)
      82                    
      83                            .dwendtag $C$DW$6
      84                    
      85                    
      86                    $C$DW$17        .dwtag  DW_TAG_subprogram
      87                            .dwattr $C$DW$17, DW_AT_name("I2CMReadModifyWrite16LE")
      88                            .dwattr $C$DW$17, DW_AT_TI_symbol_name("I2CMReadModifyWrite16LE")
      89                            .dwattr $C$DW$17, DW_AT_type(*$C$DW$T$25)
      90                            .dwattr $C$DW$17, DW_AT_declaration
      91                            .dwattr $C$DW$17, DW_AT_external
      92                            .dwattr $C$DW$17, DW_AT_decl_file("C:/TI_CodeComposer/TivaWare/sensorlib/i2cm_drv.h")
      93                            .dwattr $C$DW$17, DW_AT_decl_line(0x1a9)
      94                            .dwattr $C$DW$17, DW_AT_decl_column(0x15)
      95                    $C$DW$18        .dwtag  DW_TAG_formal_parameter
      96                            .dwattr $C$DW$18, DW_AT_type(*$C$DW$T$92)
      97                    
      98                    $C$DW$19        .dwtag  DW_TAG_formal_parameter
      99                            .dwattr $C$DW$19, DW_AT_type(*$C$DW$T$34)
     100                    
     101                    $C$DW$20        .dwtag  DW_TAG_formal_parameter
     102                            .dwattr $C$DW$20, DW_AT_type(*$C$DW$T$25)
     103                    
     104                    $C$DW$21        .dwtag  DW_TAG_formal_parameter
     105                            .dwattr $C$DW$21, DW_AT_type(*$C$DW$T$25)
     106                    
     107                    $C$DW$22        .dwtag  DW_TAG_formal_parameter
     108                            .dwattr $C$DW$22, DW_AT_type(*$C$DW$T$145)
     109                    
     110                    $C$DW$23        .dwtag  DW_TAG_formal_parameter
TI ARM Assembler PC v15.12.1 Thu Dec 01 13:25:52 2016

Tools Copyright (c) 1996-2015 Texas Instruments Incorporated
Magnetometer.asm                                                     PAGE    3

     111                            .dwattr $C$DW$23, DW_AT_type(*$C$DW$T$145)
     112                    
     113                    $C$DW$24        .dwtag  DW_TAG_formal_parameter
     114                            .dwattr $C$DW$24, DW_AT_type(*$C$DW$T$28)
     115                    
     116                    $C$DW$25        .dwtag  DW_TAG_formal_parameter
     117                            .dwattr $C$DW$25, DW_AT_type(*$C$DW$T$3)
     118                    
     119                            .dwendtag $C$DW$17
     120                    
     121                    
     122                    $C$DW$26        .dwtag  DW_TAG_subprogram
     123                            .dwattr $C$DW$26, DW_AT_name("I2C7_Initialization")
     124                            .dwattr $C$DW$26, DW_AT_TI_symbol_name("I2C7_Initialization")
     125                            .dwattr $C$DW$26, DW_AT_type(*$C$DW$T$24)
     126                            .dwattr $C$DW$26, DW_AT_declaration
     127                            .dwattr $C$DW$26, DW_AT_external
     128                            .dwattr $C$DW$26, DW_AT_decl_file("..\Tasks\Task_I2C7_Handler.h")
     129                            .dwattr $C$DW$26, DW_AT_decl_line(0x17)
     130                            .dwattr $C$DW$26, DW_AT_decl_column(0x11)
     131                            .dwendtag $C$DW$26
     132                    
     133                    
     134                    $C$DW$27        .dwtag  DW_TAG_subprogram
     135                            .dwattr $C$DW$27, DW_AT_name("MPU9150Init")
     136                            .dwattr $C$DW$27, DW_AT_TI_symbol_name("MPU9150Init")
     137                            .dwattr $C$DW$27, DW_AT_type(*$C$DW$T$25)
     138                            .dwattr $C$DW$27, DW_AT_declaration
     139                            .dwattr $C$DW$27, DW_AT_external
     140                            .dwattr $C$DW$27, DW_AT_decl_file("C:/TI_CodeComposer/TivaWare/sensorlib/mpu9150.h")
     141                            .dwattr $C$DW$27, DW_AT_decl_line(0x89)
     142                            .dwattr $C$DW$27, DW_AT_decl_column(0x15)
     143                    $C$DW$28        .dwtag  DW_TAG_formal_parameter
     144                            .dwattr $C$DW$28, DW_AT_type(*$C$DW$T$94)
     145                    
     146                    $C$DW$29        .dwtag  DW_TAG_formal_parameter
     147                            .dwattr $C$DW$29, DW_AT_type(*$C$DW$T$34)
     148                    
     149                    $C$DW$30        .dwtag  DW_TAG_formal_parameter
     150                            .dwattr $C$DW$30, DW_AT_type(*$C$DW$T$25)
     151                    
     152                    $C$DW$31        .dwtag  DW_TAG_formal_parameter
     153                            .dwattr $C$DW$31, DW_AT_type(*$C$DW$T$28)
     154                    
     155                    $C$DW$32        .dwtag  DW_TAG_formal_parameter
     156                            .dwattr $C$DW$32, DW_AT_type(*$C$DW$T$3)
     157                    
     158                            .dwendtag $C$DW$27
     159                    
     160                    
     161                    $C$DW$33        .dwtag  DW_TAG_subprogram
     162                            .dwattr $C$DW$33, DW_AT_name("MPU9150DataRead")
     163                            .dwattr $C$DW$33, DW_AT_TI_symbol_name("MPU9150DataRead")
     164                            .dwattr $C$DW$33, DW_AT_type(*$C$DW$T$25)
     165                            .dwattr $C$DW$33, DW_AT_declaration
TI ARM Assembler PC v15.12.1 Thu Dec 01 13:25:52 2016

Tools Copyright (c) 1996-2015 Texas Instruments Incorporated
Magnetometer.asm                                                     PAGE    4

     166                            .dwattr $C$DW$33, DW_AT_external
     167                            .dwattr $C$DW$33, DW_AT_decl_file("C:/TI_CodeComposer/TivaWare/sensorlib/mpu9150.h")
     168                            .dwattr $C$DW$33, DW_AT_decl_line(0x9d)
     169                            .dwattr $C$DW$33, DW_AT_decl_column(0x15)
     170                    $C$DW$34        .dwtag  DW_TAG_formal_parameter
     171                            .dwattr $C$DW$34, DW_AT_type(*$C$DW$T$94)
     172                    
     173                    $C$DW$35        .dwtag  DW_TAG_formal_parameter
     174                            .dwattr $C$DW$35, DW_AT_type(*$C$DW$T$28)
     175                    
     176                    $C$DW$36        .dwtag  DW_TAG_formal_parameter
     177                            .dwattr $C$DW$36, DW_AT_type(*$C$DW$T$3)
     178                    
     179                            .dwendtag $C$DW$33
     180                    
     181                    
     182                    $C$DW$37        .dwtag  DW_TAG_subprogram
     183                            .dwattr $C$DW$37, DW_AT_name("MPU9150DataMagnetoGetFloat")
     184                            .dwattr $C$DW$37, DW_AT_TI_symbol_name("MPU9150DataMagnetoGetFloat")
     185                            .dwattr $C$DW$37, DW_AT_declaration
     186                            .dwattr $C$DW$37, DW_AT_external
     187                            .dwattr $C$DW$37, DW_AT_decl_file("C:/TI_CodeComposer/TivaWare/sensorlib/mpu9150.h")
     188                            .dwattr $C$DW$37, DW_AT_decl_line(0xaf)
     189                            .dwattr $C$DW$37, DW_AT_decl_column(0x0d)
     190                    $C$DW$38        .dwtag  DW_TAG_formal_parameter
     191                            .dwattr $C$DW$38, DW_AT_type(*$C$DW$T$94)
     192                    
     193                    $C$DW$39        .dwtag  DW_TAG_formal_parameter
     194                            .dwattr $C$DW$39, DW_AT_type(*$C$DW$T$112)
     195                    
     196                    $C$DW$40        .dwtag  DW_TAG_formal_parameter
     197                            .dwattr $C$DW$40, DW_AT_type(*$C$DW$T$112)
     198                    
     199                    $C$DW$41        .dwtag  DW_TAG_formal_parameter
     200                            .dwattr $C$DW$41, DW_AT_type(*$C$DW$T$112)
     201                    
     202                            .dwendtag $C$DW$37
     203                    
     204                    
     205                    $C$DW$42        .dwtag  DW_TAG_subprogram
     206                            .dwattr $C$DW$42, DW_AT_name("I2C7_IntServiceRoutine")
     207                            .dwattr $C$DW$42, DW_AT_TI_symbol_name("I2C7_IntServiceRoutine")
     208                            .dwattr $C$DW$42, DW_AT_declaration
     209                            .dwattr $C$DW$42, DW_AT_external
     210                            .dwattr $C$DW$42, DW_AT_decl_file("../Tasks/Magnetometer.c")
     211                            .dwattr $C$DW$42, DW_AT_decl_line(0x32)
     212                            .dwattr $C$DW$42, DW_AT_decl_column(0x0d)
     213                            .dwendtag $C$DW$42
     214                    
     215                    
     216                    $C$DW$43        .dwtag  DW_TAG_subprogram
     217                            .dwattr $C$DW$43, DW_AT_name("IntRegister")
     218                            .dwattr $C$DW$43, DW_AT_TI_symbol_name("IntRegister")
     219                            .dwattr $C$DW$43, DW_AT_type(*$C$DW$T$10)
     220                            .dwattr $C$DW$43, DW_AT_declaration
TI ARM Assembler PC v15.12.1 Thu Dec 01 13:25:52 2016

Tools Copyright (c) 1996-2015 Texas Instruments Incorporated
Magnetometer.asm                                                     PAGE    5

     221                            .dwattr $C$DW$43, DW_AT_external
     222                            .dwattr $C$DW$43, DW_AT_decl_file("../Tasks/Magnetometer.c")
     223                            .dwattr $C$DW$43, DW_AT_decl_line(0x3b)
     224                            .dwattr $C$DW$43, DW_AT_decl_column(0x02)
     225                            .dwendtag $C$DW$43
     226                    
     227                    $C$DW$44        .dwtag  DW_TAG_variable
     228                            .dwattr $C$DW$44, DW_AT_name("I2C7_Instance_Ref")
     229                            .dwattr $C$DW$44, DW_AT_TI_symbol_name("I2C7_Instance_Ref")
     230                            .dwattr $C$DW$44, DW_AT_type(*$C$DW$T$34)
     231                            .dwattr $C$DW$44, DW_AT_declaration
     232                            .dwattr $C$DW$44, DW_AT_external
     233                            .dwattr $C$DW$44, DW_AT_decl_file("..\Tasks\Task_I2C7_Handler.h")
     234                            .dwattr $C$DW$44, DW_AT_decl_line(0x1b)
     235                            .dwattr $C$DW$44, DW_AT_decl_column(0x17)
     236                    
     237                    $C$DW$45        .dwtag  DW_TAG_variable
     238                            .dwattr $C$DW$45, DW_AT_name("xPortSysTickCount")
     239                            .dwattr $C$DW$45, DW_AT_TI_symbol_name("xPortSysTickCount")
     240                            .dwattr $C$DW$45, DW_AT_type(*$C$DW$T$144)
     241                            .dwattr $C$DW$45, DW_AT_declaration
     242                            .dwattr $C$DW$45, DW_AT_external
     243                            .dwattr $C$DW$45, DW_AT_decl_file("C:/TI_ARM_Tiva_Projects/Proj2_Magnetometer/Tasks/Task_Repor
     244                            .dwattr $C$DW$45, DW_AT_decl_line(0x12)
     245                            .dwattr $C$DW$45, DW_AT_decl_column(0x1a)
     246                    
     247                    $C$DW$46        .dwtag  DW_TAG_variable
     248                            .dwattr $C$DW$46, DW_AT_name("isMPU9150Initialized")
     249                            .dwattr $C$DW$46, DW_AT_TI_symbol_name("isMPU9150Initialized")
     250                            .dwattr $C$DW$46, DW_AT_type(*$C$DW$T$176)
     251                            .dwattr $C$DW$46, DW_AT_declaration
     252                            .dwattr $C$DW$46, DW_AT_external
     253                            .dwattr $C$DW$46, DW_AT_decl_file("..\Tasks\Magnetometer.h")
     254                            .dwattr $C$DW$46, DW_AT_decl_line(0x0b)
     255                            .dwattr $C$DW$46, DW_AT_decl_column(0x0d)
     256                    
     257                            .global fMagneto
     258                            .common fMagneto,12,4
     259                    $C$DW$47        .dwtag  DW_TAG_variable
     260                            .dwattr $C$DW$47, DW_AT_name("fMagneto")
     261                            .dwattr $C$DW$47, DW_AT_TI_symbol_name("fMagneto")
     262                            .dwattr $C$DW$47, DW_AT_location[DW_OP_addr fMagneto]
     263                            .dwattr $C$DW$47, DW_AT_type(*$C$DW$T$170)
     264                            .dwattr $C$DW$47, DW_AT_external
     265                            .dwattr $C$DW$47, DW_AT_decl_file("../Tasks/Magnetometer.c")
     266                            .dwattr $C$DW$47, DW_AT_decl_line(0x2a)
     267                            .dwattr $C$DW$47, DW_AT_decl_column(0x07)
     268                    
     269                            .global sMPU9150
     270                            .common sMPU9150,108,4
     271                    $C$DW$48        .dwtag  DW_TAG_variable
     272                            .dwattr $C$DW$48, DW_AT_name("sMPU9150")
     273                            .dwattr $C$DW$48, DW_AT_TI_symbol_name("sMPU9150")
     274                            .dwattr $C$DW$48, DW_AT_location[DW_OP_addr sMPU9150]
     275                            .dwattr $C$DW$48, DW_AT_type(*$C$DW$T$93)
TI ARM Assembler PC v15.12.1 Thu Dec 01 13:25:52 2016

Tools Copyright (c) 1996-2015 Texas Instruments Incorporated
Magnetometer.asm                                                     PAGE    6

     276                            .dwattr $C$DW$48, DW_AT_external
     277                            .dwattr $C$DW$48, DW_AT_decl_file("../Tasks/Magnetometer.c")
     278                            .dwattr $C$DW$48, DW_AT_decl_line(0x2b)
     279                            .dwattr $C$DW$48, DW_AT_decl_column(0x0a)
     280                    
     281                            .global g_bMPU9150Done
     282                            .common g_bMPU9150Done,1,1
     283                    $C$DW$49        .dwtag  DW_TAG_variable
     284                            .dwattr $C$DW$49, DW_AT_name("g_bMPU9150Done")
     285                            .dwattr $C$DW$49, DW_AT_TI_symbol_name("g_bMPU9150Done")
     286                            .dwattr $C$DW$49, DW_AT_location[DW_OP_addr g_bMPU9150Done]
     287                            .dwattr $C$DW$49, DW_AT_type(*$C$DW$T$177)
     288                            .dwattr $C$DW$49, DW_AT_external
     289                            .dwattr $C$DW$49, DW_AT_decl_file("../Tasks/Magnetometer.c")
     290                            .dwattr $C$DW$49, DW_AT_decl_line(0x2c)
     291                            .dwattr $C$DW$49, DW_AT_decl_column(0x0f)
     292                    
     293                            .global magnetometerReport
     294                            .common magnetometerReport,24,4
     295                    $C$DW$50        .dwtag  DW_TAG_variable
     296                            .dwattr $C$DW$50, DW_AT_name("magnetometerReport")
     297                            .dwattr $C$DW$50, DW_AT_TI_symbol_name("magnetometerReport")
     298                            .dwattr $C$DW$50, DW_AT_location[DW_OP_addr magnetometerReport]
     299                            .dwattr $C$DW$50, DW_AT_type(*$C$DW$T$99)
     300                            .dwattr $C$DW$50, DW_AT_external
     301                            .dwattr $C$DW$50, DW_AT_decl_file("../Tasks/Magnetometer.c")
     302                            .dwattr $C$DW$50, DW_AT_decl_line(0x2e)
     303                            .dwattr $C$DW$50, DW_AT_decl_column(0x11)
     304                    
     305                    $C$DW$51        .dwtag  DW_TAG_variable
     306                            .dwattr $C$DW$51, DW_AT_name("magnetometerValue")
     307                            .dwattr $C$DW$51, DW_AT_TI_symbol_name("magnetometerValue")
     308                            .dwattr $C$DW$51, DW_AT_type(*$C$DW$T$24)
     309                            .dwattr $C$DW$51, DW_AT_declaration
     310                            .dwattr $C$DW$51, DW_AT_external
     311                            .dwattr $C$DW$51, DW_AT_decl_file("../Tasks/Magnetometer.c")
     312                            .dwattr $C$DW$51, DW_AT_decl_line(0x2f)
     313                            .dwattr $C$DW$51, DW_AT_decl_column(0x11)
     314                    
     315                    ;       C:\TI_CodeComposer\ccsv6\tools\compiler\ti-cgt-arm_15.12.1.LTS\bin\armacpia.exe -@C:\\Users\\R
     316 00000000                   .sect   ".text:I2CMWrite"
     317                            .clink
     318                            .thumbfunc I2CMWrite
     319 00000000                   .thumb
     320                            .global I2CMWrite
     321                    
     322                    $C$DW$52        .dwtag  DW_TAG_subprogram
     323                            .dwattr $C$DW$52, DW_AT_name("I2CMWrite")
     324                            .dwattr $C$DW$52, DW_AT_low_pc(I2CMWrite)
     325                            .dwattr $C$DW$52, DW_AT_high_pc(0x00)
     326                            .dwattr $C$DW$52, DW_AT_TI_symbol_name("I2CMWrite")
     327                            .dwattr $C$DW$52, DW_AT_external
     328                            .dwattr $C$DW$52, DW_AT_type(*$C$DW$T$25)
     329                            .dwattr $C$DW$52, DW_AT_TI_begin_file("C:/TI_CodeComposer/TivaWare/sensorlib/i2cm_drv.h")
     330                            .dwattr $C$DW$52, DW_AT_TI_begin_line(0x1cb)
TI ARM Assembler PC v15.12.1 Thu Dec 01 13:25:52 2016

Tools Copyright (c) 1996-2015 Texas Instruments Incorporated
Magnetometer.asm                                                     PAGE    7

     331                            .dwattr $C$DW$52, DW_AT_TI_begin_column(0x01)
     332                            .dwattr $C$DW$52, DW_AT_decl_file("C:/TI_CodeComposer/TivaWare/sensorlib/i2cm_drv.h")
     333                            .dwattr $C$DW$52, DW_AT_decl_line(0x1cb)
     334                            .dwattr $C$DW$52, DW_AT_decl_column(0x01)
     335                            .dwattr $C$DW$52, DW_AT_TI_max_frame_size(0x30)
     336                            .dwpsn  file "C:/TI_CodeComposer/TivaWare/sensorlib/i2cm_drv.h",line 462,column 1,is_stmt,addr
     337                    
     338                            .dwfde $C$DW$CIE, I2CMWrite
     339                    $C$DW$53        .dwtag  DW_TAG_formal_parameter
     340                            .dwattr $C$DW$53, DW_AT_name("psInst")
     341                            .dwattr $C$DW$53, DW_AT_TI_symbol_name("psInst")
     342                            .dwattr $C$DW$53, DW_AT_type(*$C$DW$T$34)
     343                            .dwattr $C$DW$53, DW_AT_location[DW_OP_reg0]
     344                    
     345                    $C$DW$54        .dwtag  DW_TAG_formal_parameter
     346                            .dwattr $C$DW$54, DW_AT_name("ui8Addr")
     347                            .dwattr $C$DW$54, DW_AT_TI_symbol_name("ui8Addr")
     348                            .dwattr $C$DW$54, DW_AT_type(*$C$DW$T$25)
     349                            .dwattr $C$DW$54, DW_AT_location[DW_OP_reg1]
     350                    
     351                    $C$DW$55        .dwtag  DW_TAG_formal_parameter
     352                            .dwattr $C$DW$55, DW_AT_name("pui8Data")
     353                            .dwattr $C$DW$55, DW_AT_TI_symbol_name("pui8Data")
     354                            .dwattr $C$DW$55, DW_AT_type(*$C$DW$T$21)
     355                            .dwattr $C$DW$55, DW_AT_location[DW_OP_reg2]
     356                    
     357                    $C$DW$56        .dwtag  DW_TAG_formal_parameter
     358                            .dwattr $C$DW$56, DW_AT_name("ui16Count")
     359                            .dwattr $C$DW$56, DW_AT_TI_symbol_name("ui16Count")
     360                            .dwattr $C$DW$56, DW_AT_type(*$C$DW$T$145)
     361                            .dwattr $C$DW$56, DW_AT_location[DW_OP_reg3]
     362                    
     363                    $C$DW$57        .dwtag  DW_TAG_formal_parameter
     364                            .dwattr $C$DW$57, DW_AT_name("pfnCallback")
     365                            .dwattr $C$DW$57, DW_AT_TI_symbol_name("pfnCallback")
     366                            .dwattr $C$DW$57, DW_AT_type(*$C$DW$T$28)
     367                            .dwattr $C$DW$57, DW_AT_location[DW_OP_breg13 48]
     368                    
     369                    $C$DW$58        .dwtag  DW_TAG_formal_parameter
     370                            .dwattr $C$DW$58, DW_AT_name("pvCallbackData")
     371                            .dwattr $C$DW$58, DW_AT_TI_symbol_name("pvCallbackData")
     372                            .dwattr $C$DW$58, DW_AT_type(*$C$DW$T$3)
     373                            .dwattr $C$DW$58, DW_AT_location[DW_OP_breg13 52]
     374                    
     375                    
     376                    ;*****************************************************************************
     377                    ;* FUNCTION NAME: I2CMWrite                                                  *
     378                    ;*                                                                           *
     379                    ;*   Regs Modified     : A1,A2,A3,A4,V9,SP,LR,SR,D0,D0_hi,D1,D1_hi,D2,D2_hi, *
     380                    ;*                           D3,D3_hi,D4,D4_hi,D5,D5_hi,D6,D6_hi,D7,D7_hi,   *
     381                    ;*                           FPEXC,FPSCR                                     *
     382                    ;*   Regs Used         : A1,A2,A3,A4,V9,SP,LR,SR,D0,D0_hi,D1,D1_hi,D2,D2_hi, *
     383                    ;*                           D3,D3_hi,D4,D4_hi,D5,D5_hi,D6,D6_hi,D7,D7_hi,   *
     384                    ;*                           FPEXC,FPSCR                                     *
     385                    ;*   Local Frame Size  : 24 Args + 16 Auto + 4 Save = 44 byte                *
TI ARM Assembler PC v15.12.1 Thu Dec 01 13:25:52 2016

Tools Copyright (c) 1996-2015 Texas Instruments Incorporated
Magnetometer.asm                                                     PAGE    8

     386                    ;*****************************************************************************
     387 00000000           I2CMWrite:
     388                    ;* --------------------------------------------------------------------------*
     389                            .dwcfi  cfa_offset, 0
     390 00000000 B500              PUSH      {LR}                  ; [DPU_3_PIPE]  ; [ORIG 16-BIT INS]
     391                            .dwcfi  cfa_offset, 4
     392                            .dwcfi  save_reg_to_mem, 14, -4
     393 00000002 0D2CF1AD          SUB       SP, SP, #44           ; [DPU_3_PIPE]  ; [KEEP 32-BIT INS]
     394                            .dwcfi  cfa_offset, 48
     395                    $C$DW$59        .dwtag  DW_TAG_variable
     396                            .dwattr $C$DW$59, DW_AT_name("psInst")
     397                            .dwattr $C$DW$59, DW_AT_TI_symbol_name("psInst")
     398                            .dwattr $C$DW$59, DW_AT_type(*$C$DW$T$34)
     399                            .dwattr $C$DW$59, DW_AT_location[DW_OP_breg13 24]
     400                    
     401                    $C$DW$60        .dwtag  DW_TAG_variable
     402                            .dwattr $C$DW$60, DW_AT_name("ui8Addr")
     403                            .dwattr $C$DW$60, DW_AT_TI_symbol_name("ui8Addr")
     404                            .dwattr $C$DW$60, DW_AT_type(*$C$DW$T$25)
     405                            .dwattr $C$DW$60, DW_AT_location[DW_OP_breg13 28]
     406                    
     407                    $C$DW$61        .dwtag  DW_TAG_variable
     408                            .dwattr $C$DW$61, DW_AT_name("pui8Data")
     409                            .dwattr $C$DW$61, DW_AT_TI_symbol_name("pui8Data")
     410                            .dwattr $C$DW$61, DW_AT_type(*$C$DW$T$21)
     411                            .dwattr $C$DW$61, DW_AT_location[DW_OP_breg13 32]
     412                    
     413                    $C$DW$62        .dwtag  DW_TAG_variable
     414                            .dwattr $C$DW$62, DW_AT_name("ui16Count")
     415                            .dwattr $C$DW$62, DW_AT_TI_symbol_name("ui16Count")
     416                            .dwattr $C$DW$62, DW_AT_type(*$C$DW$T$145)
     417                            .dwattr $C$DW$62, DW_AT_location[DW_OP_breg13 36]
     418                    
     419 00000006 9309              STR       A4, [SP, #36]         ; [DPU_3_PIPE] |462|  ; [ORIG 16-BIT INS]
     420 00000008 9208              STR       A3, [SP, #32]         ; [DPU_3_PIPE] |462|  ; [ORIG 16-BIT INS]
     421 0000000a 9107              STR       A2, [SP, #28]         ; [DPU_3_PIPE] |462|  ; [ORIG 16-BIT INS]
     422 0000000c 9006              STR       A1, [SP, #24]         ; [DPU_3_PIPE] |462|  ; [ORIG 16-BIT INS]
     423                            .dwpsn  file "C:/TI_CodeComposer/TivaWare/sensorlib/i2cm_drv.h",line 463,column 5,is_stmt,isa 
     424 0000000e 9809              LDR       A1, [SP, #36]         ; [DPU_3_PIPE] |463|  ; [ORIG 16-BIT INS]
     425 00000010 9000              STR       A1, [SP, #0]          ; [DPU_3_PIPE] |463|  ; [ORIG 16-BIT INS]
     426 00000012 2000              MOVS      A1, #0                ; [DPU_3_PIPE] |463|  ; [ORIG 16-BIT INS]
     427 00000014 9001              STR       A1, [SP, #4]          ; [DPU_3_PIPE] |463|  ; [ORIG 16-BIT INS]
     428 00000016 2000              MOVS      A1, #0                ; [DPU_3_PIPE] |463|  ; [ORIG 16-BIT INS]
     429 00000018 9002              STR       A1, [SP, #8]          ; [DPU_3_PIPE] |463|  ; [ORIG 16-BIT INS]
     430 0000001a 2000              MOVS      A1, #0                ; [DPU_3_PIPE] |463|  ; [ORIG 16-BIT INS]
     431 0000001c 9003              STR       A1, [SP, #12]         ; [DPU_3_PIPE] |463|  ; [ORIG 16-BIT INS]
     432 0000001e 980C              LDR       A1, [SP, #48]         ; [DPU_3_PIPE] |463|  ; [ORIG 16-BIT INS]
     433 00000020 9004              STR       A1, [SP, #16]         ; [DPU_3_PIPE] |463|  ; [ORIG 16-BIT INS]
     434 00000022 980D              LDR       A1, [SP, #52]         ; [DPU_3_PIPE] |463|  ; [ORIG 16-BIT INS]
     435 00000024 9005              STR       A1, [SP, #20]         ; [DPU_3_PIPE] |463|  ; [ORIG 16-BIT INS]
     436 00000026 9B09              LDR       A4, [SP, #36]         ; [DPU_3_PIPE] |463|  ; [ORIG 16-BIT INS]
     437 00000028 9A08              LDR       A3, [SP, #32]         ; [DPU_3_PIPE] |463|  ; [ORIG 16-BIT INS]
     438 0000002a 9907              LDR       A2, [SP, #28]         ; [DPU_3_PIPE] |463|  ; [ORIG 16-BIT INS]
     439 0000002c 9806              LDR       A1, [SP, #24]         ; [DPU_3_PIPE] |463|  ; [ORIG 16-BIT INS]
     440                    $C$DW$63        .dwtag  DW_TAG_TI_branch
TI ARM Assembler PC v15.12.1 Thu Dec 01 13:25:52 2016

Tools Copyright (c) 1996-2015 Texas Instruments Incorporated
Magnetometer.asm                                                     PAGE    9

     441                            .dwattr $C$DW$63, DW_AT_low_pc(0x00)
     442                            .dwattr $C$DW$63, DW_AT_name("I2CMCommand")
     443                            .dwattr $C$DW$63, DW_AT_TI_call
     444                    
     445 0000002e FFFEF7FF!         BL        I2CMCommand           ; [DPU_3_PIPE] |463|  ; [KEEP 32-BIT INS]
     446                            ; CALL OCCURS {I2CMCommand }     ; [] |463| 
     447                            .dwpsn  file "C:/TI_CodeComposer/TivaWare/sensorlib/i2cm_drv.h",line 465,column 1,is_stmt,isa 
     448 00000032 B00B              ADD       SP, SP, #44           ; [DPU_3_PIPE]  ; [ORIG 16-BIT INS]
     449                            .dwcfi  cfa_offset, 4
     450                    $C$DW$64        .dwtag  DW_TAG_TI_branch
     451                            .dwattr $C$DW$64, DW_AT_low_pc(0x00)
     452                            .dwattr $C$DW$64, DW_AT_TI_return
     453                    
     454 00000034 BD00              POP       {PC}                  ; [DPU_3_PIPE]  ; [ORIG 16-BIT INS]
     455                            .dwcfi  cfa_offset, 0
     456                            ; BRANCH OCCURS                  ; [] 
     457                            .dwattr $C$DW$52, DW_AT_TI_end_file("C:/TI_CodeComposer/TivaWare/sensorlib/i2cm_drv.h")
     458                            .dwattr $C$DW$52, DW_AT_TI_end_line(0x1d1)
     459                            .dwattr $C$DW$52, DW_AT_TI_end_column(0x01)
     460                            .dwendentry
     461                            .dwendtag $C$DW$52
     462                    
     463 00000000                   .sect   ".text:I2CMRead"
     464                            .clink
     465                            .thumbfunc I2CMRead
     466 00000000                   .thumb
     467                            .global I2CMRead
     468                    
     469                    $C$DW$65        .dwtag  DW_TAG_subprogram
     470                            .dwattr $C$DW$65, DW_AT_name("I2CMRead")
     471                            .dwattr $C$DW$65, DW_AT_low_pc(I2CMRead)
     472                            .dwattr $C$DW$65, DW_AT_high_pc(0x00)
     473                            .dwattr $C$DW$65, DW_AT_TI_symbol_name("I2CMRead")
     474                            .dwattr $C$DW$65, DW_AT_external
     475                            .dwattr $C$DW$65, DW_AT_type(*$C$DW$T$25)
     476                            .dwattr $C$DW$65, DW_AT_TI_begin_file("C:/TI_CodeComposer/TivaWare/sensorlib/i2cm_drv.h")
     477                            .dwattr $C$DW$65, DW_AT_TI_begin_line(0x1d9)
     478                            .dwattr $C$DW$65, DW_AT_TI_begin_column(0x01)
     479                            .dwattr $C$DW$65, DW_AT_decl_file("C:/TI_CodeComposer/TivaWare/sensorlib/i2cm_drv.h")
     480                            .dwattr $C$DW$65, DW_AT_decl_line(0x1d9)
     481                            .dwattr $C$DW$65, DW_AT_decl_column(0x01)
     482                            .dwattr $C$DW$65, DW_AT_TI_max_frame_size(0x30)
     483                            .dwpsn  file "C:/TI_CodeComposer/TivaWare/sensorlib/i2cm_drv.h",line 477,column 1,is_stmt,addr
     484                    
     485                            .dwfde $C$DW$CIE, I2CMRead
     486                    $C$DW$66        .dwtag  DW_TAG_formal_parameter
     487                            .dwattr $C$DW$66, DW_AT_name("psInst")
     488                            .dwattr $C$DW$66, DW_AT_TI_symbol_name("psInst")
     489                            .dwattr $C$DW$66, DW_AT_type(*$C$DW$T$34)
     490                            .dwattr $C$DW$66, DW_AT_location[DW_OP_reg0]
     491                    
     492                    $C$DW$67        .dwtag  DW_TAG_formal_parameter
     493                            .dwattr $C$DW$67, DW_AT_name("ui8Addr")
     494                            .dwattr $C$DW$67, DW_AT_TI_symbol_name("ui8Addr")
     495                            .dwattr $C$DW$67, DW_AT_type(*$C$DW$T$25)
TI ARM Assembler PC v15.12.1 Thu Dec 01 13:25:52 2016

Tools Copyright (c) 1996-2015 Texas Instruments Incorporated
Magnetometer.asm                                                     PAGE   10

     496                            .dwattr $C$DW$67, DW_AT_location[DW_OP_reg1]
     497                    
     498                    $C$DW$68        .dwtag  DW_TAG_formal_parameter
     499                            .dwattr $C$DW$68, DW_AT_name("pui8WriteData")
     500                            .dwattr $C$DW$68, DW_AT_TI_symbol_name("pui8WriteData")
     501                            .dwattr $C$DW$68, DW_AT_type(*$C$DW$T$21)
     502                            .dwattr $C$DW$68, DW_AT_location[DW_OP_reg2]
     503                    
     504                    $C$DW$69        .dwtag  DW_TAG_formal_parameter
     505                            .dwattr $C$DW$69, DW_AT_name("ui16WriteCount")
     506                            .dwattr $C$DW$69, DW_AT_TI_symbol_name("ui16WriteCount")
     507                            .dwattr $C$DW$69, DW_AT_type(*$C$DW$T$145)
     508                            .dwattr $C$DW$69, DW_AT_location[DW_OP_reg3]
     509                    
     510                    $C$DW$70        .dwtag  DW_TAG_formal_parameter
     511                            .dwattr $C$DW$70, DW_AT_name("pui8ReadData")
     512                            .dwattr $C$DW$70, DW_AT_TI_symbol_name("pui8ReadData")
     513                            .dwattr $C$DW$70, DW_AT_type(*$C$DW$T$23)
     514                            .dwattr $C$DW$70, DW_AT_location[DW_OP_breg13 48]
     515                    
     516                    $C$DW$71        .dwtag  DW_TAG_formal_parameter
     517                            .dwattr $C$DW$71, DW_AT_name("ui16ReadCount")
     518                            .dwattr $C$DW$71, DW_AT_TI_symbol_name("ui16ReadCount")
     519                            .dwattr $C$DW$71, DW_AT_type(*$C$DW$T$145)
     520                            .dwattr $C$DW$71, DW_AT_location[DW_OP_breg13 52]
     521                    
     522                    $C$DW$72        .dwtag  DW_TAG_formal_parameter
     523                            .dwattr $C$DW$72, DW_AT_name("pfnCallback")
     524                            .dwattr $C$DW$72, DW_AT_TI_symbol_name("pfnCallback")
     525                            .dwattr $C$DW$72, DW_AT_type(*$C$DW$T$28)
     526                            .dwattr $C$DW$72, DW_AT_location[DW_OP_breg13 56]
     527                    
     528                    $C$DW$73        .dwtag  DW_TAG_formal_parameter
     529                            .dwattr $C$DW$73, DW_AT_name("pvCallbackData")
     530                            .dwattr $C$DW$73, DW_AT_TI_symbol_name("pvCallbackData")
     531                            .dwattr $C$DW$73, DW_AT_type(*$C$DW$T$3)
     532                            .dwattr $C$DW$73, DW_AT_location[DW_OP_breg13 60]
     533                    
     534                    
     535                    ;*****************************************************************************
     536                    ;* FUNCTION NAME: I2CMRead                                                   *
     537                    ;*                                                                           *
     538                    ;*   Regs Modified     : A1,A2,A3,A4,V9,SP,LR,SR,D0,D0_hi,D1,D1_hi,D2,D2_hi, *
     539                    ;*                           D3,D3_hi,D4,D4_hi,D5,D5_hi,D6,D6_hi,D7,D7_hi,   *
     540                    ;*                           FPEXC,FPSCR                                     *
     541                    ;*   Regs Used         : A1,A2,A3,A4,V9,SP,LR,SR,D0,D0_hi,D1,D1_hi,D2,D2_hi, *
     542                    ;*                           D3,D3_hi,D4,D4_hi,D5,D5_hi,D6,D6_hi,D7,D7_hi,   *
     543                    ;*                           FPEXC,FPSCR                                     *
     544                    ;*   Local Frame Size  : 24 Args + 16 Auto + 4 Save = 44 byte                *
     545                    ;*****************************************************************************
     546 00000000           I2CMRead:
     547                    ;* --------------------------------------------------------------------------*
     548                            .dwcfi  cfa_offset, 0
     549 00000000 B500              PUSH      {LR}                  ; [DPU_3_PIPE]  ; [ORIG 16-BIT INS]
     550                            .dwcfi  cfa_offset, 4
TI ARM Assembler PC v15.12.1 Thu Dec 01 13:25:52 2016

Tools Copyright (c) 1996-2015 Texas Instruments Incorporated
Magnetometer.asm                                                     PAGE   11

     551                            .dwcfi  save_reg_to_mem, 14, -4
     552 00000002 0D2CF1AD          SUB       SP, SP, #44           ; [DPU_3_PIPE]  ; [KEEP 32-BIT INS]
     553                            .dwcfi  cfa_offset, 48
     554                    $C$DW$74        .dwtag  DW_TAG_variable
     555                            .dwattr $C$DW$74, DW_AT_name("psInst")
     556                            .dwattr $C$DW$74, DW_AT_TI_symbol_name("psInst")
     557                            .dwattr $C$DW$74, DW_AT_type(*$C$DW$T$34)
     558                            .dwattr $C$DW$74, DW_AT_location[DW_OP_breg13 24]
     559                    
     560                    $C$DW$75        .dwtag  DW_TAG_variable
     561                            .dwattr $C$DW$75, DW_AT_name("ui8Addr")
     562                            .dwattr $C$DW$75, DW_AT_TI_symbol_name("ui8Addr")
     563                            .dwattr $C$DW$75, DW_AT_type(*$C$DW$T$25)
     564                            .dwattr $C$DW$75, DW_AT_location[DW_OP_breg13 28]
     565                    
     566                    $C$DW$76        .dwtag  DW_TAG_variable
     567                            .dwattr $C$DW$76, DW_AT_name("pui8WriteData")
     568                            .dwattr $C$DW$76, DW_AT_TI_symbol_name("pui8WriteData")
     569                            .dwattr $C$DW$76, DW_AT_type(*$C$DW$T$21)
     570                            .dwattr $C$DW$76, DW_AT_location[DW_OP_breg13 32]
     571                    
     572                    $C$DW$77        .dwtag  DW_TAG_variable
     573                            .dwattr $C$DW$77, DW_AT_name("ui16WriteCount")
     574                            .dwattr $C$DW$77, DW_AT_TI_symbol_name("ui16WriteCount")
     575                            .dwattr $C$DW$77, DW_AT_type(*$C$DW$T$145)
     576                            .dwattr $C$DW$77, DW_AT_location[DW_OP_breg13 36]
     577                    
     578 00000006 9309              STR       A4, [SP, #36]         ; [DPU_3_PIPE] |477|  ; [ORIG 16-BIT INS]
     579 00000008 9208              STR       A3, [SP, #32]         ; [DPU_3_PIPE] |477|  ; [ORIG 16-BIT INS]
     580 0000000a 9107              STR       A2, [SP, #28]         ; [DPU_3_PIPE] |477|  ; [ORIG 16-BIT INS]
     581 0000000c 9006              STR       A1, [SP, #24]         ; [DPU_3_PIPE] |477|  ; [ORIG 16-BIT INS]
     582                            .dwpsn  file "C:/TI_CodeComposer/TivaWare/sensorlib/i2cm_drv.h",line 478,column 5,is_stmt,isa 
     583 0000000e 9809              LDR       A1, [SP, #36]         ; [DPU_3_PIPE] |478|  ; [ORIG 16-BIT INS]
     584 00000010 9000              STR       A1, [SP, #0]          ; [DPU_3_PIPE] |478|  ; [ORIG 16-BIT INS]
     585 00000012 980C              LDR       A1, [SP, #48]         ; [DPU_3_PIPE] |478|  ; [ORIG 16-BIT INS]
     586 00000014 9001              STR       A1, [SP, #4]          ; [DPU_3_PIPE] |478|  ; [ORIG 16-BIT INS]
     587 00000016 980D              LDR       A1, [SP, #52]         ; [DPU_3_PIPE] |478|  ; [ORIG 16-BIT INS]
     588 00000018 9002              STR       A1, [SP, #8]          ; [DPU_3_PIPE] |478|  ; [ORIG 16-BIT INS]
     589 0000001a 980D              LDR       A1, [SP, #52]         ; [DPU_3_PIPE] |478|  ; [ORIG 16-BIT INS]
     590 0000001c 9003              STR       A1, [SP, #12]         ; [DPU_3_PIPE] |478|  ; [ORIG 16-BIT INS]
     591 0000001e 980E              LDR       A1, [SP, #56]         ; [DPU_3_PIPE] |478|  ; [ORIG 16-BIT INS]
     592 00000020 9004              STR       A1, [SP, #16]         ; [DPU_3_PIPE] |478|  ; [ORIG 16-BIT INS]
     593 00000022 980F              LDR       A1, [SP, #60]         ; [DPU_3_PIPE] |478|  ; [ORIG 16-BIT INS]
     594 00000024 9005              STR       A1, [SP, #20]         ; [DPU_3_PIPE] |478|  ; [ORIG 16-BIT INS]
     595 00000026 9B09              LDR       A4, [SP, #36]         ; [DPU_3_PIPE] |478|  ; [ORIG 16-BIT INS]
     596 00000028 9A08              LDR       A3, [SP, #32]         ; [DPU_3_PIPE] |478|  ; [ORIG 16-BIT INS]
     597 0000002a 9907              LDR       A2, [SP, #28]         ; [DPU_3_PIPE] |478|  ; [ORIG 16-BIT INS]
     598 0000002c 9806              LDR       A1, [SP, #24]         ; [DPU_3_PIPE] |478|  ; [ORIG 16-BIT INS]
     599                    $C$DW$78        .dwtag  DW_TAG_TI_branch
     600                            .dwattr $C$DW$78, DW_AT_low_pc(0x00)
     601                            .dwattr $C$DW$78, DW_AT_name("I2CMCommand")
     602                            .dwattr $C$DW$78, DW_AT_TI_call
     603                    
     604 0000002e FFFEF7FF!         BL        I2CMCommand           ; [DPU_3_PIPE] |478|  ; [KEEP 32-BIT INS]
     605                            ; CALL OCCURS {I2CMCommand }     ; [] |478| 
TI ARM Assembler PC v15.12.1 Thu Dec 01 13:25:52 2016

Tools Copyright (c) 1996-2015 Texas Instruments Incorporated
Magnetometer.asm                                                     PAGE   12

     606                            .dwpsn  file "C:/TI_CodeComposer/TivaWare/sensorlib/i2cm_drv.h",line 481,column 1,is_stmt,isa 
     607 00000032 B00B              ADD       SP, SP, #44           ; [DPU_3_PIPE]  ; [ORIG 16-BIT INS]
     608                            .dwcfi  cfa_offset, 4
     609                    $C$DW$79        .dwtag  DW_TAG_TI_branch
     610                            .dwattr $C$DW$79, DW_AT_low_pc(0x00)
     611                            .dwattr $C$DW$79, DW_AT_TI_return
     612                    
     613 00000034 BD00              POP       {PC}                  ; [DPU_3_PIPE]  ; [ORIG 16-BIT INS]
     614                            .dwcfi  cfa_offset, 0
     615                            ; BRANCH OCCURS                  ; [] 
     616                            .dwattr $C$DW$65, DW_AT_TI_end_file("C:/TI_CodeComposer/TivaWare/sensorlib/i2cm_drv.h")
     617                            .dwattr $C$DW$65, DW_AT_TI_end_line(0x1e1)
     618                            .dwattr $C$DW$65, DW_AT_TI_end_column(0x01)
     619                            .dwendentry
     620                            .dwendtag $C$DW$65
     621                    
     622 00000000                   .sect   ".text:I2CMWriteBatched"
     623                            .clink
     624                            .thumbfunc I2CMWriteBatched
     625 00000000                   .thumb
     626                            .global I2CMWriteBatched
     627                    
     628                    $C$DW$80        .dwtag  DW_TAG_subprogram
     629                            .dwattr $C$DW$80, DW_AT_name("I2CMWriteBatched")
     630                            .dwattr $C$DW$80, DW_AT_low_pc(I2CMWriteBatched)
     631                            .dwattr $C$DW$80, DW_AT_high_pc(0x00)
     632                            .dwattr $C$DW$80, DW_AT_TI_symbol_name("I2CMWriteBatched")
     633                            .dwattr $C$DW$80, DW_AT_external
     634                            .dwattr $C$DW$80, DW_AT_type(*$C$DW$T$25)
     635                            .dwattr $C$DW$80, DW_AT_TI_begin_file("C:/TI_CodeComposer/TivaWare/sensorlib/i2cm_drv.h")
     636                            .dwattr $C$DW$80, DW_AT_TI_begin_line(0x1e9)
     637                            .dwattr $C$DW$80, DW_AT_TI_begin_column(0x01)
     638                            .dwattr $C$DW$80, DW_AT_decl_file("C:/TI_CodeComposer/TivaWare/sensorlib/i2cm_drv.h")
     639                            .dwattr $C$DW$80, DW_AT_decl_line(0x1e9)
     640                            .dwattr $C$DW$80, DW_AT_decl_column(0x01)
     641                            .dwattr $C$DW$80, DW_AT_TI_max_frame_size(0x30)
     642                            .dwpsn  file "C:/TI_CodeComposer/TivaWare/sensorlib/i2cm_drv.h",line 493,column 1,is_stmt,addr
     643                    
     644                            .dwfde $C$DW$CIE, I2CMWriteBatched
     645                    $C$DW$81        .dwtag  DW_TAG_formal_parameter
     646                            .dwattr $C$DW$81, DW_AT_name("psInst")
     647                            .dwattr $C$DW$81, DW_AT_TI_symbol_name("psInst")
     648                            .dwattr $C$DW$81, DW_AT_type(*$C$DW$T$34)
     649                            .dwattr $C$DW$81, DW_AT_location[DW_OP_reg0]
     650                    
     651                    $C$DW$82        .dwtag  DW_TAG_formal_parameter
     652                            .dwattr $C$DW$82, DW_AT_name("ui8Addr")
     653                            .dwattr $C$DW$82, DW_AT_TI_symbol_name("ui8Addr")
     654                            .dwattr $C$DW$82, DW_AT_type(*$C$DW$T$25)
     655                            .dwattr $C$DW$82, DW_AT_location[DW_OP_reg1]
     656                    
     657                    $C$DW$83        .dwtag  DW_TAG_formal_parameter
     658                            .dwattr $C$DW$83, DW_AT_name("pui8Data")
     659                            .dwattr $C$DW$83, DW_AT_TI_symbol_name("pui8Data")
     660                            .dwattr $C$DW$83, DW_AT_type(*$C$DW$T$21)
TI ARM Assembler PC v15.12.1 Thu Dec 01 13:25:52 2016

Tools Copyright (c) 1996-2015 Texas Instruments Incorporated
Magnetometer.asm                                                     PAGE   13

     661                            .dwattr $C$DW$83, DW_AT_location[DW_OP_reg2]
     662                    
     663                    $C$DW$84        .dwtag  DW_TAG_formal_parameter
     664                            .dwattr $C$DW$84, DW_AT_name("ui16Count")
     665                            .dwattr $C$DW$84, DW_AT_TI_symbol_name("ui16Count")
     666                            .dwattr $C$DW$84, DW_AT_type(*$C$DW$T$145)
     667                            .dwattr $C$DW$84, DW_AT_location[DW_OP_reg3]
     668                    
     669                    $C$DW$85        .dwtag  DW_TAG_formal_parameter
     670                            .dwattr $C$DW$85, DW_AT_name("ui16BatchSize")
     671                            .dwattr $C$DW$85, DW_AT_TI_symbol_name("ui16BatchSize")
     672                            .dwattr $C$DW$85, DW_AT_type(*$C$DW$T$145)
     673                            .dwattr $C$DW$85, DW_AT_location[DW_OP_breg13 48]
     674                    
     675                    $C$DW$86        .dwtag  DW_TAG_formal_parameter
     676                            .dwattr $C$DW$86, DW_AT_name("pfnCallback")
     677                            .dwattr $C$DW$86, DW_AT_TI_symbol_name("pfnCallback")
     678                            .dwattr $C$DW$86, DW_AT_type(*$C$DW$T$28)
     679                            .dwattr $C$DW$86, DW_AT_location[DW_OP_breg13 52]
     680                    
     681                    $C$DW$87        .dwtag  DW_TAG_formal_parameter
     682                            .dwattr $C$DW$87, DW_AT_name("pvCallbackData")
     683                            .dwattr $C$DW$87, DW_AT_TI_symbol_name("pvCallbackData")
     684                            .dwattr $C$DW$87, DW_AT_type(*$C$DW$T$3)
     685                            .dwattr $C$DW$87, DW_AT_location[DW_OP_breg13 56]
     686                    
     687                    
     688                    ;*****************************************************************************
     689                    ;* FUNCTION NAME: I2CMWriteBatched                                           *
     690                    ;*                                                                           *
     691                    ;*   Regs Modified     : A1,A2,A3,A4,V9,SP,LR,SR,D0,D0_hi,D1,D1_hi,D2,D2_hi, *
     692                    ;*                           D3,D3_hi,D4,D4_hi,D5,D5_hi,D6,D6_hi,D7,D7_hi,   *
     693                    ;*                           FPEXC,FPSCR                                     *
     694                    ;*   Regs Used         : A1,A2,A3,A4,V9,SP,LR,SR,D0,D0_hi,D1,D1_hi,D2,D2_hi, *
     695                    ;*                           D3,D3_hi,D4,D4_hi,D5,D5_hi,D6,D6_hi,D7,D7_hi,   *
     696                    ;*                           FPEXC,FPSCR                                     *
     697                    ;*   Local Frame Size  : 24 Args + 16 Auto + 4 Save = 44 byte                *
     698                    ;*****************************************************************************
     699 00000000           I2CMWriteBatched:
     700                    ;* --------------------------------------------------------------------------*
     701                            .dwcfi  cfa_offset, 0
     702 00000000 B500              PUSH      {LR}                  ; [DPU_3_PIPE]  ; [ORIG 16-BIT INS]
     703                            .dwcfi  cfa_offset, 4
     704                            .dwcfi  save_reg_to_mem, 14, -4
     705 00000002 0D2CF1AD          SUB       SP, SP, #44           ; [DPU_3_PIPE]  ; [KEEP 32-BIT INS]
     706                            .dwcfi  cfa_offset, 48
     707                    $C$DW$88        .dwtag  DW_TAG_variable
     708                            .dwattr $C$DW$88, DW_AT_name("psInst")
     709                            .dwattr $C$DW$88, DW_AT_TI_symbol_name("psInst")
     710                            .dwattr $C$DW$88, DW_AT_type(*$C$DW$T$34)
     711                            .dwattr $C$DW$88, DW_AT_location[DW_OP_breg13 24]
     712                    
     713                    $C$DW$89        .dwtag  DW_TAG_variable
     714                            .dwattr $C$DW$89, DW_AT_name("ui8Addr")
     715                            .dwattr $C$DW$89, DW_AT_TI_symbol_name("ui8Addr")
TI ARM Assembler PC v15.12.1 Thu Dec 01 13:25:52 2016

Tools Copyright (c) 1996-2015 Texas Instruments Incorporated
Magnetometer.asm                                                     PAGE   14

     716                            .dwattr $C$DW$89, DW_AT_type(*$C$DW$T$25)
     717                            .dwattr $C$DW$89, DW_AT_location[DW_OP_breg13 28]
     718                    
     719                    $C$DW$90        .dwtag  DW_TAG_variable
     720                            .dwattr $C$DW$90, DW_AT_name("pui8Data")
     721                            .dwattr $C$DW$90, DW_AT_TI_symbol_name("pui8Data")
     722                            .dwattr $C$DW$90, DW_AT_type(*$C$DW$T$21)
     723                            .dwattr $C$DW$90, DW_AT_location[DW_OP_breg13 32]
     724                    
     725                    $C$DW$91        .dwtag  DW_TAG_variable
     726                            .dwattr $C$DW$91, DW_AT_name("ui16Count")
     727                            .dwattr $C$DW$91, DW_AT_TI_symbol_name("ui16Count")
     728                            .dwattr $C$DW$91, DW_AT_type(*$C$DW$T$145)
     729                            .dwattr $C$DW$91, DW_AT_location[DW_OP_breg13 36]
     730                    
     731 00000006 9309              STR       A4, [SP, #36]         ; [DPU_3_PIPE] |493|  ; [ORIG 16-BIT INS]
     732 00000008 9208              STR       A3, [SP, #32]         ; [DPU_3_PIPE] |493|  ; [ORIG 16-BIT INS]
     733 0000000a 9107              STR       A2, [SP, #28]         ; [DPU_3_PIPE] |493|  ; [ORIG 16-BIT INS]
     734 0000000c 9006              STR       A1, [SP, #24]         ; [DPU_3_PIPE] |493|  ; [ORIG 16-BIT INS]
     735                            .dwpsn  file "C:/TI_CodeComposer/TivaWare/sensorlib/i2cm_drv.h",line 494,column 5,is_stmt,isa 
     736 0000000e 980C              LDR       A1, [SP, #48]         ; [DPU_3_PIPE] |494|  ; [ORIG 16-BIT INS]
     737 00000010 9000              STR       A1, [SP, #0]          ; [DPU_3_PIPE] |494|  ; [ORIG 16-BIT INS]
     738 00000012 2000              MOVS      A1, #0                ; [DPU_3_PIPE] |494|  ; [ORIG 16-BIT INS]
     739 00000014 9001              STR       A1, [SP, #4]          ; [DPU_3_PIPE] |494|  ; [ORIG 16-BIT INS]
     740 00000016 2000              MOVS      A1, #0                ; [DPU_3_PIPE] |494|  ; [ORIG 16-BIT INS]
     741 00000018 9002              STR       A1, [SP, #8]          ; [DPU_3_PIPE] |494|  ; [ORIG 16-BIT INS]
     742 0000001a 2000              MOVS      A1, #0                ; [DPU_3_PIPE] |494|  ; [ORIG 16-BIT INS]
     743 0000001c 9003              STR       A1, [SP, #12]         ; [DPU_3_PIPE] |494|  ; [ORIG 16-BIT INS]
     744 0000001e 980D              LDR       A1, [SP, #52]         ; [DPU_3_PIPE] |494|  ; [ORIG 16-BIT INS]
     745 00000020 9004              STR       A1, [SP, #16]         ; [DPU_3_PIPE] |494|  ; [ORIG 16-BIT INS]
     746 00000022 980E              LDR       A1, [SP, #56]         ; [DPU_3_PIPE] |494|  ; [ORIG 16-BIT INS]
     747 00000024 9005              STR       A1, [SP, #20]         ; [DPU_3_PIPE] |494|  ; [ORIG 16-BIT INS]
     748 00000026 9B09              LDR       A4, [SP, #36]         ; [DPU_3_PIPE] |494|  ; [ORIG 16-BIT INS]
     749 00000028 9A08              LDR       A3, [SP, #32]         ; [DPU_3_PIPE] |494|  ; [ORIG 16-BIT INS]
     750 0000002a 9907              LDR       A2, [SP, #28]         ; [DPU_3_PIPE] |494|  ; [ORIG 16-BIT INS]
     751 0000002c 9806              LDR       A1, [SP, #24]         ; [DPU_3_PIPE] |494|  ; [ORIG 16-BIT INS]
     752                    $C$DW$92        .dwtag  DW_TAG_TI_branch
     753                            .dwattr $C$DW$92, DW_AT_low_pc(0x00)
     754                            .dwattr $C$DW$92, DW_AT_name("I2CMCommand")
     755                            .dwattr $C$DW$92, DW_AT_TI_call
     756                    
     757 0000002e FFFEF7FF!         BL        I2CMCommand           ; [DPU_3_PIPE] |494|  ; [KEEP 32-BIT INS]
     758                            ; CALL OCCURS {I2CMCommand }     ; [] |494| 
     759                            .dwpsn  file "C:/TI_CodeComposer/TivaWare/sensorlib/i2cm_drv.h",line 496,column 1,is_stmt,isa 
     760 00000032 B00B              ADD       SP, SP, #44           ; [DPU_3_PIPE]  ; [ORIG 16-BIT INS]
     761                            .dwcfi  cfa_offset, 4
     762                    $C$DW$93        .dwtag  DW_TAG_TI_branch
     763                            .dwattr $C$DW$93, DW_AT_low_pc(0x00)
     764                            .dwattr $C$DW$93, DW_AT_TI_return
     765                    
     766 00000034 BD00              POP       {PC}                  ; [DPU_3_PIPE]  ; [ORIG 16-BIT INS]
     767                            .dwcfi  cfa_offset, 0
     768                            ; BRANCH OCCURS                  ; [] 
     769                            .dwattr $C$DW$80, DW_AT_TI_end_file("C:/TI_CodeComposer/TivaWare/sensorlib/i2cm_drv.h")
     770                            .dwattr $C$DW$80, DW_AT_TI_end_line(0x1f0)
TI ARM Assembler PC v15.12.1 Thu Dec 01 13:25:52 2016

Tools Copyright (c) 1996-2015 Texas Instruments Incorporated
Magnetometer.asm                                                     PAGE   15

     771                            .dwattr $C$DW$80, DW_AT_TI_end_column(0x01)
     772                            .dwendentry
     773                            .dwendtag $C$DW$80
     774                    
     775 00000000                   .sect   ".text:I2CMReadBatched"
     776                            .clink
     777                            .thumbfunc I2CMReadBatched
     778 00000000                   .thumb
     779                            .global I2CMReadBatched
     780                    
     781                    $C$DW$94        .dwtag  DW_TAG_subprogram
     782                            .dwattr $C$DW$94, DW_AT_name("I2CMReadBatched")
     783                            .dwattr $C$DW$94, DW_AT_low_pc(I2CMReadBatched)
     784                            .dwattr $C$DW$94, DW_AT_high_pc(0x00)
     785                            .dwattr $C$DW$94, DW_AT_TI_symbol_name("I2CMReadBatched")
     786                            .dwattr $C$DW$94, DW_AT_external
     787                            .dwattr $C$DW$94, DW_AT_type(*$C$DW$T$25)
     788                            .dwattr $C$DW$94, DW_AT_TI_begin_file("C:/TI_CodeComposer/TivaWare/sensorlib/i2cm_drv.h")
     789                            .dwattr $C$DW$94, DW_AT_TI_begin_line(0x1f8)
     790                            .dwattr $C$DW$94, DW_AT_TI_begin_column(0x01)
     791                            .dwattr $C$DW$94, DW_AT_decl_file("C:/TI_CodeComposer/TivaWare/sensorlib/i2cm_drv.h")
     792                            .dwattr $C$DW$94, DW_AT_decl_line(0x1f8)
     793                            .dwattr $C$DW$94, DW_AT_decl_column(0x01)
     794                            .dwattr $C$DW$94, DW_AT_TI_max_frame_size(0x30)
     795                            .dwpsn  file "C:/TI_CodeComposer/TivaWare/sensorlib/i2cm_drv.h",line 509,column 1,is_stmt,addr
     796                    
     797                            .dwfde $C$DW$CIE, I2CMReadBatched
     798                    $C$DW$95        .dwtag  DW_TAG_formal_parameter
     799                            .dwattr $C$DW$95, DW_AT_name("psInst")
     800                            .dwattr $C$DW$95, DW_AT_TI_symbol_name("psInst")
     801                            .dwattr $C$DW$95, DW_AT_type(*$C$DW$T$34)
     802                            .dwattr $C$DW$95, DW_AT_location[DW_OP_reg0]
     803                    
     804                    $C$DW$96        .dwtag  DW_TAG_formal_parameter
     805                            .dwattr $C$DW$96, DW_AT_name("ui8Addr")
     806                            .dwattr $C$DW$96, DW_AT_TI_symbol_name("ui8Addr")
     807                            .dwattr $C$DW$96, DW_AT_type(*$C$DW$T$25)
     808                            .dwattr $C$DW$96, DW_AT_location[DW_OP_reg1]
     809                    
     810                    $C$DW$97        .dwtag  DW_TAG_formal_parameter
     811                            .dwattr $C$DW$97, DW_AT_name("pui8WriteData")
     812                            .dwattr $C$DW$97, DW_AT_TI_symbol_name("pui8WriteData")
     813                            .dwattr $C$DW$97, DW_AT_type(*$C$DW$T$21)
     814                            .dwattr $C$DW$97, DW_AT_location[DW_OP_reg2]
     815                    
     816                    $C$DW$98        .dwtag  DW_TAG_formal_parameter
     817                            .dwattr $C$DW$98, DW_AT_name("ui16WriteCount")
     818                            .dwattr $C$DW$98, DW_AT_TI_symbol_name("ui16WriteCount")
     819                            .dwattr $C$DW$98, DW_AT_type(*$C$DW$T$145)
     820                            .dwattr $C$DW$98, DW_AT_location[DW_OP_reg3]
     821                    
     822                    $C$DW$99        .dwtag  DW_TAG_formal_parameter
     823                            .dwattr $C$DW$99, DW_AT_name("ui16WriteBatchSize")
     824                            .dwattr $C$DW$99, DW_AT_TI_symbol_name("ui16WriteBatchSize")
     825                            .dwattr $C$DW$99, DW_AT_type(*$C$DW$T$145)
TI ARM Assembler PC v15.12.1 Thu Dec 01 13:25:52 2016

Tools Copyright (c) 1996-2015 Texas Instruments Incorporated
Magnetometer.asm                                                     PAGE   16

     826                            .dwattr $C$DW$99, DW_AT_location[DW_OP_breg13 48]
     827                    
     828                    $C$DW$100       .dwtag  DW_TAG_formal_parameter
     829                            .dwattr $C$DW$100, DW_AT_name("pui8ReadData")
     830                            .dwattr $C$DW$100, DW_AT_TI_symbol_name("pui8ReadData")
     831                            .dwattr $C$DW$100, DW_AT_type(*$C$DW$T$23)
     832                            .dwattr $C$DW$100, DW_AT_location[DW_OP_breg13 52]
     833                    
     834                    $C$DW$101       .dwtag  DW_TAG_formal_parameter
     835                            .dwattr $C$DW$101, DW_AT_name("ui16ReadCount")
     836                            .dwattr $C$DW$101, DW_AT_TI_symbol_name("ui16ReadCount")
     837                            .dwattr $C$DW$101, DW_AT_type(*$C$DW$T$145)
     838                            .dwattr $C$DW$101, DW_AT_location[DW_OP_breg13 56]
     839                    
     840                    $C$DW$102       .dwtag  DW_TAG_formal_parameter
     841                            .dwattr $C$DW$102, DW_AT_name("ui16ReadBatchSize")
     842                            .dwattr $C$DW$102, DW_AT_TI_symbol_name("ui16ReadBatchSize")
     843                            .dwattr $C$DW$102, DW_AT_type(*$C$DW$T$145)
     844                            .dwattr $C$DW$102, DW_AT_location[DW_OP_breg13 60]
     845                    
     846                    $C$DW$103       .dwtag  DW_TAG_formal_parameter
     847                            .dwattr $C$DW$103, DW_AT_name("pfnCallback")
     848                            .dwattr $C$DW$103, DW_AT_TI_symbol_name("pfnCallback")
     849                            .dwattr $C$DW$103, DW_AT_type(*$C$DW$T$28)
     850                            .dwattr $C$DW$103, DW_AT_location[DW_OP_breg13 64]
     851                    
     852                    $C$DW$104       .dwtag  DW_TAG_formal_parameter
     853                            .dwattr $C$DW$104, DW_AT_name("pvCallbackData")
     854                            .dwattr $C$DW$104, DW_AT_TI_symbol_name("pvCallbackData")
     855                            .dwattr $C$DW$104, DW_AT_type(*$C$DW$T$3)
     856                            .dwattr $C$DW$104, DW_AT_location[DW_OP_breg13 68]
     857                    
     858                    
     859                    ;*****************************************************************************
     860                    ;* FUNCTION NAME: I2CMReadBatched                                            *
     861                    ;*                                                                           *
     862                    ;*   Regs Modified     : A1,A2,A3,A4,V9,SP,LR,SR,D0,D0_hi,D1,D1_hi,D2,D2_hi, *
     863                    ;*                           D3,D3_hi,D4,D4_hi,D5,D5_hi,D6,D6_hi,D7,D7_hi,   *
     864                    ;*                           FPEXC,FPSCR                                     *
     865                    ;*   Regs Used         : A1,A2,A3,A4,V9,SP,LR,SR,D0,D0_hi,D1,D1_hi,D2,D2_hi, *
     866                    ;*                           D3,D3_hi,D4,D4_hi,D5,D5_hi,D6,D6_hi,D7,D7_hi,   *
     867                    ;*                           FPEXC,FPSCR                                     *
     868                    ;*   Local Frame Size  : 24 Args + 16 Auto + 4 Save = 44 byte                *
     869                    ;*****************************************************************************
     870 00000000           I2CMReadBatched:
     871                    ;* --------------------------------------------------------------------------*
     872                            .dwcfi  cfa_offset, 0
     873 00000000 B500              PUSH      {LR}                  ; [DPU_3_PIPE]  ; [ORIG 16-BIT INS]
     874                            .dwcfi  cfa_offset, 4
     875                            .dwcfi  save_reg_to_mem, 14, -4
     876 00000002 0D2CF1AD          SUB       SP, SP, #44           ; [DPU_3_PIPE]  ; [KEEP 32-BIT INS]
     877                            .dwcfi  cfa_offset, 48
     878                    $C$DW$105       .dwtag  DW_TAG_variable
     879                            .dwattr $C$DW$105, DW_AT_name("psInst")
     880                            .dwattr $C$DW$105, DW_AT_TI_symbol_name("psInst")
TI ARM Assembler PC v15.12.1 Thu Dec 01 13:25:52 2016

Tools Copyright (c) 1996-2015 Texas Instruments Incorporated
Magnetometer.asm                                                     PAGE   17

     881                            .dwattr $C$DW$105, DW_AT_type(*$C$DW$T$34)
     882                            .dwattr $C$DW$105, DW_AT_location[DW_OP_breg13 24]
     883                    
     884                    $C$DW$106       .dwtag  DW_TAG_variable
     885                            .dwattr $C$DW$106, DW_AT_name("ui8Addr")
     886                            .dwattr $C$DW$106, DW_AT_TI_symbol_name("ui8Addr")
     887                            .dwattr $C$DW$106, DW_AT_type(*$C$DW$T$25)
     888                            .dwattr $C$DW$106, DW_AT_location[DW_OP_breg13 28]
     889                    
     890                    $C$DW$107       .dwtag  DW_TAG_variable
     891                            .dwattr $C$DW$107, DW_AT_name("pui8WriteData")
     892                            .dwattr $C$DW$107, DW_AT_TI_symbol_name("pui8WriteData")
     893                            .dwattr $C$DW$107, DW_AT_type(*$C$DW$T$21)
     894                            .dwattr $C$DW$107, DW_AT_location[DW_OP_breg13 32]
     895                    
     896                    $C$DW$108       .dwtag  DW_TAG_variable
     897                            .dwattr $C$DW$108, DW_AT_name("ui16WriteCount")
     898                            .dwattr $C$DW$108, DW_AT_TI_symbol_name("ui16WriteCount")
     899                            .dwattr $C$DW$108, DW_AT_type(*$C$DW$T$145)
     900                            .dwattr $C$DW$108, DW_AT_location[DW_OP_breg13 36]
     901                    
     902 00000006 9309              STR       A4, [SP, #36]         ; [DPU_3_PIPE] |509|  ; [ORIG 16-BIT INS]
     903 00000008 9208              STR       A3, [SP, #32]         ; [DPU_3_PIPE] |509|  ; [ORIG 16-BIT INS]
     904 0000000a 9107              STR       A2, [SP, #28]         ; [DPU_3_PIPE] |509|  ; [ORIG 16-BIT INS]
     905 0000000c 9006              STR       A1, [SP, #24]         ; [DPU_3_PIPE] |509|  ; [ORIG 16-BIT INS]
     906                            .dwpsn  file "C:/TI_CodeComposer/TivaWare/sensorlib/i2cm_drv.h",line 510,column 5,is_stmt,isa 
     907 0000000e 980C              LDR       A1, [SP, #48]         ; [DPU_3_PIPE] |510|  ; [ORIG 16-BIT INS]
     908 00000010 9000              STR       A1, [SP, #0]          ; [DPU_3_PIPE] |510|  ; [ORIG 16-BIT INS]
     909 00000012 980D              LDR       A1, [SP, #52]         ; [DPU_3_PIPE] |510|  ; [ORIG 16-BIT INS]
     910 00000014 9001              STR       A1, [SP, #4]          ; [DPU_3_PIPE] |510|  ; [ORIG 16-BIT INS]
     911 00000016 980E              LDR       A1, [SP, #56]         ; [DPU_3_PIPE] |510|  ; [ORIG 16-BIT INS]
     912 00000018 9002              STR       A1, [SP, #8]          ; [DPU_3_PIPE] |510|  ; [ORIG 16-BIT INS]
     913 0000001a 980F              LDR       A1, [SP, #60]         ; [DPU_3_PIPE] |510|  ; [ORIG 16-BIT INS]
     914 0000001c 9003              STR       A1, [SP, #12]         ; [DPU_3_PIPE] |510|  ; [ORIG 16-BIT INS]
     915 0000001e 9810              LDR       A1, [SP, #64]         ; [DPU_3_PIPE] |510|  ; [ORIG 16-BIT INS]
     916 00000020 9004              STR       A1, [SP, #16]         ; [DPU_3_PIPE] |510|  ; [ORIG 16-BIT INS]
     917 00000022 9811              LDR       A1, [SP, #68]         ; [DPU_3_PIPE] |510|  ; [ORIG 16-BIT INS]
     918 00000024 9005              STR       A1, [SP, #20]         ; [DPU_3_PIPE] |510|  ; [ORIG 16-BIT INS]
     919 00000026 9B09              LDR       A4, [SP, #36]         ; [DPU_3_PIPE] |510|  ; [ORIG 16-BIT INS]
     920 00000028 9A08              LDR       A3, [SP, #32]         ; [DPU_3_PIPE] |510|  ; [ORIG 16-BIT INS]
     921 0000002a 9907              LDR       A2, [SP, #28]         ; [DPU_3_PIPE] |510|  ; [ORIG 16-BIT INS]
     922 0000002c 9806              LDR       A1, [SP, #24]         ; [DPU_3_PIPE] |510|  ; [ORIG 16-BIT INS]
     923                    $C$DW$109       .dwtag  DW_TAG_TI_branch
     924                            .dwattr $C$DW$109, DW_AT_low_pc(0x00)
     925                            .dwattr $C$DW$109, DW_AT_name("I2CMCommand")
     926                            .dwattr $C$DW$109, DW_AT_TI_call
     927                    
     928 0000002e FFFEF7FF!         BL        I2CMCommand           ; [DPU_3_PIPE] |510|  ; [KEEP 32-BIT INS]
     929                            ; CALL OCCURS {I2CMCommand }     ; [] |510| 
     930                            .dwpsn  file "C:/TI_CodeComposer/TivaWare/sensorlib/i2cm_drv.h",line 513,column 1,is_stmt,isa 
     931 00000032 B00B              ADD       SP, SP, #44           ; [DPU_3_PIPE]  ; [ORIG 16-BIT INS]
     932                            .dwcfi  cfa_offset, 4
     933                    $C$DW$110       .dwtag  DW_TAG_TI_branch
     934                            .dwattr $C$DW$110, DW_AT_low_pc(0x00)
     935                            .dwattr $C$DW$110, DW_AT_TI_return
TI ARM Assembler PC v15.12.1 Thu Dec 01 13:25:52 2016

Tools Copyright (c) 1996-2015 Texas Instruments Incorporated
Magnetometer.asm                                                     PAGE   18

     936                    
     937 00000034 BD00              POP       {PC}                  ; [DPU_3_PIPE]  ; [ORIG 16-BIT INS]
     938                            .dwcfi  cfa_offset, 0
     939                            ; BRANCH OCCURS                  ; [] 
     940                            .dwattr $C$DW$94, DW_AT_TI_end_file("C:/TI_CodeComposer/TivaWare/sensorlib/i2cm_drv.h")
     941                            .dwattr $C$DW$94, DW_AT_TI_end_line(0x201)
     942                            .dwattr $C$DW$94, DW_AT_TI_end_column(0x01)
     943                            .dwendentry
     944                            .dwendtag $C$DW$94
     945                    
     946 00000000                   .sect   ".text:I2CMReadModifyWrite16BE"
     947                            .clink
     948                            .thumbfunc I2CMReadModifyWrite16BE
     949 00000000                   .thumb
     950                            .global I2CMReadModifyWrite16BE
     951                    
     952                    $C$DW$111       .dwtag  DW_TAG_subprogram
     953                            .dwattr $C$DW$111, DW_AT_name("I2CMReadModifyWrite16BE")
     954                            .dwattr $C$DW$111, DW_AT_low_pc(I2CMReadModifyWrite16BE)
     955                            .dwattr $C$DW$111, DW_AT_high_pc(0x00)
     956                            .dwattr $C$DW$111, DW_AT_TI_symbol_name("I2CMReadModifyWrite16BE")
     957                            .dwattr $C$DW$111, DW_AT_external
     958                            .dwattr $C$DW$111, DW_AT_type(*$C$DW$T$25)
     959                            .dwattr $C$DW$111, DW_AT_TI_begin_file("C:/TI_CodeComposer/TivaWare/sensorlib/i2cm_drv.h")
     960                            .dwattr $C$DW$111, DW_AT_TI_begin_line(0x209)
     961                            .dwattr $C$DW$111, DW_AT_TI_begin_column(0x01)
     962                            .dwattr $C$DW$111, DW_AT_decl_file("C:/TI_CodeComposer/TivaWare/sensorlib/i2cm_drv.h")
     963                            .dwattr $C$DW$111, DW_AT_decl_line(0x209)
     964                            .dwattr $C$DW$111, DW_AT_decl_column(0x01)
     965                            .dwattr $C$DW$111, DW_AT_TI_max_frame_size(0x28)
     966                            .dwpsn  file "C:/TI_CodeComposer/TivaWare/sensorlib/i2cm_drv.h",line 526,column 1,is_stmt,addr
     967                    
     968                            .dwfde $C$DW$CIE, I2CMReadModifyWrite16BE
     969                    $C$DW$112       .dwtag  DW_TAG_formal_parameter
     970                            .dwattr $C$DW$112, DW_AT_name("psInst")
     971                            .dwattr $C$DW$112, DW_AT_TI_symbol_name("psInst")
     972                            .dwattr $C$DW$112, DW_AT_type(*$C$DW$T$92)
     973                            .dwattr $C$DW$112, DW_AT_location[DW_OP_reg0]
     974                    
     975                    $C$DW$113       .dwtag  DW_TAG_formal_parameter
     976                            .dwattr $C$DW$113, DW_AT_name("psI2CInst")
     977                            .dwattr $C$DW$113, DW_AT_TI_symbol_name("psI2CInst")
     978                            .dwattr $C$DW$113, DW_AT_type(*$C$DW$T$34)
     979                            .dwattr $C$DW$113, DW_AT_location[DW_OP_reg1]
     980                    
     981                    $C$DW$114       .dwtag  DW_TAG_formal_parameter
     982                            .dwattr $C$DW$114, DW_AT_name("ui8Addr")
     983                            .dwattr $C$DW$114, DW_AT_TI_symbol_name("ui8Addr")
     984                            .dwattr $C$DW$114, DW_AT_type(*$C$DW$T$25)
     985                            .dwattr $C$DW$114, DW_AT_location[DW_OP_reg2]
     986                    
     987                    $C$DW$115       .dwtag  DW_TAG_formal_parameter
     988                            .dwattr $C$DW$115, DW_AT_name("ui8Reg")
     989                            .dwattr $C$DW$115, DW_AT_TI_symbol_name("ui8Reg")
     990                            .dwattr $C$DW$115, DW_AT_type(*$C$DW$T$25)
TI ARM Assembler PC v15.12.1 Thu Dec 01 13:25:52 2016

Tools Copyright (c) 1996-2015 Texas Instruments Incorporated
Magnetometer.asm                                                     PAGE   19

     991                            .dwattr $C$DW$115, DW_AT_location[DW_OP_reg3]
     992                    
     993                    $C$DW$116       .dwtag  DW_TAG_formal_parameter
     994                            .dwattr $C$DW$116, DW_AT_name("ui16Mask")
     995                            .dwattr $C$DW$116, DW_AT_TI_symbol_name("ui16Mask")
     996                            .dwattr $C$DW$116, DW_AT_type(*$C$DW$T$145)
     997                            .dwattr $C$DW$116, DW_AT_location[DW_OP_breg13 40]
     998                    
     999                    $C$DW$117       .dwtag  DW_TAG_formal_parameter
    1000                            .dwattr $C$DW$117, DW_AT_name("ui16Value")
    1001                            .dwattr $C$DW$117, DW_AT_TI_symbol_name("ui16Value")
    1002                            .dwattr $C$DW$117, DW_AT_type(*$C$DW$T$145)
    1003                            .dwattr $C$DW$117, DW_AT_location[DW_OP_breg13 44]
    1004                    
    1005                    $C$DW$118       .dwtag  DW_TAG_formal_parameter
    1006                            .dwattr $C$DW$118, DW_AT_name("pfnCallback")
    1007                            .dwattr $C$DW$118, DW_AT_TI_symbol_name("pfnCallback")
    1008                            .dwattr $C$DW$118, DW_AT_type(*$C$DW$T$28)
    1009                            .dwattr $C$DW$118, DW_AT_location[DW_OP_breg13 48]
    1010                    
    1011                    $C$DW$119       .dwtag  DW_TAG_formal_parameter
    1012                            .dwattr $C$DW$119, DW_AT_name("pvCallbackData")
    1013                            .dwattr $C$DW$119, DW_AT_TI_symbol_name("pvCallbackData")
    1014                            .dwattr $C$DW$119, DW_AT_type(*$C$DW$T$3)
    1015                            .dwattr $C$DW$119, DW_AT_location[DW_OP_breg13 52]
    1016                    
    1017                    
    1018                    ;*****************************************************************************
    1019                    ;* FUNCTION NAME: I2CMReadModifyWrite16BE                                    *
    1020                    ;*                                                                           *
    1021                    ;*   Regs Modified     : A1,A2,A3,A4,V9,SP,LR,SR,D0,D0_hi,D1,D1_hi,D2,D2_hi, *
    1022                    ;*                           D3,D3_hi,D4,D4_hi,D5,D5_hi,D6,D6_hi,D7,D7_hi,   *
    1023                    ;*                           FPEXC,FPSCR                                     *
    1024                    ;*   Regs Used         : A1,A2,A3,A4,V9,SP,LR,SR,D0,D0_hi,D1,D1_hi,D2,D2_hi, *
    1025                    ;*                           D3,D3_hi,D4,D4_hi,D5,D5_hi,D6,D6_hi,D7,D7_hi,   *
    1026                    ;*                           FPEXC,FPSCR                                     *
    1027                    ;*   Local Frame Size  : 16 Args + 16 Auto + 4 Save = 36 byte                *
    1028                    ;*****************************************************************************
    1029 00000000           I2CMReadModifyWrite16BE:
    1030                    ;* --------------------------------------------------------------------------*
    1031                            .dwcfi  cfa_offset, 0
    1032 00000000 B500              PUSH      {LR}                  ; [DPU_3_PIPE]  ; [ORIG 16-BIT INS]
    1033                            .dwcfi  cfa_offset, 4
    1034                            .dwcfi  save_reg_to_mem, 14, -4
    1035 00000002 0D24F1AD          SUB       SP, SP, #36           ; [DPU_3_PIPE]  ; [KEEP 32-BIT INS]
    1036                            .dwcfi  cfa_offset, 40
    1037                    $C$DW$120       .dwtag  DW_TAG_variable
    1038                            .dwattr $C$DW$120, DW_AT_name("psInst")
    1039                            .dwattr $C$DW$120, DW_AT_TI_symbol_name("psInst")
    1040                            .dwattr $C$DW$120, DW_AT_type(*$C$DW$T$92)
    1041                            .dwattr $C$DW$120, DW_AT_location[DW_OP_breg13 16]
    1042                    
    1043                    $C$DW$121       .dwtag  DW_TAG_variable
    1044                            .dwattr $C$DW$121, DW_AT_name("psI2CInst")
    1045                            .dwattr $C$DW$121, DW_AT_TI_symbol_name("psI2CInst")
TI ARM Assembler PC v15.12.1 Thu Dec 01 13:25:52 2016

Tools Copyright (c) 1996-2015 Texas Instruments Incorporated
Magnetometer.asm                                                     PAGE   20

    1046                            .dwattr $C$DW$121, DW_AT_type(*$C$DW$T$34)
    1047                            .dwattr $C$DW$121, DW_AT_location[DW_OP_breg13 20]
    1048                    
    1049                    $C$DW$122       .dwtag  DW_TAG_variable
    1050                            .dwattr $C$DW$122, DW_AT_name("ui8Addr")
    1051                            .dwattr $C$DW$122, DW_AT_TI_symbol_name("ui8Addr")
    1052                            .dwattr $C$DW$122, DW_AT_type(*$C$DW$T$25)
    1053                            .dwattr $C$DW$122, DW_AT_location[DW_OP_breg13 24]
    1054                    
    1055                    $C$DW$123       .dwtag  DW_TAG_variable
    1056                            .dwattr $C$DW$123, DW_AT_name("ui8Reg")
    1057                            .dwattr $C$DW$123, DW_AT_TI_symbol_name("ui8Reg")
    1058                            .dwattr $C$DW$123, DW_AT_type(*$C$DW$T$25)
    1059                            .dwattr $C$DW$123, DW_AT_location[DW_OP_breg13 28]
    1060                    
    1061 00000006 9307              STR       A4, [SP, #28]         ; [DPU_3_PIPE] |526|  ; [ORIG 16-BIT INS]
    1062 00000008 9206              STR       A3, [SP, #24]         ; [DPU_3_PIPE] |526|  ; [ORIG 16-BIT INS]
    1063 0000000a 9105              STR       A2, [SP, #20]         ; [DPU_3_PIPE] |526|  ; [ORIG 16-BIT INS]
    1064 0000000c 9004              STR       A1, [SP, #16]         ; [DPU_3_PIPE] |526|  ; [ORIG 16-BIT INS]
    1065                            .dwpsn  file "C:/TI_CodeComposer/TivaWare/sensorlib/i2cm_drv.h",line 527,column 5,is_stmt,isa 
    1066 0000000e 980A              LDR       A1, [SP, #40]         ; [DPU_3_PIPE] |527|  ; [ORIG 16-BIT INS]
    1067 00000010 990A              LDR       A2, [SP, #40]         ; [DPU_3_PIPE] |527|  ; [ORIG 16-BIT INS]
    1068 00000012 407FF400          AND       A1, A1, #65280        ; [DPU_3_PIPE] |527|  ; [KEEP 32-BIT INS]
    1069 00000016 01FFF001          AND       A2, A2, #255          ; [DPU_3_PIPE] |527|  ; [KEEP 32-BIT INS]
    1070 0000001a 0A00              LSRS      A1, A1, #8            ; [DPU_3_PIPE] |527|  ; [ORIG 16-BIT INS]
    1071 0000001c 2001EA40          ORR       A1, A1, A2, LSL #8    ; [DPU_3_PIPE] |527|  ; [KEEP 32-BIT INS]
    1072 00000020 990B              LDR       A2, [SP, #44]         ; [DPU_3_PIPE] |527|  ; [ORIG 16-BIT INS]
    1073 00000022 9000              STR       A1, [SP, #0]          ; [DPU_3_PIPE] |527|  ; [ORIG 16-BIT INS]
    1074 00000024 980B              LDR       A1, [SP, #44]         ; [DPU_3_PIPE] |527|  ; [ORIG 16-BIT INS]
    1075 00000026 01FFF001          AND       A2, A2, #255          ; [DPU_3_PIPE] |527|  ; [KEEP 32-BIT INS]
    1076 0000002a 407FF400          AND       A1, A1, #65280        ; [DPU_3_PIPE] |527|  ; [KEEP 32-BIT INS]
    1077 0000002e 0A00              LSRS      A1, A1, #8            ; [DPU_3_PIPE] |527|  ; [ORIG 16-BIT INS]
    1078 00000030 2001EA40          ORR       A1, A1, A2, LSL #8    ; [DPU_3_PIPE] |527|  ; [KEEP 32-BIT INS]
    1079 00000034 9001              STR       A1, [SP, #4]          ; [DPU_3_PIPE] |527|  ; [ORIG 16-BIT INS]
    1080 00000036 980C              LDR       A1, [SP, #48]         ; [DPU_3_PIPE] |527|  ; [ORIG 16-BIT INS]
    1081 00000038 9002              STR       A1, [SP, #8]          ; [DPU_3_PIPE] |527|  ; [ORIG 16-BIT INS]
    1082 0000003a 980D              LDR       A1, [SP, #52]         ; [DPU_3_PIPE] |527|  ; [ORIG 16-BIT INS]
    1083 0000003c 9003              STR       A1, [SP, #12]         ; [DPU_3_PIPE] |527|  ; [ORIG 16-BIT INS]
    1084 0000003e 9A06              LDR       A3, [SP, #24]         ; [DPU_3_PIPE] |527|  ; [ORIG 16-BIT INS]
    1085 00000040 9B07              LDR       A4, [SP, #28]         ; [DPU_3_PIPE] |527|  ; [ORIG 16-BIT INS]
    1086 00000042 9905              LDR       A2, [SP, #20]         ; [DPU_3_PIPE] |527|  ; [ORIG 16-BIT INS]
    1087 00000044 9804              LDR       A1, [SP, #16]         ; [DPU_3_PIPE] |527|  ; [ORIG 16-BIT INS]
    1088                    $C$DW$124       .dwtag  DW_TAG_TI_branch
    1089                            .dwattr $C$DW$124, DW_AT_low_pc(0x00)
    1090                            .dwattr $C$DW$124, DW_AT_name("I2CMReadModifyWrite16LE")
    1091                            .dwattr $C$DW$124, DW_AT_TI_call
    1092                    
    1093 00000046 FFFEF7FF!         BL        I2CMReadModifyWrite16LE ; [DPU_3_PIPE] |527|  ; [KEEP 32-BIT INS]
    1094                            ; CALL OCCURS {I2CMReadModifyWrite16LE }  ; [] |527| 
    1095                            .dwpsn  file "C:/TI_CodeComposer/TivaWare/sensorlib/i2cm_drv.h",line 533,column 1,is_stmt,isa 
    1096 0000004a B009              ADD       SP, SP, #36           ; [DPU_3_PIPE]  ; [ORIG 16-BIT INS]
    1097                            .dwcfi  cfa_offset, 4
    1098                    $C$DW$125       .dwtag  DW_TAG_TI_branch
    1099                            .dwattr $C$DW$125, DW_AT_low_pc(0x00)
    1100                            .dwattr $C$DW$125, DW_AT_TI_return
TI ARM Assembler PC v15.12.1 Thu Dec 01 13:25:52 2016

Tools Copyright (c) 1996-2015 Texas Instruments Incorporated
Magnetometer.asm                                                     PAGE   21

    1101                    
    1102 0000004c BD00              POP       {PC}                  ; [DPU_3_PIPE]  ; [ORIG 16-BIT INS]
    1103                            .dwcfi  cfa_offset, 0
    1104                            ; BRANCH OCCURS                  ; [] 
    1105                            .dwattr $C$DW$111, DW_AT_TI_end_file("C:/TI_CodeComposer/TivaWare/sensorlib/i2cm_drv.h")
    1106                            .dwattr $C$DW$111, DW_AT_TI_end_line(0x215)
    1107                            .dwattr $C$DW$111, DW_AT_TI_end_column(0x01)
    1108                            .dwendentry
    1109                            .dwendtag $C$DW$111
    1110                    
    1111 00000000                   .sect   ".text"
    1112                            .clink
    1113                            .thumbfunc MagnetometerInit
    1114 00000000                   .thumb
    1115                            .global MagnetometerInit
    1116                    
    1117                    $C$DW$126       .dwtag  DW_TAG_subprogram
    1118                            .dwattr $C$DW$126, DW_AT_name("MagnetometerInit")
    1119                            .dwattr $C$DW$126, DW_AT_low_pc(MagnetometerInit)
    1120                            .dwattr $C$DW$126, DW_AT_high_pc(0x00)
    1121                            .dwattr $C$DW$126, DW_AT_TI_symbol_name("MagnetometerInit")
    1122                            .dwattr $C$DW$126, DW_AT_external
    1123                            .dwattr $C$DW$126, DW_AT_TI_begin_file("../Tasks/Magnetometer.c")
    1124                            .dwattr $C$DW$126, DW_AT_TI_begin_line(0x34)
    1125                            .dwattr $C$DW$126, DW_AT_TI_begin_column(0x0d)
    1126                            .dwattr $C$DW$126, DW_AT_decl_file("../Tasks/Magnetometer.c")
    1127                            .dwattr $C$DW$126, DW_AT_decl_line(0x34)
    1128                            .dwattr $C$DW$126, DW_AT_decl_column(0x0d)
    1129                            .dwattr $C$DW$126, DW_AT_TI_max_frame_size(0x10)
    1130                            .dwpsn  file "../Tasks/Magnetometer.c",line 52,column 31,is_stmt,address MagnetometerInit,isa 
    1131                    
    1132                            .dwfde $C$DW$CIE, MagnetometerInit
    1133                    
    1134                    ;*****************************************************************************
    1135                    ;* FUNCTION NAME: MagnetometerInit                                           *
    1136                    ;*                                                                           *
    1137                    ;*   Regs Modified     : A1,A2,A3,A4,V9,SP,LR,SR,D0,D0_hi,D1,D1_hi,D2,D2_hi, *
    1138                    ;*                           D3,D3_hi,D4,D4_hi,D5,D5_hi,D6,D6_hi,D7,D7_hi,   *
    1139                    ;*                           FPEXC,FPSCR                                     *
    1140                    ;*   Regs Used         : A1,A2,A3,A4,V9,SP,LR,SR,D0,D0_hi,D1,D1_hi,D2,D2_hi, *
    1141                    ;*                           D3,D3_hi,D4,D4_hi,D5,D5_hi,D6,D6_hi,D7,D7_hi,   *
    1142                    ;*                           FPEXC,FPSCR                                     *
    1143                    ;*   Local Frame Size  : 4 Args + 4 Auto + 4 Save = 12 byte                  *
    1144                    ;*****************************************************************************
    1145 00000000           MagnetometerInit:
    1146                    ;* --------------------------------------------------------------------------*
    1147                            .dwcfi  cfa_offset, 0
    1148 00000000 B50E              PUSH      {A2, A3, A4, LR}      ; [DPU_3_PIPE]  ; [ORIG 16-BIT INS]
    1149                            .dwcfi  cfa_offset, 16
    1150                            .dwcfi  save_reg_to_mem, 14, -4
    1151                            .dwcfi  save_reg_to_mem, 3, -8
    1152                            .dwcfi  save_reg_to_mem, 2, -12
    1153                            .dwcfi  save_reg_to_mem, 1, -16
    1154                    $C$DW$127       .dwtag  DW_TAG_variable
    1155                            .dwattr $C$DW$127, DW_AT_name("stat9150")
TI ARM Assembler PC v15.12.1 Thu Dec 01 13:25:52 2016

Tools Copyright (c) 1996-2015 Texas Instruments Incorporated
Magnetometer.asm                                                     PAGE   22

    1156                            .dwattr $C$DW$127, DW_AT_TI_symbol_name("stat9150")
    1157                            .dwattr $C$DW$127, DW_AT_type(*$C$DW$T$25)
    1158                            .dwattr $C$DW$127, DW_AT_location[DW_OP_breg13 4]
    1159                    
    1160                            .dwpsn  file "../Tasks/Magnetometer.c",line 55,column 2,is_stmt,isa 1
    1161 00000002 4857              LDR       A1, $C$CON1           ; [DPU_3_PIPE] |55|  ; [ORIG 16-BIT INS]
    1162 00000004 7800              LDRB      A1, [A1, #0]          ; [DPU_3_PIPE] |55|  ; [ORIG 16-BIT INS]
    1163 00000006 B9D0              CBNZ      A1, ||$C$L2||         ; []  ; [ORIG 16-BIT INS]
    1164                            ; BRANCHCC OCCURS {||$C$L2||}    ; [] |55| 
    1165                    ;* --------------------------------------------------------------------------*
    1166                            .dwpsn  file "../Tasks/Magnetometer.c",line 56,column 3,is_stmt,isa 1
    1167                            .dwpsn  file "../Tasks/Magnetometer.c",line 59,column 2,is_stmt,isa 1
    1168 00000008 4956              LDR       A2, $C$CON2           ; [DPU_3_PIPE] |59|  ; [ORIG 16-BIT INS]
    1169 0000000a 2077              MOVS      A1, #119              ; [DPU_3_PIPE] |59|  ; [ORIG 16-BIT INS]
    1170                    $C$DW$128       .dwtag  DW_TAG_TI_branch
    1171                            .dwattr $C$DW$128, DW_AT_low_pc(0x00)
    1172                            .dwattr $C$DW$128, DW_AT_name("IntRegister")
    1173                            .dwattr $C$DW$128, DW_AT_TI_call
    1174                    
    1175 0000000c FFFEF7FF!         BL        IntRegister           ; [DPU_3_PIPE] |59|  ; [KEEP 32-BIT INS]
    1176                            ; CALL OCCURS {IntRegister }     ; [] |59| 
    1177                            .dwpsn  file "../Tasks/Magnetometer.c",line 62,column 2,is_stmt,isa 1
    1178                    $C$DW$129       .dwtag  DW_TAG_TI_branch
    1179                            .dwattr $C$DW$129, DW_AT_low_pc(0x00)
    1180                            .dwattr $C$DW$129, DW_AT_name("I2C7_Initialization")
    1181                            .dwattr $C$DW$129, DW_AT_TI_call
    1182                    
    1183 00000010 FFFEF7FF!         BL        I2C7_Initialization   ; [DPU_3_PIPE] |62|  ; [KEEP 32-BIT INS]
    1184                            ; CALL OCCURS {I2C7_Initialization }  ; [] |62| 
    1185                            .dwpsn  file "../Tasks/Magnetometer.c",line 66,column 2,is_stmt,isa 1
    1186 00000014 2000              MOVS      A1, #0                ; [DPU_3_PIPE] |66|  ; [ORIG 16-BIT INS]
    1187 00000016 4954              LDR       A2, $C$CON3           ; [DPU_3_PIPE] |66|  ; [ORIG 16-BIT INS]
    1188 00000018 9000              STR       A1, [SP, #0]          ; [DPU_3_PIPE] |66|  ; [ORIG 16-BIT INS]
    1189 0000001a 4B55              LDR       A4, $C$CON5           ; [DPU_3_PIPE] |66|  ; [ORIG 16-BIT INS]
    1190 0000001c 4853              LDR       A1, $C$CON4           ; [DPU_3_PIPE] |66|  ; [ORIG 16-BIT INS]
    1191 0000001e 6809              LDR       A2, [A2, #0]          ; [DPU_3_PIPE] |66|  ; [ORIG 16-BIT INS]
    1192 00000020 2268              MOVS      A3, #104              ; [DPU_3_PIPE] |66|  ; [ORIG 16-BIT INS]
    1193                    $C$DW$130       .dwtag  DW_TAG_TI_branch
    1194                            .dwattr $C$DW$130, DW_AT_low_pc(0x00)
    1195                            .dwattr $C$DW$130, DW_AT_name("MPU9150Init")
    1196                            .dwattr $C$DW$130, DW_AT_TI_call
    1197                    
    1198 00000022 FFFEF7FF!         BL        MPU9150Init           ; [DPU_3_PIPE] |66|  ; [KEEP 32-BIT INS]
    1199                            ; CALL OCCURS {MPU9150Init }     ; [] |66| 
    1200 00000026 9001              STR       A1, [SP, #4]          ; [DPU_3_PIPE] |66|  ; [ORIG 16-BIT INS]
    1201                            .dwpsn  file "../Tasks/Magnetometer.c",line 67,column 2,is_stmt,isa 1
    1202                    ;* --------------------------------------------------------------------------*
    1203                    ;*   BEGIN LOOP ||$C$L1||
    1204                    ;*
    1205                    ;*   Loop source line                : 67
    1206                    ;*   Loop closing brace source line  : 67
    1207                    ;*   Known Minimum Trip Count        : 1
    1208                    ;*   Known Maximum Trip Count        : 4294967295
    1209                    ;*   Known Max Trip Count Factor     : 1
    1210                    ;* --------------------------------------------------------------------------*
TI ARM Assembler PC v15.12.1 Thu Dec 01 13:25:52 2016

Tools Copyright (c) 1996-2015 Texas Instruments Incorporated
Magnetometer.asm                                                     PAGE   23

    1211 00000028           ||$C$L1||:    
    1212                            .dwpsn  file "../Tasks/Magnetometer.c",line 67,column 8,is_stmt,isa 1
    1213 00000028 4852              LDR       A1, $C$CON6           ; [DPU_3_PIPE] |67|  ; [ORIG 16-BIT INS]
    1214 0000002a 7800              LDRB      A1, [A1, #0]          ; [DPU_3_PIPE] |67|  ; [ORIG 16-BIT INS]
    1215 0000002c 2800              CMP       A1, #0                ; [DPU_3_PIPE] |67|  ; [ORIG 16-BIT INS]
    1216 0000002e D0FB              BEQ       ||$C$L1||             ; [DPU_3_PIPE] |67|  ; [ORIG 16-BIT INS]
    1217                            ; BRANCHCC OCCURS {||$C$L1||}    ; [] |67| 
    1218                    ;* --------------------------------------------------------------------------*
    1219                            .dwpsn  file "../Tasks/Magnetometer.c",line 70,column 2,is_stmt,isa 1
    1220 00000030 494B              LDR       A2, $C$CON1           ; [DPU_3_PIPE] |70|  ; [ORIG 16-BIT INS]
    1221 00000032 2001              MOVS      A1, #1                ; [DPU_3_PIPE] |70|  ; [ORIG 16-BIT INS]
    1222 00000034 7008              STRB      A1, [A2, #0]          ; [DPU_3_PIPE] |70|  ; [ORIG 16-BIT INS]
    1223                            .dwpsn  file "../Tasks/Magnetometer.c",line 72,column 2,is_stmt,isa 1
    1224 00000036 9901              LDR       A2, [SP, #4]          ; [DPU_3_PIPE] |72|  ; [ORIG 16-BIT INS]
    1225 00000038 A036              ADR       A1, $C$SL1            ; [DPU_3_PIPE] |72|  ; [ORIG 16-BIT INS]
    1226                    $C$DW$131       .dwtag  DW_TAG_TI_branch
    1227                            .dwattr $C$DW$131, DW_AT_low_pc(0x00)
    1228                            .dwattr $C$DW$131, DW_AT_name("UARTprintf")
    1229                            .dwattr $C$DW$131, DW_AT_TI_call
    1230                    
    1231 0000003a FFFEF7FF!         BL        UARTprintf            ; [DPU_3_PIPE] |72|  ; [KEEP 32-BIT INS]
    1232                            ; CALL OCCURS {UARTprintf }      ; [] |72| 
    1233                            .dwpsn  file "../Tasks/Magnetometer.c",line 73,column 1,is_stmt,isa 1
    1234                    ;* --------------------------------------------------------------------------*
    1235                    ||$C$L2||:    
    1236                    $C$DW$132       .dwtag  DW_TAG_TI_branch
    1237                            .dwattr $C$DW$132, DW_AT_low_pc(0x00)
    1238                            .dwattr $C$DW$132, DW_AT_TI_return
    1239                    
    1240 0000003e BD0E              POP       {A2, A3, A4, PC}      ; [DPU_3_PIPE]  ; [ORIG 16-BIT INS]
    1241                            .dwcfi  cfa_offset, 0
    1242                            ; BRANCH OCCURS                  ; [] 
    1243                            .dwattr $C$DW$126, DW_AT_TI_end_file("../Tasks/Magnetometer.c")
    1244                            .dwattr $C$DW$126, DW_AT_TI_end_line(0x49)
    1245                            .dwattr $C$DW$126, DW_AT_TI_end_column(0x01)
    1246                            .dwendentry
    1247                            .dwendtag $C$DW$126
    1248                    
    1249 00000040                   .sect   ".text"
    1250                            .clink
    1251                            .thumbfunc MPU9150Callback
    1252 00000040                   .thumb
    1253                            .global MPU9150Callback
    1254                    
    1255                    $C$DW$133       .dwtag  DW_TAG_subprogram
    1256                            .dwattr $C$DW$133, DW_AT_name("MPU9150Callback")
    1257                            .dwattr $C$DW$133, DW_AT_low_pc(MPU9150Callback)
    1258                            .dwattr $C$DW$133, DW_AT_high_pc(0x00)
    1259                            .dwattr $C$DW$133, DW_AT_TI_symbol_name("MPU9150Callback")
    1260                            .dwattr $C$DW$133, DW_AT_external
    1261                            .dwattr $C$DW$133, DW_AT_TI_begin_file("../Tasks/Magnetometer.c")
    1262                            .dwattr $C$DW$133, DW_AT_TI_begin_line(0x4b)
    1263                            .dwattr $C$DW$133, DW_AT_TI_begin_column(0x0d)
    1264                            .dwattr $C$DW$133, DW_AT_decl_file("../Tasks/Magnetometer.c")
    1265                            .dwattr $C$DW$133, DW_AT_decl_line(0x4b)
TI ARM Assembler PC v15.12.1 Thu Dec 01 13:25:52 2016

Tools Copyright (c) 1996-2015 Texas Instruments Incorporated
Magnetometer.asm                                                     PAGE   24

    1266                            .dwattr $C$DW$133, DW_AT_decl_column(0x0d)
    1267                            .dwattr $C$DW$133, DW_AT_TI_max_frame_size(0x10)
    1268                            .dwpsn  file "../Tasks/Magnetometer.c",line 75,column 75,is_stmt,address MPU9150Callback,isa 1
    1269                    
    1270                            .dwfde $C$DW$CIE, MPU9150Callback
    1271                    $C$DW$134       .dwtag  DW_TAG_formal_parameter
    1272                            .dwattr $C$DW$134, DW_AT_name("pvCallbackData")
    1273                            .dwattr $C$DW$134, DW_AT_TI_symbol_name("pvCallbackData")
    1274                            .dwattr $C$DW$134, DW_AT_type(*$C$DW$T$3)
    1275                            .dwattr $C$DW$134, DW_AT_location[DW_OP_reg0]
    1276                    
    1277                    $C$DW$135       .dwtag  DW_TAG_formal_parameter
    1278                            .dwattr $C$DW$135, DW_AT_name("ui8Status")
    1279                            .dwattr $C$DW$135, DW_AT_TI_symbol_name("ui8Status")
    1280                            .dwattr $C$DW$135, DW_AT_type(*$C$DW$T$25)
    1281                            .dwattr $C$DW$135, DW_AT_location[DW_OP_reg1]
    1282                    
    1283                    
    1284                    ;*****************************************************************************
    1285                    ;* FUNCTION NAME: MPU9150Callback                                            *
    1286                    ;*                                                                           *
    1287                    ;*   Regs Modified     : A1,A2,A3,A4,V9,SP,LR,SR,D0,D0_hi,D1,D1_hi,D2,D2_hi, *
    1288                    ;*                           D3,D3_hi,D4,D4_hi,D5,D5_hi,D6,D6_hi,D7,D7_hi,   *
    1289                    ;*                           FPEXC,FPSCR                                     *
    1290                    ;*   Regs Used         : A1,A2,A3,A4,V9,SP,LR,SR,D0,D0_hi,D1,D1_hi,D2,D2_hi, *
    1291                    ;*                           D3,D3_hi,D4,D4_hi,D5,D5_hi,D6,D6_hi,D7,D7_hi,   *
    1292                    ;*                           FPEXC,FPSCR                                     *
    1293                    ;*   Local Frame Size  : 0 Args + 8 Auto + 4 Save = 12 byte                  *
    1294                    ;*****************************************************************************
    1295 00000040           MPU9150Callback:
    1296                    ;* --------------------------------------------------------------------------*
    1297                            .dwcfi  cfa_offset, 0
    1298 00000040 B50E              PUSH      {A2, A3, A4, LR}      ; [DPU_3_PIPE]  ; [ORIG 16-BIT INS]
    1299                            .dwcfi  cfa_offset, 16
    1300                            .dwcfi  save_reg_to_mem, 14, -4
    1301                            .dwcfi  save_reg_to_mem, 3, -8
    1302                            .dwcfi  save_reg_to_mem, 2, -12
    1303                            .dwcfi  save_reg_to_mem, 1, -16
    1304                    $C$DW$136       .dwtag  DW_TAG_variable
    1305                            .dwattr $C$DW$136, DW_AT_name("pvCallbackData")
    1306                            .dwattr $C$DW$136, DW_AT_TI_symbol_name("pvCallbackData")
    1307                            .dwattr $C$DW$136, DW_AT_type(*$C$DW$T$3)
    1308                            .dwattr $C$DW$136, DW_AT_location[DW_OP_breg13 0]
    1309                    
    1310                    $C$DW$137       .dwtag  DW_TAG_variable
    1311                            .dwattr $C$DW$137, DW_AT_name("ui8Status")
    1312                            .dwattr $C$DW$137, DW_AT_TI_symbol_name("ui8Status")
    1313                            .dwattr $C$DW$137, DW_AT_type(*$C$DW$T$25)
    1314                            .dwattr $C$DW$137, DW_AT_location[DW_OP_breg13 4]
    1315                    
    1316 00000042 9101              STR       A2, [SP, #4]          ; [DPU_3_PIPE] |75|  ; [ORIG 16-BIT INS]
    1317 00000044 9000              STR       A1, [SP, #0]          ; [DPU_3_PIPE] |75|  ; [ORIG 16-BIT INS]
    1318                            .dwpsn  file "../Tasks/Magnetometer.c",line 78,column 2,is_stmt,isa 1
    1319 00000046 9801              LDR       A1, [SP, #4]          ; [DPU_3_PIPE] |78|  ; [ORIG 16-BIT INS]
    1320 00000048 B118              CBZ       A1, ||$C$L3||         ; []  ; [ORIG 16-BIT INS]
TI ARM Assembler PC v15.12.1 Thu Dec 01 13:25:52 2016

Tools Copyright (c) 1996-2015 Texas Instruments Incorporated
Magnetometer.asm                                                     PAGE   25

    1321                            ; BRANCHCC OCCURS {||$C$L3||}    ; [] |78| 
    1322                    ;* --------------------------------------------------------------------------*
    1323                            .dwpsn  file "../Tasks/Magnetometer.c",line 81,column 3,is_stmt,isa 1
    1324 0000004a 9901              LDR       A2, [SP, #4]          ; [DPU_3_PIPE] |81|  ; [ORIG 16-BIT INS]
    1325 0000004c A039              ADR       A1, $C$SL2            ; [DPU_3_PIPE] |81|  ; [ORIG 16-BIT INS]
    1326                    $C$DW$138       .dwtag  DW_TAG_TI_branch
    1327                            .dwattr $C$DW$138, DW_AT_low_pc(0x00)
    1328                            .dwattr $C$DW$138, DW_AT_name("UARTprintf")
    1329                            .dwattr $C$DW$138, DW_AT_TI_call
    1330                    
    1331 0000004e FFFEF7FF!         BL        UARTprintf            ; [DPU_3_PIPE] |81|  ; [KEEP 32-BIT INS]
    1332                            ; CALL OCCURS {UARTprintf }      ; [] |81| 
    1333                    ;* --------------------------------------------------------------------------*
    1334 00000052           ||$C$L3||:    
    1335                            .dwpsn  file "../Tasks/Magnetometer.c",line 85,column 2,is_stmt,isa 1
    1336 00000052 4948              LDR       A2, $C$CON6           ; [DPU_3_PIPE] |85|  ; [ORIG 16-BIT INS]
    1337 00000054 2001              MOVS      A1, #1                ; [DPU_3_PIPE] |85|  ; [ORIG 16-BIT INS]
    1338 00000056 7008              STRB      A1, [A2, #0]          ; [DPU_3_PIPE] |85|  ; [ORIG 16-BIT INS]
    1339                            .dwpsn  file "../Tasks/Magnetometer.c",line 86,column 1,is_stmt,isa 1
    1340                    $C$DW$139       .dwtag  DW_TAG_TI_branch
    1341                            .dwattr $C$DW$139, DW_AT_low_pc(0x00)
    1342                            .dwattr $C$DW$139, DW_AT_TI_return
    1343                    
    1344 00000058 BD0E              POP       {A2, A3, A4, PC}      ; [DPU_3_PIPE]  ; [ORIG 16-BIT INS]
    1345                            .dwcfi  cfa_offset, 0
    1346                            ; BRANCH OCCURS                  ; [] 
    1347                            .dwattr $C$DW$133, DW_AT_TI_end_file("../Tasks/Magnetometer.c")
    1348                            .dwattr $C$DW$133, DW_AT_TI_end_line(0x56)
    1349                            .dwattr $C$DW$133, DW_AT_TI_end_column(0x01)
    1350                            .dwendentry
    1351                            .dwendtag $C$DW$133
    1352                    
    1353 0000005a                   .sect   ".text"
    1354                            .clink
    1355                            .thumbfunc Task_Magnetometer
    1356 0000005a                   .thumb
    1357                            .global Task_Magnetometer
    1358                    
    1359                    $C$DW$140       .dwtag  DW_TAG_subprogram
    1360                            .dwattr $C$DW$140, DW_AT_name("Task_Magnetometer")
    1361                            .dwattr $C$DW$140, DW_AT_low_pc(Task_Magnetometer)
    1362                            .dwattr $C$DW$140, DW_AT_high_pc(0x00)
    1363                            .dwattr $C$DW$140, DW_AT_TI_symbol_name("Task_Magnetometer")
    1364                            .dwattr $C$DW$140, DW_AT_external
    1365                            .dwattr $C$DW$140, DW_AT_TI_begin_file("../Tasks/Magnetometer.c")
    1366                            .dwattr $C$DW$140, DW_AT_TI_begin_line(0x58)
    1367                            .dwattr $C$DW$140, DW_AT_TI_begin_column(0x0d)
    1368                            .dwattr $C$DW$140, DW_AT_decl_file("../Tasks/Magnetometer.c")
    1369                            .dwattr $C$DW$140, DW_AT_decl_line(0x58)
    1370                            .dwattr $C$DW$140, DW_AT_decl_column(0x0d)
    1371                            .dwattr $C$DW$140, DW_AT_TI_max_frame_size(0x08)
    1372                            .dwpsn  file "../Tasks/Magnetometer.c",line 88,column 51,is_stmt,address Task_Magnetometer,isa
    1373                    
    1374                            .dwfde $C$DW$CIE, Task_Magnetometer
    1375                    $C$DW$141       .dwtag  DW_TAG_formal_parameter
TI ARM Assembler PC v15.12.1 Thu Dec 01 13:25:52 2016

Tools Copyright (c) 1996-2015 Texas Instruments Incorporated
Magnetometer.asm                                                     PAGE   26

    1376                            .dwattr $C$DW$141, DW_AT_name("pvParameters")
    1377                            .dwattr $C$DW$141, DW_AT_TI_symbol_name("pvParameters")
    1378                            .dwattr $C$DW$141, DW_AT_type(*$C$DW$T$3)
    1379                            .dwattr $C$DW$141, DW_AT_location[DW_OP_reg0]
    1380                    
    1381                    
    1382                    ;*****************************************************************************
    1383                    ;* FUNCTION NAME: Task_Magnetometer                                          *
    1384                    ;*                                                                           *
    1385                    ;*   Regs Modified     : A1,A2,A3,A4,V9,SP,LR,SR,D0,D0_hi,D1,D1_hi,D2,D2_hi, *
    1386                    ;*                           D3,D3_hi,D4,D4_hi,D5,D5_hi,D6,D6_hi,D7,D7_hi,   *
    1387                    ;*                           FPEXC,FPSCR                                     *
    1388                    ;*   Regs Used         : A1,A2,A3,A4,V9,SP,LR,SR,D0,D0_hi,D1,D1_hi,D2,D2_hi, *
    1389                    ;*                           D3,D3_hi,D4,D4_hi,D5,D5_hi,D6,D6_hi,D7,D7_hi,   *
    1390                    ;*                           FPEXC,FPSCR                                     *
    1391                    ;*   Local Frame Size  : 0 Args + 4 Auto + 4 Save = 8 byte                   *
    1392                    ;*****************************************************************************
    1393 0000005a           Task_Magnetometer:
    1394                    ;* --------------------------------------------------------------------------*
    1395                            .dwcfi  cfa_offset, 0
    1396 0000005a B508              PUSH      {A4, LR}              ; [DPU_3_PIPE]  ; [ORIG 16-BIT INS]
    1397                            .dwcfi  cfa_offset, 8
    1398                            .dwcfi  save_reg_to_mem, 14, -4
    1399                            .dwcfi  save_reg_to_mem, 3, -8
    1400                    $C$DW$142       .dwtag  DW_TAG_variable
    1401                            .dwattr $C$DW$142, DW_AT_name("pvParameters")
    1402                            .dwattr $C$DW$142, DW_AT_TI_symbol_name("pvParameters")
    1403                            .dwattr $C$DW$142, DW_AT_type(*$C$DW$T$3)
    1404                            .dwattr $C$DW$142, DW_AT_location[DW_OP_breg13 0]
    1405                    
    1406 0000005c 9000              STR       A1, [SP, #0]          ; [DPU_3_PIPE] |88|  ; [ORIG 16-BIT INS]
    1407                            .dwpsn  file "../Tasks/Magnetometer.c",line 91,column 2,is_stmt,isa 1
    1408                    $C$DW$143       .dwtag  DW_TAG_TI_branch
    1409                            .dwattr $C$DW$143, DW_AT_low_pc(0x00)
    1410                            .dwattr $C$DW$143, DW_AT_name("MagnetometerInit")
    1411                            .dwattr $C$DW$143, DW_AT_TI_call
    1412                    
    1413 0000005e FFCFF7FF          BL        MagnetometerInit      ; [DPU_3_PIPE] |91|  ; [KEEP 32-BIT INS]
    1414                            ; CALL OCCURS {MagnetometerInit }  ; [] |91| 
    1415                            .dwpsn  file "../Tasks/Magnetometer.c",line 94,column 9,is_stmt,isa 1
    1416                    ;* --------------------------------------------------------------------------*
    1417                    ;*   BEGIN LOOP ||$C$L4||
    1418                    ;*
    1419                    ;*   Loop source line                : 94
    1420                    ;*   Loop closing brace source line  : 116
    1421                    ;*   Known Minimum Trip Count        : 1
    1422                    ;*   Known Maximum Trip Count        : 4294967295
    1423                    ;*   Known Max Trip Count Factor     : 1
    1424                    ;* --------------------------------------------------------------------------*
    1425 00000062           ||$C$L4||:    
    1426                            .dwpsn  file "../Tasks/Magnetometer.c",line 96,column 3,is_stmt,isa 1
    1427 00000062 4944              LDR       A2, $C$CON6           ; [DPU_3_PIPE] |96|  ; [ORIG 16-BIT INS]
    1428 00000064 2000              MOVS      A1, #0                ; [DPU_3_PIPE] |96|  ; [ORIG 16-BIT INS]
    1429 00000066 7008              STRB      A1, [A2, #0]          ; [DPU_3_PIPE] |96|  ; [ORIG 16-BIT INS]
    1430                            .dwpsn  file "../Tasks/Magnetometer.c",line 97,column 3,is_stmt,isa 1
TI ARM Assembler PC v15.12.1 Thu Dec 01 13:25:52 2016

Tools Copyright (c) 1996-2015 Texas Instruments Incorporated
Magnetometer.asm                                                     PAGE   27

    1431 00000068 4840              LDR       A1, $C$CON4           ; [DPU_3_PIPE] |97|  ; [ORIG 16-BIT INS]
    1432 0000006a 4941              LDR       A2, $C$CON5           ; [DPU_3_PIPE] |97|  ; [ORIG 16-BIT INS]
    1433 0000006c 2200              MOVS      A3, #0                ; [DPU_3_PIPE] |97|  ; [ORIG 16-BIT INS]
    1434                    $C$DW$144       .dwtag  DW_TAG_TI_branch
    1435                            .dwattr $C$DW$144, DW_AT_low_pc(0x00)
    1436                            .dwattr $C$DW$144, DW_AT_name("MPU9150DataRead")
    1437                            .dwattr $C$DW$144, DW_AT_TI_call
    1438                    
    1439 0000006e FFFEF7FF!         BL        MPU9150DataRead       ; [DPU_3_PIPE] |97|  ; [KEEP 32-BIT INS]
    1440                            ; CALL OCCURS {MPU9150DataRead }  ; [] |97| 
    1441                            .dwpsn  file "../Tasks/Magnetometer.c",line 98,column 3,is_stmt,isa 1
    1442                    ;* --------------------------------------------------------------------------*
    1443                    ;*   BEGIN LOOP ||$C$L5||
    1444                    ;*
    1445                    ;*   Loop source line                : 98
    1446                    ;*   Loop closing brace source line  : 98
    1447                    ;*   Known Minimum Trip Count        : 1
    1448                    ;*   Known Maximum Trip Count        : 4294967295
    1449                    ;*   Known Max Trip Count Factor     : 1
    1450                    ;* --------------------------------------------------------------------------*
    1451 00000072           ||$C$L5||:    
    1452                            .dwpsn  file "../Tasks/Magnetometer.c",line 98,column 9,is_stmt,isa 1
    1453 00000072 4840              LDR       A1, $C$CON6           ; [DPU_3_PIPE] |98|  ; [ORIG 16-BIT INS]
    1454 00000074 7800              LDRB      A1, [A1, #0]          ; [DPU_3_PIPE] |98|  ; [ORIG 16-BIT INS]
    1455 00000076 2800              CMP       A1, #0                ; [DPU_3_PIPE] |98|  ; [ORIG 16-BIT INS]
    1456 00000078 D0FB              BEQ       ||$C$L5||             ; [DPU_3_PIPE] |98|  ; [ORIG 16-BIT INS]
    1457                            ; BRANCHCC OCCURS {||$C$L5||}    ; [] |98| 
    1458                    ;* --------------------------------------------------------------------------*
    1459                            .dwpsn  file "../Tasks/Magnetometer.c",line 99,column 3,is_stmt,isa 1
    1460 0000007a 493F              LDR       A2, $C$CON7           ; [DPU_3_PIPE] |99|  ; [ORIG 16-BIT INS]
    1461 0000007c 4A3F              LDR       A3, $C$CON8           ; [DPU_3_PIPE] |99|  ; [ORIG 16-BIT INS]
    1462 0000007e 4B40              LDR       A4, $C$CON9           ; [DPU_3_PIPE] |99|  ; [ORIG 16-BIT INS]
    1463 00000080 483A              LDR       A1, $C$CON4           ; [DPU_3_PIPE] |99|  ; [ORIG 16-BIT INS]
    1464                    $C$DW$145       .dwtag  DW_TAG_TI_branch
    1465                            .dwattr $C$DW$145, DW_AT_low_pc(0x00)
    1466                            .dwattr $C$DW$145, DW_AT_name("MPU9150DataMagnetoGetFloat")
    1467                            .dwattr $C$DW$145, DW_AT_TI_call
    1468                    
    1469 00000082 FFFEF7FF!         BL        MPU9150DataMagnetoGetFloat ; [DPU_3_PIPE] |99|  ; [KEEP 32-BIT INS]
    1470                            ; CALL OCCURS {MPU9150DataMagnetoGetFloat }  ; [] |99| 
    1471                            .dwpsn  file "../Tasks/Magnetometer.c",line 102,column 3,is_stmt,isa 1
    1472 00000086 4840              LDR       A1, $C$CON11          ; [DPU_3_PIPE] |102|  ; [ORIG 16-BIT INS]
    1473 00000088 493E              LDR       A2, $C$CON10          ; [DPU_3_PIPE] |102|  ; [ORIG 16-BIT INS]
    1474 0000008a 6800              LDR       A1, [A1, #0]          ; [DPU_3_PIPE] |102|  ; [ORIG 16-BIT INS]
    1475 0000008c 6008              STR       A1, [A2, #0]          ; [DPU_3_PIPE] |102|  ; [ORIG 16-BIT INS]
    1476                            .dwpsn  file "../Tasks/Magnetometer.c",line 103,column 3,is_stmt,isa 1
    1477 0000008e 493F              LDR       A2, $C$CON12          ; [DPU_3_PIPE] |103|  ; [ORIG 16-BIT INS]
    1478 00000090 2082              MOVS      A1, #130              ; [DPU_3_PIPE] |103|  ; [ORIG 16-BIT INS]
    1479 00000092 6008              STR       A1, [A2, #0]          ; [DPU_3_PIPE] |103|  ; [ORIG 16-BIT INS]
    1480                            .dwpsn  file "../Tasks/Magnetometer.c",line 104,column 3,is_stmt,isa 1
    1481 00000094 4831              LDR       A1, $C$FL1            ; [DPU_3_PIPE] |104|  ; [ORIG 16-BIT INS]
    1482 00000096 0A10EE00          VMOV      S0, A1                ; [DPU_LIN_PIPE] |104|  ; [KEEP 32-BIT INS]
    1483 0000009a 4837              LDR       A1, $C$CON7           ; [DPU_3_PIPE] |104|  ; [ORIG 16-BIT INS]
    1484 0000009c 0A00EDD0          VLDR.32   S1, [A1, #0]          ; [DPU_LIN_PIPE] |104|  ; [KEEP 32-BIT INS]
    1485 000000a0 0A20EE20          VMUL.F32  S0, S0, S1            ; [DPU_LIN_PIPE] |104|  ; [KEEP 32-BIT INS]
TI ARM Assembler PC v15.12.1 Thu Dec 01 13:25:52 2016

Tools Copyright (c) 1996-2015 Texas Instruments Incorporated
Magnetometer.asm                                                     PAGE   28

    1486 000000a4 0AC0EEBD          VCVT.S32.F32 S0, S0             ; [DPU_LIN_PIPE] |104|  ; [KEEP 32-BIT INS]
    1487 000000a8 4939              LDR       A2, $C$CON13          ; [DPU_3_PIPE] |104|  ; [ORIG 16-BIT INS]
    1488 000000aa 0A10EE10          VMOV      A1, S0                ; [DPU_LIN_PIPE] |104|  ; [KEEP 32-BIT INS]
    1489 000000ae 6008              STR       A1, [A2, #0]          ; [DPU_3_PIPE] |104|  ; [ORIG 16-BIT INS]
    1490                            .dwpsn  file "../Tasks/Magnetometer.c",line 105,column 3,is_stmt,isa 1
    1491 000000b0 482A              LDR       A1, $C$FL1            ; [DPU_3_PIPE] |105|  ; [ORIG 16-BIT INS]
    1492 000000b2 0A10EE00          VMOV      S0, A1                ; [DPU_LIN_PIPE] |105|  ; [KEEP 32-BIT INS]
    1493 000000b6 4831              LDR       A1, $C$CON8           ; [DPU_3_PIPE] |105|  ; [ORIG 16-BIT INS]
    1494 000000b8 0A00EDD0          VLDR.32   S1, [A1, #0]          ; [DPU_LIN_PIPE] |105|  ; [KEEP 32-BIT INS]
    1495 000000bc 0A20EE20          VMUL.F32  S0, S0, S1            ; [DPU_LIN_PIPE] |105|  ; [KEEP 32-BIT INS]
    1496 000000c0 0AC0EEBD          VCVT.S32.F32 S0, S0             ; [DPU_LIN_PIPE] |105|  ; [KEEP 32-BIT INS]
    1497 000000c4 4933              LDR       A2, $C$CON14          ; [DPU_3_PIPE] |105|  ; [ORIG 16-BIT INS]
    1498 000000c6 0A10EE10          VMOV      A1, S0                ; [DPU_LIN_PIPE] |105|  ; [KEEP 32-BIT INS]
    1499 000000ca 6008              STR       A1, [A2, #0]          ; [DPU_3_PIPE] |105|  ; [ORIG 16-BIT INS]
    1500                            .dwpsn  file "../Tasks/Magnetometer.c",line 106,column 3,is_stmt,isa 1
    1501 000000cc 4823              LDR       A1, $C$FL1            ; [DPU_3_PIPE] |106|  ; [ORIG 16-BIT INS]
    1502 000000ce 0A10EE00          VMOV      S0, A1                ; [DPU_LIN_PIPE] |106|  ; [KEEP 32-BIT INS]
    1503 000000d2 482B              LDR       A1, $C$CON9           ; [DPU_3_PIPE] |106|  ; [ORIG 16-BIT INS]
    1504 000000d4 0A00EDD0          VLDR.32   S1, [A1, #0]          ; [DPU_LIN_PIPE] |106|  ; [KEEP 32-BIT INS]
    1505 000000d8 0A20EE20          VMUL.F32  S0, S0, S1            ; [DPU_LIN_PIPE] |106|  ; [KEEP 32-BIT INS]
    1506 000000dc 0AC0EEBD          VCVT.S32.F32 S0, S0             ; [DPU_LIN_PIPE] |106|  ; [KEEP 32-BIT INS]
    1507 000000e0 492D              LDR       A2, $C$CON15          ; [DPU_3_PIPE] |106|  ; [ORIG 16-BIT INS]
    1508 000000e2 0A10EE10          VMOV      A1, S0                ; [DPU_LIN_PIPE] |106|  ; [KEEP 32-BIT INS]
    1509 000000e6 6008              STR       A1, [A2, #0]          ; [DPU_3_PIPE] |106|  ; [ORIG 16-BIT INS]
    1510                            .dwpsn  file "../Tasks/Magnetometer.c",line 107,column 3,is_stmt,isa 1
    1511 000000e8 492C              LDR       A2, $C$CON16          ; [DPU_3_PIPE] |107|  ; [ORIG 16-BIT INS]
    1512 000000ea 2000              MOVS      A1, #0                ; [DPU_3_PIPE] |107|  ; [ORIG 16-BIT INS]
    1513 000000ec 6008              STR       A1, [A2, #0]          ; [DPU_3_PIPE] |107|  ; [ORIG 16-BIT INS]
    1514                            .dwpsn  file "../Tasks/Magnetometer.c",line 112,column 3,is_stmt,isa 1
    1515 000000ee 481B              LDR       A1, $C$FL1            ; [DPU_3_PIPE] |112|  ; [ORIG 16-BIT INS]
    1516 000000f0 0A10EE00          VMOV      S0, A1                ; [DPU_LIN_PIPE] |112|  ; [KEEP 32-BIT INS]
    1517 000000f4 4821              LDR       A1, $C$CON8           ; [DPU_3_PIPE] |112|  ; [ORIG 16-BIT INS]
    1518 000000f6 0A00EDD0          VLDR.32   S1, [A1, #0]          ; [DPU_LIN_PIPE] |112|  ; [KEEP 32-BIT INS]
    1519 000000fa 0A20EE20          VMUL.F32  S0, S0, S1            ; [DPU_LIN_PIPE] |112|  ; [KEEP 32-BIT INS]
    1520 000000fe 0AC0EEBD          VCVT.S32.F32 S0, S0             ; [DPU_LIN_PIPE] |112|  ; [KEEP 32-BIT INS]
    1521 00000102 4927              LDR       A2, $C$CON17          ; [DPU_3_PIPE] |112|  ; [ORIG 16-BIT INS]
    1522 00000104 0A10EE10          VMOV      A1, S0                ; [DPU_LIN_PIPE] |112|  ; [KEEP 32-BIT INS]
    1523 00000108 6008              STR       A1, [A2, #0]          ; [DPU_3_PIPE] |112|  ; [ORIG 16-BIT INS]
    1524                            .dwpsn  file "../Tasks/Magnetometer.c",line 115,column 3,is_stmt,isa 1
    1525 0000010a 2064              MOVS      A1, #100              ; [DPU_3_PIPE] |115|  ; [ORIG 16-BIT INS]
    1526                    $C$DW$146       .dwtag  DW_TAG_TI_branch
    1527                            .dwattr $C$DW$146, DW_AT_low_pc(0x00)
    1528                            .dwattr $C$DW$146, DW_AT_name("vTaskDelay")
    1529                            .dwattr $C$DW$146, DW_AT_TI_call
    1530                    
    1531 0000010c FFFEF7FF!         BL        vTaskDelay            ; [DPU_3_PIPE] |115|  ; [KEEP 32-BIT INS]
    1532                            ; CALL OCCURS {vTaskDelay }      ; [] |115| 
    1533                            .dwpsn  file "../Tasks/Magnetometer.c",line 94,column 9,is_stmt,isa 1
    1534 00000110 E7A7              B         ||$C$L4||             ; [DPU_3_PIPE] |94|  ; [ORIG 16-BIT INS]
    1535                            ; BRANCH OCCURS {||$C$L4||}      ; [] |94| 
    1536                    ;* --------------------------------------------------------------------------*
    1537                            .dwattr $C$DW$140, DW_AT_TI_end_file("../Tasks/Magnetometer.c")
    1538                            .dwattr $C$DW$140, DW_AT_TI_end_line(0x75)
    1539                            .dwattr $C$DW$140, DW_AT_TI_end_column(0x01)
    1540                            .dwendentry
TI ARM Assembler PC v15.12.1 Thu Dec 01 13:25:52 2016

Tools Copyright (c) 1996-2015 Texas Instruments Incorporated
Magnetometer.asm                                                     PAGE   29

    1541                            .dwendtag $C$DW$140
    1542                    
    1543                    ;******************************************************************************
    1544                    ;* STRINGS                                                                    *
    1545                    ;******************************************************************************
    1546 00000112                   .sect   ".text"
    1547                            .align  4
    1548 00000114 3E        ||$C$SL1||:     .string ">>>>MPU9150Init; Status: %02X",10,0
         00000115 3E       
         00000116 3E       
         00000117 3E       
         00000118 4D       
         00000119 50       
         0000011a 55       
         0000011b 39       
         0000011c 31       
         0000011d 35       
         0000011e 30       
         0000011f 49       
         00000120 6E       
         00000121 69       
         00000122 74       
         00000123 3B       
         00000124 20       
         00000125 53       
         00000126 74       
         00000127 61       
         00000128 74       
         00000129 75       
         0000012a 73       
         0000012b 3A       
         0000012c 20       
         0000012d 25       
         0000012e 30       
         0000012f 32       
         00000130 58       
         00000131 0A       
         00000132 00       
    1549                            .align  4
    1550 00000134 3E        ||$C$SL2||:     .string ">>>>I2C7 in 9150 callback Error: %02X",10,0
         00000135 3E       
         00000136 3E       
         00000137 3E       
         00000138 49       
         00000139 32       
         0000013a 43       
         0000013b 37       
         0000013c 20       
         0000013d 69       
         0000013e 6E       
         0000013f 20       
         00000140 39       
         00000141 31       
         00000142 35       
         00000143 30       
TI ARM Assembler PC v15.12.1 Thu Dec 01 13:25:52 2016

Tools Copyright (c) 1996-2015 Texas Instruments Incorporated
Magnetometer.asm                                                     PAGE   30

         00000144 20       
         00000145 63       
         00000146 61       
         00000147 6C       
         00000148 6C       
         00000149 62       
         0000014a 61       
         0000014b 63       
         0000014c 6B       
         0000014d 20       
         0000014e 45       
         0000014f 72       
         00000150 72       
         00000151 6F       
         00000152 72       
         00000153 3A       
         00000154 20       
         00000155 25       
         00000156 30       
         00000157 32       
         00000158 58       
         00000159 0A       
         0000015a 00       
    1551                    ;******************************************************************************
    1552                    ;* FLOATING-POINT CONSTANTS                                                   *
    1553                    ;******************************************************************************
    1554 0000015b                   .sect   ".text"
    1555                            .align  4
    1556 0000015c 49742400  ||$C$FL1||:     .word   049742400h      ; 1000000
    1557                    ;******************************************************************************
    1558                    ;* CONSTANT TABLE                                                             *
    1559                    ;******************************************************************************
    1560 00000160                   .sect   ".text"
    1561                            .align  4
    1562 0000015e 00004974! ||$C$CON1||:    .bits   isMPU9150Initialized,32
         00000162 00000000 
    1563                            .align  4
    1564 00000162 00000000! ||$C$CON2||:    .bits   I2C7_IntServiceRoutine,32
         00000166 00000000 
    1565                            .align  4
    1566 00000166 00000000! ||$C$CON3||:    .bits   I2C7_Instance_Ref,32
         0000016a 00000000 
    1567                            .align  4
    1568 0000016a 00000000! ||$C$CON4||:    .bits   sMPU9150,32
         0000016e 00000000 
    1569                            .align  4
    1570 0000016e 00000000! ||$C$CON5||:    .bits   MPU9150Callback,32
         00000172 00000000 
    1571                            .align  4
    1572 00000172 00000000! ||$C$CON6||:    .bits   g_bMPU9150Done,32
         00000176 00000000 
    1573                            .align  4
    1574 00000176 00000000! ||$C$CON7||:    .bits   fMagneto,32
         0000017a 00000000 
    1575                            .align  4
TI ARM Assembler PC v15.12.1 Thu Dec 01 13:25:52 2016

Tools Copyright (c) 1996-2015 Texas Instruments Incorporated
Magnetometer.asm                                                     PAGE   31

    1576 0000017a 00040000! ||$C$CON8||:    .bits   fMagneto+4,32
         0000017e 00000000 
    1577                            .align  4
    1578 0000017e 00080000! ||$C$CON9||:    .bits   fMagneto+8,32
         00000182 00000000 
    1579                            .align  4
    1580 00000182 00000000! ||$C$CON10||:   .bits   magnetometerReport,32
         00000186 00000000 
    1581                            .align  4
    1582 00000186 00000000! ||$C$CON11||:   .bits   xPortSysTickCount,32
         0000018a 00000000 
    1583                            .align  4
    1584 0000018a 00040000! ||$C$CON12||:   .bits   magnetometerReport+4,32
         0000018e 00000000 
    1585                            .align  4
    1586 0000018e 00080000! ||$C$CON13||:   .bits   magnetometerReport+8,32
         00000192 00000000 
    1587                            .align  4
    1588 00000192 000C0000! ||$C$CON14||:   .bits   magnetometerReport+12,32
         00000196 00000000 
    1589                            .align  4
    1590 00000196 00100000! ||$C$CON15||:   .bits   magnetometerReport+16,32
         0000019a 00000000 
    1591                            .align  4
    1592 0000019a 00140000! ||$C$CON16||:   .bits   magnetometerReport+20,32
         0000019e 00000000 
    1593                            .align  4
    1594 0000019e 00000000! ||$C$CON17||:   .bits   magnetometerValue,32
         000001a2 00000000 
    1595                    ;*****************************************************************************
    1596                    ;* UNDEFINED EXTERNAL REFERENCES                                             *
    1597                    ;*****************************************************************************
    1598                            .global vTaskDelay
    1599                            .global UARTprintf
    1600                            .global I2CMCommand
    1601                            .global I2CMReadModifyWrite16LE
    1602                            .global I2C7_Initialization
    1603                            .global MPU9150Init
    1604                            .global MPU9150DataRead
    1605                            .global MPU9150DataMagnetoGetFloat
    1606                            .global I2C7_IntServiceRoutine
    1607                            .global IntRegister
    1608                            .global I2C7_Instance_Ref
    1609                            .global xPortSysTickCount
    1610                            .global isMPU9150Initialized
    1611                            .global magnetometerValue
    1612                    ;*****************************************************************************
    1613                    ;* SECTION GROUPS                                                            *
    1614                    ;*****************************************************************************
    1615                            .group    "I2CMRead", 1
    1616                            .gmember  ".text:I2CMRead"
    1617                            .endgroup
    1618                            .group    "I2CMReadBatched", 1
    1619                            .gmember  ".text:I2CMReadBatched"
    1620                            .endgroup
TI ARM Assembler PC v15.12.1 Thu Dec 01 13:25:52 2016

Tools Copyright (c) 1996-2015 Texas Instruments Incorporated
Magnetometer.asm                                                     PAGE   32

    1621                            .group    "I2CMReadModifyWrite16BE", 1
    1622                            .gmember  ".text:I2CMReadModifyWrite16BE"
    1623                            .endgroup
    1624                            .group    "I2CMWrite", 1
    1625                            .gmember  ".text:I2CMWrite"
    1626                            .endgroup
    1627                            .group    "I2CMWriteBatched", 1
    1628                            .gmember  ".text:I2CMWriteBatched"
    1629                            .endgroup
    1630                    
    1631                    
    1632                    ;******************************************************************************
    1633                    ;* BUILD ATTRIBUTES                                                           *
    1634                    ;******************************************************************************
    1635                            .battr "aeabi", Tag_File, 1, Tag_ABI_PCS_wchar_t(2)
    1636                            .battr "aeabi", Tag_File, 1, Tag_ABI_FP_rounding(0)
    1637                            .battr "aeabi", Tag_File, 1, Tag_ABI_FP_denormal(0)
    1638                            .battr "aeabi", Tag_File, 1, Tag_ABI_FP_exceptions(0)
    1639                            .battr "aeabi", Tag_File, 1, Tag_ABI_FP_number_model(1)
    1640                            .battr "aeabi", Tag_File, 1, Tag_ABI_enum_size(1)
    1641                            .battr "aeabi", Tag_File, 1, Tag_ABI_optimization_goals(5)
    1642                            .battr "aeabi", Tag_File, 1, Tag_ABI_FP_optimization_goals(0)
    1643                            .battr "TI", Tag_File, 1, Tag_Bitfield_layout(2)
    1644                            .battr "TI", Tag_File, 1, Tag_FP_interface(1)
    1645                    
    1646                    ;******************************************************************************
    1647                    ;* TYPE INFORMATION                                                           *
    1648                    ;******************************************************************************
    1649                    
    1650                    $C$DW$T$81      .dwtag  DW_TAG_enumeration_type
    1651                            .dwattr $C$DW$T$81, DW_AT_byte_size(0x01)
    1652                    $C$DW$147       .dwtag  DW_TAG_enumerator
    1653                            .dwattr $C$DW$147, DW_AT_name("eRunning")
    1654                            .dwattr $C$DW$147, DW_AT_const_value(0x00)
    1655                            .dwattr $C$DW$147, DW_AT_decl_file("C:/TI_ARM_Tiva_Projects/Source/include/task.h")
    1656                            .dwattr $C$DW$147, DW_AT_decl_line(0x72)
    1657                            .dwattr $C$DW$147, DW_AT_decl_column(0x02)
    1658                    
    1659                    $C$DW$148       .dwtag  DW_TAG_enumerator
    1660                            .dwattr $C$DW$148, DW_AT_name("eReady")
    1661                            .dwattr $C$DW$148, DW_AT_const_value(0x01)
    1662                            .dwattr $C$DW$148, DW_AT_decl_file("C:/TI_ARM_Tiva_Projects/Source/include/task.h")
    1663                            .dwattr $C$DW$148, DW_AT_decl_line(0x73)
    1664                            .dwattr $C$DW$148, DW_AT_decl_column(0x02)
    1665                    
    1666                    $C$DW$149       .dwtag  DW_TAG_enumerator
    1667                            .dwattr $C$DW$149, DW_AT_name("eBlocked")
    1668                            .dwattr $C$DW$149, DW_AT_const_value(0x02)
    1669                            .dwattr $C$DW$149, DW_AT_decl_file("C:/TI_ARM_Tiva_Projects/Source/include/task.h")
    1670                            .dwattr $C$DW$149, DW_AT_decl_line(0x74)
    1671                            .dwattr $C$DW$149, DW_AT_decl_column(0x02)
    1672                    
    1673                    $C$DW$150       .dwtag  DW_TAG_enumerator
    1674                            .dwattr $C$DW$150, DW_AT_name("eSuspended")
    1675                            .dwattr $C$DW$150, DW_AT_const_value(0x03)
TI ARM Assembler PC v15.12.1 Thu Dec 01 13:25:52 2016

Tools Copyright (c) 1996-2015 Texas Instruments Incorporated
Magnetometer.asm                                                     PAGE   33

    1676                            .dwattr $C$DW$150, DW_AT_decl_file("C:/TI_ARM_Tiva_Projects/Source/include/task.h")
    1677                            .dwattr $C$DW$150, DW_AT_decl_line(0x75)
    1678                            .dwattr $C$DW$150, DW_AT_decl_column(0x02)
    1679                    
    1680                    $C$DW$151       .dwtag  DW_TAG_enumerator
    1681                            .dwattr $C$DW$151, DW_AT_name("eDeleted")
    1682                            .dwattr $C$DW$151, DW_AT_const_value(0x04)
    1683                            .dwattr $C$DW$151, DW_AT_decl_file("C:/TI_ARM_Tiva_Projects/Source/include/task.h")
    1684                            .dwattr $C$DW$151, DW_AT_decl_line(0x76)
    1685                            .dwattr $C$DW$151, DW_AT_decl_column(0x02)
    1686                    
    1687                            .dwattr $C$DW$T$81, DW_AT_decl_file("C:/TI_ARM_Tiva_Projects/Source/include/task.h")
    1688                            .dwattr $C$DW$T$81, DW_AT_decl_line(0x71)
    1689                            .dwattr $C$DW$T$81, DW_AT_decl_column(0x01)
    1690                            .dwendtag $C$DW$T$81
    1691                    
    1692                    $C$DW$T$82      .dwtag  DW_TAG_typedef
    1693                            .dwattr $C$DW$T$82, DW_AT_name("eTaskState")
    1694                            .dwattr $C$DW$T$82, DW_AT_type(*$C$DW$T$81)
    1695                            .dwattr $C$DW$T$82, DW_AT_language(DW_LANG_C)
    1696                            .dwattr $C$DW$T$82, DW_AT_decl_file("C:/TI_ARM_Tiva_Projects/Source/include/task.h")
    1697                            .dwattr $C$DW$T$82, DW_AT_decl_line(0x77)
    1698                            .dwattr $C$DW$T$82, DW_AT_decl_column(0x03)
    1699                    
    1700                    
    1701                    $C$DW$T$87      .dwtag  DW_TAG_enumeration_type
    1702                            .dwattr $C$DW$T$87, DW_AT_byte_size(0x01)
    1703                    $C$DW$152       .dwtag  DW_TAG_enumerator
    1704                            .dwattr $C$DW$152, DW_AT_name("eNoAction")
    1705                            .dwattr $C$DW$152, DW_AT_const_value(0x00)
    1706                            .dwattr $C$DW$152, DW_AT_decl_file("C:/TI_ARM_Tiva_Projects/Source/include/task.h")
    1707                            .dwattr $C$DW$152, DW_AT_decl_line(0x7c)
    1708                            .dwattr $C$DW$152, DW_AT_decl_column(0x02)
    1709                    
    1710                    $C$DW$153       .dwtag  DW_TAG_enumerator
    1711                            .dwattr $C$DW$153, DW_AT_name("eSetBits")
    1712                            .dwattr $C$DW$153, DW_AT_const_value(0x01)
    1713                            .dwattr $C$DW$153, DW_AT_decl_file("C:/TI_ARM_Tiva_Projects/Source/include/task.h")
    1714                            .dwattr $C$DW$153, DW_AT_decl_line(0x7d)
    1715                            .dwattr $C$DW$153, DW_AT_decl_column(0x02)
    1716                    
    1717                    $C$DW$154       .dwtag  DW_TAG_enumerator
    1718                            .dwattr $C$DW$154, DW_AT_name("eIncrement")
    1719                            .dwattr $C$DW$154, DW_AT_const_value(0x02)
    1720                            .dwattr $C$DW$154, DW_AT_decl_file("C:/TI_ARM_Tiva_Projects/Source/include/task.h")
    1721                            .dwattr $C$DW$154, DW_AT_decl_line(0x7e)
    1722                            .dwattr $C$DW$154, DW_AT_decl_column(0x02)
    1723                    
    1724                    $C$DW$155       .dwtag  DW_TAG_enumerator
    1725                            .dwattr $C$DW$155, DW_AT_name("eSetValueWithOverwrite")
    1726                            .dwattr $C$DW$155, DW_AT_const_value(0x03)
    1727                            .dwattr $C$DW$155, DW_AT_decl_file("C:/TI_ARM_Tiva_Projects/Source/include/task.h")
    1728                            .dwattr $C$DW$155, DW_AT_decl_line(0x7f)
    1729                            .dwattr $C$DW$155, DW_AT_decl_column(0x02)
    1730                    
TI ARM Assembler PC v15.12.1 Thu Dec 01 13:25:52 2016

Tools Copyright (c) 1996-2015 Texas Instruments Incorporated
Magnetometer.asm                                                     PAGE   34

    1731                    $C$DW$156       .dwtag  DW_TAG_enumerator
    1732                            .dwattr $C$DW$156, DW_AT_name("eSetValueWithoutOverwrite")
    1733                            .dwattr $C$DW$156, DW_AT_const_value(0x04)
    1734                            .dwattr $C$DW$156, DW_AT_decl_file("C:/TI_ARM_Tiva_Projects/Source/include/task.h")
    1735                            .dwattr $C$DW$156, DW_AT_decl_line(0x80)
    1736                            .dwattr $C$DW$156, DW_AT_decl_column(0x02)
    1737                    
    1738                            .dwattr $C$DW$T$87, DW_AT_decl_file("C:/TI_ARM_Tiva_Projects/Source/include/task.h")
    1739                            .dwattr $C$DW$T$87, DW_AT_decl_line(0x7b)
    1740                            .dwattr $C$DW$T$87, DW_AT_decl_column(0x01)
    1741                            .dwendtag $C$DW$T$87
    1742                    
    1743                    $C$DW$T$88      .dwtag  DW_TAG_typedef
    1744                            .dwattr $C$DW$T$88, DW_AT_name("eNotifyAction")
    1745                            .dwattr $C$DW$T$88, DW_AT_type(*$C$DW$T$87)
    1746                            .dwattr $C$DW$T$88, DW_AT_language(DW_LANG_C)
    1747                            .dwattr $C$DW$T$88, DW_AT_decl_file("C:/TI_ARM_Tiva_Projects/Source/include/task.h")
    1748                            .dwattr $C$DW$T$88, DW_AT_decl_line(0x81)
    1749                            .dwattr $C$DW$T$88, DW_AT_decl_column(0x03)
    1750                    
    1751                    
    1752                    $C$DW$T$89      .dwtag  DW_TAG_enumeration_type
    1753                            .dwattr $C$DW$T$89, DW_AT_byte_size(0x01)
    1754                    $C$DW$157       .dwtag  DW_TAG_enumerator
    1755                            .dwattr $C$DW$157, DW_AT_name("eAbortSleep")
    1756                            .dwattr $C$DW$157, DW_AT_const_value(0x00)
    1757                            .dwattr $C$DW$157, DW_AT_decl_file("C:/TI_ARM_Tiva_Projects/Source/include/task.h")
    1758                            .dwattr $C$DW$157, DW_AT_decl_line(0xb5)
    1759                            .dwattr $C$DW$157, DW_AT_decl_column(0x02)
    1760                    
    1761                    $C$DW$158       .dwtag  DW_TAG_enumerator
    1762                            .dwattr $C$DW$158, DW_AT_name("eStandardSleep")
    1763                            .dwattr $C$DW$158, DW_AT_const_value(0x01)
    1764                            .dwattr $C$DW$158, DW_AT_decl_file("C:/TI_ARM_Tiva_Projects/Source/include/task.h")
    1765                            .dwattr $C$DW$158, DW_AT_decl_line(0xb6)
    1766                            .dwattr $C$DW$158, DW_AT_decl_column(0x02)
    1767                    
    1768                    $C$DW$159       .dwtag  DW_TAG_enumerator
    1769                            .dwattr $C$DW$159, DW_AT_name("eNoTasksWaitingTimeout")
    1770                            .dwattr $C$DW$159, DW_AT_const_value(0x02)
    1771                            .dwattr $C$DW$159, DW_AT_decl_file("C:/TI_ARM_Tiva_Projects/Source/include/task.h")
    1772                            .dwattr $C$DW$159, DW_AT_decl_line(0xb7)
    1773                            .dwattr $C$DW$159, DW_AT_decl_column(0x02)
    1774                    
    1775                            .dwattr $C$DW$T$89, DW_AT_decl_file("C:/TI_ARM_Tiva_Projects/Source/include/task.h")
    1776                            .dwattr $C$DW$T$89, DW_AT_decl_line(0xb4)
    1777                            .dwattr $C$DW$T$89, DW_AT_decl_column(0x01)
    1778                            .dwendtag $C$DW$T$89
    1779                    
    1780                    $C$DW$T$90      .dwtag  DW_TAG_typedef
    1781                            .dwattr $C$DW$T$90, DW_AT_name("eSleepModeStatus")
    1782                            .dwattr $C$DW$T$90, DW_AT_type(*$C$DW$T$89)
    1783                            .dwattr $C$DW$T$90, DW_AT_language(DW_LANG_C)
    1784                            .dwattr $C$DW$T$90, DW_AT_decl_file("C:/TI_ARM_Tiva_Projects/Source/include/task.h")
    1785                            .dwattr $C$DW$T$90, DW_AT_decl_line(0xb8)
TI ARM Assembler PC v15.12.1 Thu Dec 01 13:25:52 2016

Tools Copyright (c) 1996-2015 Texas Instruments Incorporated
Magnetometer.asm                                                     PAGE   35

    1786                            .dwattr $C$DW$T$90, DW_AT_decl_column(0x03)
    1787                    
    1788                    
    1789                    $C$DW$T$29      .dwtag  DW_TAG_structure_type
    1790                            .dwattr $C$DW$T$29, DW_AT_byte_size(0x1c)
    1791                    $C$DW$160       .dwtag  DW_TAG_member
    1792                            .dwattr $C$DW$160, DW_AT_type(*$C$DW$T$19)
    1793                            .dwattr $C$DW$160, DW_AT_name("ui8Addr")
    1794                            .dwattr $C$DW$160, DW_AT_TI_symbol_name("ui8Addr")
    1795                            .dwattr $C$DW$160, DW_AT_data_member_location[DW_OP_plus_uconst 0x0]
    1796                            .dwattr $C$DW$160, DW_AT_accessibility(DW_ACCESS_public)
    1797                            .dwattr $C$DW$160, DW_AT_decl_file("C:/TI_CodeComposer/TivaWare/sensorlib/i2cm_drv.h")
    1798                            .dwattr $C$DW$160, DW_AT_decl_line(0x4c)
    1799                            .dwattr $C$DW$160, DW_AT_decl_column(0x0d)
    1800                    
    1801                    $C$DW$161       .dwtag  DW_TAG_member
    1802                            .dwattr $C$DW$161, DW_AT_type(*$C$DW$T$21)
    1803                            .dwattr $C$DW$161, DW_AT_name("pui8WriteData")
    1804                            .dwattr $C$DW$161, DW_AT_TI_symbol_name("pui8WriteData")
    1805                            .dwattr $C$DW$161, DW_AT_data_member_location[DW_OP_plus_uconst 0x4]
    1806                            .dwattr $C$DW$161, DW_AT_accessibility(DW_ACCESS_public)
    1807                            .dwattr $C$DW$161, DW_AT_decl_file("C:/TI_CodeComposer/TivaWare/sensorlib/i2cm_drv.h")
    1808                            .dwattr $C$DW$161, DW_AT_decl_line(0x51)
    1809                            .dwattr $C$DW$161, DW_AT_decl_column(0x14)
    1810                    
    1811                    $C$DW$162       .dwtag  DW_TAG_member
    1812                            .dwattr $C$DW$162, DW_AT_type(*$C$DW$T$22)
    1813                            .dwattr $C$DW$162, DW_AT_name("ui16WriteCount")
    1814                            .dwattr $C$DW$162, DW_AT_TI_symbol_name("ui16WriteCount")
    1815                            .dwattr $C$DW$162, DW_AT_data_member_location[DW_OP_plus_uconst 0x8]
    1816                            .dwattr $C$DW$162, DW_AT_accessibility(DW_ACCESS_public)
    1817                            .dwattr $C$DW$162, DW_AT_decl_file("C:/TI_CodeComposer/TivaWare/sensorlib/i2cm_drv.h")
    1818                            .dwattr $C$DW$162, DW_AT_decl_line(0x56)
    1819                            .dwattr $C$DW$162, DW_AT_decl_column(0x0e)
    1820                    
    1821                    $C$DW$163       .dwtag  DW_TAG_member
    1822                            .dwattr $C$DW$163, DW_AT_type(*$C$DW$T$22)
    1823                            .dwattr $C$DW$163, DW_AT_name("ui16WriteBatchSize")
    1824                            .dwattr $C$DW$163, DW_AT_TI_symbol_name("ui16WriteBatchSize")
    1825                            .dwattr $C$DW$163, DW_AT_data_member_location[DW_OP_plus_uconst 0xa]
    1826                            .dwattr $C$DW$163, DW_AT_accessibility(DW_ACCESS_public)
    1827                            .dwattr $C$DW$163, DW_AT_decl_file("C:/TI_CodeComposer/TivaWare/sensorlib/i2cm_drv.h")
    1828                            .dwattr $C$DW$163, DW_AT_decl_line(0x5b)
    1829                            .dwattr $C$DW$163, DW_AT_decl_column(0x0e)
    1830                    
    1831                    $C$DW$164       .dwtag  DW_TAG_member
    1832                            .dwattr $C$DW$164, DW_AT_type(*$C$DW$T$23)
    1833                            .dwattr $C$DW$164, DW_AT_name("pui8ReadData")
    1834                            .dwattr $C$DW$164, DW_AT_TI_symbol_name("pui8ReadData")
    1835                            .dwattr $C$DW$164, DW_AT_data_member_location[DW_OP_plus_uconst 0xc]
    1836                            .dwattr $C$DW$164, DW_AT_accessibility(DW_ACCESS_public)
    1837                            .dwattr $C$DW$164, DW_AT_decl_file("C:/TI_CodeComposer/TivaWare/sensorlib/i2cm_drv.h")
    1838                            .dwattr $C$DW$164, DW_AT_decl_line(0x60)
    1839                            .dwattr $C$DW$164, DW_AT_decl_column(0x0e)
    1840                    
TI ARM Assembler PC v15.12.1 Thu Dec 01 13:25:52 2016

Tools Copyright (c) 1996-2015 Texas Instruments Incorporated
Magnetometer.asm                                                     PAGE   36

    1841                    $C$DW$165       .dwtag  DW_TAG_member
    1842                            .dwattr $C$DW$165, DW_AT_type(*$C$DW$T$22)
    1843                            .dwattr $C$DW$165, DW_AT_name("ui16ReadCount")
    1844                            .dwattr $C$DW$165, DW_AT_TI_symbol_name("ui16ReadCount")
    1845                            .dwattr $C$DW$165, DW_AT_data_member_location[DW_OP_plus_uconst 0x10]
    1846                            .dwattr $C$DW$165, DW_AT_accessibility(DW_ACCESS_public)
    1847                            .dwattr $C$DW$165, DW_AT_decl_file("C:/TI_CodeComposer/TivaWare/sensorlib/i2cm_drv.h")
    1848                            .dwattr $C$DW$165, DW_AT_decl_line(0x65)
    1849                            .dwattr $C$DW$165, DW_AT_decl_column(0x0e)
    1850                    
    1851                    $C$DW$166       .dwtag  DW_TAG_member
    1852                            .dwattr $C$DW$166, DW_AT_type(*$C$DW$T$22)
    1853                            .dwattr $C$DW$166, DW_AT_name("ui16ReadBatchSize")
    1854                            .dwattr $C$DW$166, DW_AT_TI_symbol_name("ui16ReadBatchSize")
    1855                            .dwattr $C$DW$166, DW_AT_data_member_location[DW_OP_plus_uconst 0x12]
    1856                            .dwattr $C$DW$166, DW_AT_accessibility(DW_ACCESS_public)
    1857                            .dwattr $C$DW$166, DW_AT_decl_file("C:/TI_CodeComposer/TivaWare/sensorlib/i2cm_drv.h")
    1858                            .dwattr $C$DW$166, DW_AT_decl_line(0x6a)
    1859                            .dwattr $C$DW$166, DW_AT_decl_column(0x0e)
    1860                    
    1861                    $C$DW$167       .dwtag  DW_TAG_member
    1862                            .dwattr $C$DW$167, DW_AT_type(*$C$DW$T$28)
    1863                            .dwattr $C$DW$167, DW_AT_name("pfnCallback")
    1864                            .dwattr $C$DW$167, DW_AT_TI_symbol_name("pfnCallback")
    1865                            .dwattr $C$DW$167, DW_AT_data_member_location[DW_OP_plus_uconst 0x14]
    1866                            .dwattr $C$DW$167, DW_AT_accessibility(DW_ACCESS_public)
    1867                            .dwattr $C$DW$167, DW_AT_decl_file("C:/TI_CodeComposer/TivaWare/sensorlib/i2cm_drv.h")
    1868                            .dwattr $C$DW$167, DW_AT_decl_line(0x6f)
    1869                            .dwattr $C$DW$167, DW_AT_decl_column(0x16)
    1870                    
    1871                    $C$DW$168       .dwtag  DW_TAG_member
    1872                            .dwattr $C$DW$168, DW_AT_type(*$C$DW$T$3)
    1873                            .dwattr $C$DW$168, DW_AT_name("pvCallbackData")
    1874                            .dwattr $C$DW$168, DW_AT_TI_symbol_name("pvCallbackData")
    1875                            .dwattr $C$DW$168, DW_AT_data_member_location[DW_OP_plus_uconst 0x18]
    1876                            .dwattr $C$DW$168, DW_AT_accessibility(DW_ACCESS_public)
    1877                            .dwattr $C$DW$168, DW_AT_decl_file("C:/TI_CodeComposer/TivaWare/sensorlib/i2cm_drv.h")
    1878                            .dwattr $C$DW$168, DW_AT_decl_line(0x74)
    1879                            .dwattr $C$DW$168, DW_AT_decl_column(0x0b)
    1880                    
    1881                            .dwattr $C$DW$T$29, DW_AT_decl_file("C:/TI_CodeComposer/TivaWare/sensorlib/i2cm_drv.h")
    1882                            .dwattr $C$DW$T$29, DW_AT_decl_line(0x48)
    1883                            .dwattr $C$DW$T$29, DW_AT_decl_column(0x01)
    1884                            .dwendtag $C$DW$T$29
    1885                    
    1886                    $C$DW$T$30      .dwtag  DW_TAG_typedef
    1887                            .dwattr $C$DW$T$30, DW_AT_name("tI2CMCommand")
    1888                            .dwattr $C$DW$T$30, DW_AT_type(*$C$DW$T$29)
    1889                            .dwattr $C$DW$T$30, DW_AT_language(DW_LANG_C)
    1890                            .dwattr $C$DW$T$30, DW_AT_decl_file("C:/TI_CodeComposer/TivaWare/sensorlib/i2cm_drv.h")
    1891                            .dwattr $C$DW$T$30, DW_AT_decl_line(0x76)
    1892                            .dwattr $C$DW$T$30, DW_AT_decl_column(0x01)
    1893                    
    1894                    
    1895                    $C$DW$T$31      .dwtag  DW_TAG_array_type
TI ARM Assembler PC v15.12.1 Thu Dec 01 13:25:52 2016

Tools Copyright (c) 1996-2015 Texas Instruments Incorporated
Magnetometer.asm                                                     PAGE   37

    1896                            .dwattr $C$DW$T$31, DW_AT_type(*$C$DW$T$30)
    1897                            .dwattr $C$DW$T$31, DW_AT_language(DW_LANG_C)
    1898                            .dwattr $C$DW$T$31, DW_AT_byte_size(0x118)
    1899                    $C$DW$169       .dwtag  DW_TAG_subrange_type
    1900                            .dwattr $C$DW$169, DW_AT_upper_bound(0x09)
    1901                    
    1902                            .dwendtag $C$DW$T$31
    1903                    
    1904                    
    1905                    $C$DW$T$32      .dwtag  DW_TAG_structure_type
    1906                            .dwattr $C$DW$T$32, DW_AT_byte_size(0x124)
    1907                    $C$DW$170       .dwtag  DW_TAG_member
    1908                            .dwattr $C$DW$170, DW_AT_type(*$C$DW$T$24)
    1909                            .dwattr $C$DW$170, DW_AT_name("ui32Base")
    1910                            .dwattr $C$DW$170, DW_AT_TI_symbol_name("ui32Base")
    1911                            .dwattr $C$DW$170, DW_AT_data_member_location[DW_OP_plus_uconst 0x0]
    1912                            .dwattr $C$DW$170, DW_AT_accessibility(DW_ACCESS_public)
    1913                            .dwattr $C$DW$170, DW_AT_decl_file("C:/TI_CodeComposer/TivaWare/sensorlib/i2cm_drv.h")
    1914                            .dwattr $C$DW$170, DW_AT_decl_line(0x82)
    1915                            .dwattr $C$DW$170, DW_AT_decl_column(0x0e)
    1916                    
    1917                    $C$DW$171       .dwtag  DW_TAG_member
    1918                            .dwattr $C$DW$171, DW_AT_type(*$C$DW$T$19)
    1919                            .dwattr $C$DW$171, DW_AT_name("ui8Int")
    1920                            .dwattr $C$DW$171, DW_AT_TI_symbol_name("ui8Int")
    1921                            .dwattr $C$DW$171, DW_AT_data_member_location[DW_OP_plus_uconst 0x4]
    1922                            .dwattr $C$DW$171, DW_AT_accessibility(DW_ACCESS_public)
    1923                            .dwattr $C$DW$171, DW_AT_decl_file("C:/TI_CodeComposer/TivaWare/sensorlib/i2cm_drv.h")
    1924                            .dwattr $C$DW$171, DW_AT_decl_line(0x87)
    1925                            .dwattr $C$DW$171, DW_AT_decl_column(0x0d)
    1926                    
    1927                    $C$DW$172       .dwtag  DW_TAG_member
    1928                            .dwattr $C$DW$172, DW_AT_type(*$C$DW$T$19)
    1929                            .dwattr $C$DW$172, DW_AT_name("ui8TxDMA")
    1930                            .dwattr $C$DW$172, DW_AT_TI_symbol_name("ui8TxDMA")
    1931                            .dwattr $C$DW$172, DW_AT_data_member_location[DW_OP_plus_uconst 0x5]
    1932                            .dwattr $C$DW$172, DW_AT_accessibility(DW_ACCESS_public)
    1933                            .dwattr $C$DW$172, DW_AT_decl_file("C:/TI_CodeComposer/TivaWare/sensorlib/i2cm_drv.h")
    1934                            .dwattr $C$DW$172, DW_AT_decl_line(0x8c)
    1935                            .dwattr $C$DW$172, DW_AT_decl_column(0x0d)
    1936                    
    1937                    $C$DW$173       .dwtag  DW_TAG_member
    1938                            .dwattr $C$DW$173, DW_AT_type(*$C$DW$T$19)
    1939                            .dwattr $C$DW$173, DW_AT_name("ui8RxDMA")
    1940                            .dwattr $C$DW$173, DW_AT_TI_symbol_name("ui8RxDMA")
    1941                            .dwattr $C$DW$173, DW_AT_data_member_location[DW_OP_plus_uconst 0x6]
    1942                            .dwattr $C$DW$173, DW_AT_accessibility(DW_ACCESS_public)
    1943                            .dwattr $C$DW$173, DW_AT_decl_file("C:/TI_CodeComposer/TivaWare/sensorlib/i2cm_drv.h")
    1944                            .dwattr $C$DW$173, DW_AT_decl_line(0x91)
    1945                            .dwattr $C$DW$173, DW_AT_decl_column(0x0d)
    1946                    
    1947                    $C$DW$174       .dwtag  DW_TAG_member
    1948                            .dwattr $C$DW$174, DW_AT_type(*$C$DW$T$19)
    1949                            .dwattr $C$DW$174, DW_AT_name("ui8State")
    1950                            .dwattr $C$DW$174, DW_AT_TI_symbol_name("ui8State")
TI ARM Assembler PC v15.12.1 Thu Dec 01 13:25:52 2016

Tools Copyright (c) 1996-2015 Texas Instruments Incorporated
Magnetometer.asm                                                     PAGE   38

    1951                            .dwattr $C$DW$174, DW_AT_data_member_location[DW_OP_plus_uconst 0x7]
    1952                            .dwattr $C$DW$174, DW_AT_accessibility(DW_ACCESS_public)
    1953                            .dwattr $C$DW$174, DW_AT_decl_file("C:/TI_CodeComposer/TivaWare/sensorlib/i2cm_drv.h")
    1954                            .dwattr $C$DW$174, DW_AT_decl_line(0x96)
    1955                            .dwattr $C$DW$174, DW_AT_decl_column(0x0d)
    1956                    
    1957                    $C$DW$175       .dwtag  DW_TAG_member
    1958                            .dwattr $C$DW$175, DW_AT_type(*$C$DW$T$19)
    1959                            .dwattr $C$DW$175, DW_AT_name("ui8ReadPtr")
    1960                            .dwattr $C$DW$175, DW_AT_TI_symbol_name("ui8ReadPtr")
    1961                            .dwattr $C$DW$175, DW_AT_data_member_location[DW_OP_plus_uconst 0x8]
    1962                            .dwattr $C$DW$175, DW_AT_accessibility(DW_ACCESS_public)
    1963                            .dwattr $C$DW$175, DW_AT_decl_file("C:/TI_CodeComposer/TivaWare/sensorlib/i2cm_drv.h")
    1964                            .dwattr $C$DW$175, DW_AT_decl_line(0x9c)
    1965                            .dwattr $C$DW$175, DW_AT_decl_column(0x0d)
    1966                    
    1967                    $C$DW$176       .dwtag  DW_TAG_member
    1968                            .dwattr $C$DW$176, DW_AT_type(*$C$DW$T$19)
    1969                            .dwattr $C$DW$176, DW_AT_name("ui8WritePtr")
    1970                            .dwattr $C$DW$176, DW_AT_TI_symbol_name("ui8WritePtr")
    1971                            .dwattr $C$DW$176, DW_AT_data_member_location[DW_OP_plus_uconst 0x9]
    1972                            .dwattr $C$DW$176, DW_AT_accessibility(DW_ACCESS_public)
    1973                            .dwattr $C$DW$176, DW_AT_decl_file("C:/TI_CodeComposer/TivaWare/sensorlib/i2cm_drv.h")
    1974                            .dwattr $C$DW$176, DW_AT_decl_line(0xa2)
    1975                            .dwattr $C$DW$176, DW_AT_decl_column(0x0d)
    1976                    
    1977                    $C$DW$177       .dwtag  DW_TAG_member
    1978                            .dwattr $C$DW$177, DW_AT_type(*$C$DW$T$22)
    1979                            .dwattr $C$DW$177, DW_AT_name("ui16Index")
    1980                            .dwattr $C$DW$177, DW_AT_TI_symbol_name("ui16Index")
    1981                            .dwattr $C$DW$177, DW_AT_data_member_location[DW_OP_plus_uconst 0xa]
    1982                            .dwattr $C$DW$177, DW_AT_accessibility(DW_ACCESS_public)
    1983                            .dwattr $C$DW$177, DW_AT_decl_file("C:/TI_CodeComposer/TivaWare/sensorlib/i2cm_drv.h")
    1984                            .dwattr $C$DW$177, DW_AT_decl_line(0xa7)
    1985                            .dwattr $C$DW$177, DW_AT_decl_column(0x0e)
    1986                    
    1987                    $C$DW$178       .dwtag  DW_TAG_member
    1988                            .dwattr $C$DW$178, DW_AT_type(*$C$DW$T$31)
    1989                            .dwattr $C$DW$178, DW_AT_name("pCommands")
    1990                            .dwattr $C$DW$178, DW_AT_TI_symbol_name("pCommands")
    1991                            .dwattr $C$DW$178, DW_AT_data_member_location[DW_OP_plus_uconst 0xc]
    1992                            .dwattr $C$DW$178, DW_AT_accessibility(DW_ACCESS_public)
    1993                            .dwattr $C$DW$178, DW_AT_decl_file("C:/TI_CodeComposer/TivaWare/sensorlib/i2cm_drv.h")
    1994                            .dwattr $C$DW$178, DW_AT_decl_line(0xac)
    1995                            .dwattr $C$DW$178, DW_AT_decl_column(0x12)
    1996                    
    1997                            .dwattr $C$DW$T$32, DW_AT_decl_file("C:/TI_CodeComposer/TivaWare/sensorlib/i2cm_drv.h")
    1998                            .dwattr $C$DW$T$32, DW_AT_decl_line(0x7e)
    1999                            .dwattr $C$DW$T$32, DW_AT_decl_column(0x01)
    2000                            .dwendtag $C$DW$T$32
    2001                    
    2002                    $C$DW$T$33      .dwtag  DW_TAG_typedef
    2003                            .dwattr $C$DW$T$33, DW_AT_name("tI2CMInstance")
    2004                            .dwattr $C$DW$T$33, DW_AT_type(*$C$DW$T$32)
    2005                            .dwattr $C$DW$T$33, DW_AT_language(DW_LANG_C)
TI ARM Assembler PC v15.12.1 Thu Dec 01 13:25:52 2016

Tools Copyright (c) 1996-2015 Texas Instruments Incorporated
Magnetometer.asm                                                     PAGE   39

    2006                            .dwattr $C$DW$T$33, DW_AT_decl_file("C:/TI_CodeComposer/TivaWare/sensorlib/i2cm_drv.h")
    2007                            .dwattr $C$DW$T$33, DW_AT_decl_line(0xae)
    2008                            .dwattr $C$DW$T$33, DW_AT_decl_column(0x01)
    2009                    
    2010                    $C$DW$T$34      .dwtag  DW_TAG_pointer_type
    2011                            .dwattr $C$DW$T$34, DW_AT_type(*$C$DW$T$33)
    2012                            .dwattr $C$DW$T$34, DW_AT_address_class(0x20)
    2013                    
    2014                    
    2015                    $C$DW$T$36      .dwtag  DW_TAG_structure_type
    2016                            .dwattr $C$DW$T$36, DW_AT_byte_size(0x18)
    2017                    $C$DW$179       .dwtag  DW_TAG_member
    2018                            .dwattr $C$DW$179, DW_AT_type(*$C$DW$T$34)
    2019                            .dwattr $C$DW$179, DW_AT_name("psI2CInst")
    2020                            .dwattr $C$DW$179, DW_AT_TI_symbol_name("psI2CInst")
    2021                            .dwattr $C$DW$179, DW_AT_data_member_location[DW_OP_plus_uconst 0x0]
    2022                            .dwattr $C$DW$179, DW_AT_accessibility(DW_ACCESS_public)
    2023                            .dwattr $C$DW$179, DW_AT_decl_file("C:/TI_CodeComposer/TivaWare/sensorlib/i2cm_drv.h")
    2024                            .dwattr $C$DW$179, DW_AT_decl_line(0xf0)
    2025                            .dwattr $C$DW$179, DW_AT_decl_column(0x14)
    2026                    
    2027                    $C$DW$180       .dwtag  DW_TAG_member
    2028                            .dwattr $C$DW$180, DW_AT_type(*$C$DW$T$35)
    2029                            .dwattr $C$DW$180, DW_AT_name("pui8Buffer")
    2030                            .dwattr $C$DW$180, DW_AT_TI_symbol_name("pui8Buffer")
    2031                            .dwattr $C$DW$180, DW_AT_data_member_location[DW_OP_plus_uconst 0x4]
    2032                            .dwattr $C$DW$180, DW_AT_accessibility(DW_ACCESS_public)
    2033                            .dwattr $C$DW$180, DW_AT_decl_file("C:/TI_CodeComposer/TivaWare/sensorlib/i2cm_drv.h")
    2034                            .dwattr $C$DW$180, DW_AT_decl_line(0xf5)
    2035                            .dwattr $C$DW$180, DW_AT_decl_column(0x0d)
    2036                    
    2037                    $C$DW$181       .dwtag  DW_TAG_member
    2038                            .dwattr $C$DW$181, DW_AT_type(*$C$DW$T$19)
    2039                            .dwattr $C$DW$181, DW_AT_name("ui8State")
    2040                            .dwattr $C$DW$181, DW_AT_TI_symbol_name("ui8State")
    2041                            .dwattr $C$DW$181, DW_AT_data_member_location[DW_OP_plus_uconst 0x8]
    2042                            .dwattr $C$DW$181, DW_AT_accessibility(DW_ACCESS_public)
    2043                            .dwattr $C$DW$181, DW_AT_decl_file("C:/TI_CodeComposer/TivaWare/sensorlib/i2cm_drv.h")
    2044                            .dwattr $C$DW$181, DW_AT_decl_line(0xfa)
    2045                            .dwattr $C$DW$181, DW_AT_decl_column(0x0d)
    2046                    
    2047                    $C$DW$182       .dwtag  DW_TAG_member
    2048                            .dwattr $C$DW$182, DW_AT_type(*$C$DW$T$19)
    2049                            .dwattr $C$DW$182, DW_AT_name("ui8Addr")
    2050                            .dwattr $C$DW$182, DW_AT_TI_symbol_name("ui8Addr")
    2051                            .dwattr $C$DW$182, DW_AT_data_member_location[DW_OP_plus_uconst 0x9]
    2052                            .dwattr $C$DW$182, DW_AT_accessibility(DW_ACCESS_public)
    2053                            .dwattr $C$DW$182, DW_AT_decl_file("C:/TI_CodeComposer/TivaWare/sensorlib/i2cm_drv.h")
    2054                            .dwattr $C$DW$182, DW_AT_decl_line(0xff)
    2055                            .dwattr $C$DW$182, DW_AT_decl_column(0x0d)
    2056                    
    2057                    $C$DW$183       .dwtag  DW_TAG_member
    2058                            .dwattr $C$DW$183, DW_AT_type(*$C$DW$T$22)
    2059                            .dwattr $C$DW$183, DW_AT_name("ui16Mask")
    2060                            .dwattr $C$DW$183, DW_AT_TI_symbol_name("ui16Mask")
TI ARM Assembler PC v15.12.1 Thu Dec 01 13:25:52 2016

Tools Copyright (c) 1996-2015 Texas Instruments Incorporated
Magnetometer.asm                                                     PAGE   40

    2061                            .dwattr $C$DW$183, DW_AT_data_member_location[DW_OP_plus_uconst 0xa]
    2062                            .dwattr $C$DW$183, DW_AT_accessibility(DW_ACCESS_public)
    2063                            .dwattr $C$DW$183, DW_AT_decl_file("C:/TI_CodeComposer/TivaWare/sensorlib/i2cm_drv.h")
    2064                            .dwattr $C$DW$183, DW_AT_decl_line(0x104)
    2065                            .dwattr $C$DW$183, DW_AT_decl_column(0x0e)
    2066                    
    2067                    $C$DW$184       .dwtag  DW_TAG_member
    2068                            .dwattr $C$DW$184, DW_AT_type(*$C$DW$T$22)
    2069                            .dwattr $C$DW$184, DW_AT_name("ui16Value")
    2070                            .dwattr $C$DW$184, DW_AT_TI_symbol_name("ui16Value")
    2071                            .dwattr $C$DW$184, DW_AT_data_member_location[DW_OP_plus_uconst 0xc]
    2072                            .dwattr $C$DW$184, DW_AT_accessibility(DW_ACCESS_public)
    2073                            .dwattr $C$DW$184, DW_AT_decl_file("C:/TI_CodeComposer/TivaWare/sensorlib/i2cm_drv.h")
    2074                            .dwattr $C$DW$184, DW_AT_decl_line(0x109)
    2075                            .dwattr $C$DW$184, DW_AT_decl_column(0x0e)
    2076                    
    2077                    $C$DW$185       .dwtag  DW_TAG_member
    2078                            .dwattr $C$DW$185, DW_AT_type(*$C$DW$T$28)
    2079                            .dwattr $C$DW$185, DW_AT_name("pfnCallback")
    2080                            .dwattr $C$DW$185, DW_AT_TI_symbol_name("pfnCallback")
    2081                            .dwattr $C$DW$185, DW_AT_data_member_location[DW_OP_plus_uconst 0x10]
    2082                            .dwattr $C$DW$185, DW_AT_accessibility(DW_ACCESS_public)
    2083                            .dwattr $C$DW$185, DW_AT_decl_file("C:/TI_CodeComposer/TivaWare/sensorlib/i2cm_drv.h")
    2084                            .dwattr $C$DW$185, DW_AT_decl_line(0x10f)
    2085                            .dwattr $C$DW$185, DW_AT_decl_column(0x16)
    2086                    
    2087                    $C$DW$186       .dwtag  DW_TAG_member
    2088                            .dwattr $C$DW$186, DW_AT_type(*$C$DW$T$3)
    2089                            .dwattr $C$DW$186, DW_AT_name("pvCallbackData")
    2090                            .dwattr $C$DW$186, DW_AT_TI_symbol_name("pvCallbackData")
    2091                            .dwattr $C$DW$186, DW_AT_data_member_location[DW_OP_plus_uconst 0x14]
    2092                            .dwattr $C$DW$186, DW_AT_accessibility(DW_ACCESS_public)
    2093                            .dwattr $C$DW$186, DW_AT_decl_file("C:/TI_CodeComposer/TivaWare/sensorlib/i2cm_drv.h")
    2094                            .dwattr $C$DW$186, DW_AT_decl_line(0x114)
    2095                            .dwattr $C$DW$186, DW_AT_decl_column(0x0b)
    2096                    
    2097                            .dwattr $C$DW$T$36, DW_AT_decl_file("C:/TI_CodeComposer/TivaWare/sensorlib/i2cm_drv.h")
    2098                            .dwattr $C$DW$T$36, DW_AT_decl_line(0xeb)
    2099                            .dwattr $C$DW$T$36, DW_AT_decl_column(0x01)
    2100                            .dwendtag $C$DW$T$36
    2101                    
    2102                    $C$DW$T$91      .dwtag  DW_TAG_typedef
    2103                            .dwattr $C$DW$T$91, DW_AT_name("tI2CMReadModifyWrite16")
    2104                            .dwattr $C$DW$T$91, DW_AT_type(*$C$DW$T$36)
    2105                            .dwattr $C$DW$T$91, DW_AT_language(DW_LANG_C)
    2106                            .dwattr $C$DW$T$91, DW_AT_decl_file("C:/TI_CodeComposer/TivaWare/sensorlib/i2cm_drv.h")
    2107                            .dwattr $C$DW$T$91, DW_AT_decl_line(0x116)
    2108                            .dwattr $C$DW$T$91, DW_AT_decl_column(0x01)
    2109                    
    2110                    $C$DW$T$92      .dwtag  DW_TAG_pointer_type
    2111                            .dwattr $C$DW$T$92, DW_AT_type(*$C$DW$T$91)
    2112                            .dwattr $C$DW$T$92, DW_AT_address_class(0x20)
    2113                    
    2114                    
    2115                    $C$DW$T$38      .dwtag  DW_TAG_structure_type
TI ARM Assembler PC v15.12.1 Thu Dec 01 13:25:52 2016

Tools Copyright (c) 1996-2015 Texas Instruments Incorporated
Magnetometer.asm                                                     PAGE   41

    2116                            .dwattr $C$DW$T$38, DW_AT_byte_size(0x14)
    2117                    $C$DW$187       .dwtag  DW_TAG_member
    2118                            .dwattr $C$DW$187, DW_AT_type(*$C$DW$T$34)
    2119                            .dwattr $C$DW$187, DW_AT_name("psI2CInst")
    2120                            .dwattr $C$DW$187, DW_AT_TI_symbol_name("psI2CInst")
    2121                            .dwattr $C$DW$187, DW_AT_data_member_location[DW_OP_plus_uconst 0x0]
    2122                            .dwattr $C$DW$187, DW_AT_accessibility(DW_ACCESS_public)
    2123                            .dwattr $C$DW$187, DW_AT_decl_file("C:/TI_CodeComposer/TivaWare/sensorlib/i2cm_drv.h")
    2124                            .dwattr $C$DW$187, DW_AT_decl_line(0x123)
    2125                            .dwattr $C$DW$187, DW_AT_decl_column(0x14)
    2126                    
    2127                    $C$DW$188       .dwtag  DW_TAG_member
    2128                            .dwattr $C$DW$188, DW_AT_type(*$C$DW$T$37)
    2129                            .dwattr $C$DW$188, DW_AT_name("pui8Buffer")
    2130                            .dwattr $C$DW$188, DW_AT_TI_symbol_name("pui8Buffer")
    2131                            .dwattr $C$DW$188, DW_AT_data_member_location[DW_OP_plus_uconst 0x4]
    2132                            .dwattr $C$DW$188, DW_AT_accessibility(DW_ACCESS_public)
    2133                            .dwattr $C$DW$188, DW_AT_decl_file("C:/TI_CodeComposer/TivaWare/sensorlib/i2cm_drv.h")
    2134                            .dwattr $C$DW$188, DW_AT_decl_line(0x128)
    2135                            .dwattr $C$DW$188, DW_AT_decl_column(0x0d)
    2136                    
    2137                    $C$DW$189       .dwtag  DW_TAG_member
    2138                            .dwattr $C$DW$189, DW_AT_type(*$C$DW$T$22)
    2139                            .dwattr $C$DW$189, DW_AT_name("ui16Count")
    2140                            .dwattr $C$DW$189, DW_AT_TI_symbol_name("ui16Count")
    2141                            .dwattr $C$DW$189, DW_AT_data_member_location[DW_OP_plus_uconst 0x6]
    2142                            .dwattr $C$DW$189, DW_AT_accessibility(DW_ACCESS_public)
    2143                            .dwattr $C$DW$189, DW_AT_decl_file("C:/TI_CodeComposer/TivaWare/sensorlib/i2cm_drv.h")
    2144                            .dwattr $C$DW$189, DW_AT_decl_line(0x12d)
    2145                            .dwattr $C$DW$189, DW_AT_decl_column(0x0e)
    2146                    
    2147                    $C$DW$190       .dwtag  DW_TAG_member
    2148                            .dwattr $C$DW$190, DW_AT_type(*$C$DW$T$21)
    2149                            .dwattr $C$DW$190, DW_AT_name("pui8Data")
    2150                            .dwattr $C$DW$190, DW_AT_TI_symbol_name("pui8Data")
    2151                            .dwattr $C$DW$190, DW_AT_data_member_location[DW_OP_plus_uconst 0x8]
    2152                            .dwattr $C$DW$190, DW_AT_accessibility(DW_ACCESS_public)
    2153                            .dwattr $C$DW$190, DW_AT_decl_file("C:/TI_CodeComposer/TivaWare/sensorlib/i2cm_drv.h")
    2154                            .dwattr $C$DW$190, DW_AT_decl_line(0x132)
    2155                            .dwattr $C$DW$190, DW_AT_decl_column(0x14)
    2156                    
    2157                    $C$DW$191       .dwtag  DW_TAG_member
    2158                            .dwattr $C$DW$191, DW_AT_type(*$C$DW$T$28)
    2159                            .dwattr $C$DW$191, DW_AT_name("pfnCallback")
    2160                            .dwattr $C$DW$191, DW_AT_TI_symbol_name("pfnCallback")
    2161                            .dwattr $C$DW$191, DW_AT_data_member_location[DW_OP_plus_uconst 0xc]
    2162                            .dwattr $C$DW$191, DW_AT_accessibility(DW_ACCESS_public)
    2163                            .dwattr $C$DW$191, DW_AT_decl_file("C:/TI_CodeComposer/TivaWare/sensorlib/i2cm_drv.h")
    2164                            .dwattr $C$DW$191, DW_AT_decl_line(0x137)
    2165                            .dwattr $C$DW$191, DW_AT_decl_column(0x16)
    2166                    
    2167                    $C$DW$192       .dwtag  DW_TAG_member
    2168                            .dwattr $C$DW$192, DW_AT_type(*$C$DW$T$3)
    2169                            .dwattr $C$DW$192, DW_AT_name("pvCallbackData")
    2170                            .dwattr $C$DW$192, DW_AT_TI_symbol_name("pvCallbackData")
TI ARM Assembler PC v15.12.1 Thu Dec 01 13:25:52 2016

Tools Copyright (c) 1996-2015 Texas Instruments Incorporated
Magnetometer.asm                                                     PAGE   42

    2171                            .dwattr $C$DW$192, DW_AT_data_member_location[DW_OP_plus_uconst 0x10]
    2172                            .dwattr $C$DW$192, DW_AT_accessibility(DW_ACCESS_public)
    2173                            .dwattr $C$DW$192, DW_AT_decl_file("C:/TI_CodeComposer/TivaWare/sensorlib/i2cm_drv.h")
    2174                            .dwattr $C$DW$192, DW_AT_decl_line(0x13c)
    2175                            .dwattr $C$DW$192, DW_AT_decl_column(0x0b)
    2176                    
    2177                            .dwattr $C$DW$T$38, DW_AT_decl_file("C:/TI_CodeComposer/TivaWare/sensorlib/i2cm_drv.h")
    2178                            .dwattr $C$DW$T$38, DW_AT_decl_line(0x11e)
    2179                            .dwattr $C$DW$T$38, DW_AT_decl_column(0x01)
    2180                            .dwendtag $C$DW$T$38
    2181                    
    2182                    $C$DW$T$49      .dwtag  DW_TAG_typedef
    2183                            .dwattr $C$DW$T$49, DW_AT_name("tI2CMWrite8")
    2184                            .dwattr $C$DW$T$49, DW_AT_type(*$C$DW$T$38)
    2185                            .dwattr $C$DW$T$49, DW_AT_language(DW_LANG_C)
    2186                            .dwattr $C$DW$T$49, DW_AT_decl_file("C:/TI_CodeComposer/TivaWare/sensorlib/i2cm_drv.h")
    2187                            .dwattr $C$DW$T$49, DW_AT_decl_line(0x13e)
    2188                            .dwattr $C$DW$T$49, DW_AT_decl_column(0x01)
    2189                    
    2190                    
    2191                    $C$DW$T$39      .dwtag  DW_TAG_structure_type
    2192                            .dwattr $C$DW$T$39, DW_AT_byte_size(0x14)
    2193                    $C$DW$193       .dwtag  DW_TAG_member
    2194                            .dwattr $C$DW$193, DW_AT_type(*$C$DW$T$34)
    2195                            .dwattr $C$DW$193, DW_AT_name("psI2CInst")
    2196                            .dwattr $C$DW$193, DW_AT_TI_symbol_name("psI2CInst")
    2197                            .dwattr $C$DW$193, DW_AT_data_member_location[DW_OP_plus_uconst 0x0]
    2198                            .dwattr $C$DW$193, DW_AT_accessibility(DW_ACCESS_public)
    2199                            .dwattr $C$DW$193, DW_AT_decl_file("C:/TI_CodeComposer/TivaWare/sensorlib/i2cm_drv.h")
    2200                            .dwattr $C$DW$193, DW_AT_decl_line(0xbc)
    2201                            .dwattr $C$DW$193, DW_AT_decl_column(0x14)
    2202                    
    2203                    $C$DW$194       .dwtag  DW_TAG_member
    2204                            .dwattr $C$DW$194, DW_AT_type(*$C$DW$T$35)
    2205                            .dwattr $C$DW$194, DW_AT_name("pui8Buffer")
    2206                            .dwattr $C$DW$194, DW_AT_TI_symbol_name("pui8Buffer")
    2207                            .dwattr $C$DW$194, DW_AT_data_member_location[DW_OP_plus_uconst 0x4]
    2208                            .dwattr $C$DW$194, DW_AT_accessibility(DW_ACCESS_public)
    2209                            .dwattr $C$DW$194, DW_AT_decl_file("C:/TI_CodeComposer/TivaWare/sensorlib/i2cm_drv.h")
    2210                            .dwattr $C$DW$194, DW_AT_decl_line(0xc1)
    2211                            .dwattr $C$DW$194, DW_AT_decl_column(0x0d)
    2212                    
    2213                    $C$DW$195       .dwtag  DW_TAG_member
    2214                            .dwattr $C$DW$195, DW_AT_type(*$C$DW$T$19)
    2215                            .dwattr $C$DW$195, DW_AT_name("ui8State")
    2216                            .dwattr $C$DW$195, DW_AT_TI_symbol_name("ui8State")
    2217                            .dwattr $C$DW$195, DW_AT_data_member_location[DW_OP_plus_uconst 0x8]
    2218                            .dwattr $C$DW$195, DW_AT_accessibility(DW_ACCESS_public)
    2219                            .dwattr $C$DW$195, DW_AT_decl_file("C:/TI_CodeComposer/TivaWare/sensorlib/i2cm_drv.h")
    2220                            .dwattr $C$DW$195, DW_AT_decl_line(0xc6)
    2221                            .dwattr $C$DW$195, DW_AT_decl_column(0x0d)
    2222                    
    2223                    $C$DW$196       .dwtag  DW_TAG_member
    2224                            .dwattr $C$DW$196, DW_AT_type(*$C$DW$T$19)
    2225                            .dwattr $C$DW$196, DW_AT_name("ui8Addr")
TI ARM Assembler PC v15.12.1 Thu Dec 01 13:25:52 2016

Tools Copyright (c) 1996-2015 Texas Instruments Incorporated
Magnetometer.asm                                                     PAGE   43

    2226                            .dwattr $C$DW$196, DW_AT_TI_symbol_name("ui8Addr")
    2227                            .dwattr $C$DW$196, DW_AT_data_member_location[DW_OP_plus_uconst 0x9]
    2228                            .dwattr $C$DW$196, DW_AT_accessibility(DW_ACCESS_public)
    2229                            .dwattr $C$DW$196, DW_AT_decl_file("C:/TI_CodeComposer/TivaWare/sensorlib/i2cm_drv.h")
    2230                            .dwattr $C$DW$196, DW_AT_decl_line(0xcb)
    2231                            .dwattr $C$DW$196, DW_AT_decl_column(0x0d)
    2232                    
    2233                    $C$DW$197       .dwtag  DW_TAG_member
    2234                            .dwattr $C$DW$197, DW_AT_type(*$C$DW$T$19)
    2235                            .dwattr $C$DW$197, DW_AT_name("ui8Mask")
    2236                            .dwattr $C$DW$197, DW_AT_TI_symbol_name("ui8Mask")
    2237                            .dwattr $C$DW$197, DW_AT_data_member_location[DW_OP_plus_uconst 0xa]
    2238                            .dwattr $C$DW$197, DW_AT_accessibility(DW_ACCESS_public)
    2239                            .dwattr $C$DW$197, DW_AT_decl_file("C:/TI_CodeComposer/TivaWare/sensorlib/i2cm_drv.h")
    2240                            .dwattr $C$DW$197, DW_AT_decl_line(0xd0)
    2241                            .dwattr $C$DW$197, DW_AT_decl_column(0x0d)
    2242                    
    2243                    $C$DW$198       .dwtag  DW_TAG_member
    2244                            .dwattr $C$DW$198, DW_AT_type(*$C$DW$T$19)
    2245                            .dwattr $C$DW$198, DW_AT_name("ui8Value")
    2246                            .dwattr $C$DW$198, DW_AT_TI_symbol_name("ui8Value")
    2247                            .dwattr $C$DW$198, DW_AT_data_member_location[DW_OP_plus_uconst 0xb]
    2248                            .dwattr $C$DW$198, DW_AT_accessibility(DW_ACCESS_public)
    2249                            .dwattr $C$DW$198, DW_AT_decl_file("C:/TI_CodeComposer/TivaWare/sensorlib/i2cm_drv.h")
    2250                            .dwattr $C$DW$198, DW_AT_decl_line(0xd5)
    2251                            .dwattr $C$DW$198, DW_AT_decl_column(0x0d)
    2252                    
    2253                    $C$DW$199       .dwtag  DW_TAG_member
    2254                            .dwattr $C$DW$199, DW_AT_type(*$C$DW$T$28)
    2255                            .dwattr $C$DW$199, DW_AT_name("pfnCallback")
    2256                            .dwattr $C$DW$199, DW_AT_TI_symbol_name("pfnCallback")
    2257                            .dwattr $C$DW$199, DW_AT_data_member_location[DW_OP_plus_uconst 0xc]
    2258                            .dwattr $C$DW$199, DW_AT_accessibility(DW_ACCESS_public)
    2259                            .dwattr $C$DW$199, DW_AT_decl_file("C:/TI_CodeComposer/TivaWare/sensorlib/i2cm_drv.h")
    2260                            .dwattr $C$DW$199, DW_AT_decl_line(0xdb)
    2261                            .dwattr $C$DW$199, DW_AT_decl_column(0x16)
    2262                    
    2263                    $C$DW$200       .dwtag  DW_TAG_member
    2264                            .dwattr $C$DW$200, DW_AT_type(*$C$DW$T$3)
    2265                            .dwattr $C$DW$200, DW_AT_name("pvCallbackData")
    2266                            .dwattr $C$DW$200, DW_AT_TI_symbol_name("pvCallbackData")
    2267                            .dwattr $C$DW$200, DW_AT_data_member_location[DW_OP_plus_uconst 0x10]
    2268                            .dwattr $C$DW$200, DW_AT_accessibility(DW_ACCESS_public)
    2269                            .dwattr $C$DW$200, DW_AT_decl_file("C:/TI_CodeComposer/TivaWare/sensorlib/i2cm_drv.h")
    2270                            .dwattr $C$DW$200, DW_AT_decl_line(0xe0)
    2271                            .dwattr $C$DW$200, DW_AT_decl_column(0x0b)
    2272                    
    2273                            .dwattr $C$DW$T$39, DW_AT_decl_file("C:/TI_CodeComposer/TivaWare/sensorlib/i2cm_drv.h")
    2274                            .dwattr $C$DW$T$39, DW_AT_decl_line(0xb7)
    2275                            .dwattr $C$DW$T$39, DW_AT_decl_column(0x01)
    2276                            .dwendtag $C$DW$T$39
    2277                    
    2278                    $C$DW$T$50      .dwtag  DW_TAG_typedef
    2279                            .dwattr $C$DW$T$50, DW_AT_name("tI2CMReadModifyWrite8")
    2280                            .dwattr $C$DW$T$50, DW_AT_type(*$C$DW$T$39)
TI ARM Assembler PC v15.12.1 Thu Dec 01 13:25:52 2016

Tools Copyright (c) 1996-2015 Texas Instruments Incorporated
Magnetometer.asm                                                     PAGE   44

    2281                            .dwattr $C$DW$T$50, DW_AT_language(DW_LANG_C)
    2282                            .dwattr $C$DW$T$50, DW_AT_decl_file("C:/TI_CodeComposer/TivaWare/sensorlib/i2cm_drv.h")
    2283                            .dwattr $C$DW$T$50, DW_AT_decl_line(0xe2)
    2284                            .dwattr $C$DW$T$50, DW_AT_decl_column(0x01)
    2285                    
    2286                    
    2287                    $C$DW$T$41      .dwtag  DW_TAG_structure_type
    2288                            .dwattr $C$DW$T$41, DW_AT_byte_size(0x2c)
    2289                    $C$DW$201       .dwtag  DW_TAG_member
    2290                            .dwattr $C$DW$201, DW_AT_type(*$C$DW$T$34)
    2291                            .dwattr $C$DW$201, DW_AT_name("psI2CInst")
    2292                            .dwattr $C$DW$201, DW_AT_TI_symbol_name("psI2CInst")
    2293                            .dwattr $C$DW$201, DW_AT_data_member_location[DW_OP_plus_uconst 0x0]
    2294                            .dwattr $C$DW$201, DW_AT_accessibility(DW_ACCESS_public)
    2295                            .dwattr $C$DW$201, DW_AT_decl_file("C:/TI_CodeComposer/TivaWare/sensorlib/ak8975.h")
    2296                            .dwattr $C$DW$201, DW_AT_decl_line(0x32)
    2297                            .dwattr $C$DW$201, DW_AT_decl_column(0x14)
    2298                    
    2299                    $C$DW$202       .dwtag  DW_TAG_member
    2300                            .dwattr $C$DW$202, DW_AT_type(*$C$DW$T$19)
    2301                            .dwattr $C$DW$202, DW_AT_name("ui8Addr")
    2302                            .dwattr $C$DW$202, DW_AT_TI_symbol_name("ui8Addr")
    2303                            .dwattr $C$DW$202, DW_AT_data_member_location[DW_OP_plus_uconst 0x4]
    2304                            .dwattr $C$DW$202, DW_AT_accessibility(DW_ACCESS_public)
    2305                            .dwattr $C$DW$202, DW_AT_decl_file("C:/TI_CodeComposer/TivaWare/sensorlib/ak8975.h")
    2306                            .dwattr $C$DW$202, DW_AT_decl_line(0x37)
    2307                            .dwattr $C$DW$202, DW_AT_decl_column(0x0d)
    2308                    
    2309                    $C$DW$203       .dwtag  DW_TAG_member
    2310                            .dwattr $C$DW$203, DW_AT_type(*$C$DW$T$19)
    2311                            .dwattr $C$DW$203, DW_AT_name("ui8State")
    2312                            .dwattr $C$DW$203, DW_AT_TI_symbol_name("ui8State")
    2313                            .dwattr $C$DW$203, DW_AT_data_member_location[DW_OP_plus_uconst 0x5]
    2314                            .dwattr $C$DW$203, DW_AT_accessibility(DW_ACCESS_public)
    2315                            .dwattr $C$DW$203, DW_AT_decl_file("C:/TI_CodeComposer/TivaWare/sensorlib/ak8975.h")
    2316                            .dwattr $C$DW$203, DW_AT_decl_line(0x3c)
    2317                            .dwattr $C$DW$203, DW_AT_decl_column(0x0d)
    2318                    
    2319                    $C$DW$204       .dwtag  DW_TAG_member
    2320                            .dwattr $C$DW$204, DW_AT_type(*$C$DW$T$40)
    2321                            .dwattr $C$DW$204, DW_AT_name("pui8Data")
    2322                            .dwattr $C$DW$204, DW_AT_TI_symbol_name("pui8Data")
    2323                            .dwattr $C$DW$204, DW_AT_data_member_location[DW_OP_plus_uconst 0x6]
    2324                            .dwattr $C$DW$204, DW_AT_accessibility(DW_ACCESS_public)
    2325                            .dwattr $C$DW$204, DW_AT_decl_file("C:/TI_CodeComposer/TivaWare/sensorlib/ak8975.h")
    2326                            .dwattr $C$DW$204, DW_AT_decl_line(0x41)
    2327                            .dwattr $C$DW$204, DW_AT_decl_column(0x0d)
    2328                    
    2329                    $C$DW$205       .dwtag  DW_TAG_member
    2330                            .dwattr $C$DW$205, DW_AT_type(*$C$DW$T$28)
    2331                            .dwattr $C$DW$205, DW_AT_name("pfnCallback")
    2332                            .dwattr $C$DW$205, DW_AT_TI_symbol_name("pfnCallback")
    2333                            .dwattr $C$DW$205, DW_AT_data_member_location[DW_OP_plus_uconst 0x10]
    2334                            .dwattr $C$DW$205, DW_AT_accessibility(DW_ACCESS_public)
    2335                            .dwattr $C$DW$205, DW_AT_decl_file("C:/TI_CodeComposer/TivaWare/sensorlib/ak8975.h")
TI ARM Assembler PC v15.12.1 Thu Dec 01 13:25:52 2016

Tools Copyright (c) 1996-2015 Texas Instruments Incorporated
Magnetometer.asm                                                     PAGE   45

    2336                            .dwattr $C$DW$205, DW_AT_decl_line(0x47)
    2337                            .dwattr $C$DW$205, DW_AT_decl_column(0x16)
    2338                    
    2339                    $C$DW$206       .dwtag  DW_TAG_member
    2340                            .dwattr $C$DW$206, DW_AT_type(*$C$DW$T$3)
    2341                            .dwattr $C$DW$206, DW_AT_name("pvCallbackData")
    2342                            .dwattr $C$DW$206, DW_AT_TI_symbol_name("pvCallbackData")
    2343                            .dwattr $C$DW$206, DW_AT_data_member_location[DW_OP_plus_uconst 0x14]
    2344                            .dwattr $C$DW$206, DW_AT_accessibility(DW_ACCESS_public)
    2345                            .dwattr $C$DW$206, DW_AT_decl_file("C:/TI_CodeComposer/TivaWare/sensorlib/ak8975.h")
    2346                            .dwattr $C$DW$206, DW_AT_decl_line(0x4c)
    2347                            .dwattr $C$DW$206, DW_AT_decl_column(0x0b)
    2348                    
    2349                    $C$DW$207       .dwtag  DW_TAG_member
    2350                            .dwattr $C$DW$207, DW_AT_type(*$C$DW$T$51)
    2351                            .dwattr $C$DW$207, DW_AT_name("uCommand")
    2352                            .dwattr $C$DW$207, DW_AT_TI_symbol_name("uCommand")
    2353                            .dwattr $C$DW$207, DW_AT_data_member_location[DW_OP_plus_uconst 0x18]
    2354                            .dwattr $C$DW$207, DW_AT_accessibility(DW_ACCESS_public)
    2355                            .dwattr $C$DW$207, DW_AT_decl_file("C:/TI_CodeComposer/TivaWare/sensorlib/ak8975.h")
    2356                            .dwattr $C$DW$207, DW_AT_decl_line(0x64)
    2357                            .dwattr $C$DW$207, DW_AT_decl_column(0x05)
    2358                    
    2359                            .dwattr $C$DW$T$41, DW_AT_decl_file("C:/TI_CodeComposer/TivaWare/sensorlib/ak8975.h")
    2360                            .dwattr $C$DW$T$41, DW_AT_decl_line(0x2d)
    2361                            .dwattr $C$DW$T$41, DW_AT_decl_column(0x01)
    2362                            .dwendtag $C$DW$T$41
    2363                    
    2364                    $C$DW$T$42      .dwtag  DW_TAG_typedef
    2365                            .dwattr $C$DW$T$42, DW_AT_name("tAK8975")
    2366                            .dwattr $C$DW$T$42, DW_AT_type(*$C$DW$T$41)
    2367                            .dwattr $C$DW$T$42, DW_AT_language(DW_LANG_C)
    2368                            .dwattr $C$DW$T$42, DW_AT_decl_file("C:/TI_CodeComposer/TivaWare/sensorlib/ak8975.h")
    2369                            .dwattr $C$DW$T$42, DW_AT_decl_line(0x66)
    2370                            .dwattr $C$DW$T$42, DW_AT_decl_column(0x01)
    2371                    
    2372                    
    2373                    $C$DW$T$44      .dwtag  DW_TAG_structure_type
    2374                            .dwattr $C$DW$T$44, DW_AT_byte_size(0x6c)
    2375                    $C$DW$208       .dwtag  DW_TAG_member
    2376                            .dwattr $C$DW$208, DW_AT_type(*$C$DW$T$34)
    2377                            .dwattr $C$DW$208, DW_AT_name("psI2CInst")
    2378                            .dwattr $C$DW$208, DW_AT_TI_symbol_name("psI2CInst")
    2379                            .dwattr $C$DW$208, DW_AT_data_member_location[DW_OP_plus_uconst 0x0]
    2380                            .dwattr $C$DW$208, DW_AT_accessibility(DW_ACCESS_public)
    2381                            .dwattr $C$DW$208, DW_AT_decl_file("C:/TI_CodeComposer/TivaWare/sensorlib/mpu9150.h")
    2382                            .dwattr $C$DW$208, DW_AT_decl_line(0x33)
    2383                            .dwattr $C$DW$208, DW_AT_decl_column(0x14)
    2384                    
    2385                    $C$DW$209       .dwtag  DW_TAG_member
    2386                            .dwattr $C$DW$209, DW_AT_type(*$C$DW$T$42)
    2387                            .dwattr $C$DW$209, DW_AT_name("sAK8975Inst")
    2388                            .dwattr $C$DW$209, DW_AT_TI_symbol_name("sAK8975Inst")
    2389                            .dwattr $C$DW$209, DW_AT_data_member_location[DW_OP_plus_uconst 0x4]
    2390                            .dwattr $C$DW$209, DW_AT_accessibility(DW_ACCESS_public)
TI ARM Assembler PC v15.12.1 Thu Dec 01 13:25:52 2016

Tools Copyright (c) 1996-2015 Texas Instruments Incorporated
Magnetometer.asm                                                     PAGE   46

    2391                            .dwattr $C$DW$209, DW_AT_decl_file("C:/TI_CodeComposer/TivaWare/sensorlib/mpu9150.h")
    2392                            .dwattr $C$DW$209, DW_AT_decl_line(0x38)
    2393                            .dwattr $C$DW$209, DW_AT_decl_column(0x0d)
    2394                    
    2395                    $C$DW$210       .dwtag  DW_TAG_member
    2396                            .dwattr $C$DW$210, DW_AT_type(*$C$DW$T$19)
    2397                            .dwattr $C$DW$210, DW_AT_name("ui8Addr")
    2398                            .dwattr $C$DW$210, DW_AT_TI_symbol_name("ui8Addr")
    2399                            .dwattr $C$DW$210, DW_AT_data_member_location[DW_OP_plus_uconst 0x30]
    2400                            .dwattr $C$DW$210, DW_AT_accessibility(DW_ACCESS_public)
    2401                            .dwattr $C$DW$210, DW_AT_decl_file("C:/TI_CodeComposer/TivaWare/sensorlib/mpu9150.h")
    2402                            .dwattr $C$DW$210, DW_AT_decl_line(0x3d)
    2403                            .dwattr $C$DW$210, DW_AT_decl_column(0x0d)
    2404                    
    2405                    $C$DW$211       .dwtag  DW_TAG_member
    2406                            .dwattr $C$DW$211, DW_AT_type(*$C$DW$T$19)
    2407                            .dwattr $C$DW$211, DW_AT_name("ui8State")
    2408                            .dwattr $C$DW$211, DW_AT_TI_symbol_name("ui8State")
    2409                            .dwattr $C$DW$211, DW_AT_data_member_location[DW_OP_plus_uconst 0x31]
    2410                            .dwattr $C$DW$211, DW_AT_accessibility(DW_ACCESS_public)
    2411                            .dwattr $C$DW$211, DW_AT_decl_file("C:/TI_CodeComposer/TivaWare/sensorlib/mpu9150.h")
    2412                            .dwattr $C$DW$211, DW_AT_decl_line(0x42)
    2413                            .dwattr $C$DW$211, DW_AT_decl_column(0x0d)
    2414                    
    2415                    $C$DW$212       .dwtag  DW_TAG_member
    2416                            .dwattr $C$DW$212, DW_AT_type(*$C$DW$T$19)
    2417                            .dwattr $C$DW$212, DW_AT_name("ui8AccelAfsSel")
    2418                            .dwattr $C$DW$212, DW_AT_TI_symbol_name("ui8AccelAfsSel")
    2419                            .dwattr $C$DW$212, DW_AT_data_member_location[DW_OP_plus_uconst 0x32]
    2420                            .dwattr $C$DW$212, DW_AT_accessibility(DW_ACCESS_public)
    2421                            .dwattr $C$DW$212, DW_AT_decl_file("C:/TI_CodeComposer/TivaWare/sensorlib/mpu9150.h")
    2422                            .dwattr $C$DW$212, DW_AT_decl_line(0x47)
    2423                            .dwattr $C$DW$212, DW_AT_decl_column(0x0d)
    2424                    
    2425                    $C$DW$213       .dwtag  DW_TAG_member
    2426                            .dwattr $C$DW$213, DW_AT_type(*$C$DW$T$19)
    2427                            .dwattr $C$DW$213, DW_AT_name("ui8NewAccelAfsSel")
    2428                            .dwattr $C$DW$213, DW_AT_TI_symbol_name("ui8NewAccelAfsSel")
    2429                            .dwattr $C$DW$213, DW_AT_data_member_location[DW_OP_plus_uconst 0x33]
    2430                            .dwattr $C$DW$213, DW_AT_accessibility(DW_ACCESS_public)
    2431                            .dwattr $C$DW$213, DW_AT_decl_file("C:/TI_CodeComposer/TivaWare/sensorlib/mpu9150.h")
    2432                            .dwattr $C$DW$213, DW_AT_decl_line(0x4d)
    2433                            .dwattr $C$DW$213, DW_AT_decl_column(0x0d)
    2434                    
    2435                    $C$DW$214       .dwtag  DW_TAG_member
    2436                            .dwattr $C$DW$214, DW_AT_type(*$C$DW$T$19)
    2437                            .dwattr $C$DW$214, DW_AT_name("ui8GyroFsSel")
    2438                            .dwattr $C$DW$214, DW_AT_TI_symbol_name("ui8GyroFsSel")
    2439                            .dwattr $C$DW$214, DW_AT_data_member_location[DW_OP_plus_uconst 0x34]
    2440                            .dwattr $C$DW$214, DW_AT_accessibility(DW_ACCESS_public)
    2441                            .dwattr $C$DW$214, DW_AT_decl_file("C:/TI_CodeComposer/TivaWare/sensorlib/mpu9150.h")
    2442                            .dwattr $C$DW$214, DW_AT_decl_line(0x52)
    2443                            .dwattr $C$DW$214, DW_AT_decl_column(0x0d)
    2444                    
    2445                    $C$DW$215       .dwtag  DW_TAG_member
TI ARM Assembler PC v15.12.1 Thu Dec 01 13:25:52 2016

Tools Copyright (c) 1996-2015 Texas Instruments Incorporated
Magnetometer.asm                                                     PAGE   47

    2446                            .dwattr $C$DW$215, DW_AT_type(*$C$DW$T$19)
    2447                            .dwattr $C$DW$215, DW_AT_name("ui8NewGyroFsSel")
    2448                            .dwattr $C$DW$215, DW_AT_TI_symbol_name("ui8NewGyroFsSel")
    2449                            .dwattr $C$DW$215, DW_AT_data_member_location[DW_OP_plus_uconst 0x35]
    2450                            .dwattr $C$DW$215, DW_AT_accessibility(DW_ACCESS_public)
    2451                            .dwattr $C$DW$215, DW_AT_decl_file("C:/TI_CodeComposer/TivaWare/sensorlib/mpu9150.h")
    2452                            .dwattr $C$DW$215, DW_AT_decl_line(0x58)
    2453                            .dwattr $C$DW$215, DW_AT_decl_column(0x0d)
    2454                    
    2455                    $C$DW$216       .dwtag  DW_TAG_member
    2456                            .dwattr $C$DW$216, DW_AT_type(*$C$DW$T$43)
    2457                            .dwattr $C$DW$216, DW_AT_name("pui8Data")
    2458                            .dwattr $C$DW$216, DW_AT_TI_symbol_name("pui8Data")
    2459                            .dwattr $C$DW$216, DW_AT_data_member_location[DW_OP_plus_uconst 0x36]
    2460                            .dwattr $C$DW$216, DW_AT_accessibility(DW_ACCESS_public)
    2461                            .dwattr $C$DW$216, DW_AT_decl_file("C:/TI_CodeComposer/TivaWare/sensorlib/mpu9150.h")
    2462                            .dwattr $C$DW$216, DW_AT_decl_line(0x5d)
    2463                            .dwattr $C$DW$216, DW_AT_decl_column(0x0d)
    2464                    
    2465                    $C$DW$217       .dwtag  DW_TAG_member
    2466                            .dwattr $C$DW$217, DW_AT_type(*$C$DW$T$28)
    2467                            .dwattr $C$DW$217, DW_AT_name("pfnCallback")
    2468                            .dwattr $C$DW$217, DW_AT_TI_symbol_name("pfnCallback")
    2469                            .dwattr $C$DW$217, DW_AT_data_member_location[DW_OP_plus_uconst 0x50]
    2470                            .dwattr $C$DW$217, DW_AT_accessibility(DW_ACCESS_public)
    2471                            .dwattr $C$DW$217, DW_AT_decl_file("C:/TI_CodeComposer/TivaWare/sensorlib/mpu9150.h")
    2472                            .dwattr $C$DW$217, DW_AT_decl_line(0x63)
    2473                            .dwattr $C$DW$217, DW_AT_decl_column(0x16)
    2474                    
    2475                    $C$DW$218       .dwtag  DW_TAG_member
    2476                            .dwattr $C$DW$218, DW_AT_type(*$C$DW$T$3)
    2477                            .dwattr $C$DW$218, DW_AT_name("pvCallbackData")
    2478                            .dwattr $C$DW$218, DW_AT_TI_symbol_name("pvCallbackData")
    2479                            .dwattr $C$DW$218, DW_AT_data_member_location[DW_OP_plus_uconst 0x54]
    2480                            .dwattr $C$DW$218, DW_AT_accessibility(DW_ACCESS_public)
    2481                            .dwattr $C$DW$218, DW_AT_decl_file("C:/TI_CodeComposer/TivaWare/sensorlib/mpu9150.h")
    2482                            .dwattr $C$DW$218, DW_AT_decl_line(0x68)
    2483                            .dwattr $C$DW$218, DW_AT_decl_column(0x0b)
    2484                    
    2485                    $C$DW$219       .dwtag  DW_TAG_member
    2486                            .dwattr $C$DW$219, DW_AT_type(*$C$DW$T$53)
    2487                            .dwattr $C$DW$219, DW_AT_name("uCommand")
    2488                            .dwattr $C$DW$219, DW_AT_TI_symbol_name("uCommand")
    2489                            .dwattr $C$DW$219, DW_AT_data_member_location[DW_OP_plus_uconst 0x58]
    2490                            .dwattr $C$DW$219, DW_AT_accessibility(DW_ACCESS_public)
    2491                            .dwattr $C$DW$219, DW_AT_decl_file("C:/TI_CodeComposer/TivaWare/sensorlib/mpu9150.h")
    2492                            .dwattr $C$DW$219, DW_AT_decl_line(0x80)
    2493                            .dwattr $C$DW$219, DW_AT_decl_column(0x05)
    2494                    
    2495                            .dwattr $C$DW$T$44, DW_AT_decl_file("C:/TI_CodeComposer/TivaWare/sensorlib/mpu9150.h")
    2496                            .dwattr $C$DW$T$44, DW_AT_decl_line(0x2e)
    2497                            .dwattr $C$DW$T$44, DW_AT_decl_column(0x01)
    2498                            .dwendtag $C$DW$T$44
    2499                    
    2500                    $C$DW$T$93      .dwtag  DW_TAG_typedef
TI ARM Assembler PC v15.12.1 Thu Dec 01 13:25:52 2016

Tools Copyright (c) 1996-2015 Texas Instruments Incorporated
Magnetometer.asm                                                     PAGE   48

    2501                            .dwattr $C$DW$T$93, DW_AT_name("tMPU9150")
    2502                            .dwattr $C$DW$T$93, DW_AT_type(*$C$DW$T$44)
    2503                            .dwattr $C$DW$T$93, DW_AT_language(DW_LANG_C)
    2504                            .dwattr $C$DW$T$93, DW_AT_decl_file("C:/TI_CodeComposer/TivaWare/sensorlib/mpu9150.h")
    2505                            .dwattr $C$DW$T$93, DW_AT_decl_line(0x82)
    2506                            .dwattr $C$DW$T$93, DW_AT_decl_column(0x01)
    2507                    
    2508                    $C$DW$T$94      .dwtag  DW_TAG_pointer_type
    2509                            .dwattr $C$DW$T$94, DW_AT_type(*$C$DW$T$93)
    2510                            .dwattr $C$DW$T$94, DW_AT_address_class(0x20)
    2511                    
    2512                    
    2513                    $C$DW$T$46      .dwtag  DW_TAG_structure_type
    2514                            .dwattr $C$DW$T$46, DW_AT_byte_size(0x18)
    2515                    $C$DW$220       .dwtag  DW_TAG_member
    2516                            .dwattr $C$DW$220, DW_AT_type(*$C$DW$T$10)
    2517                            .dwattr $C$DW$220, DW_AT_name("fd")
    2518                            .dwattr $C$DW$220, DW_AT_TI_symbol_name("fd")
    2519                            .dwattr $C$DW$220, DW_AT_data_member_location[DW_OP_plus_uconst 0x0]
    2520                            .dwattr $C$DW$220, DW_AT_accessibility(DW_ACCESS_public)
    2521                            .dwattr $C$DW$220, DW_AT_decl_file("C:/TI_CodeComposer/ccsv6/tools/compiler/ti-cgt-arm_15.12.1
    2522                            .dwattr $C$DW$220, DW_AT_decl_line(0x5c)
    2523                            .dwattr $C$DW$220, DW_AT_decl_column(0x0b)
    2524                    
    2525                    $C$DW$221       .dwtag  DW_TAG_member
    2526                            .dwattr $C$DW$221, DW_AT_type(*$C$DW$T$45)
    2527                            .dwattr $C$DW$221, DW_AT_name("buf")
    2528                            .dwattr $C$DW$221, DW_AT_TI_symbol_name("buf")
    2529                            .dwattr $C$DW$221, DW_AT_data_member_location[DW_OP_plus_uconst 0x4]
    2530                            .dwattr $C$DW$221, DW_AT_accessibility(DW_ACCESS_public)
    2531                            .dwattr $C$DW$221, DW_AT_decl_file("C:/TI_CodeComposer/ccsv6/tools/compiler/ti-cgt-arm_15.12.1
    2532                            .dwattr $C$DW$221, DW_AT_decl_line(0x5d)
    2533                            .dwattr $C$DW$221, DW_AT_decl_column(0x16)
    2534                    
    2535                    $C$DW$222       .dwtag  DW_TAG_member
    2536                            .dwattr $C$DW$222, DW_AT_type(*$C$DW$T$45)
    2537                            .dwattr $C$DW$222, DW_AT_name("pos")
    2538                            .dwattr $C$DW$222, DW_AT_TI_symbol_name("pos")
    2539                            .dwattr $C$DW$222, DW_AT_data_member_location[DW_OP_plus_uconst 0x8]
    2540                            .dwattr $C$DW$222, DW_AT_accessibility(DW_ACCESS_public)
    2541                            .dwattr $C$DW$222, DW_AT_decl_file("C:/TI_CodeComposer/ccsv6/tools/compiler/ti-cgt-arm_15.12.1
    2542                            .dwattr $C$DW$222, DW_AT_decl_line(0x5e)
    2543                            .dwattr $C$DW$222, DW_AT_decl_column(0x16)
    2544                    
    2545                    $C$DW$223       .dwtag  DW_TAG_member
    2546                            .dwattr $C$DW$223, DW_AT_type(*$C$DW$T$45)
    2547                            .dwattr $C$DW$223, DW_AT_name("bufend")
    2548                            .dwattr $C$DW$223, DW_AT_TI_symbol_name("bufend")
    2549                            .dwattr $C$DW$223, DW_AT_data_member_location[DW_OP_plus_uconst 0xc]
    2550                            .dwattr $C$DW$223, DW_AT_accessibility(DW_ACCESS_public)
    2551                            .dwattr $C$DW$223, DW_AT_decl_file("C:/TI_CodeComposer/ccsv6/tools/compiler/ti-cgt-arm_15.12.1
    2552                            .dwattr $C$DW$223, DW_AT_decl_line(0x5f)
    2553                            .dwattr $C$DW$223, DW_AT_decl_column(0x16)
    2554                    
    2555                    $C$DW$224       .dwtag  DW_TAG_member
TI ARM Assembler PC v15.12.1 Thu Dec 01 13:25:52 2016

Tools Copyright (c) 1996-2015 Texas Instruments Incorporated
Magnetometer.asm                                                     PAGE   49

    2556                            .dwattr $C$DW$224, DW_AT_type(*$C$DW$T$45)
    2557                            .dwattr $C$DW$224, DW_AT_name("buff_stop")
    2558                            .dwattr $C$DW$224, DW_AT_TI_symbol_name("buff_stop")
    2559                            .dwattr $C$DW$224, DW_AT_data_member_location[DW_OP_plus_uconst 0x10]
    2560                            .dwattr $C$DW$224, DW_AT_accessibility(DW_ACCESS_public)
    2561                            .dwattr $C$DW$224, DW_AT_decl_file("C:/TI_CodeComposer/ccsv6/tools/compiler/ti-cgt-arm_15.12.1
    2562                            .dwattr $C$DW$224, DW_AT_decl_line(0x60)
    2563                            .dwattr $C$DW$224, DW_AT_decl_column(0x16)
    2564                    
    2565                    $C$DW$225       .dwtag  DW_TAG_member
    2566                            .dwattr $C$DW$225, DW_AT_type(*$C$DW$T$11)
    2567                            .dwattr $C$DW$225, DW_AT_name("flags")
    2568                            .dwattr $C$DW$225, DW_AT_TI_symbol_name("flags")
    2569                            .dwattr $C$DW$225, DW_AT_data_member_location[DW_OP_plus_uconst 0x14]
    2570                            .dwattr $C$DW$225, DW_AT_accessibility(DW_ACCESS_public)
    2571                            .dwattr $C$DW$225, DW_AT_decl_file("C:/TI_CodeComposer/ccsv6/tools/compiler/ti-cgt-arm_15.12.1
    2572                            .dwattr $C$DW$225, DW_AT_decl_line(0x61)
    2573                            .dwattr $C$DW$225, DW_AT_decl_column(0x16)
    2574                    
    2575                            .dwattr $C$DW$T$46, DW_AT_decl_file("C:/TI_CodeComposer/ccsv6/tools/compiler/ti-cgt-arm_15.12.
    2576                            .dwattr $C$DW$T$46, DW_AT_decl_line(0x5b)
    2577                            .dwattr $C$DW$T$46, DW_AT_decl_column(0x10)
    2578                            .dwendtag $C$DW$T$46
    2579                    
    2580                    $C$DW$T$95      .dwtag  DW_TAG_typedef
    2581                            .dwattr $C$DW$T$95, DW_AT_name("FILE")
    2582                            .dwattr $C$DW$T$95, DW_AT_type(*$C$DW$T$46)
    2583                            .dwattr $C$DW$T$95, DW_AT_language(DW_LANG_C)
    2584                            .dwattr $C$DW$T$95, DW_AT_decl_file("C:/TI_CodeComposer/ccsv6/tools/compiler/ti-cgt-arm_15.12.
    2585                            .dwattr $C$DW$T$95, DW_AT_decl_line(0x62)
    2586                            .dwattr $C$DW$T$95, DW_AT_decl_column(0x03)
    2587                    
    2588                    
    2589                    $C$DW$T$47      .dwtag  DW_TAG_structure_type
    2590                            .dwattr $C$DW$T$47, DW_AT_byte_size(0x14)
    2591                    $C$DW$226       .dwtag  DW_TAG_member
    2592                            .dwattr $C$DW$226, DW_AT_type(*$C$DW$T$34)
    2593                            .dwattr $C$DW$226, DW_AT_name("psI2CInst")
    2594                            .dwattr $C$DW$226, DW_AT_TI_symbol_name("psI2CInst")
    2595                            .dwattr $C$DW$226, DW_AT_data_member_location[DW_OP_plus_uconst 0x0]
    2596                            .dwattr $C$DW$226, DW_AT_accessibility(DW_ACCESS_public)
    2597                            .dwattr $C$DW$226, DW_AT_decl_file("C:/TI_CodeComposer/TivaWare/sensorlib/i2cm_drv.h")
    2598                            .dwattr $C$DW$226, DW_AT_decl_line(0x14c)
    2599                            .dwattr $C$DW$226, DW_AT_decl_column(0x14)
    2600                    
    2601                    $C$DW$227       .dwtag  DW_TAG_member
    2602                            .dwattr $C$DW$227, DW_AT_type(*$C$DW$T$23)
    2603                            .dwattr $C$DW$227, DW_AT_name("pui8Data")
    2604                            .dwattr $C$DW$227, DW_AT_TI_symbol_name("pui8Data")
    2605                            .dwattr $C$DW$227, DW_AT_data_member_location[DW_OP_plus_uconst 0x4]
    2606                            .dwattr $C$DW$227, DW_AT_accessibility(DW_ACCESS_public)
    2607                            .dwattr $C$DW$227, DW_AT_decl_file("C:/TI_CodeComposer/TivaWare/sensorlib/i2cm_drv.h")
    2608                            .dwattr $C$DW$227, DW_AT_decl_line(0x151)
    2609                            .dwattr $C$DW$227, DW_AT_decl_column(0x0e)
    2610                    
TI ARM Assembler PC v15.12.1 Thu Dec 01 13:25:52 2016

Tools Copyright (c) 1996-2015 Texas Instruments Incorporated
Magnetometer.asm                                                     PAGE   50

    2611                    $C$DW$228       .dwtag  DW_TAG_member
    2612                            .dwattr $C$DW$228, DW_AT_type(*$C$DW$T$22)
    2613                            .dwattr $C$DW$228, DW_AT_name("ui16Count")
    2614                            .dwattr $C$DW$228, DW_AT_TI_symbol_name("ui16Count")
    2615                            .dwattr $C$DW$228, DW_AT_data_member_location[DW_OP_plus_uconst 0x8]
    2616                            .dwattr $C$DW$228, DW_AT_accessibility(DW_ACCESS_public)
    2617                            .dwattr $C$DW$228, DW_AT_decl_file("C:/TI_CodeComposer/TivaWare/sensorlib/i2cm_drv.h")
    2618                            .dwattr $C$DW$228, DW_AT_decl_line(0x156)
    2619                            .dwattr $C$DW$228, DW_AT_decl_column(0x0e)
    2620                    
    2621                    $C$DW$229       .dwtag  DW_TAG_member
    2622                            .dwattr $C$DW$229, DW_AT_type(*$C$DW$T$28)
    2623                            .dwattr $C$DW$229, DW_AT_name("pfnCallback")
    2624                            .dwattr $C$DW$229, DW_AT_TI_symbol_name("pfnCallback")
    2625                            .dwattr $C$DW$229, DW_AT_data_member_location[DW_OP_plus_uconst 0xc]
    2626                            .dwattr $C$DW$229, DW_AT_accessibility(DW_ACCESS_public)
    2627                            .dwattr $C$DW$229, DW_AT_decl_file("C:/TI_CodeComposer/TivaWare/sensorlib/i2cm_drv.h")
    2628                            .dwattr $C$DW$229, DW_AT_decl_line(0x15b)
    2629                            .dwattr $C$DW$229, DW_AT_decl_column(0x16)
    2630                    
    2631                    $C$DW$230       .dwtag  DW_TAG_member
    2632                            .dwattr $C$DW$230, DW_AT_type(*$C$DW$T$3)
    2633                            .dwattr $C$DW$230, DW_AT_name("pvCallbackData")
    2634                            .dwattr $C$DW$230, DW_AT_TI_symbol_name("pvCallbackData")
    2635                            .dwattr $C$DW$230, DW_AT_data_member_location[DW_OP_plus_uconst 0x10]
    2636                            .dwattr $C$DW$230, DW_AT_accessibility(DW_ACCESS_public)
    2637                            .dwattr $C$DW$230, DW_AT_decl_file("C:/TI_CodeComposer/TivaWare/sensorlib/i2cm_drv.h")
    2638                            .dwattr $C$DW$230, DW_AT_decl_line(0x160)
    2639                            .dwattr $C$DW$230, DW_AT_decl_column(0x0b)
    2640                    
    2641                            .dwattr $C$DW$T$47, DW_AT_decl_file("C:/TI_CodeComposer/TivaWare/sensorlib/i2cm_drv.h")
    2642                            .dwattr $C$DW$T$47, DW_AT_decl_line(0x147)
    2643                            .dwattr $C$DW$T$47, DW_AT_decl_column(0x01)
    2644                            .dwendtag $C$DW$T$47
    2645                    
    2646                    $C$DW$T$96      .dwtag  DW_TAG_typedef
    2647                            .dwattr $C$DW$T$96, DW_AT_name("tI2CMRead16BE")
    2648                            .dwattr $C$DW$T$96, DW_AT_type(*$C$DW$T$47)
    2649                            .dwattr $C$DW$T$96, DW_AT_language(DW_LANG_C)
    2650                            .dwattr $C$DW$T$96, DW_AT_decl_file("C:/TI_CodeComposer/TivaWare/sensorlib/i2cm_drv.h")
    2651                            .dwattr $C$DW$T$96, DW_AT_decl_line(0x162)
    2652                            .dwattr $C$DW$T$96, DW_AT_decl_column(0x01)
    2653                    
    2654                    
    2655                    $C$DW$T$48      .dwtag  DW_TAG_structure_type
    2656                            .dwattr $C$DW$T$48, DW_AT_byte_size(0x14)
    2657                    $C$DW$231       .dwtag  DW_TAG_member
    2658                            .dwattr $C$DW$231, DW_AT_type(*$C$DW$T$34)
    2659                            .dwattr $C$DW$231, DW_AT_name("psI2CInst")
    2660                            .dwattr $C$DW$231, DW_AT_TI_symbol_name("psI2CInst")
    2661                            .dwattr $C$DW$231, DW_AT_data_member_location[DW_OP_plus_uconst 0x0]
    2662                            .dwattr $C$DW$231, DW_AT_accessibility(DW_ACCESS_public)
    2663                            .dwattr $C$DW$231, DW_AT_decl_file("C:/TI_CodeComposer/TivaWare/sensorlib/i2cm_drv.h")
    2664                            .dwattr $C$DW$231, DW_AT_decl_line(0x170)
    2665                            .dwattr $C$DW$231, DW_AT_decl_column(0x14)
TI ARM Assembler PC v15.12.1 Thu Dec 01 13:25:52 2016

Tools Copyright (c) 1996-2015 Texas Instruments Incorporated
Magnetometer.asm                                                     PAGE   51

    2666                    
    2667                    $C$DW$232       .dwtag  DW_TAG_member
    2668                            .dwattr $C$DW$232, DW_AT_type(*$C$DW$T$37)
    2669                            .dwattr $C$DW$232, DW_AT_name("pui8Buffer")
    2670                            .dwattr $C$DW$232, DW_AT_TI_symbol_name("pui8Buffer")
    2671                            .dwattr $C$DW$232, DW_AT_data_member_location[DW_OP_plus_uconst 0x4]
    2672                            .dwattr $C$DW$232, DW_AT_accessibility(DW_ACCESS_public)
    2673                            .dwattr $C$DW$232, DW_AT_decl_file("C:/TI_CodeComposer/TivaWare/sensorlib/i2cm_drv.h")
    2674                            .dwattr $C$DW$232, DW_AT_decl_line(0x175)
    2675                            .dwattr $C$DW$232, DW_AT_decl_column(0x0d)
    2676                    
    2677                    $C$DW$233       .dwtag  DW_TAG_member
    2678                            .dwattr $C$DW$233, DW_AT_type(*$C$DW$T$22)
    2679                            .dwattr $C$DW$233, DW_AT_name("ui16Count")
    2680                            .dwattr $C$DW$233, DW_AT_TI_symbol_name("ui16Count")
    2681                            .dwattr $C$DW$233, DW_AT_data_member_location[DW_OP_plus_uconst 0x6]
    2682                            .dwattr $C$DW$233, DW_AT_accessibility(DW_ACCESS_public)
    2683                            .dwattr $C$DW$233, DW_AT_decl_file("C:/TI_CodeComposer/TivaWare/sensorlib/i2cm_drv.h")
    2684                            .dwattr $C$DW$233, DW_AT_decl_line(0x17a)
    2685                            .dwattr $C$DW$233, DW_AT_decl_column(0x0e)
    2686                    
    2687                    $C$DW$234       .dwtag  DW_TAG_member
    2688                            .dwattr $C$DW$234, DW_AT_type(*$C$DW$T$21)
    2689                            .dwattr $C$DW$234, DW_AT_name("pui8Data")
    2690                            .dwattr $C$DW$234, DW_AT_TI_symbol_name("pui8Data")
    2691                            .dwattr $C$DW$234, DW_AT_data_member_location[DW_OP_plus_uconst 0x8]
    2692                            .dwattr $C$DW$234, DW_AT_accessibility(DW_ACCESS_public)
    2693                            .dwattr $C$DW$234, DW_AT_decl_file("C:/TI_CodeComposer/TivaWare/sensorlib/i2cm_drv.h")
    2694                            .dwattr $C$DW$234, DW_AT_decl_line(0x17f)
    2695                            .dwattr $C$DW$234, DW_AT_decl_column(0x14)
    2696                    
    2697                    $C$DW$235       .dwtag  DW_TAG_member
    2698                            .dwattr $C$DW$235, DW_AT_type(*$C$DW$T$28)
    2699                            .dwattr $C$DW$235, DW_AT_name("pfnCallback")
    2700                            .dwattr $C$DW$235, DW_AT_TI_symbol_name("pfnCallback")
    2701                            .dwattr $C$DW$235, DW_AT_data_member_location[DW_OP_plus_uconst 0xc]
    2702                            .dwattr $C$DW$235, DW_AT_accessibility(DW_ACCESS_public)
    2703                            .dwattr $C$DW$235, DW_AT_decl_file("C:/TI_CodeComposer/TivaWare/sensorlib/i2cm_drv.h")
    2704                            .dwattr $C$DW$235, DW_AT_decl_line(0x184)
    2705                            .dwattr $C$DW$235, DW_AT_decl_column(0x16)
    2706                    
    2707                    $C$DW$236       .dwtag  DW_TAG_member
    2708                            .dwattr $C$DW$236, DW_AT_type(*$C$DW$T$3)
    2709                            .dwattr $C$DW$236, DW_AT_name("pvCallbackData")
    2710                            .dwattr $C$DW$236, DW_AT_TI_symbol_name("pvCallbackData")
    2711                            .dwattr $C$DW$236, DW_AT_data_member_location[DW_OP_plus_uconst 0x10]
    2712                            .dwattr $C$DW$236, DW_AT_accessibility(DW_ACCESS_public)
    2713                            .dwattr $C$DW$236, DW_AT_decl_file("C:/TI_CodeComposer/TivaWare/sensorlib/i2cm_drv.h")
    2714                            .dwattr $C$DW$236, DW_AT_decl_line(0x189)
    2715                            .dwattr $C$DW$236, DW_AT_decl_column(0x0b)
    2716                    
    2717                            .dwattr $C$DW$T$48, DW_AT_decl_file("C:/TI_CodeComposer/TivaWare/sensorlib/i2cm_drv.h")
    2718                            .dwattr $C$DW$T$48, DW_AT_decl_line(0x16b)
    2719                            .dwattr $C$DW$T$48, DW_AT_decl_column(0x01)
    2720                            .dwendtag $C$DW$T$48
TI ARM Assembler PC v15.12.1 Thu Dec 01 13:25:52 2016

Tools Copyright (c) 1996-2015 Texas Instruments Incorporated
Magnetometer.asm                                                     PAGE   52

    2721                    
    2722                    $C$DW$T$97      .dwtag  DW_TAG_typedef
    2723                            .dwattr $C$DW$T$97, DW_AT_name("tI2CMWrite16BE")
    2724                            .dwattr $C$DW$T$97, DW_AT_type(*$C$DW$T$48)
    2725                            .dwattr $C$DW$T$97, DW_AT_language(DW_LANG_C)
    2726                            .dwattr $C$DW$T$97, DW_AT_decl_file("C:/TI_CodeComposer/TivaWare/sensorlib/i2cm_drv.h")
    2727                            .dwattr $C$DW$T$97, DW_AT_decl_line(0x18b)
    2728                            .dwattr $C$DW$T$97, DW_AT_decl_column(0x01)
    2729                    
    2730                    
    2731                    $C$DW$T$51      .dwtag  DW_TAG_union_type
    2732                            .dwattr $C$DW$T$51, DW_AT_byte_size(0x14)
    2733                    $C$DW$237       .dwtag  DW_TAG_member
    2734                            .dwattr $C$DW$237, DW_AT_type(*$C$DW$T$37)
    2735                            .dwattr $C$DW$237, DW_AT_name("pui8Buffer")
    2736                            .dwattr $C$DW$237, DW_AT_TI_symbol_name("pui8Buffer")
    2737                            .dwattr $C$DW$237, DW_AT_data_member_location[DW_OP_plus_uconst 0x0]
    2738                            .dwattr $C$DW$237, DW_AT_accessibility(DW_ACCESS_public)
    2739                            .dwattr $C$DW$237, DW_AT_decl_file("C:/TI_CodeComposer/TivaWare/sensorlib/ak8975.h")
    2740                            .dwattr $C$DW$237, DW_AT_decl_line(0x58)
    2741                            .dwattr $C$DW$237, DW_AT_decl_column(0x11)
    2742                    
    2743                    $C$DW$238       .dwtag  DW_TAG_member
    2744                            .dwattr $C$DW$238, DW_AT_type(*$C$DW$T$49)
    2745                            .dwattr $C$DW$238, DW_AT_name("sWriteState")
    2746                            .dwattr $C$DW$238, DW_AT_TI_symbol_name("sWriteState")
    2747                            .dwattr $C$DW$238, DW_AT_data_member_location[DW_OP_plus_uconst 0x0]
    2748                            .dwattr $C$DW$238, DW_AT_accessibility(DW_ACCESS_public)
    2749                            .dwattr $C$DW$238, DW_AT_decl_file("C:/TI_CodeComposer/TivaWare/sensorlib/ak8975.h")
    2750                            .dwattr $C$DW$238, DW_AT_decl_line(0x5d)
    2751                            .dwattr $C$DW$238, DW_AT_decl_column(0x15)
    2752                    
    2753                    $C$DW$239       .dwtag  DW_TAG_member
    2754                            .dwattr $C$DW$239, DW_AT_type(*$C$DW$T$50)
    2755                            .dwattr $C$DW$239, DW_AT_name("sReadModifyWriteState")
    2756                            .dwattr $C$DW$239, DW_AT_TI_symbol_name("sReadModifyWriteState")
    2757                            .dwattr $C$DW$239, DW_AT_data_member_location[DW_OP_plus_uconst 0x0]
    2758                            .dwattr $C$DW$239, DW_AT_accessibility(DW_ACCESS_public)
    2759                            .dwattr $C$DW$239, DW_AT_decl_file("C:/TI_CodeComposer/TivaWare/sensorlib/ak8975.h")
    2760                            .dwattr $C$DW$239, DW_AT_decl_line(0x62)
    2761                            .dwattr $C$DW$239, DW_AT_decl_column(0x1f)
    2762                    
    2763                            .dwattr $C$DW$T$51, DW_AT_decl_file("C:/TI_CodeComposer/TivaWare/sensorlib/ak8975.h")
    2764                            .dwattr $C$DW$T$51, DW_AT_decl_line(0x54)
    2765                            .dwattr $C$DW$T$51, DW_AT_decl_column(0x05)
    2766                            .dwendtag $C$DW$T$51
    2767                    
    2768                    
    2769                    $C$DW$T$53      .dwtag  DW_TAG_union_type
    2770                            .dwattr $C$DW$T$53, DW_AT_byte_size(0x14)
    2771                    $C$DW$240       .dwtag  DW_TAG_member
    2772                            .dwattr $C$DW$240, DW_AT_type(*$C$DW$T$52)
    2773                            .dwattr $C$DW$240, DW_AT_name("pui8Buffer")
    2774                            .dwattr $C$DW$240, DW_AT_TI_symbol_name("pui8Buffer")
    2775                            .dwattr $C$DW$240, DW_AT_data_member_location[DW_OP_plus_uconst 0x0]
TI ARM Assembler PC v15.12.1 Thu Dec 01 13:25:52 2016

Tools Copyright (c) 1996-2015 Texas Instruments Incorporated
Magnetometer.asm                                                     PAGE   53

    2776                            .dwattr $C$DW$240, DW_AT_accessibility(DW_ACCESS_public)
    2777                            .dwattr $C$DW$240, DW_AT_decl_file("C:/TI_CodeComposer/TivaWare/sensorlib/mpu9150.h")
    2778                            .dwattr $C$DW$240, DW_AT_decl_line(0x74)
    2779                            .dwattr $C$DW$240, DW_AT_decl_column(0x11)
    2780                    
    2781                    $C$DW$241       .dwtag  DW_TAG_member
    2782                            .dwattr $C$DW$241, DW_AT_type(*$C$DW$T$49)
    2783                            .dwattr $C$DW$241, DW_AT_name("sWriteState")
    2784                            .dwattr $C$DW$241, DW_AT_TI_symbol_name("sWriteState")
    2785                            .dwattr $C$DW$241, DW_AT_data_member_location[DW_OP_plus_uconst 0x0]
    2786                            .dwattr $C$DW$241, DW_AT_accessibility(DW_ACCESS_public)
    2787                            .dwattr $C$DW$241, DW_AT_decl_file("C:/TI_CodeComposer/TivaWare/sensorlib/mpu9150.h")
    2788                            .dwattr $C$DW$241, DW_AT_decl_line(0x79)
    2789                            .dwattr $C$DW$241, DW_AT_decl_column(0x15)
    2790                    
    2791                    $C$DW$242       .dwtag  DW_TAG_member
    2792                            .dwattr $C$DW$242, DW_AT_type(*$C$DW$T$50)
    2793                            .dwattr $C$DW$242, DW_AT_name("sReadModifyWriteState")
    2794                            .dwattr $C$DW$242, DW_AT_TI_symbol_name("sReadModifyWriteState")
    2795                            .dwattr $C$DW$242, DW_AT_data_member_location[DW_OP_plus_uconst 0x0]
    2796                            .dwattr $C$DW$242, DW_AT_accessibility(DW_ACCESS_public)
    2797                            .dwattr $C$DW$242, DW_AT_decl_file("C:/TI_CodeComposer/TivaWare/sensorlib/mpu9150.h")
    2798                            .dwattr $C$DW$242, DW_AT_decl_line(0x7e)
    2799                            .dwattr $C$DW$242, DW_AT_decl_column(0x1f)
    2800                    
    2801                            .dwattr $C$DW$T$53, DW_AT_decl_file("C:/TI_CodeComposer/TivaWare/sensorlib/mpu9150.h")
    2802                            .dwattr $C$DW$T$53, DW_AT_decl_line(0x70)
    2803                            .dwattr $C$DW$T$53, DW_AT_decl_column(0x05)
    2804                            .dwendtag $C$DW$T$53
    2805                    
    2806                    
    2807                    $C$DW$T$55      .dwtag  DW_TAG_structure_type
    2808                            .dwattr $C$DW$T$55, DW_AT_name("HeapRegion")
    2809                            .dwattr $C$DW$T$55, DW_AT_byte_size(0x08)
    2810                    $C$DW$243       .dwtag  DW_TAG_member
    2811                            .dwattr $C$DW$243, DW_AT_type(*$C$DW$T$23)
    2812                            .dwattr $C$DW$243, DW_AT_name("pucStartAddress")
    2813                            .dwattr $C$DW$243, DW_AT_TI_symbol_name("pucStartAddress")
    2814                            .dwattr $C$DW$243, DW_AT_data_member_location[DW_OP_plus_uconst 0x0]
    2815                            .dwattr $C$DW$243, DW_AT_accessibility(DW_ACCESS_public)
    2816                            .dwattr $C$DW$243, DW_AT_decl_file("C:\TI_ARM_Tiva_Projects\Source\include\portable.h")
    2817                            .dwattr $C$DW$243, DW_AT_decl_line(0x96)
    2818                            .dwattr $C$DW$243, DW_AT_decl_column(0x0b)
    2819                    
    2820                    $C$DW$244       .dwtag  DW_TAG_member
    2821                            .dwattr $C$DW$244, DW_AT_type(*$C$DW$T$54)
    2822                            .dwattr $C$DW$244, DW_AT_name("xSizeInBytes")
    2823                            .dwattr $C$DW$244, DW_AT_TI_symbol_name("xSizeInBytes")
    2824                            .dwattr $C$DW$244, DW_AT_data_member_location[DW_OP_plus_uconst 0x4]
    2825                            .dwattr $C$DW$244, DW_AT_accessibility(DW_ACCESS_public)
    2826                            .dwattr $C$DW$244, DW_AT_decl_file("C:\TI_ARM_Tiva_Projects\Source\include\portable.h")
    2827                            .dwattr $C$DW$244, DW_AT_decl_line(0x97)
    2828                            .dwattr $C$DW$244, DW_AT_decl_column(0x09)
    2829                    
    2830                            .dwattr $C$DW$T$55, DW_AT_decl_file("C:\TI_ARM_Tiva_Projects\Source\include\portable.h")
TI ARM Assembler PC v15.12.1 Thu Dec 01 13:25:52 2016

Tools Copyright (c) 1996-2015 Texas Instruments Incorporated
Magnetometer.asm                                                     PAGE   54

    2831                            .dwattr $C$DW$T$55, DW_AT_decl_line(0x94)
    2832                            .dwattr $C$DW$T$55, DW_AT_decl_column(0x10)
    2833                            .dwendtag $C$DW$T$55
    2834                    
    2835                    $C$DW$T$98      .dwtag  DW_TAG_typedef
    2836                            .dwattr $C$DW$T$98, DW_AT_name("HeapRegion_t")
    2837                            .dwattr $C$DW$T$98, DW_AT_type(*$C$DW$T$55)
    2838                            .dwattr $C$DW$T$98, DW_AT_language(DW_LANG_C)
    2839                            .dwattr $C$DW$T$98, DW_AT_decl_file("C:\TI_ARM_Tiva_Projects\Source\include\portable.h")
    2840                            .dwattr $C$DW$T$98, DW_AT_decl_line(0x98)
    2841                            .dwattr $C$DW$T$98, DW_AT_decl_column(0x03)
    2842                    
    2843                    
    2844                    $C$DW$T$56      .dwtag  DW_TAG_structure_type
    2845                            .dwattr $C$DW$T$56, DW_AT_name("ReportData_Item")
    2846                            .dwattr $C$DW$T$56, DW_AT_byte_size(0x18)
    2847                    $C$DW$245       .dwtag  DW_TAG_member
    2848                            .dwattr $C$DW$245, DW_AT_type(*$C$DW$T$24)
    2849                            .dwattr $C$DW$245, DW_AT_name("TimeStamp")
    2850                            .dwattr $C$DW$245, DW_AT_TI_symbol_name("TimeStamp")
    2851                            .dwattr $C$DW$245, DW_AT_data_member_location[DW_OP_plus_uconst 0x0]
    2852                            .dwattr $C$DW$245, DW_AT_accessibility(DW_ACCESS_public)
    2853                            .dwattr $C$DW$245, DW_AT_decl_file("C:/TI_ARM_Tiva_Projects/Proj2_Magnetometer/Tasks/Task_Repo
    2854                            .dwattr $C$DW$245, DW_AT_decl_line(0x20)
    2855                            .dwattr $C$DW$245, DW_AT_decl_column(0x2b)
    2856                    
    2857                    $C$DW$246       .dwtag  DW_TAG_member
    2858                            .dwattr $C$DW$246, DW_AT_type(*$C$DW$T$24)
    2859                            .dwattr $C$DW$246, DW_AT_name("ReportName")
    2860                            .dwattr $C$DW$246, DW_AT_TI_symbol_name("ReportName")
    2861                            .dwattr $C$DW$246, DW_AT_data_member_location[DW_OP_plus_uconst 0x4]
    2862                            .dwattr $C$DW$246, DW_AT_accessibility(DW_ACCESS_public)
    2863                            .dwattr $C$DW$246, DW_AT_decl_file("C:/TI_ARM_Tiva_Projects/Proj2_Magnetometer/Tasks/Task_Repo
    2864                            .dwattr $C$DW$246, DW_AT_decl_line(0x21)
    2865                            .dwattr $C$DW$246, DW_AT_decl_column(0x13)
    2866                    
    2867                    $C$DW$247       .dwtag  DW_TAG_member
    2868                            .dwattr $C$DW$247, DW_AT_type(*$C$DW$T$24)
    2869                            .dwattr $C$DW$247, DW_AT_name("ReportValue_0")
    2870                            .dwattr $C$DW$247, DW_AT_TI_symbol_name("ReportValue_0")
    2871                            .dwattr $C$DW$247, DW_AT_data_member_location[DW_OP_plus_uconst 0x8]
    2872                            .dwattr $C$DW$247, DW_AT_accessibility(DW_ACCESS_public)
    2873                            .dwattr $C$DW$247, DW_AT_decl_file("C:/TI_ARM_Tiva_Projects/Proj2_Magnetometer/Tasks/Task_Repo
    2874                            .dwattr $C$DW$247, DW_AT_decl_line(0x22)
    2875                            .dwattr $C$DW$247, DW_AT_decl_column(0x13)
    2876                    
    2877                    $C$DW$248       .dwtag  DW_TAG_member
    2878                            .dwattr $C$DW$248, DW_AT_type(*$C$DW$T$24)
    2879                            .dwattr $C$DW$248, DW_AT_name("ReportValue_1")
    2880                            .dwattr $C$DW$248, DW_AT_TI_symbol_name("ReportValue_1")
    2881                            .dwattr $C$DW$248, DW_AT_data_member_location[DW_OP_plus_uconst 0xc]
    2882                            .dwattr $C$DW$248, DW_AT_accessibility(DW_ACCESS_public)
    2883                            .dwattr $C$DW$248, DW_AT_decl_file("C:/TI_ARM_Tiva_Projects/Proj2_Magnetometer/Tasks/Task_Repo
    2884                            .dwattr $C$DW$248, DW_AT_decl_line(0x23)
    2885                            .dwattr $C$DW$248, DW_AT_decl_column(0x13)
TI ARM Assembler PC v15.12.1 Thu Dec 01 13:25:52 2016

Tools Copyright (c) 1996-2015 Texas Instruments Incorporated
Magnetometer.asm                                                     PAGE   55

    2886                    
    2887                    $C$DW$249       .dwtag  DW_TAG_member
    2888                            .dwattr $C$DW$249, DW_AT_type(*$C$DW$T$24)
    2889                            .dwattr $C$DW$249, DW_AT_name("ReportValue_2")
    2890                            .dwattr $C$DW$249, DW_AT_TI_symbol_name("ReportValue_2")
    2891                            .dwattr $C$DW$249, DW_AT_data_member_location[DW_OP_plus_uconst 0x10]
    2892                            .dwattr $C$DW$249, DW_AT_accessibility(DW_ACCESS_public)
    2893                            .dwattr $C$DW$249, DW_AT_decl_file("C:/TI_ARM_Tiva_Projects/Proj2_Magnetometer/Tasks/Task_Repo
    2894                            .dwattr $C$DW$249, DW_AT_decl_line(0x24)
    2895                            .dwattr $C$DW$249, DW_AT_decl_column(0x13)
    2896                    
    2897                    $C$DW$250       .dwtag  DW_TAG_member
    2898                            .dwattr $C$DW$250, DW_AT_type(*$C$DW$T$24)
    2899                            .dwattr $C$DW$250, DW_AT_name("ReportValue_3")
    2900                            .dwattr $C$DW$250, DW_AT_TI_symbol_name("ReportValue_3")
    2901                            .dwattr $C$DW$250, DW_AT_data_member_location[DW_OP_plus_uconst 0x14]
    2902                            .dwattr $C$DW$250, DW_AT_accessibility(DW_ACCESS_public)
    2903                            .dwattr $C$DW$250, DW_AT_decl_file("C:/TI_ARM_Tiva_Projects/Proj2_Magnetometer/Tasks/Task_Repo
    2904                            .dwattr $C$DW$250, DW_AT_decl_line(0x25)
    2905                            .dwattr $C$DW$250, DW_AT_decl_column(0x13)
    2906                    
    2907                            .dwattr $C$DW$T$56, DW_AT_decl_file("C:/TI_ARM_Tiva_Projects/Proj2_Magnetometer/Tasks/Task_Rep
    2908                            .dwattr $C$DW$T$56, DW_AT_decl_line(0x20)
    2909                            .dwattr $C$DW$T$56, DW_AT_decl_column(0x10)
    2910                            .dwendtag $C$DW$T$56
    2911                    
    2912                    $C$DW$T$99      .dwtag  DW_TAG_typedef
    2913                            .dwattr $C$DW$T$99, DW_AT_name("ReportData_Item")
    2914                            .dwattr $C$DW$T$99, DW_AT_type(*$C$DW$T$56)
    2915                            .dwattr $C$DW$T$99, DW_AT_language(DW_LANG_C)
    2916                            .dwattr $C$DW$T$99, DW_AT_decl_file("C:/TI_ARM_Tiva_Projects/Proj2_Magnetometer/Tasks/Task_Rep
    2917                            .dwattr $C$DW$T$99, DW_AT_decl_line(0x25)
    2918                            .dwattr $C$DW$T$99, DW_AT_decl_column(0x24)
    2919                    
    2920                    
    2921                    $C$DW$T$100     .dwtag  DW_TAG_enumeration_type
    2922                            .dwattr $C$DW$T$100, DW_AT_name("ReportData_OutputFormat")
    2923                            .dwattr $C$DW$T$100, DW_AT_byte_size(0x01)
    2924                    $C$DW$251       .dwtag  DW_TAG_enumerator
    2925                            .dwattr $C$DW$251, DW_AT_name("Excel_CSV")
    2926                            .dwattr $C$DW$251, DW_AT_const_value(0x00)
    2927                            .dwattr $C$DW$251, DW_AT_decl_file("C:/TI_ARM_Tiva_Projects/Proj2_Magnetometer/Tasks/Task_Repo
    2928                            .dwattr $C$DW$251, DW_AT_decl_line(0x27)
    2929                            .dwattr $C$DW$251, DW_AT_decl_column(0x28)
    2930                    
    2931                    $C$DW$252       .dwtag  DW_TAG_enumerator
    2932                            .dwattr $C$DW$252, DW_AT_name("Mathematica_List")
    2933                            .dwattr $C$DW$252, DW_AT_const_value(0x01)
    2934                            .dwattr $C$DW$252, DW_AT_decl_file("C:/TI_ARM_Tiva_Projects/Proj2_Magnetometer/Tasks/Task_Repo
    2935                            .dwattr $C$DW$252, DW_AT_decl_line(0x27)
    2936                            .dwattr $C$DW$252, DW_AT_decl_column(0x33)
    2937                    
    2938                            .dwattr $C$DW$T$100, DW_AT_decl_file("C:/TI_ARM_Tiva_Projects/Proj2_Magnetometer/Tasks/Task_Re
    2939                            .dwattr $C$DW$T$100, DW_AT_decl_line(0x27)
    2940                            .dwattr $C$DW$T$100, DW_AT_decl_column(0x0e)
TI ARM Assembler PC v15.12.1 Thu Dec 01 13:25:52 2016

Tools Copyright (c) 1996-2015 Texas Instruments Incorporated
Magnetometer.asm                                                     PAGE   56

    2941                            .dwendtag $C$DW$T$100
    2942                    
    2943                    $C$DW$T$101     .dwtag  DW_TAG_typedef
    2944                            .dwattr $C$DW$T$101, DW_AT_name("ReportData_OutputFormat")
    2945                            .dwattr $C$DW$T$101, DW_AT_type(*$C$DW$T$100)
    2946                            .dwattr $C$DW$T$101, DW_AT_language(DW_LANG_C)
    2947                            .dwattr $C$DW$T$101, DW_AT_decl_file("C:/TI_ARM_Tiva_Projects/Proj2_Magnetometer/Tasks/Task_Re
    2948                            .dwattr $C$DW$T$101, DW_AT_decl_line(0x27)
    2949                            .dwattr $C$DW$T$101, DW_AT_decl_column(0x46)
    2950                    
    2951                    $C$DW$T$2       .dwtag  DW_TAG_unspecified_type
    2952                            .dwattr $C$DW$T$2, DW_AT_name("void")
    2953                    
    2954                    $C$DW$T$3       .dwtag  DW_TAG_pointer_type
    2955                            .dwattr $C$DW$T$3, DW_AT_type(*$C$DW$T$2)
    2956                            .dwattr $C$DW$T$3, DW_AT_address_class(0x20)
    2957                    
    2958                    $C$DW$T$102     .dwtag  DW_TAG_typedef
    2959                            .dwattr $C$DW$T$102, DW_AT_name("QueueHandle_t")
    2960                            .dwattr $C$DW$T$102, DW_AT_type(*$C$DW$T$3)
    2961                            .dwattr $C$DW$T$102, DW_AT_language(DW_LANG_C)
    2962                            .dwattr $C$DW$T$102, DW_AT_decl_file("C:\TI_ARM_Tiva_Projects\Source\include\queue.h")
    2963                            .dwattr $C$DW$T$102, DW_AT_decl_line(0x58)
    2964                            .dwattr $C$DW$T$102, DW_AT_decl_column(0x10)
    2965                    
    2966                    $C$DW$T$103     .dwtag  DW_TAG_typedef
    2967                            .dwattr $C$DW$T$103, DW_AT_name("SemaphoreHandle_t")
    2968                            .dwattr $C$DW$T$103, DW_AT_type(*$C$DW$T$102)
    2969                            .dwattr $C$DW$T$103, DW_AT_language(DW_LANG_C)
    2970                            .dwattr $C$DW$T$103, DW_AT_decl_file("C:/TI_ARM_Tiva_Projects/Source/include/semphr.h")
    2971                            .dwattr $C$DW$T$103, DW_AT_decl_line(0x4f)
    2972                            .dwattr $C$DW$T$103, DW_AT_decl_column(0x17)
    2973                    
    2974                    $C$DW$T$104     .dwtag  DW_TAG_typedef
    2975                            .dwattr $C$DW$T$104, DW_AT_name("QueueSetHandle_t")
    2976                            .dwattr $C$DW$T$104, DW_AT_type(*$C$DW$T$3)
    2977                            .dwattr $C$DW$T$104, DW_AT_language(DW_LANG_C)
    2978                            .dwattr $C$DW$T$104, DW_AT_decl_file("C:\TI_ARM_Tiva_Projects\Source\include\queue.h")
    2979                            .dwattr $C$DW$T$104, DW_AT_decl_line(0x5f)
    2980                            .dwattr $C$DW$T$104, DW_AT_decl_column(0x10)
    2981                    
