TI ARM Assembler PC v15.12.1 Thu Dec 01 14:00:53 2016

Tools Copyright (c) 1996-2015 Texas Instruments Incorporated
MagSwitch.asm                                                        PAGE    1

       1                    ;******************************************************************************
       2                    ;* TI ARM C/C++ Codegen                                       PC v15.12.1.LTS *
       3                    ;* Date/Time created: Thu Dec 01 14:00:53 2016                                *
       4                    ;******************************************************************************
       5                            .compiler_opts --abi=eabi --arm_vmrs_si_workaround=off --code_state=16 --diag_wrap=off --disab
       6 00000000                   .thumb
       7                    
       8                    $C$DW$CU        .dwtag  DW_TAG_compile_unit
       9                            .dwattr $C$DW$CU, DW_AT_name("../Tasks/MagSwitch.c")
      10                            .dwattr $C$DW$CU, DW_AT_producer("TI TI ARM C/C++ Codegen PC v15.12.1.LTS Copyright (c) 1996-2
      11                            .dwattr $C$DW$CU, DW_AT_TI_version(0x01)
      12                            .dwattr $C$DW$CU, DW_AT_comp_dir("C:\TI_ARM_Tiva_Projects\Proj2_Magnetometer\Debug")
      13                    
      14                    $C$DW$1 .dwtag  DW_TAG_subprogram
      15                            .dwattr $C$DW$1, DW_AT_name("SysCtlPeripheralEnable")
      16                            .dwattr $C$DW$1, DW_AT_TI_symbol_name("SysCtlPeripheralEnable")
      17                            .dwattr $C$DW$1, DW_AT_declaration
      18                            .dwattr $C$DW$1, DW_AT_external
      19                            .dwattr $C$DW$1, DW_AT_decl_file("C:/TI_CodeComposer/TivaWare/driverlib/sysctl.h")
      20                            .dwattr $C$DW$1, DW_AT_decl_line(0x24e)
      21                            .dwattr $C$DW$1, DW_AT_decl_column(0x0d)
      22                    $C$DW$2 .dwtag  DW_TAG_formal_parameter
      23                            .dwattr $C$DW$2, DW_AT_type(*$C$DW$T$26)
      24                    
      25                            .dwendtag $C$DW$1
      26                    
      27                    
      28                    $C$DW$3 .dwtag  DW_TAG_subprogram
      29                            .dwattr $C$DW$3, DW_AT_name("GPIOPadConfigSet")
      30                            .dwattr $C$DW$3, DW_AT_TI_symbol_name("GPIOPadConfigSet")
      31                            .dwattr $C$DW$3, DW_AT_declaration
      32                            .dwattr $C$DW$3, DW_AT_external
      33                            .dwattr $C$DW$3, DW_AT_decl_file("C:/TI_CodeComposer/TivaWare/driverlib/gpio.h")
      34                            .dwattr $C$DW$3, DW_AT_decl_line(0x93)
      35                            .dwattr $C$DW$3, DW_AT_decl_column(0x0d)
      36                    $C$DW$4 .dwtag  DW_TAG_formal_parameter
      37                            .dwattr $C$DW$4, DW_AT_type(*$C$DW$T$26)
      38                    
      39                    $C$DW$5 .dwtag  DW_TAG_formal_parameter
      40                            .dwattr $C$DW$5, DW_AT_type(*$C$DW$T$21)
      41                    
      42                    $C$DW$6 .dwtag  DW_TAG_formal_parameter
      43                            .dwattr $C$DW$6, DW_AT_type(*$C$DW$T$26)
      44                    
      45                    $C$DW$7 .dwtag  DW_TAG_formal_parameter
      46                            .dwattr $C$DW$7, DW_AT_type(*$C$DW$T$26)
      47                    
      48                            .dwendtag $C$DW$3
      49                    
      50                    
      51                    $C$DW$8 .dwtag  DW_TAG_subprogram
      52                            .dwattr $C$DW$8, DW_AT_name("GPIOPinRead")
      53                            .dwattr $C$DW$8, DW_AT_TI_symbol_name("GPIOPinRead")
      54                            .dwattr $C$DW$8, DW_AT_type(*$C$DW$T$54)
      55                            .dwattr $C$DW$8, DW_AT_declaration
TI ARM Assembler PC v15.12.1 Thu Dec 01 14:00:53 2016

Tools Copyright (c) 1996-2015 Texas Instruments Incorporated
MagSwitch.asm                                                        PAGE    2

      56                            .dwattr $C$DW$8, DW_AT_external
      57                            .dwattr $C$DW$8, DW_AT_decl_file("C:/TI_CodeComposer/TivaWare/driverlib/gpio.h")
      58                            .dwattr $C$DW$8, DW_AT_decl_line(0x9d)
      59                            .dwattr $C$DW$8, DW_AT_decl_column(0x10)
      60                    $C$DW$9 .dwtag  DW_TAG_formal_parameter
      61                            .dwattr $C$DW$9, DW_AT_type(*$C$DW$T$26)
      62                    
      63                    $C$DW$10        .dwtag  DW_TAG_formal_parameter
      64                            .dwattr $C$DW$10, DW_AT_type(*$C$DW$T$21)
      65                    
      66                            .dwendtag $C$DW$8
      67                    
      68                    
      69                    $C$DW$11        .dwtag  DW_TAG_subprogram
      70                            .dwattr $C$DW$11, DW_AT_name("GPIOPinWrite")
      71                            .dwattr $C$DW$11, DW_AT_TI_symbol_name("GPIOPinWrite")
      72                            .dwattr $C$DW$11, DW_AT_declaration
      73                            .dwattr $C$DW$11, DW_AT_external
      74                            .dwattr $C$DW$11, DW_AT_decl_file("C:/TI_CodeComposer/TivaWare/driverlib/gpio.h")
      75                            .dwattr $C$DW$11, DW_AT_decl_line(0x9e)
      76                            .dwattr $C$DW$11, DW_AT_decl_column(0x0d)
      77                    $C$DW$12        .dwtag  DW_TAG_formal_parameter
      78                            .dwattr $C$DW$12, DW_AT_type(*$C$DW$T$26)
      79                    
      80                    $C$DW$13        .dwtag  DW_TAG_formal_parameter
      81                            .dwattr $C$DW$13, DW_AT_type(*$C$DW$T$21)
      82                    
      83                    $C$DW$14        .dwtag  DW_TAG_formal_parameter
      84                            .dwattr $C$DW$14, DW_AT_type(*$C$DW$T$21)
      85                    
      86                            .dwendtag $C$DW$11
      87                    
      88                    
      89                    $C$DW$15        .dwtag  DW_TAG_subprogram
      90                            .dwattr $C$DW$15, DW_AT_name("GPIOPinTypeGPIOOutput")
      91                            .dwattr $C$DW$15, DW_AT_TI_symbol_name("GPIOPinTypeGPIOOutput")
      92                            .dwattr $C$DW$15, DW_AT_declaration
      93                            .dwattr $C$DW$15, DW_AT_external
      94                            .dwattr $C$DW$15, DW_AT_decl_file("C:/TI_CodeComposer/TivaWare/driverlib/gpio.h")
      95                            .dwattr $C$DW$15, DW_AT_decl_line(0xa9)
      96                            .dwattr $C$DW$15, DW_AT_decl_column(0x0d)
      97                    $C$DW$16        .dwtag  DW_TAG_formal_parameter
      98                            .dwattr $C$DW$16, DW_AT_type(*$C$DW$T$26)
      99                    
     100                    $C$DW$17        .dwtag  DW_TAG_formal_parameter
     101                            .dwattr $C$DW$17, DW_AT_type(*$C$DW$T$21)
     102                    
     103                            .dwendtag $C$DW$15
     104                    
     105                    
     106                    $C$DW$18        .dwtag  DW_TAG_subprogram
     107                            .dwattr $C$DW$18, DW_AT_name("vTaskDelay")
     108                            .dwattr $C$DW$18, DW_AT_TI_symbol_name("vTaskDelay")
     109                            .dwattr $C$DW$18, DW_AT_declaration
     110                            .dwattr $C$DW$18, DW_AT_external
TI ARM Assembler PC v15.12.1 Thu Dec 01 14:00:53 2016

Tools Copyright (c) 1996-2015 Texas Instruments Incorporated
MagSwitch.asm                                                        PAGE    3

     111                            .dwattr $C$DW$18, DW_AT_decl_file("C:/TI_ARM_Tiva_Projects/Source/include/task.h")
     112                            .dwattr $C$DW$18, DW_AT_decl_line(0x22b)
     113                            .dwattr $C$DW$18, DW_AT_decl_column(0x06)
     114                    $C$DW$19        .dwtag  DW_TAG_formal_parameter
     115                            .dwattr $C$DW$19, DW_AT_type(*$C$DW$T$71)
     116                    
     117                            .dwendtag $C$DW$18
     118                    
     119                    
     120                    $C$DW$20        .dwtag  DW_TAG_subprogram
     121                            .dwattr $C$DW$20, DW_AT_name("UARTprintf")
     122                            .dwattr $C$DW$20, DW_AT_TI_symbol_name("UARTprintf")
     123                            .dwattr $C$DW$20, DW_AT_declaration
     124                            .dwattr $C$DW$20, DW_AT_external
     125                            .dwattr $C$DW$20, DW_AT_decl_file("C:/TI_ARM_Tiva_Projects/Proj2_Magnetometer/Drivers/uartstdi
     126                            .dwattr $C$DW$20, DW_AT_decl_line(0x41)
     127                            .dwattr $C$DW$20, DW_AT_decl_column(0x0d)
     128                    $C$DW$21        .dwtag  DW_TAG_formal_parameter
     129                            .dwattr $C$DW$21, DW_AT_type(*$C$DW$T$42)
     130                    
     131                    $C$DW$22        .dwtag  DW_TAG_unspecified_parameters
     132                    
     133                            .dwendtag $C$DW$20
     134                    
     135                    
     136                    $C$DW$23        .dwtag  DW_TAG_subprogram
     137                            .dwattr $C$DW$23, DW_AT_name("switchLogic")
     138                            .dwattr $C$DW$23, DW_AT_TI_symbol_name("switchLogic")
     139                            .dwattr $C$DW$23, DW_AT_type(*$C$DW$T$10)
     140                            .dwattr $C$DW$23, DW_AT_declaration
     141                            .dwattr $C$DW$23, DW_AT_external
     142                            .dwattr $C$DW$23, DW_AT_decl_file("../Tasks/MagSwitch.c")
     143                            .dwattr $C$DW$23, DW_AT_decl_line(0x39)
     144                            .dwattr $C$DW$23, DW_AT_decl_column(0x03)
     145                            .dwendtag $C$DW$23
     146                    
     147                            .global isOn
     148 00000000                   .data
     149                            .align  1
     150                            .elfsym isOn,SYM_SIZE(1)
     151 00000000           isOn:
     152 00000000 00000000          .bits   0,8                     ; isOn @ 0
     153                    
     154                    $C$DW$24        .dwtag  DW_TAG_variable
     155                            .dwattr $C$DW$24, DW_AT_name("isOn")
     156                            .dwattr $C$DW$24, DW_AT_TI_symbol_name("isOn")
     157                            .dwattr $C$DW$24, DW_AT_location[DW_OP_addr isOn]
     158                            .dwattr $C$DW$24, DW_AT_type(*$C$DW$T$123)
     159                            .dwattr $C$DW$24, DW_AT_external
     160                            .dwattr $C$DW$24, DW_AT_decl_file("../Tasks/MagSwitch.c")
     161                            .dwattr $C$DW$24, DW_AT_decl_line(0x21)
     162                            .dwattr $C$DW$24, DW_AT_decl_column(0x06)
     163                    
     164                            .global magnetometerValue
     165 00000001                   .data
TI ARM Assembler PC v15.12.1 Thu Dec 01 14:00:53 2016

Tools Copyright (c) 1996-2015 Texas Instruments Incorporated
MagSwitch.asm                                                        PAGE    4

     166                            .align  4
     167                            .elfsym magnetometerValue,SYM_SIZE(4)
     168 00000004           magnetometerValue:
     169 00000004 00000000          .bits   0,32                    ; magnetometerValue @ 0
     170                    
     171                    $C$DW$25        .dwtag  DW_TAG_variable
     172                            .dwattr $C$DW$25, DW_AT_name("magnetometerValue")
     173                            .dwattr $C$DW$25, DW_AT_TI_symbol_name("magnetometerValue")
     174                            .dwattr $C$DW$25, DW_AT_location[DW_OP_addr magnetometerValue]
     175                            .dwattr $C$DW$25, DW_AT_type(*$C$DW$T$26)
     176                            .dwattr $C$DW$25, DW_AT_external
     177                            .dwattr $C$DW$25, DW_AT_decl_file("../Tasks/MagSwitch.c")
     178                            .dwattr $C$DW$25, DW_AT_decl_line(0x22)
     179                            .dwattr $C$DW$25, DW_AT_decl_column(0x0a)
     180                    
     181                            .global LED_Data
     182                            .common LED_Data,4,4
     183                    $C$DW$26        .dwtag  DW_TAG_variable
     184                            .dwattr $C$DW$26, DW_AT_name("LED_Data")
     185                            .dwattr $C$DW$26, DW_AT_TI_symbol_name("LED_Data")
     186                            .dwattr $C$DW$26, DW_AT_location[DW_OP_addr LED_Data]
     187                            .dwattr $C$DW$26, DW_AT_type(*$C$DW$T$26)
     188                            .dwattr $C$DW$26, DW_AT_external
     189                            .dwattr $C$DW$26, DW_AT_decl_file("../Tasks/MagSwitch.c")
     190                            .dwattr $C$DW$26, DW_AT_decl_line(0x23)
     191                            .dwattr $C$DW$26, DW_AT_decl_column(0x0a)
     192                    
     193                    ;       C:\TI_CodeComposer\ccsv6\tools\compiler\ti-cgt-arm_15.12.1.LTS\bin\armacpia.exe -@C:\\Users\\R
     194 00000000                   .sect   ".text"
     195                            .clink
     196                            .thumbfunc Task_MagSwitch
     197 00000000                   .thumb
     198                            .global Task_MagSwitch
     199                    
     200                    $C$DW$27        .dwtag  DW_TAG_subprogram
     201                            .dwattr $C$DW$27, DW_AT_name("Task_MagSwitch")
     202                            .dwattr $C$DW$27, DW_AT_low_pc(Task_MagSwitch)
     203                            .dwattr $C$DW$27, DW_AT_high_pc(0x00)
     204                            .dwattr $C$DW$27, DW_AT_TI_symbol_name("Task_MagSwitch")
     205                            .dwattr $C$DW$27, DW_AT_external
     206                            .dwattr $C$DW$27, DW_AT_TI_begin_file("../Tasks/MagSwitch.c")
     207                            .dwattr $C$DW$27, DW_AT_TI_begin_line(0x25)
     208                            .dwattr $C$DW$27, DW_AT_TI_begin_column(0x0d)
     209                            .dwattr $C$DW$27, DW_AT_decl_file("../Tasks/MagSwitch.c")
     210                            .dwattr $C$DW$27, DW_AT_decl_line(0x25)
     211                            .dwattr $C$DW$27, DW_AT_decl_column(0x0d)
     212                            .dwattr $C$DW$27, DW_AT_TI_max_frame_size(0x08)
     213                            .dwpsn  file "../Tasks/MagSwitch.c",line 37,column 48,is_stmt,address Task_MagSwitch,isa 1
     214                    
     215                            .dwfde $C$DW$CIE, Task_MagSwitch
     216                    $C$DW$28        .dwtag  DW_TAG_formal_parameter
     217                            .dwattr $C$DW$28, DW_AT_name("pvParameters")
     218                            .dwattr $C$DW$28, DW_AT_TI_symbol_name("pvParameters")
     219                            .dwattr $C$DW$28, DW_AT_type(*$C$DW$T$3)
     220                            .dwattr $C$DW$28, DW_AT_location[DW_OP_reg0]
TI ARM Assembler PC v15.12.1 Thu Dec 01 14:00:53 2016

Tools Copyright (c) 1996-2015 Texas Instruments Incorporated
MagSwitch.asm                                                        PAGE    5

     221                    
     222                    
     223                    ;*****************************************************************************
     224                    ;* FUNCTION NAME: Task_MagSwitch                                             *
     225                    ;*                                                                           *
     226                    ;*   Regs Modified     : A1,A2,A3,A4,V9,SP,LR,SR,D0,D0_hi,D1,D1_hi,D2,D2_hi, *
     227                    ;*                           D3,D3_hi,D4,D4_hi,D5,D5_hi,D6,D6_hi,D7,D7_hi,   *
     228                    ;*                           FPEXC,FPSCR                                     *
     229                    ;*   Regs Used         : A1,A2,A3,A4,V9,SP,LR,SR,D0,D0_hi,D1,D1_hi,D2,D2_hi, *
     230                    ;*                           D3,D3_hi,D4,D4_hi,D5,D5_hi,D6,D6_hi,D7,D7_hi,   *
     231                    ;*                           FPEXC,FPSCR                                     *
     232                    ;*   Local Frame Size  : 0 Args + 4 Auto + 4 Save = 8 byte                   *
     233                    ;*****************************************************************************
     234 00000000           Task_MagSwitch:
     235                    ;* --------------------------------------------------------------------------*
     236                            .dwcfi  cfa_offset, 0
     237 00000000 B508              PUSH      {A4, LR}              ; [DPU_3_PIPE]  ; [ORIG 16-BIT INS]
     238                            .dwcfi  cfa_offset, 8
     239                            .dwcfi  save_reg_to_mem, 14, -4
     240                            .dwcfi  save_reg_to_mem, 3, -8
     241                    $C$DW$29        .dwtag  DW_TAG_variable
     242                            .dwattr $C$DW$29, DW_AT_name("pvParameters")
     243                            .dwattr $C$DW$29, DW_AT_TI_symbol_name("pvParameters")
     244                            .dwattr $C$DW$29, DW_AT_type(*$C$DW$T$3)
     245                            .dwattr $C$DW$29, DW_AT_location[DW_OP_breg13 0]
     246                    
     247 00000002 9000              STR       A1, [SP, #0]          ; [DPU_3_PIPE] |37|  ; [ORIG 16-BIT INS]
     248                            .dwpsn  file "../Tasks/MagSwitch.c",line 41,column 2,is_stmt,isa 1
     249 00000004 4842              LDR       A1, $C$CON1           ; [DPU_3_PIPE] |41|  ; [ORIG 16-BIT INS]
     250                    $C$DW$30        .dwtag  DW_TAG_TI_branch
     251                            .dwattr $C$DW$30, DW_AT_low_pc(0x00)
     252                            .dwattr $C$DW$30, DW_AT_name("SysCtlPeripheralEnable")
     253                            .dwattr $C$DW$30, DW_AT_TI_call
     254                    
     255 00000006 FFFEF7FF!         BL        SysCtlPeripheralEnable ; [DPU_3_PIPE] |41|  ; [KEEP 32-BIT INS]
     256                            ; CALL OCCURS {SysCtlPeripheralEnable }  ; [] |41| 
     257                            .dwpsn  file "../Tasks/MagSwitch.c",line 44,column 2,is_stmt,isa 1
     258 0000000a 4842              LDR       A1, $C$CON2           ; [DPU_3_PIPE] |44|  ; [ORIG 16-BIT INS]
     259 0000000c 2102              MOVS      A2, #2                ; [DPU_3_PIPE] |44|  ; [ORIG 16-BIT INS]
     260                    $C$DW$31        .dwtag  DW_TAG_TI_branch
     261                            .dwattr $C$DW$31, DW_AT_low_pc(0x00)
     262                            .dwattr $C$DW$31, DW_AT_name("GPIOPinTypeGPIOOutput")
     263                            .dwattr $C$DW$31, DW_AT_TI_call
     264                    
     265 0000000e FFFEF7FF!         BL        GPIOPinTypeGPIOOutput ; [DPU_3_PIPE] |44|  ; [KEEP 32-BIT INS]
     266                            ; CALL OCCURS {GPIOPinTypeGPIOOutput }  ; [] |44| 
     267                            .dwpsn  file "../Tasks/MagSwitch.c",line 45,column 2,is_stmt,isa 1
     268 00000012 4840              LDR       A1, $C$CON2           ; [DPU_3_PIPE] |45|  ; [ORIG 16-BIT INS]
     269 00000014 2102              MOVS      A2, #2                ; [DPU_3_PIPE] |45|  ; [ORIG 16-BIT INS]
     270 00000016 2201              MOVS      A3, #1                ; [DPU_3_PIPE] |45|  ; [ORIG 16-BIT INS]
     271 00000018 2308              MOVS      A4, #8                ; [DPU_3_PIPE] |45|  ; [ORIG 16-BIT INS]
     272                    $C$DW$32        .dwtag  DW_TAG_TI_branch
     273                            .dwattr $C$DW$32, DW_AT_low_pc(0x00)
     274                            .dwattr $C$DW$32, DW_AT_name("GPIOPadConfigSet")
     275                            .dwattr $C$DW$32, DW_AT_TI_call
TI ARM Assembler PC v15.12.1 Thu Dec 01 14:00:53 2016

Tools Copyright (c) 1996-2015 Texas Instruments Incorporated
MagSwitch.asm                                                        PAGE    6

     276                    
     277 0000001a FFFEF7FF!         BL        GPIOPadConfigSet      ; [DPU_3_PIPE] |45|  ; [KEEP 32-BIT INS]
     278                            ; CALL OCCURS {GPIOPadConfigSet }  ; [] |45| 
     279                            .dwpsn  file "../Tasks/MagSwitch.c",line 48,column 2,is_stmt,isa 1
     280 0000001e 483D              LDR       A1, $C$CON2           ; [DPU_3_PIPE] |48|  ; [ORIG 16-BIT INS]
     281 00000020 2102              MOVS      A2, #2                ; [DPU_3_PIPE] |48|  ; [ORIG 16-BIT INS]
     282                    $C$DW$33        .dwtag  DW_TAG_TI_branch
     283                            .dwattr $C$DW$33, DW_AT_low_pc(0x00)
     284                            .dwattr $C$DW$33, DW_AT_name("GPIOPinRead")
     285                            .dwattr $C$DW$33, DW_AT_TI_call
     286                    
     287 00000022 FFFEF7FF!         BL        GPIOPinRead           ; [DPU_3_PIPE] |48|  ; [KEEP 32-BIT INS]
     288                            ; CALL OCCURS {GPIOPinRead }     ; [] |48| 
     289 00000026 493C              LDR       A2, $C$CON3           ; [DPU_3_PIPE] |48|  ; [ORIG 16-BIT INS]
     290 00000028 6008              STR       A1, [A2, #0]          ; [DPU_3_PIPE] |48|  ; [ORIG 16-BIT INS]
     291                            .dwpsn  file "../Tasks/MagSwitch.c",line 51,column 2,is_stmt,isa 1
     292 0000002a A021              ADR       A1, $C$SL1            ; [DPU_3_PIPE] |51|  ; [ORIG 16-BIT INS]
     293                    $C$DW$34        .dwtag  DW_TAG_TI_branch
     294                            .dwattr $C$DW$34, DW_AT_low_pc(0x00)
     295                            .dwattr $C$DW$34, DW_AT_name("UARTprintf")
     296                            .dwattr $C$DW$34, DW_AT_TI_call
     297                    
     298 0000002c FFFEF7FF!         BL        UARTprintf            ; [DPU_3_PIPE] |51|  ; [KEEP 32-BIT INS]
     299                            ; CALL OCCURS {UARTprintf }      ; [] |51| 
     300                            .dwpsn  file "../Tasks/MagSwitch.c",line 54,column 8,is_stmt,isa 1
     301                    ;* --------------------------------------------------------------------------*
     302                    ;*   BEGIN LOOP ||$C$L1||
     303                    ;*
     304                    ;*   Loop source line                : 54
     305                    ;*   Loop closing brace source line  : 61
     306                    ;*   Known Minimum Trip Count        : 1
     307                    ;*   Known Maximum Trip Count        : 4294967295
     308                    ;*   Known Max Trip Count Factor     : 1
     309                    ;* --------------------------------------------------------------------------*
     310 00000030           ||$C$L1||:    
     311                            .dwpsn  file "../Tasks/MagSwitch.c",line 57,column 3,is_stmt,isa 1
     312 00000030 483A              LDR       A1, $C$CON4           ; [DPU_3_PIPE] |57|  ; [ORIG 16-BIT INS]
     313 00000032 6800              LDR       A1, [A1, #0]          ; [DPU_3_PIPE] |57|  ; [ORIG 16-BIT INS]
     314                    $C$DW$35        .dwtag  DW_TAG_TI_branch
     315                            .dwattr $C$DW$35, DW_AT_low_pc(0x00)
     316                            .dwattr $C$DW$35, DW_AT_name("switchLogic")
     317                            .dwattr $C$DW$35, DW_AT_TI_call
     318                    
     319 00000034 F804F000          BL        switchLogic           ; [DPU_3_PIPE] |57|  ; [KEEP 32-BIT INS]
     320                            ; CALL OCCURS {switchLogic }     ; [] |57| 
     321                            .dwpsn  file "../Tasks/MagSwitch.c",line 60,column 3,is_stmt,isa 1
     322 00000038 2064              MOVS      A1, #100              ; [DPU_3_PIPE] |60|  ; [ORIG 16-BIT INS]
     323                    $C$DW$36        .dwtag  DW_TAG_TI_branch
     324                            .dwattr $C$DW$36, DW_AT_low_pc(0x00)
     325                            .dwattr $C$DW$36, DW_AT_name("vTaskDelay")
     326                            .dwattr $C$DW$36, DW_AT_TI_call
     327                    
     328 0000003a FFFEF7FF!         BL        vTaskDelay            ; [DPU_3_PIPE] |60|  ; [KEEP 32-BIT INS]
     329                            ; CALL OCCURS {vTaskDelay }      ; [] |60| 
     330                            .dwpsn  file "../Tasks/MagSwitch.c",line 54,column 8,is_stmt,isa 1
TI ARM Assembler PC v15.12.1 Thu Dec 01 14:00:53 2016

Tools Copyright (c) 1996-2015 Texas Instruments Incorporated
MagSwitch.asm                                                        PAGE    7

     331 0000003e E7F7              B         ||$C$L1||             ; [DPU_3_PIPE] |54|  ; [ORIG 16-BIT INS]
     332                            ; BRANCH OCCURS {||$C$L1||}      ; [] |54| 
     333                    ;* --------------------------------------------------------------------------*
     334                            .dwattr $C$DW$27, DW_AT_TI_end_file("../Tasks/MagSwitch.c")
     335                            .dwattr $C$DW$27, DW_AT_TI_end_line(0x3e)
     336                            .dwattr $C$DW$27, DW_AT_TI_end_column(0x01)
     337                            .dwendentry
     338                            .dwendtag $C$DW$27
     339                    
     340 00000040                   .sect   ".text"
     341                            .clink
     342                            .thumbfunc switchLogic
     343 00000040                   .thumb
     344                            .global switchLogic
     345                    
     346                    $C$DW$37        .dwtag  DW_TAG_subprogram
     347                            .dwattr $C$DW$37, DW_AT_name("switchLogic")
     348                            .dwattr $C$DW$37, DW_AT_low_pc(switchLogic)
     349                            .dwattr $C$DW$37, DW_AT_high_pc(0x00)
     350                            .dwattr $C$DW$37, DW_AT_TI_symbol_name("switchLogic")
     351                            .dwattr $C$DW$37, DW_AT_external
     352                            .dwattr $C$DW$37, DW_AT_TI_begin_file("../Tasks/MagSwitch.c")
     353                            .dwattr $C$DW$37, DW_AT_TI_begin_line(0x40)
     354                            .dwattr $C$DW$37, DW_AT_TI_begin_column(0x06)
     355                            .dwattr $C$DW$37, DW_AT_decl_file("../Tasks/MagSwitch.c")
     356                            .dwattr $C$DW$37, DW_AT_decl_line(0x40)
     357                            .dwattr $C$DW$37, DW_AT_decl_column(0x06)
     358                            .dwattr $C$DW$37, DW_AT_TI_max_frame_size(0x08)
     359                            .dwpsn  file "../Tasks/MagSwitch.c",line 64,column 32,is_stmt,address switchLogic,isa 1
     360                    
     361                            .dwfde $C$DW$CIE, switchLogic
     362                    $C$DW$38        .dwtag  DW_TAG_formal_parameter
     363                            .dwattr $C$DW$38, DW_AT_name("pVal")
     364                            .dwattr $C$DW$38, DW_AT_TI_symbol_name("pVal")
     365                            .dwattr $C$DW$38, DW_AT_type(*$C$DW$T$26)
     366                            .dwattr $C$DW$38, DW_AT_location[DW_OP_reg0]
     367                    
     368                    
     369                    ;*****************************************************************************
     370                    ;* FUNCTION NAME: switchLogic                                                *
     371                    ;*                                                                           *
     372                    ;*   Regs Modified     : A1,A2,A3,A4,V9,SP,LR,SR,D0,D0_hi,D1,D1_hi,D2,D2_hi, *
     373                    ;*                           D3,D3_hi,D4,D4_hi,D5,D5_hi,D6,D6_hi,D7,D7_hi,   *
     374                    ;*                           FPEXC,FPSCR                                     *
     375                    ;*   Regs Used         : A1,A2,A3,A4,V9,SP,LR,SR,D0,D0_hi,D1,D1_hi,D2,D2_hi, *
     376                    ;*                           D3,D3_hi,D4,D4_hi,D5,D5_hi,D6,D6_hi,D7,D7_hi,   *
     377                    ;*                           FPEXC,FPSCR                                     *
     378                    ;*   Local Frame Size  : 0 Args + 4 Auto + 4 Save = 8 byte                   *
     379                    ;*****************************************************************************
     380 00000040           switchLogic:
     381                    ;* --------------------------------------------------------------------------*
     382                            .dwcfi  cfa_offset, 0
     383 00000040 B508              PUSH      {A4, LR}              ; [DPU_3_PIPE]  ; [ORIG 16-BIT INS]
     384                            .dwcfi  cfa_offset, 8
     385                            .dwcfi  save_reg_to_mem, 14, -4
TI ARM Assembler PC v15.12.1 Thu Dec 01 14:00:53 2016

Tools Copyright (c) 1996-2015 Texas Instruments Incorporated
MagSwitch.asm                                                        PAGE    8

     386                            .dwcfi  save_reg_to_mem, 3, -8
     387                    $C$DW$39        .dwtag  DW_TAG_variable
     388                            .dwattr $C$DW$39, DW_AT_name("pVal")
     389                            .dwattr $C$DW$39, DW_AT_TI_symbol_name("pVal")
     390                            .dwattr $C$DW$39, DW_AT_type(*$C$DW$T$26)
     391                            .dwattr $C$DW$39, DW_AT_location[DW_OP_breg13 0]
     392                    
     393 00000042 9000              STR       A1, [SP, #0]          ; [DPU_3_PIPE] |64|  ; [ORIG 16-BIT INS]
     394                            .dwpsn  file "../Tasks/MagSwitch.c",line 67,column 2,is_stmt,isa 1
     395 00000044 9800              LDR       A1, [SP, #0]          ; [DPU_3_PIPE] |67|  ; [ORIG 16-BIT INS]
     396 00000046 7F16F5B0          CMP       A1, #600              ; [DPU_3_PIPE] |67|  ; [KEEP 32-BIT INS]
     397 0000004a D215              BCS       ||$C$L2||             ; [DPU_3_PIPE] |67|  ; [ORIG 16-BIT INS]
     398                            ; BRANCHCC OCCURS {||$C$L2||}    ; [] |67| 
     399                    ;* --------------------------------------------------------------------------*
     400 0000004c 4834              LDR       A1, $C$CON5           ; [DPU_3_PIPE] |67|  ; [ORIG 16-BIT INS]
     401 0000004e 7800              LDRB      A1, [A1, #0]          ; [DPU_3_PIPE] |67|  ; [ORIG 16-BIT INS]
     402 00000050 B990              CBNZ      A1, ||$C$L2||         ; []  ; [ORIG 16-BIT INS]
     403                            ; BRANCHCC OCCURS {||$C$L2||}    ; [] |67| 
     404                    ;* --------------------------------------------------------------------------*
     405                            .dwpsn  file "../Tasks/MagSwitch.c",line 69,column 3,is_stmt,isa 1
     406 00000052 4933              LDR       A2, $C$CON5           ; [DPU_3_PIPE] |69|  ; [ORIG 16-BIT INS]
     407 00000054 2001              MOVS      A1, #1                ; [DPU_3_PIPE] |69|  ; [ORIG 16-BIT INS]
     408 00000056 7008              STRB      A1, [A2, #0]          ; [DPU_3_PIPE] |69|  ; [ORIG 16-BIT INS]
     409                            .dwpsn  file "../Tasks/MagSwitch.c",line 70,column 3,is_stmt,isa 1
     410 00000058 A01D              ADR       A1, $C$SL2            ; [DPU_3_PIPE] |70|  ; [ORIG 16-BIT INS]
     411                    $C$DW$40        .dwtag  DW_TAG_TI_branch
     412                            .dwattr $C$DW$40, DW_AT_low_pc(0x00)
     413                            .dwattr $C$DW$40, DW_AT_name("UARTprintf")
     414                            .dwattr $C$DW$40, DW_AT_TI_call
     415                    
     416 0000005a FFFEF7FF!         BL        UARTprintf            ; [DPU_3_PIPE] |70|  ; [KEEP 32-BIT INS]
     417                            ; CALL OCCURS {UARTprintf }      ; [] |70| 
     418                            .dwpsn  file "../Tasks/MagSwitch.c",line 73,column 3,is_stmt,isa 1
     419 0000005e 482E              LDR       A1, $C$CON3           ; [DPU_3_PIPE] |73|  ; [ORIG 16-BIT INS]
     420 00000060 492D              LDR       A2, $C$CON3           ; [DPU_3_PIPE] |73|  ; [ORIG 16-BIT INS]
     421 00000062 6800              LDR       A1, [A1, #0]          ; [DPU_3_PIPE] |73|  ; [ORIG 16-BIT INS]
     422 00000064 0002F080          EOR       A1, A1, #2            ; [DPU_3_PIPE] |73|  ; [KEEP 32-BIT INS]
     423 00000068 6008              STR       A1, [A2, #0]          ; [DPU_3_PIPE] |73|  ; [ORIG 16-BIT INS]
     424                            .dwpsn  file "../Tasks/MagSwitch.c",line 74,column 3,is_stmt,isa 1
     425 0000006a 482B              LDR       A1, $C$CON3           ; [DPU_3_PIPE] |74|  ; [ORIG 16-BIT INS]
     426 0000006c 7802              LDRB      A3, [A1, #0]          ; [DPU_3_PIPE] |74|  ; [ORIG 16-BIT INS]
     427 0000006e 4829              LDR       A1, $C$CON2           ; [DPU_3_PIPE] |74|  ; [ORIG 16-BIT INS]
     428 00000070 2102              MOVS      A2, #2                ; [DPU_3_PIPE] |74|  ; [ORIG 16-BIT INS]
     429                    $C$DW$41        .dwtag  DW_TAG_TI_branch
     430                            .dwattr $C$DW$41, DW_AT_low_pc(0x00)
     431                            .dwattr $C$DW$41, DW_AT_name("GPIOPinWrite")
     432                            .dwattr $C$DW$41, DW_AT_TI_call
     433                    
     434 00000072 FFFEF7FF!         BL        GPIOPinWrite          ; [DPU_3_PIPE] |74|  ; [KEEP 32-BIT INS]
     435                            ; CALL OCCURS {GPIOPinWrite }    ; [] |74| 
     436                            .dwpsn  file "../Tasks/MagSwitch.c",line 76,column 2,is_stmt,isa 1
     437 00000076 E019              B         ||$C$L3||             ; [DPU_3_PIPE] |76|  ; [ORIG 16-BIT INS]
     438                            ; BRANCH OCCURS {||$C$L3||}      ; [] |76| 
     439                    ;* --------------------------------------------------------------------------*
     440 00000078           ||$C$L2||:    
TI ARM Assembler PC v15.12.1 Thu Dec 01 14:00:53 2016

Tools Copyright (c) 1996-2015 Texas Instruments Incorporated
MagSwitch.asm                                                        PAGE    9

     441                            .dwpsn  file "../Tasks/MagSwitch.c",line 77,column 7,is_stmt,isa 1
     442 00000078 9800              LDR       A1, [SP, #0]          ; [DPU_3_PIPE] |77|  ; [ORIG 16-BIT INS]
     443 0000007a 7F16F5B0          CMP       A1, #600              ; [DPU_3_PIPE] |77|  ; [KEEP 32-BIT INS]
     444 0000007e D915              BLS       ||$C$L3||             ; [DPU_3_PIPE] |77|  ; [ORIG 16-BIT INS]
     445                            ; BRANCHCC OCCURS {||$C$L3||}    ; [] |77| 
     446                    ;* --------------------------------------------------------------------------*
     447 00000080 4827              LDR       A1, $C$CON5           ; [DPU_3_PIPE] |77|  ; [ORIG 16-BIT INS]
     448 00000082 7800              LDRB      A1, [A1, #0]          ; [DPU_3_PIPE] |77|  ; [ORIG 16-BIT INS]
     449 00000084 2801              CMP       A1, #1                ; [DPU_3_PIPE] |77|  ; [ORIG 16-BIT INS]
     450 00000086 D111              BNE       ||$C$L3||             ; [DPU_3_PIPE] |77|  ; [ORIG 16-BIT INS]
     451                            ; BRANCHCC OCCURS {||$C$L3||}    ; [] |77| 
     452                    ;* --------------------------------------------------------------------------*
     453                            .dwpsn  file "../Tasks/MagSwitch.c",line 79,column 3,is_stmt,isa 1
     454 00000088 4925              LDR       A2, $C$CON5           ; [DPU_3_PIPE] |79|  ; [ORIG 16-BIT INS]
     455 0000008a 2000              MOVS      A1, #0                ; [DPU_3_PIPE] |79|  ; [ORIG 16-BIT INS]
     456 0000008c 7008              STRB      A1, [A2, #0]          ; [DPU_3_PIPE] |79|  ; [ORIG 16-BIT INS]
     457                            .dwpsn  file "../Tasks/MagSwitch.c",line 80,column 3,is_stmt,isa 1
     458 0000008e A018              ADR       A1, $C$SL3            ; [DPU_3_PIPE] |80|  ; [ORIG 16-BIT INS]
     459                    $C$DW$42        .dwtag  DW_TAG_TI_branch
     460                            .dwattr $C$DW$42, DW_AT_low_pc(0x00)
     461                            .dwattr $C$DW$42, DW_AT_name("UARTprintf")
     462                            .dwattr $C$DW$42, DW_AT_TI_call
     463                    
     464 00000090 FFFEF7FF!         BL        UARTprintf            ; [DPU_3_PIPE] |80|  ; [KEEP 32-BIT INS]
     465                            ; CALL OCCURS {UARTprintf }      ; [] |80| 
     466                            .dwpsn  file "../Tasks/MagSwitch.c",line 83,column 3,is_stmt,isa 1
     467 00000094 4820              LDR       A1, $C$CON3           ; [DPU_3_PIPE] |83|  ; [ORIG 16-BIT INS]
     468 00000096 4920              LDR       A2, $C$CON3           ; [DPU_3_PIPE] |83|  ; [ORIG 16-BIT INS]
     469 00000098 6800              LDR       A1, [A1, #0]          ; [DPU_3_PIPE] |83|  ; [ORIG 16-BIT INS]
     470 0000009a 0002F080          EOR       A1, A1, #2            ; [DPU_3_PIPE] |83|  ; [KEEP 32-BIT INS]
     471 0000009e 6008              STR       A1, [A2, #0]          ; [DPU_3_PIPE] |83|  ; [ORIG 16-BIT INS]
     472                            .dwpsn  file "../Tasks/MagSwitch.c",line 84,column 3,is_stmt,isa 1
     473 000000a0 481D              LDR       A1, $C$CON3           ; [DPU_3_PIPE] |84|  ; [ORIG 16-BIT INS]
     474 000000a2 7802              LDRB      A3, [A1, #0]          ; [DPU_3_PIPE] |84|  ; [ORIG 16-BIT INS]
     475 000000a4 481B              LDR       A1, $C$CON2           ; [DPU_3_PIPE] |84|  ; [ORIG 16-BIT INS]
     476 000000a6 2102              MOVS      A2, #2                ; [DPU_3_PIPE] |84|  ; [ORIG 16-BIT INS]
     477                    $C$DW$43        .dwtag  DW_TAG_TI_branch
     478                            .dwattr $C$DW$43, DW_AT_low_pc(0x00)
     479                            .dwattr $C$DW$43, DW_AT_name("GPIOPinWrite")
     480                            .dwattr $C$DW$43, DW_AT_TI_call
     481                    
     482 000000a8 FFFEF7FF!         BL        GPIOPinWrite          ; [DPU_3_PIPE] |84|  ; [KEEP 32-BIT INS]
     483                            ; CALL OCCURS {GPIOPinWrite }    ; [] |84| 
     484                            .dwpsn  file "../Tasks/MagSwitch.c",line 87,column 1,is_stmt,isa 1
     485                    ;* --------------------------------------------------------------------------*
     486                    ||$C$L3||:    
     487                    $C$DW$44        .dwtag  DW_TAG_TI_branch
     488                            .dwattr $C$DW$44, DW_AT_low_pc(0x00)
     489                            .dwattr $C$DW$44, DW_AT_TI_return
     490                    
     491 000000ac BD08              POP       {A4, PC}              ; [DPU_3_PIPE]  ; [ORIG 16-BIT INS]
     492                            .dwcfi  cfa_offset, 0
     493                            ; BRANCH OCCURS                  ; [] 
     494                            .dwattr $C$DW$37, DW_AT_TI_end_file("../Tasks/MagSwitch.c")
     495                            .dwattr $C$DW$37, DW_AT_TI_end_line(0x57)
TI ARM Assembler PC v15.12.1 Thu Dec 01 14:00:53 2016

Tools Copyright (c) 1996-2015 Texas Instruments Incorporated
MagSwitch.asm                                                        PAGE   10

     496                            .dwattr $C$DW$37, DW_AT_TI_end_column(0x01)
     497                            .dwendentry
     498                            .dwendtag $C$DW$37
     499                    
     500                    ;******************************************************************************
     501                    ;* STRINGS                                                                    *
     502                    ;******************************************************************************
     503 000000ae                   .sect   ".text"
     504                            .align  4
     505 000000b0 4D        ||$C$SL1||:     .string "Magnetic Switch initialized!",10,0
         000000b1 61       
         000000b2 67       
         000000b3 6E       
         000000b4 65       
         000000b5 74       
         000000b6 69       
         000000b7 63       
         000000b8 20       
         000000b9 53       
         000000ba 77       
         000000bb 69       
         000000bc 74       
         000000bd 63       
         000000be 68       
         000000bf 20       
         000000c0 69       
         000000c1 6E       
         000000c2 69       
         000000c3 74       
         000000c4 69       
         000000c5 61       
         000000c6 6C       
         000000c7 69       
         000000c8 7A       
         000000c9 65       
         000000ca 64       
         000000cb 21       
         000000cc 0A       
         000000cd 00       
     506                            .align  4
     507 000000d0 4D        ||$C$SL2||:     .string "Magnetic Switch: ACTIVATED!",10,0
         000000d1 61       
         000000d2 67       
         000000d3 6E       
         000000d4 65       
         000000d5 74       
         000000d6 69       
         000000d7 63       
         000000d8 20       
         000000d9 53       
         000000da 77       
         000000db 69       
         000000dc 74       
         000000dd 63       
         000000de 68       
TI ARM Assembler PC v15.12.1 Thu Dec 01 14:00:53 2016

Tools Copyright (c) 1996-2015 Texas Instruments Incorporated
MagSwitch.asm                                                        PAGE   11

         000000df 3A       
         000000e0 20       
         000000e1 41       
         000000e2 43       
         000000e3 54       
         000000e4 49       
         000000e5 56       
         000000e6 41       
         000000e7 54       
         000000e8 45       
         000000e9 44       
         000000ea 21       
         000000eb 0A       
         000000ec 00       
     508                            .align  4
     509 000000f0 4D        ||$C$SL3||:     .string "Magnetic Switch: DEACTIVATED!",10,0
         000000f1 61       
         000000f2 67       
         000000f3 6E       
         000000f4 65       
         000000f5 74       
         000000f6 69       
         000000f7 63       
         000000f8 20       
         000000f9 53       
         000000fa 77       
         000000fb 69       
         000000fc 74       
         000000fd 63       
         000000fe 68       
         000000ff 3A       
         00000100 20       
         00000101 44       
         00000102 45       
         00000103 41       
         00000104 43       
         00000105 54       
         00000106 49       
         00000107 56       
         00000108 41       
         00000109 54       
         0000010a 45       
         0000010b 44       
         0000010c 21       
         0000010d 0A       
         0000010e 00       
     510                    ;******************************************************************************
     511                    ;* CONSTANT TABLE                                                             *
     512                    ;******************************************************************************
     513 0000010f                   .sect   ".text"
     514                            .align  4
     515 0000010e 080CC000  ||$C$CON1||:    .bits   -268433396,32
         00000112 0000F000 
     516                            .align  4
     517 00000112 4000F000  ||$C$CON2||:    .bits   1074151424,32
TI ARM Assembler PC v15.12.1 Thu Dec 01 14:00:53 2016

Tools Copyright (c) 1996-2015 Texas Instruments Incorporated
MagSwitch.asm                                                        PAGE   12

         00000116 00004006 
     518                            .align  4
     519 00000116 00004006! ||$C$CON3||:    .bits   LED_Data,32
         0000011a 00000000 
     520                            .align  4
     521 0000011a 00000000! ||$C$CON4||:    .bits   magnetometerValue,32
         0000011e 00000000 
     522                            .align  4
     523 0000011e 00000000! ||$C$CON5||:    .bits   isOn,32
         00000122 00000000 
     524                    ;*****************************************************************************
     525                    ;* UNDEFINED EXTERNAL REFERENCES                                             *
     526                    ;*****************************************************************************
     527                            .global SysCtlPeripheralEnable
     528                            .global GPIOPadConfigSet
     529                            .global GPIOPinRead
     530                            .global GPIOPinWrite
     531                            .global GPIOPinTypeGPIOOutput
     532                            .global vTaskDelay
     533                            .global UARTprintf
     534                    
     535                    ;******************************************************************************
     536                    ;* BUILD ATTRIBUTES                                                           *
     537                    ;******************************************************************************
     538                            .battr "aeabi", Tag_File, 1, Tag_ABI_PCS_wchar_t(2)
     539                            .battr "aeabi", Tag_File, 1, Tag_ABI_FP_rounding(0)
     540                            .battr "aeabi", Tag_File, 1, Tag_ABI_FP_denormal(0)
     541                            .battr "aeabi", Tag_File, 1, Tag_ABI_FP_exceptions(0)
     542                            .battr "aeabi", Tag_File, 1, Tag_ABI_FP_number_model(1)
     543                            .battr "aeabi", Tag_File, 1, Tag_ABI_enum_size(1)
     544                            .battr "aeabi", Tag_File, 1, Tag_ABI_optimization_goals(5)
     545                            .battr "aeabi", Tag_File, 1, Tag_ABI_FP_optimization_goals(0)
     546                            .battr "TI", Tag_File, 1, Tag_Bitfield_layout(2)
     547                            .battr "TI", Tag_File, 1, Tag_FP_interface(1)
     548                    
     549                    ;******************************************************************************
     550                    ;* TYPE INFORMATION                                                           *
     551                    ;******************************************************************************
     552                    
     553                    $C$DW$T$51      .dwtag  DW_TAG_enumeration_type
     554                            .dwattr $C$DW$T$51, DW_AT_byte_size(0x01)
     555                    $C$DW$45        .dwtag  DW_TAG_enumerator
     556                            .dwattr $C$DW$45, DW_AT_name("eRunning")
     557                            .dwattr $C$DW$45, DW_AT_const_value(0x00)
     558                            .dwattr $C$DW$45, DW_AT_decl_file("C:/TI_ARM_Tiva_Projects/Source/include/task.h")
     559                            .dwattr $C$DW$45, DW_AT_decl_line(0x72)
     560                            .dwattr $C$DW$45, DW_AT_decl_column(0x02)
     561                    
     562                    $C$DW$46        .dwtag  DW_TAG_enumerator
     563                            .dwattr $C$DW$46, DW_AT_name("eReady")
     564                            .dwattr $C$DW$46, DW_AT_const_value(0x01)
     565                            .dwattr $C$DW$46, DW_AT_decl_file("C:/TI_ARM_Tiva_Projects/Source/include/task.h")
     566                            .dwattr $C$DW$46, DW_AT_decl_line(0x73)
     567                            .dwattr $C$DW$46, DW_AT_decl_column(0x02)
     568                    
TI ARM Assembler PC v15.12.1 Thu Dec 01 14:00:53 2016

Tools Copyright (c) 1996-2015 Texas Instruments Incorporated
MagSwitch.asm                                                        PAGE   13

     569                    $C$DW$47        .dwtag  DW_TAG_enumerator
     570                            .dwattr $C$DW$47, DW_AT_name("eBlocked")
     571                            .dwattr $C$DW$47, DW_AT_const_value(0x02)
     572                            .dwattr $C$DW$47, DW_AT_decl_file("C:/TI_ARM_Tiva_Projects/Source/include/task.h")
     573                            .dwattr $C$DW$47, DW_AT_decl_line(0x74)
     574                            .dwattr $C$DW$47, DW_AT_decl_column(0x02)
     575                    
     576                    $C$DW$48        .dwtag  DW_TAG_enumerator
     577                            .dwattr $C$DW$48, DW_AT_name("eSuspended")
     578                            .dwattr $C$DW$48, DW_AT_const_value(0x03)
     579                            .dwattr $C$DW$48, DW_AT_decl_file("C:/TI_ARM_Tiva_Projects/Source/include/task.h")
     580                            .dwattr $C$DW$48, DW_AT_decl_line(0x75)
     581                            .dwattr $C$DW$48, DW_AT_decl_column(0x02)
     582                    
     583                    $C$DW$49        .dwtag  DW_TAG_enumerator
     584                            .dwattr $C$DW$49, DW_AT_name("eDeleted")
     585                            .dwattr $C$DW$49, DW_AT_const_value(0x04)
     586                            .dwattr $C$DW$49, DW_AT_decl_file("C:/TI_ARM_Tiva_Projects/Source/include/task.h")
     587                            .dwattr $C$DW$49, DW_AT_decl_line(0x76)
     588                            .dwattr $C$DW$49, DW_AT_decl_column(0x02)
     589                    
     590                            .dwattr $C$DW$T$51, DW_AT_decl_file("C:/TI_ARM_Tiva_Projects/Source/include/task.h")
     591                            .dwattr $C$DW$T$51, DW_AT_decl_line(0x71)
     592                            .dwattr $C$DW$T$51, DW_AT_decl_column(0x01)
     593                            .dwendtag $C$DW$T$51
     594                    
     595                    $C$DW$T$52      .dwtag  DW_TAG_typedef
     596                            .dwattr $C$DW$T$52, DW_AT_name("eTaskState")
     597                            .dwattr $C$DW$T$52, DW_AT_type(*$C$DW$T$51)
     598                            .dwattr $C$DW$T$52, DW_AT_language(DW_LANG_C)
     599                            .dwattr $C$DW$T$52, DW_AT_decl_file("C:/TI_ARM_Tiva_Projects/Source/include/task.h")
     600                            .dwattr $C$DW$T$52, DW_AT_decl_line(0x77)
     601                            .dwattr $C$DW$T$52, DW_AT_decl_column(0x03)
     602                    
     603                    
     604                    $C$DW$T$57      .dwtag  DW_TAG_enumeration_type
     605                            .dwattr $C$DW$T$57, DW_AT_byte_size(0x01)
     606                    $C$DW$50        .dwtag  DW_TAG_enumerator
     607                            .dwattr $C$DW$50, DW_AT_name("eNoAction")
     608                            .dwattr $C$DW$50, DW_AT_const_value(0x00)
     609                            .dwattr $C$DW$50, DW_AT_decl_file("C:/TI_ARM_Tiva_Projects/Source/include/task.h")
     610                            .dwattr $C$DW$50, DW_AT_decl_line(0x7c)
     611                            .dwattr $C$DW$50, DW_AT_decl_column(0x02)
     612                    
     613                    $C$DW$51        .dwtag  DW_TAG_enumerator
     614                            .dwattr $C$DW$51, DW_AT_name("eSetBits")
     615                            .dwattr $C$DW$51, DW_AT_const_value(0x01)
     616                            .dwattr $C$DW$51, DW_AT_decl_file("C:/TI_ARM_Tiva_Projects/Source/include/task.h")
     617                            .dwattr $C$DW$51, DW_AT_decl_line(0x7d)
     618                            .dwattr $C$DW$51, DW_AT_decl_column(0x02)
     619                    
     620                    $C$DW$52        .dwtag  DW_TAG_enumerator
     621                            .dwattr $C$DW$52, DW_AT_name("eIncrement")
     622                            .dwattr $C$DW$52, DW_AT_const_value(0x02)
     623                            .dwattr $C$DW$52, DW_AT_decl_file("C:/TI_ARM_Tiva_Projects/Source/include/task.h")
TI ARM Assembler PC v15.12.1 Thu Dec 01 14:00:53 2016

Tools Copyright (c) 1996-2015 Texas Instruments Incorporated
MagSwitch.asm                                                        PAGE   14

     624                            .dwattr $C$DW$52, DW_AT_decl_line(0x7e)
     625                            .dwattr $C$DW$52, DW_AT_decl_column(0x02)
     626                    
     627                    $C$DW$53        .dwtag  DW_TAG_enumerator
     628                            .dwattr $C$DW$53, DW_AT_name("eSetValueWithOverwrite")
     629                            .dwattr $C$DW$53, DW_AT_const_value(0x03)
     630                            .dwattr $C$DW$53, DW_AT_decl_file("C:/TI_ARM_Tiva_Projects/Source/include/task.h")
     631                            .dwattr $C$DW$53, DW_AT_decl_line(0x7f)
     632                            .dwattr $C$DW$53, DW_AT_decl_column(0x02)
     633                    
     634                    $C$DW$54        .dwtag  DW_TAG_enumerator
     635                            .dwattr $C$DW$54, DW_AT_name("eSetValueWithoutOverwrite")
     636                            .dwattr $C$DW$54, DW_AT_const_value(0x04)
     637                            .dwattr $C$DW$54, DW_AT_decl_file("C:/TI_ARM_Tiva_Projects/Source/include/task.h")
     638                            .dwattr $C$DW$54, DW_AT_decl_line(0x80)
     639                            .dwattr $C$DW$54, DW_AT_decl_column(0x02)
     640                    
     641                            .dwattr $C$DW$T$57, DW_AT_decl_file("C:/TI_ARM_Tiva_Projects/Source/include/task.h")
     642                            .dwattr $C$DW$T$57, DW_AT_decl_line(0x7b)
     643                            .dwattr $C$DW$T$57, DW_AT_decl_column(0x01)
     644                            .dwendtag $C$DW$T$57
     645                    
     646                    $C$DW$T$58      .dwtag  DW_TAG_typedef
     647                            .dwattr $C$DW$T$58, DW_AT_name("eNotifyAction")
     648                            .dwattr $C$DW$T$58, DW_AT_type(*$C$DW$T$57)
     649                            .dwattr $C$DW$T$58, DW_AT_language(DW_LANG_C)
     650                            .dwattr $C$DW$T$58, DW_AT_decl_file("C:/TI_ARM_Tiva_Projects/Source/include/task.h")
     651                            .dwattr $C$DW$T$58, DW_AT_decl_line(0x81)
     652                            .dwattr $C$DW$T$58, DW_AT_decl_column(0x03)
     653                    
     654                    
     655                    $C$DW$T$59      .dwtag  DW_TAG_enumeration_type
     656                            .dwattr $C$DW$T$59, DW_AT_byte_size(0x01)
     657                    $C$DW$55        .dwtag  DW_TAG_enumerator
     658                            .dwattr $C$DW$55, DW_AT_name("eAbortSleep")
     659                            .dwattr $C$DW$55, DW_AT_const_value(0x00)
     660                            .dwattr $C$DW$55, DW_AT_decl_file("C:/TI_ARM_Tiva_Projects/Source/include/task.h")
     661                            .dwattr $C$DW$55, DW_AT_decl_line(0xb5)
     662                            .dwattr $C$DW$55, DW_AT_decl_column(0x02)
     663                    
     664                    $C$DW$56        .dwtag  DW_TAG_enumerator
     665                            .dwattr $C$DW$56, DW_AT_name("eStandardSleep")
     666                            .dwattr $C$DW$56, DW_AT_const_value(0x01)
     667                            .dwattr $C$DW$56, DW_AT_decl_file("C:/TI_ARM_Tiva_Projects/Source/include/task.h")
     668                            .dwattr $C$DW$56, DW_AT_decl_line(0xb6)
     669                            .dwattr $C$DW$56, DW_AT_decl_column(0x02)
     670                    
     671                    $C$DW$57        .dwtag  DW_TAG_enumerator
     672                            .dwattr $C$DW$57, DW_AT_name("eNoTasksWaitingTimeout")
     673                            .dwattr $C$DW$57, DW_AT_const_value(0x02)
     674                            .dwattr $C$DW$57, DW_AT_decl_file("C:/TI_ARM_Tiva_Projects/Source/include/task.h")
     675                            .dwattr $C$DW$57, DW_AT_decl_line(0xb7)
     676                            .dwattr $C$DW$57, DW_AT_decl_column(0x02)
     677                    
     678                            .dwattr $C$DW$T$59, DW_AT_decl_file("C:/TI_ARM_Tiva_Projects/Source/include/task.h")
TI ARM Assembler PC v15.12.1 Thu Dec 01 14:00:53 2016

Tools Copyright (c) 1996-2015 Texas Instruments Incorporated
MagSwitch.asm                                                        PAGE   15

     679                            .dwattr $C$DW$T$59, DW_AT_decl_line(0xb4)
     680                            .dwattr $C$DW$T$59, DW_AT_decl_column(0x01)
     681                            .dwendtag $C$DW$T$59
     682                    
     683                    $C$DW$T$60      .dwtag  DW_TAG_typedef
     684                            .dwattr $C$DW$T$60, DW_AT_name("eSleepModeStatus")
     685                            .dwattr $C$DW$T$60, DW_AT_type(*$C$DW$T$59)
     686                            .dwattr $C$DW$T$60, DW_AT_language(DW_LANG_C)
     687                            .dwattr $C$DW$T$60, DW_AT_decl_file("C:/TI_ARM_Tiva_Projects/Source/include/task.h")
     688                            .dwattr $C$DW$T$60, DW_AT_decl_line(0xb8)
     689                            .dwattr $C$DW$T$60, DW_AT_decl_column(0x03)
     690                    
     691                    
     692                    $C$DW$T$20      .dwtag  DW_TAG_structure_type
     693                            .dwattr $C$DW$T$20, DW_AT_byte_size(0x18)
     694                    $C$DW$58        .dwtag  DW_TAG_member
     695                            .dwattr $C$DW$58, DW_AT_type(*$C$DW$T$10)
     696                            .dwattr $C$DW$58, DW_AT_name("fd")
     697                            .dwattr $C$DW$58, DW_AT_TI_symbol_name("fd")
     698                            .dwattr $C$DW$58, DW_AT_data_member_location[DW_OP_plus_uconst 0x0]
     699                            .dwattr $C$DW$58, DW_AT_accessibility(DW_ACCESS_public)
     700                            .dwattr $C$DW$58, DW_AT_decl_file("C:/TI_CodeComposer/ccsv6/tools/compiler/ti-cgt-arm_15.12.1.
     701                            .dwattr $C$DW$58, DW_AT_decl_line(0x5c)
     702                            .dwattr $C$DW$58, DW_AT_decl_column(0x0b)
     703                    
     704                    $C$DW$59        .dwtag  DW_TAG_member
     705                            .dwattr $C$DW$59, DW_AT_type(*$C$DW$T$19)
     706                            .dwattr $C$DW$59, DW_AT_name("buf")
     707                            .dwattr $C$DW$59, DW_AT_TI_symbol_name("buf")
     708                            .dwattr $C$DW$59, DW_AT_data_member_location[DW_OP_plus_uconst 0x4]
     709                            .dwattr $C$DW$59, DW_AT_accessibility(DW_ACCESS_public)
     710                            .dwattr $C$DW$59, DW_AT_decl_file("C:/TI_CodeComposer/ccsv6/tools/compiler/ti-cgt-arm_15.12.1.
     711                            .dwattr $C$DW$59, DW_AT_decl_line(0x5d)
     712                            .dwattr $C$DW$59, DW_AT_decl_column(0x16)
     713                    
     714                    $C$DW$60        .dwtag  DW_TAG_member
     715                            .dwattr $C$DW$60, DW_AT_type(*$C$DW$T$19)
     716                            .dwattr $C$DW$60, DW_AT_name("pos")
     717                            .dwattr $C$DW$60, DW_AT_TI_symbol_name("pos")
     718                            .dwattr $C$DW$60, DW_AT_data_member_location[DW_OP_plus_uconst 0x8]
     719                            .dwattr $C$DW$60, DW_AT_accessibility(DW_ACCESS_public)
     720                            .dwattr $C$DW$60, DW_AT_decl_file("C:/TI_CodeComposer/ccsv6/tools/compiler/ti-cgt-arm_15.12.1.
     721                            .dwattr $C$DW$60, DW_AT_decl_line(0x5e)
     722                            .dwattr $C$DW$60, DW_AT_decl_column(0x16)
     723                    
     724                    $C$DW$61        .dwtag  DW_TAG_member
     725                            .dwattr $C$DW$61, DW_AT_type(*$C$DW$T$19)
     726                            .dwattr $C$DW$61, DW_AT_name("bufend")
     727                            .dwattr $C$DW$61, DW_AT_TI_symbol_name("bufend")
     728                            .dwattr $C$DW$61, DW_AT_data_member_location[DW_OP_plus_uconst 0xc]
     729                            .dwattr $C$DW$61, DW_AT_accessibility(DW_ACCESS_public)
     730                            .dwattr $C$DW$61, DW_AT_decl_file("C:/TI_CodeComposer/ccsv6/tools/compiler/ti-cgt-arm_15.12.1.
     731                            .dwattr $C$DW$61, DW_AT_decl_line(0x5f)
     732                            .dwattr $C$DW$61, DW_AT_decl_column(0x16)
     733                    
TI ARM Assembler PC v15.12.1 Thu Dec 01 14:00:53 2016

Tools Copyright (c) 1996-2015 Texas Instruments Incorporated
MagSwitch.asm                                                        PAGE   16

     734                    $C$DW$62        .dwtag  DW_TAG_member
     735                            .dwattr $C$DW$62, DW_AT_type(*$C$DW$T$19)
     736                            .dwattr $C$DW$62, DW_AT_name("buff_stop")
     737                            .dwattr $C$DW$62, DW_AT_TI_symbol_name("buff_stop")
     738                            .dwattr $C$DW$62, DW_AT_data_member_location[DW_OP_plus_uconst 0x10]
     739                            .dwattr $C$DW$62, DW_AT_accessibility(DW_ACCESS_public)
     740                            .dwattr $C$DW$62, DW_AT_decl_file("C:/TI_CodeComposer/ccsv6/tools/compiler/ti-cgt-arm_15.12.1.
     741                            .dwattr $C$DW$62, DW_AT_decl_line(0x60)
     742                            .dwattr $C$DW$62, DW_AT_decl_column(0x16)
     743                    
     744                    $C$DW$63        .dwtag  DW_TAG_member
     745                            .dwattr $C$DW$63, DW_AT_type(*$C$DW$T$11)
     746                            .dwattr $C$DW$63, DW_AT_name("flags")
     747                            .dwattr $C$DW$63, DW_AT_TI_symbol_name("flags")
     748                            .dwattr $C$DW$63, DW_AT_data_member_location[DW_OP_plus_uconst 0x14]
     749                            .dwattr $C$DW$63, DW_AT_accessibility(DW_ACCESS_public)
     750                            .dwattr $C$DW$63, DW_AT_decl_file("C:/TI_CodeComposer/ccsv6/tools/compiler/ti-cgt-arm_15.12.1.
     751                            .dwattr $C$DW$63, DW_AT_decl_line(0x61)
     752                            .dwattr $C$DW$63, DW_AT_decl_column(0x16)
     753                    
     754                            .dwattr $C$DW$T$20, DW_AT_decl_file("C:/TI_CodeComposer/ccsv6/tools/compiler/ti-cgt-arm_15.12.
     755                            .dwattr $C$DW$T$20, DW_AT_decl_line(0x5b)
     756                            .dwattr $C$DW$T$20, DW_AT_decl_column(0x10)
     757                            .dwendtag $C$DW$T$20
     758                    
     759                    $C$DW$T$61      .dwtag  DW_TAG_typedef
     760                            .dwattr $C$DW$T$61, DW_AT_name("FILE")
     761                            .dwattr $C$DW$T$61, DW_AT_type(*$C$DW$T$20)
     762                            .dwattr $C$DW$T$61, DW_AT_language(DW_LANG_C)
     763                            .dwattr $C$DW$T$61, DW_AT_decl_file("C:/TI_CodeComposer/ccsv6/tools/compiler/ti-cgt-arm_15.12.
     764                            .dwattr $C$DW$T$61, DW_AT_decl_line(0x62)
     765                            .dwattr $C$DW$T$61, DW_AT_decl_column(0x03)
     766                    
     767                    
     768                    $C$DW$T$24      .dwtag  DW_TAG_structure_type
     769                            .dwattr $C$DW$T$24, DW_AT_name("HeapRegion")
     770                            .dwattr $C$DW$T$24, DW_AT_byte_size(0x08)
     771                    $C$DW$64        .dwtag  DW_TAG_member
     772                            .dwattr $C$DW$64, DW_AT_type(*$C$DW$T$22)
     773                            .dwattr $C$DW$64, DW_AT_name("pucStartAddress")
     774                            .dwattr $C$DW$64, DW_AT_TI_symbol_name("pucStartAddress")
     775                            .dwattr $C$DW$64, DW_AT_data_member_location[DW_OP_plus_uconst 0x0]
     776                            .dwattr $C$DW$64, DW_AT_accessibility(DW_ACCESS_public)
     777                            .dwattr $C$DW$64, DW_AT_decl_file("C:\TI_ARM_Tiva_Projects\Source\include\portable.h")
     778                            .dwattr $C$DW$64, DW_AT_decl_line(0x96)
     779                            .dwattr $C$DW$64, DW_AT_decl_column(0x0b)
     780                    
     781                    $C$DW$65        .dwtag  DW_TAG_member
     782                            .dwattr $C$DW$65, DW_AT_type(*$C$DW$T$23)
     783                            .dwattr $C$DW$65, DW_AT_name("xSizeInBytes")
     784                            .dwattr $C$DW$65, DW_AT_TI_symbol_name("xSizeInBytes")
     785                            .dwattr $C$DW$65, DW_AT_data_member_location[DW_OP_plus_uconst 0x4]
     786                            .dwattr $C$DW$65, DW_AT_accessibility(DW_ACCESS_public)
     787                            .dwattr $C$DW$65, DW_AT_decl_file("C:\TI_ARM_Tiva_Projects\Source\include\portable.h")
     788                            .dwattr $C$DW$65, DW_AT_decl_line(0x97)
TI ARM Assembler PC v15.12.1 Thu Dec 01 14:00:53 2016

Tools Copyright (c) 1996-2015 Texas Instruments Incorporated
MagSwitch.asm                                                        PAGE   17

     789                            .dwattr $C$DW$65, DW_AT_decl_column(0x09)
     790                    
     791                            .dwattr $C$DW$T$24, DW_AT_decl_file("C:\TI_ARM_Tiva_Projects\Source\include\portable.h")
     792                            .dwattr $C$DW$T$24, DW_AT_decl_line(0x94)
     793                            .dwattr $C$DW$T$24, DW_AT_decl_column(0x10)
     794                            .dwendtag $C$DW$T$24
     795                    
     796                    $C$DW$T$62      .dwtag  DW_TAG_typedef
     797                            .dwattr $C$DW$T$62, DW_AT_name("HeapRegion_t")
     798                            .dwattr $C$DW$T$62, DW_AT_type(*$C$DW$T$24)
     799                            .dwattr $C$DW$T$62, DW_AT_language(DW_LANG_C)
     800                            .dwattr $C$DW$T$62, DW_AT_decl_file("C:\TI_ARM_Tiva_Projects\Source\include\portable.h")
     801                            .dwattr $C$DW$T$62, DW_AT_decl_line(0x98)
     802                            .dwattr $C$DW$T$62, DW_AT_decl_column(0x03)
     803                    
     804                    $C$DW$T$2       .dwtag  DW_TAG_unspecified_type
     805                            .dwattr $C$DW$T$2, DW_AT_name("void")
     806                    
     807                    $C$DW$T$3       .dwtag  DW_TAG_pointer_type
     808                            .dwattr $C$DW$T$3, DW_AT_type(*$C$DW$T$2)
     809                            .dwattr $C$DW$T$3, DW_AT_address_class(0x20)
     810                    
     811                    $C$DW$T$50      .dwtag  DW_TAG_typedef
     812                            .dwattr $C$DW$T$50, DW_AT_name("TaskHandle_t")
     813                            .dwattr $C$DW$T$50, DW_AT_type(*$C$DW$T$3)
     814                            .dwattr $C$DW$T$50, DW_AT_language(DW_LANG_C)
     815                            .dwattr $C$DW$T$50, DW_AT_decl_file("C:/TI_ARM_Tiva_Projects/Source/include/task.h")
     816                            .dwattr $C$DW$T$50, DW_AT_decl_line(0x67)
     817                            .dwattr $C$DW$T$50, DW_AT_decl_column(0x10)
     818                    
     819                    
     820                    $C$DW$T$37      .dwtag  DW_TAG_subroutine_type
     821                            .dwattr $C$DW$T$37, DW_AT_language(DW_LANG_C)
     822                    $C$DW$66        .dwtag  DW_TAG_formal_parameter
     823                            .dwattr $C$DW$66, DW_AT_type(*$C$DW$T$3)
     824                    
     825                            .dwendtag $C$DW$T$37
     826                    
     827                    $C$DW$T$38      .dwtag  DW_TAG_pointer_type
     828                            .dwattr $C$DW$T$38, DW_AT_type(*$C$DW$T$37)
     829                            .dwattr $C$DW$T$38, DW_AT_address_class(0x20)
     830                    
     831                    $C$DW$T$39      .dwtag  DW_TAG_typedef
     832                            .dwattr $C$DW$T$39, DW_AT_name("TaskFunction_t")
     833                            .dwattr $C$DW$T$39, DW_AT_type(*$C$DW$T$38)
     834                            .dwattr $C$DW$T$39, DW_AT_language(DW_LANG_C)
     835                            .dwattr $C$DW$T$39, DW_AT_decl_file("C:\TI_ARM_Tiva_Projects\Source\include\projdefs.h")
     836                            .dwattr $C$DW$T$39, DW_AT_decl_line(0x4d)
     837                            .dwattr $C$DW$T$39, DW_AT_decl_column(0x10)
     838                    
     839                    $C$DW$T$4       .dwtag  DW_TAG_base_type
     840                            .dwattr $C$DW$T$4, DW_AT_encoding(DW_ATE_boolean)
     841                            .dwattr $C$DW$T$4, DW_AT_name("bool")
     842                            .dwattr $C$DW$T$4, DW_AT_byte_size(0x01)
     843                    
TI ARM Assembler PC v15.12.1 Thu Dec 01 14:00:53 2016

Tools Copyright (c) 1996-2015 Texas Instruments Incorporated
MagSwitch.asm                                                        PAGE   18

     844                    $C$DW$T$5       .dwtag  DW_TAG_base_type
     845                            .dwattr $C$DW$T$5, DW_AT_encoding(DW_ATE_signed_char)
     846                            .dwattr $C$DW$T$5, DW_AT_name("signed char")
     847                            .dwattr $C$DW$T$5, DW_AT_byte_size(0x01)
     848                    
     849                    $C$DW$T$76      .dwtag  DW_TAG_typedef
     850                            .dwattr $C$DW$T$76, DW_AT_name("int8_t")
     851                            .dwattr $C$DW$T$76, DW_AT_type(*$C$DW$T$5)
     852                            .dwattr $C$DW$T$76, DW_AT_language(DW_LANG_C)
     853                            .dwattr $C$DW$T$76, DW_AT_decl_file("C:/TI_CodeComposer/ccsv6/tools/compiler/ti-cgt-arm_15.12.
     854                            .dwattr $C$DW$T$76, DW_AT_decl_line(0x2a)
     855                            .dwattr $C$DW$T$76, DW_AT_decl_column(0x1d)
     856                    
     857                    $C$DW$T$77      .dwtag  DW_TAG_typedef
     858                            .dwattr $C$DW$T$77, DW_AT_name("int_least8_t")
     859                            .dwattr $C$DW$T$77, DW_AT_type(*$C$DW$T$76)
     860                            .dwattr $C$DW$T$77, DW_AT_language(DW_LANG_C)
     861                            .dwattr $C$DW$T$77, DW_AT_decl_file("C:/TI_CodeComposer/ccsv6/tools/compiler/ti-cgt-arm_15.12.
     862                            .dwattr $C$DW$T$77, DW_AT_decl_line(0x37)
     863                            .dwattr $C$DW$T$77, DW_AT_decl_column(0x17)
     864                    
     865                    $C$DW$T$6       .dwtag  DW_TAG_base_type
     866                            .dwattr $C$DW$T$6, DW_AT_encoding(DW_ATE_unsigned_char)
     867                            .dwattr $C$DW$T$6, DW_AT_name("unsigned char")
     868                            .dwattr $C$DW$T$6, DW_AT_byte_size(0x01)
     869                    
     870                    $C$DW$T$19      .dwtag  DW_TAG_pointer_type
     871                            .dwattr $C$DW$T$19, DW_AT_type(*$C$DW$T$6)
     872                            .dwattr $C$DW$T$19, DW_AT_address_class(0x20)
     873                    
     874                    $C$DW$T$21      .dwtag  DW_TAG_typedef
     875                            .dwattr $C$DW$T$21, DW_AT_name("uint8_t")
     876                            .dwattr $C$DW$T$21, DW_AT_type(*$C$DW$T$6)
     877                            .dwattr $C$DW$T$21, DW_AT_language(DW_LANG_C)
     878                            .dwattr $C$DW$T$21, DW_AT_decl_file("C:/TI_CodeComposer/ccsv6/tools/compiler/ti-cgt-arm_15.12.
     879                            .dwattr $C$DW$T$21, DW_AT_decl_line(0x2b)
     880                            .dwattr $C$DW$T$21, DW_AT_decl_column(0x1c)
     881                    
     882                    $C$DW$T$22      .dwtag  DW_TAG_pointer_type
     883                            .dwattr $C$DW$T$22, DW_AT_type(*$C$DW$T$21)
     884                            .dwattr $C$DW$T$22, DW_AT_address_class(0x20)
     885                    
     886                    $C$DW$T$78      .dwtag  DW_TAG_typedef
     887                            .dwattr $C$DW$T$78, DW_AT_name("portCHAR")
     888                            .dwattr $C$DW$T$78, DW_AT_type(*$C$DW$T$21)
     889                            .dwattr $C$DW$T$78, DW_AT_language(DW_LANG_C)
     890                            .dwattr $C$DW$T$78, DW_AT_decl_file("C:/TI_ARM_Tiva_Projects/Source/portable/CCS/ARM_CM4F/port
     891                            .dwattr $C$DW$T$78, DW_AT_decl_line(0x60)
     892                            .dwattr $C$DW$T$78, DW_AT_decl_column(0x12)
     893                    
     894                    $C$DW$T$79      .dwtag  DW_TAG_typedef
     895                            .dwattr $C$DW$T$79, DW_AT_name("uint_least8_t")
     896                            .dwattr $C$DW$T$79, DW_AT_type(*$C$DW$T$21)
     897                            .dwattr $C$DW$T$79, DW_AT_language(DW_LANG_C)
     898                            .dwattr $C$DW$T$79, DW_AT_decl_file("C:/TI_CodeComposer/ccsv6/tools/compiler/ti-cgt-arm_15.12.
TI ARM Assembler PC v15.12.1 Thu Dec 01 14:00:53 2016

Tools Copyright (c) 1996-2015 Texas Instruments Incorporated
MagSwitch.asm                                                        PAGE   19

     899                            .dwattr $C$DW$T$79, DW_AT_decl_line(0x38)
     900                            .dwattr $C$DW$T$79, DW_AT_decl_column(0x16)
     901                    
     902                    $C$DW$T$7       .dwtag  DW_TAG_base_type
     903                            .dwattr $C$DW$T$7, DW_AT_encoding(DW_ATE_signed_char)
     904                            .dwattr $C$DW$T$7, DW_AT_name("wchar_t")
     905                            .dwattr $C$DW$T$7, DW_AT_byte_size(0x02)
     906                    
     907                    $C$DW$T$8       .dwtag  DW_TAG_base_type
     908                            .dwattr $C$DW$T$8, DW_AT_encoding(DW_ATE_signed)
     909                            .dwattr $C$DW$T$8, DW_AT_name("short")
     910                            .dwattr $C$DW$T$8, DW_AT_byte_size(0x02)
     911                    
     912                    $C$DW$T$80      .dwtag  DW_TAG_typedef
     913                            .dwattr $C$DW$T$80, DW_AT_name("int16_t")
     914                            .dwattr $C$DW$T$80, DW_AT_type(*$C$DW$T$8)
     915                            .dwattr $C$DW$T$80, DW_AT_language(DW_LANG_C)
     916                            .dwattr $C$DW$T$80, DW_AT_decl_file("C:/TI_CodeComposer/ccsv6/tools/compiler/ti-cgt-arm_15.12.
     917                            .dwattr $C$DW$T$80, DW_AT_decl_line(0x2c)
     918                            .dwattr $C$DW$T$80, DW_AT_decl_column(0x1d)
     919                    
     920                    $C$DW$T$81      .dwtag  DW_TAG_typedef
     921                            .dwattr $C$DW$T$81, DW_AT_name("int_least16_t")
     922                            .dwattr $C$DW$T$81, DW_AT_type(*$C$DW$T$80)
     923                            .dwattr $C$DW$T$81, DW_AT_language(DW_LANG_C)
     924                            .dwattr $C$DW$T$81, DW_AT_decl_file("C:/TI_CodeComposer/ccsv6/tools/compiler/ti-cgt-arm_15.12.
     925                            .dwattr $C$DW$T$81, DW_AT_decl_line(0x3a)
     926                            .dwattr $C$DW$T$81, DW_AT_decl_column(0x17)
     927                    
     928                    $C$DW$T$82      .dwtag  DW_TAG_typedef
     929                            .dwattr $C$DW$T$82, DW_AT_name("portSHORT")
     930                            .dwattr $C$DW$T$82, DW_AT_type(*$C$DW$T$80)
     931                            .dwattr $C$DW$T$82, DW_AT_language(DW_LANG_C)
     932                            .dwattr $C$DW$T$82, DW_AT_decl_file("C:/TI_ARM_Tiva_Projects/Source/portable/CCS/ARM_CM4F/port
     933                            .dwattr $C$DW$T$82, DW_AT_decl_line(0x64)
     934                            .dwattr $C$DW$T$82, DW_AT_decl_column(0x12)
     935                    
     936                    $C$DW$T$9       .dwtag  DW_TAG_base_type
     937                            .dwattr $C$DW$T$9, DW_AT_encoding(DW_ATE_unsigned)
     938                            .dwattr $C$DW$T$9, DW_AT_name("unsigned short")
     939                            .dwattr $C$DW$T$9, DW_AT_byte_size(0x02)
     940                    
     941                    $C$DW$T$44      .dwtag  DW_TAG_typedef
     942                            .dwattr $C$DW$T$44, DW_AT_name("uint16_t")
     943                            .dwattr $C$DW$T$44, DW_AT_type(*$C$DW$T$9)
     944                            .dwattr $C$DW$T$44, DW_AT_language(DW_LANG_C)
     945                            .dwattr $C$DW$T$44, DW_AT_decl_file("C:/TI_CodeComposer/ccsv6/tools/compiler/ti-cgt-arm_15.12.
     946                            .dwattr $C$DW$T$44, DW_AT_decl_line(0x2d)
     947                            .dwattr $C$DW$T$44, DW_AT_decl_column(0x1c)
     948                    
     949                    $C$DW$T$83      .dwtag  DW_TAG_typedef
     950                            .dwattr $C$DW$T$83, DW_AT_name("uint_least16_t")
     951                            .dwattr $C$DW$T$83, DW_AT_type(*$C$DW$T$44)
     952                            .dwattr $C$DW$T$83, DW_AT_language(DW_LANG_C)
     953                            .dwattr $C$DW$T$83, DW_AT_decl_file("C:/TI_CodeComposer/ccsv6/tools/compiler/ti-cgt-arm_15.12.
TI ARM Assembler PC v15.12.1 Thu Dec 01 14:00:53 2016

Tools Copyright (c) 1996-2015 Texas Instruments Incorporated
MagSwitch.asm                                                        PAGE   20

     954                            .dwattr $C$DW$T$83, DW_AT_decl_line(0x3b)
     955                            .dwattr $C$DW$T$83, DW_AT_decl_column(0x16)
     956                    
     957                    $C$DW$T$84      .dwtag  DW_TAG_typedef
     958                            .dwattr $C$DW$T$84, DW_AT_name("wchar_t")
     959                            .dwattr $C$DW$T$84, DW_AT_type(*$C$DW$T$9)
     960                            .dwattr $C$DW$T$84, DW_AT_language(DW_LANG_C)
     961                            .dwattr $C$DW$T$84, DW_AT_decl_file("C:/TI_CodeComposer/ccsv6/tools/compiler/ti-cgt-arm_15.12.
     962                            .dwattr $C$DW$T$84, DW_AT_decl_line(0x41)
     963                            .dwattr $C$DW$T$84, DW_AT_decl_column(0x1a)
     964                    
     965                    $C$DW$T$10      .dwtag  DW_TAG_base_type
     966                            .dwattr $C$DW$T$10, DW_AT_encoding(DW_ATE_signed)
     967                            .dwattr $C$DW$T$10, DW_AT_name("int")
     968                            .dwattr $C$DW$T$10, DW_AT_byte_size(0x04)
     969                    
     970                    $C$DW$T$54      .dwtag  DW_TAG_typedef
     971                            .dwattr $C$DW$T$54, DW_AT_name("int32_t")
     972                            .dwattr $C$DW$T$54, DW_AT_type(*$C$DW$T$10)
     973                            .dwattr $C$DW$T$54, DW_AT_language(DW_LANG_C)
     974                            .dwattr $C$DW$T$54, DW_AT_decl_file("C:/TI_CodeComposer/ccsv6/tools/compiler/ti-cgt-arm_15.12.
     975                            .dwattr $C$DW$T$54, DW_AT_decl_line(0x2e)
     976                            .dwattr $C$DW$T$54, DW_AT_decl_column(0x1d)
     977                    
     978                    $C$DW$T$55      .dwtag  DW_TAG_typedef
     979                            .dwattr $C$DW$T$55, DW_AT_name("BaseType_t")
     980                            .dwattr $C$DW$T$55, DW_AT_type(*$C$DW$T$54)
     981                            .dwattr $C$DW$T$55, DW_AT_language(DW_LANG_C)
     982                            .dwattr $C$DW$T$55, DW_AT_decl_file("C:/TI_ARM_Tiva_Projects/Source/portable/CCS/ARM_CM4F/port
     983                            .dwattr $C$DW$T$55, DW_AT_decl_line(0x69)
     984                            .dwattr $C$DW$T$55, DW_AT_decl_column(0x12)
     985                    
     986                    
     987                    $C$DW$T$87      .dwtag  DW_TAG_subroutine_type
     988                            .dwattr $C$DW$T$87, DW_AT_type(*$C$DW$T$55)
     989                            .dwattr $C$DW$T$87, DW_AT_language(DW_LANG_C)
     990                    $C$DW$67        .dwtag  DW_TAG_formal_parameter
     991                            .dwattr $C$DW$67, DW_AT_type(*$C$DW$T$3)
     992                    
     993                            .dwendtag $C$DW$T$87
     994                    
     995                    $C$DW$T$88      .dwtag  DW_TAG_pointer_type
     996                            .dwattr $C$DW$T$88, DW_AT_type(*$C$DW$T$87)
     997                            .dwattr $C$DW$T$88, DW_AT_address_class(0x20)
     998                    
     999                    $C$DW$T$89      .dwtag  DW_TAG_typedef
    1000                            .dwattr $C$DW$T$89, DW_AT_name("TaskHookFunction_t")
    1001                            .dwattr $C$DW$T$89, DW_AT_type(*$C$DW$T$88)
    1002                            .dwattr $C$DW$T$89, DW_AT_language(DW_LANG_C)
    1003                            .dwattr $C$DW$T$89, DW_AT_decl_file("C:/TI_ARM_Tiva_Projects/Source/include/task.h")
    1004                            .dwattr $C$DW$T$89, DW_AT_decl_line(0x6d)
    1005                            .dwattr $C$DW$T$89, DW_AT_decl_column(0x16)
    1006                    
    1007                    $C$DW$T$92      .dwtag  DW_TAG_typedef
    1008                            .dwattr $C$DW$T$92, DW_AT_name("int_fast16_t")
TI ARM Assembler PC v15.12.1 Thu Dec 01 14:00:53 2016

Tools Copyright (c) 1996-2015 Texas Instruments Incorporated
MagSwitch.asm                                                        PAGE   21

    1009                            .dwattr $C$DW$T$92, DW_AT_type(*$C$DW$T$54)
    1010                            .dwattr $C$DW$T$92, DW_AT_language(DW_LANG_C)
    1011                            .dwattr $C$DW$T$92, DW_AT_decl_file("C:/TI_CodeComposer/ccsv6/tools/compiler/ti-cgt-arm_15.12.
    1012                            .dwattr $C$DW$T$92, DW_AT_decl_line(0x47)
    1013                            .dwattr $C$DW$T$92, DW_AT_decl_column(0x17)
    1014                    
    1015                    $C$DW$T$93      .dwtag  DW_TAG_typedef
    1016                            .dwattr $C$DW$T$93, DW_AT_name("int_fast32_t")
    1017                            .dwattr $C$DW$T$93, DW_AT_type(*$C$DW$T$54)
    1018                            .dwattr $C$DW$T$93, DW_AT_language(DW_LANG_C)
    1019                            .dwattr $C$DW$T$93, DW_AT_decl_file("C:/TI_CodeComposer/ccsv6/tools/compiler/ti-cgt-arm_15.12.
    1020                            .dwattr $C$DW$T$93, DW_AT_decl_line(0x4a)
    1021                            .dwattr $C$DW$T$93, DW_AT_decl_column(0x17)
    1022                    
    1023                    $C$DW$T$94      .dwtag  DW_TAG_typedef
    1024                            .dwattr $C$DW$T$94, DW_AT_name("int_fast8_t")
    1025                            .dwattr $C$DW$T$94, DW_AT_type(*$C$DW$T$54)
    1026                            .dwattr $C$DW$T$94, DW_AT_language(DW_LANG_C)
    1027                            .dwattr $C$DW$T$94, DW_AT_decl_file("C:/TI_CodeComposer/ccsv6/tools/compiler/ti-cgt-arm_15.12.
    1028                            .dwattr $C$DW$T$94, DW_AT_decl_line(0x45)
    1029                            .dwattr $C$DW$T$94, DW_AT_decl_column(0x17)
    1030                    
    1031                    $C$DW$T$95      .dwtag  DW_TAG_typedef
    1032                            .dwattr $C$DW$T$95, DW_AT_name("int_least32_t")
    1033                            .dwattr $C$DW$T$95, DW_AT_type(*$C$DW$T$54)
    1034                            .dwattr $C$DW$T$95, DW_AT_language(DW_LANG_C)
    1035                            .dwattr $C$DW$T$95, DW_AT_decl_file("C:/TI_CodeComposer/ccsv6/tools/compiler/ti-cgt-arm_15.12.
    1036                            .dwattr $C$DW$T$95, DW_AT_decl_line(0x3c)
    1037                            .dwattr $C$DW$T$95, DW_AT_decl_column(0x17)
    1038                    
    1039                    $C$DW$T$96      .dwtag  DW_TAG_typedef
    1040                            .dwattr $C$DW$T$96, DW_AT_name("portBASE_TYPE")
    1041                            .dwattr $C$DW$T$96, DW_AT_type(*$C$DW$T$54)
    1042                            .dwattr $C$DW$T$96, DW_AT_language(DW_LANG_C)
    1043                            .dwattr $C$DW$T$96, DW_AT_decl_file("C:/TI_ARM_Tiva_Projects/Source/portable/CCS/ARM_CM4F/port
    1044                            .dwattr $C$DW$T$96, DW_AT_decl_line(0x66)
    1045                            .dwattr $C$DW$T$96, DW_AT_decl_column(0x12)
    1046                    
    1047                    $C$DW$T$97      .dwtag  DW_TAG_typedef
    1048                            .dwattr $C$DW$T$97, DW_AT_name("portLONG")
    1049                            .dwattr $C$DW$T$97, DW_AT_type(*$C$DW$T$54)
    1050                            .dwattr $C$DW$T$97, DW_AT_language(DW_LANG_C)
    1051                            .dwattr $C$DW$T$97, DW_AT_decl_file("C:/TI_ARM_Tiva_Projects/Source/portable/CCS/ARM_CM4F/port
    1052                            .dwattr $C$DW$T$97, DW_AT_decl_line(0x63)
    1053                            .dwattr $C$DW$T$97, DW_AT_decl_column(0x12)
    1054                    
    1055                    $C$DW$T$98      .dwtag  DW_TAG_typedef
    1056                            .dwattr $C$DW$T$98, DW_AT_name("intptr_t")
    1057                            .dwattr $C$DW$T$98, DW_AT_type(*$C$DW$T$10)
    1058                            .dwattr $C$DW$T$98, DW_AT_language(DW_LANG_C)
    1059                            .dwattr $C$DW$T$98, DW_AT_decl_file("C:/TI_CodeComposer/ccsv6/tools/compiler/ti-cgt-arm_15.12.
    1060                            .dwattr $C$DW$T$98, DW_AT_decl_line(0x52)
    1061                            .dwattr $C$DW$T$98, DW_AT_decl_column(0x1a)
    1062                    
    1063                    $C$DW$T$99      .dwtag  DW_TAG_typedef
TI ARM Assembler PC v15.12.1 Thu Dec 01 14:00:53 2016

Tools Copyright (c) 1996-2015 Texas Instruments Incorporated
MagSwitch.asm                                                        PAGE   22

    1064                            .dwattr $C$DW$T$99, DW_AT_name("ptrdiff_t")
    1065                            .dwattr $C$DW$T$99, DW_AT_type(*$C$DW$T$10)
    1066                            .dwattr $C$DW$T$99, DW_AT_language(DW_LANG_C)
    1067                            .dwattr $C$DW$T$99, DW_AT_decl_file("C:/TI_CodeComposer/ccsv6/tools/compiler/ti-cgt-arm_15.12.
    1068                            .dwattr $C$DW$T$99, DW_AT_decl_line(0x36)
    1069                            .dwattr $C$DW$T$99, DW_AT_decl_column(0x1c)
    1070                    
    1071                    $C$DW$T$11      .dwtag  DW_TAG_base_type
    1072                            .dwattr $C$DW$T$11, DW_AT_encoding(DW_ATE_unsigned)
    1073                            .dwattr $C$DW$T$11, DW_AT_name("unsigned int")
    1074                            .dwattr $C$DW$T$11, DW_AT_byte_size(0x04)
    1075                    
    1076                    $C$DW$T$23      .dwtag  DW_TAG_typedef
    1077                            .dwattr $C$DW$T$23, DW_AT_name("size_t")
    1078                            .dwattr $C$DW$T$23, DW_AT_type(*$C$DW$T$11)
    1079                            .dwattr $C$DW$T$23, DW_AT_language(DW_LANG_C)
    1080                            .dwattr $C$DW$T$23, DW_AT_decl_file("C:/TI_CodeComposer/ccsv6/tools/compiler/ti-cgt-arm_15.12.
    1081                            .dwattr $C$DW$T$23, DW_AT_decl_line(0x3a)
    1082                            .dwattr $C$DW$T$23, DW_AT_decl_column(0x19)
    1083                    
    1084                    $C$DW$T$26      .dwtag  DW_TAG_typedef
    1085                            .dwattr $C$DW$T$26, DW_AT_name("uint32_t")
    1086                            .dwattr $C$DW$T$26, DW_AT_type(*$C$DW$T$11)
    1087                            .dwattr $C$DW$T$26, DW_AT_language(DW_LANG_C)
    1088                            .dwattr $C$DW$T$26, DW_AT_decl_file("C:/TI_CodeComposer/ccsv6/tools/compiler/ti-cgt-arm_15.12.
    1089                            .dwattr $C$DW$T$26, DW_AT_decl_line(0x2f)
    1090                            .dwattr $C$DW$T$26, DW_AT_decl_column(0x1c)
    1091                    
    1092                    $C$DW$T$45      .dwtag  DW_TAG_typedef
    1093                            .dwattr $C$DW$T$45, DW_AT_name("StackType_t")
    1094                            .dwattr $C$DW$T$45, DW_AT_type(*$C$DW$T$26)
    1095                            .dwattr $C$DW$T$45, DW_AT_language(DW_LANG_C)
    1096                            .dwattr $C$DW$T$45, DW_AT_decl_file("C:/TI_ARM_Tiva_Projects/Source/portable/CCS/ARM_CM4F/port
    1097                            .dwattr $C$DW$T$45, DW_AT_decl_line(0x68)
    1098                            .dwattr $C$DW$T$45, DW_AT_decl_column(0x12)
    1099                    
    1100                    $C$DW$T$46      .dwtag  DW_TAG_pointer_type
    1101                            .dwattr $C$DW$T$46, DW_AT_type(*$C$DW$T$45)
    1102                            .dwattr $C$DW$T$46, DW_AT_address_class(0x20)
    1103                    
    1104                    $C$DW$T$32      .dwtag  DW_TAG_typedef
    1105                            .dwattr $C$DW$T$32, DW_AT_name("TickType_t")
    1106                            .dwattr $C$DW$T$32, DW_AT_type(*$C$DW$T$26)
    1107                            .dwattr $C$DW$T$32, DW_AT_language(DW_LANG_C)
    1108                            .dwattr $C$DW$T$32, DW_AT_decl_file("C:/TI_ARM_Tiva_Projects/Source/portable/CCS/ARM_CM4F/port
    1109                            .dwattr $C$DW$T$32, DW_AT_decl_line(0x70)
    1110                            .dwattr $C$DW$T$32, DW_AT_decl_column(0x13)
    1111                    
    1112                    $C$DW$T$71      .dwtag  DW_TAG_const_type
    1113                            .dwattr $C$DW$T$71, DW_AT_type(*$C$DW$T$32)
    1114                    
    1115                    $C$DW$T$27      .dwtag  DW_TAG_typedef
    1116                            .dwattr $C$DW$T$27, DW_AT_name("UBaseType_t")
    1117                            .dwattr $C$DW$T$27, DW_AT_type(*$C$DW$T$26)
    1118                            .dwattr $C$DW$T$27, DW_AT_language(DW_LANG_C)
TI ARM Assembler PC v15.12.1 Thu Dec 01 14:00:53 2016

Tools Copyright (c) 1996-2015 Texas Instruments Incorporated
MagSwitch.asm                                                        PAGE   23

    1119                            .dwattr $C$DW$T$27, DW_AT_decl_file("C:/TI_ARM_Tiva_Projects/Source/portable/CCS/ARM_CM4F/port
    1120                            .dwattr $C$DW$T$27, DW_AT_decl_line(0x6a)
    1121                            .dwattr $C$DW$T$27, DW_AT_decl_column(0x12)
    1122                    
    1123                    $C$DW$T$100     .dwtag  DW_TAG_typedef
    1124                            .dwattr $C$DW$T$100, DW_AT_name("portSTACK_TYPE")
    1125                            .dwattr $C$DW$T$100, DW_AT_type(*$C$DW$T$26)
    1126                            .dwattr $C$DW$T$100, DW_AT_language(DW_LANG_C)
    1127                            .dwattr $C$DW$T$100, DW_AT_decl_file("C:/TI_ARM_Tiva_Projects/Source/portable/CCS/ARM_CM4F/por
    1128                            .dwattr $C$DW$T$100, DW_AT_decl_line(0x65)
    1129                            .dwattr $C$DW$T$100, DW_AT_decl_column(0x12)
    1130                    
    1131                    $C$DW$T$101     .dwtag  DW_TAG_typedef
    1132                            .dwattr $C$DW$T$101, DW_AT_name("uint_fast16_t")
    1133                            .dwattr $C$DW$T$101, DW_AT_type(*$C$DW$T$26)
    1134                            .dwattr $C$DW$T$101, DW_AT_language(DW_LANG_C)
    1135                            .dwattr $C$DW$T$101, DW_AT_decl_file("C:/TI_CodeComposer/ccsv6/tools/compiler/ti-cgt-arm_15.12
    1136                            .dwattr $C$DW$T$101, DW_AT_decl_line(0x48)
    1137                            .dwattr $C$DW$T$101, DW_AT_decl_column(0x16)
    1138                    
    1139                    $C$DW$T$102     .dwtag  DW_TAG_typedef
    1140                            .dwattr $C$DW$T$102, DW_AT_name("uint_fast32_t")
    1141                            .dwattr $C$DW$T$102, DW_AT_type(*$C$DW$T$26)
    1142                            .dwattr $C$DW$T$102, DW_AT_language(DW_LANG_C)
    1143                            .dwattr $C$DW$T$102, DW_AT_decl_file("C:/TI_CodeComposer/ccsv6/tools/compiler/ti-cgt-arm_15.12
    1144                            .dwattr $C$DW$T$102, DW_AT_decl_line(0x4b)
    1145                            .dwattr $C$DW$T$102, DW_AT_decl_column(0x16)
    1146                    
    1147                    $C$DW$T$103     .dwtag  DW_TAG_typedef
    1148                            .dwattr $C$DW$T$103, DW_AT_name("uint_fast8_t")
    1149                            .dwattr $C$DW$T$103, DW_AT_type(*$C$DW$T$26)
    1150                            .dwattr $C$DW$T$103, DW_AT_language(DW_LANG_C)
    1151                            .dwattr $C$DW$T$103, DW_AT_decl_file("C:/TI_CodeComposer/ccsv6/tools/compiler/ti-cgt-arm_15.12
    1152                            .dwattr $C$DW$T$103, DW_AT_decl_line(0x46)
    1153                            .dwattr $C$DW$T$103, DW_AT_decl_column(0x16)
    1154                    
    1155                    $C$DW$T$104     .dwtag  DW_TAG_typedef
    1156                            .dwattr $C$DW$T$104, DW_AT_name("uint_least32_t")
    1157                            .dwattr $C$DW$T$104, DW_AT_type(*$C$DW$T$26)
    1158                            .dwattr $C$DW$T$104, DW_AT_language(DW_LANG_C)
    1159                            .dwattr $C$DW$T$104, DW_AT_decl_file("C:/TI_CodeComposer/ccsv6/tools/compiler/ti-cgt-arm_15.12
    1160                            .dwattr $C$DW$T$104, DW_AT_decl_line(0x3d)
    1161                            .dwattr $C$DW$T$104, DW_AT_decl_column(0x16)
    1162                    
    1163                    $C$DW$T$105     .dwtag  DW_TAG_typedef
    1164                            .dwattr $C$DW$T$105, DW_AT_name("uintptr_t")
    1165                            .dwattr $C$DW$T$105, DW_AT_type(*$C$DW$T$11)
    1166                            .dwattr $C$DW$T$105, DW_AT_language(DW_LANG_C)
    1167                            .dwattr $C$DW$T$105, DW_AT_decl_file("C:/TI_CodeComposer/ccsv6/tools/compiler/ti-cgt-arm_15.12
    1168                            .dwattr $C$DW$T$105, DW_AT_decl_line(0x53)
    1169                            .dwattr $C$DW$T$105, DW_AT_decl_column(0x1a)
    1170                    
    1171                    $C$DW$T$12      .dwtag  DW_TAG_base_type
    1172                            .dwattr $C$DW$T$12, DW_AT_encoding(DW_ATE_signed)
    1173                            .dwattr $C$DW$T$12, DW_AT_name("long")
TI ARM Assembler PC v15.12.1 Thu Dec 01 14:00:53 2016

Tools Copyright (c) 1996-2015 Texas Instruments Incorporated
MagSwitch.asm                                                        PAGE   24

    1174                            .dwattr $C$DW$T$12, DW_AT_byte_size(0x04)
    1175                    
    1176                    $C$DW$T$106     .dwtag  DW_TAG_typedef
    1177                            .dwattr $C$DW$T$106, DW_AT_name("fpos_t")
    1178                            .dwattr $C$DW$T$106, DW_AT_type(*$C$DW$T$12)
    1179                            .dwattr $C$DW$T$106, DW_AT_language(DW_LANG_C)
    1180                            .dwattr $C$DW$T$106, DW_AT_decl_file("C:/TI_CodeComposer/ccsv6/tools/compiler/ti-cgt-arm_15.12
    1181                            .dwattr $C$DW$T$106, DW_AT_decl_line(0x6e)
    1182                            .dwattr $C$DW$T$106, DW_AT_decl_column(0x0e)
    1183                    
    1184                    $C$DW$T$13      .dwtag  DW_TAG_base_type
    1185                            .dwattr $C$DW$T$13, DW_AT_encoding(DW_ATE_unsigned)
    1186                            .dwattr $C$DW$T$13, DW_AT_name("unsigned long")
    1187                            .dwattr $C$DW$T$13, DW_AT_byte_size(0x04)
    1188                    
    1189                    $C$DW$T$14      .dwtag  DW_TAG_base_type
    1190                            .dwattr $C$DW$T$14, DW_AT_encoding(DW_ATE_signed)
    1191                            .dwattr $C$DW$T$14, DW_AT_name("long long")
    1192                            .dwattr $C$DW$T$14, DW_AT_byte_size(0x08)
    1193                    
    1194                    $C$DW$T$107     .dwtag  DW_TAG_typedef
    1195                            .dwattr $C$DW$T$107, DW_AT_name("int64_t")
    1196                            .dwattr $C$DW$T$107, DW_AT_type(*$C$DW$T$14)
    1197                            .dwattr $C$DW$T$107, DW_AT_language(DW_LANG_C)
    1198                            .dwattr $C$DW$T$107, DW_AT_decl_file("C:/TI_CodeComposer/ccsv6/tools/compiler/ti-cgt-arm_15.12
    1199                            .dwattr $C$DW$T$107, DW_AT_decl_line(0x32)
    1200                            .dwattr $C$DW$T$107, DW_AT_decl_column(0x21)
    1201                    
    1202                    $C$DW$T$108     .dwtag  DW_TAG_typedef
    1203                            .dwattr $C$DW$T$108, DW_AT_name("int_fast64_t")
    1204                            .dwattr $C$DW$T$108, DW_AT_type(*$C$DW$T$107)
    1205                            .dwattr $C$DW$T$108, DW_AT_language(DW_LANG_C)
    1206                            .dwattr $C$DW$T$108, DW_AT_decl_file("C:/TI_CodeComposer/ccsv6/tools/compiler/ti-cgt-arm_15.12
    1207                            .dwattr $C$DW$T$108, DW_AT_decl_line(0x4e)
    1208                            .dwattr $C$DW$T$108, DW_AT_decl_column(0x17)
    1209                    
    1210                    $C$DW$T$109     .dwtag  DW_TAG_typedef
    1211                            .dwattr $C$DW$T$109, DW_AT_name("int_least64_t")
    1212                            .dwattr $C$DW$T$109, DW_AT_type(*$C$DW$T$107)
    1213                            .dwattr $C$DW$T$109, DW_AT_language(DW_LANG_C)
    1214                            .dwattr $C$DW$T$109, DW_AT_decl_file("C:/TI_CodeComposer/ccsv6/tools/compiler/ti-cgt-arm_15.12
    1215                            .dwattr $C$DW$T$109, DW_AT_decl_line(0x40)
    1216                            .dwattr $C$DW$T$109, DW_AT_decl_column(0x17)
    1217                    
    1218                    $C$DW$T$110     .dwtag  DW_TAG_typedef
    1219                            .dwattr $C$DW$T$110, DW_AT_name("portDOUBLE")
    1220                            .dwattr $C$DW$T$110, DW_AT_type(*$C$DW$T$107)
    1221                            .dwattr $C$DW$T$110, DW_AT_language(DW_LANG_C)
    1222                            .dwattr $C$DW$T$110, DW_AT_decl_file("C:/TI_ARM_Tiva_Projects/Source/portable/CCS/ARM_CM4F/por
    1223                            .dwattr $C$DW$T$110, DW_AT_decl_line(0x62)
    1224                            .dwattr $C$DW$T$110, DW_AT_decl_column(0x12)
    1225                    
    1226                    $C$DW$T$111     .dwtag  DW_TAG_typedef
    1227                            .dwattr $C$DW$T$111, DW_AT_name("intmax_t")
    1228                            .dwattr $C$DW$T$111, DW_AT_type(*$C$DW$T$14)
TI ARM Assembler PC v15.12.1 Thu Dec 01 14:00:53 2016

Tools Copyright (c) 1996-2015 Texas Instruments Incorporated
MagSwitch.asm                                                        PAGE   25

    1229                            .dwattr $C$DW$T$111, DW_AT_language(DW_LANG_C)
    1230                            .dwattr $C$DW$T$111, DW_AT_decl_file("C:/TI_CodeComposer/ccsv6/tools/compiler/ti-cgt-arm_15.12
    1231                            .dwattr $C$DW$T$111, DW_AT_decl_line(0x56)
    1232                            .dwattr $C$DW$T$111, DW_AT_decl_column(0x20)
    1233                    
    1234                    $C$DW$T$15      .dwtag  DW_TAG_base_type
    1235                            .dwattr $C$DW$T$15, DW_AT_encoding(DW_ATE_unsigned)
    1236                            .dwattr $C$DW$T$15, DW_AT_name("unsigned long long")
    1237                            .dwattr $C$DW$T$15, DW_AT_byte_size(0x08)
    1238                    
    1239                    $C$DW$T$112     .dwtag  DW_TAG_typedef
    1240                            .dwattr $C$DW$T$112, DW_AT_name("uint64_t")
    1241                            .dwattr $C$DW$T$112, DW_AT_type(*$C$DW$T$15)
    1242                            .dwattr $C$DW$T$112, DW_AT_language(DW_LANG_C)
    1243                            .dwattr $C$DW$T$112, DW_AT_decl_file("C:/TI_CodeComposer/ccsv6/tools/compiler/ti-cgt-arm_15.12
    1244                            .dwattr $C$DW$T$112, DW_AT_decl_line(0x33)
    1245                            .dwattr $C$DW$T$112, DW_AT_decl_column(0x20)
    1246                    
    1247                    $C$DW$T$113     .dwtag  DW_TAG_typedef
    1248                            .dwattr $C$DW$T$113, DW_AT_name("uint_fast64_t")
    1249                            .dwattr $C$DW$T$113, DW_AT_type(*$C$DW$T$112)
    1250                            .dwattr $C$DW$T$113, DW_AT_language(DW_LANG_C)
    1251                            .dwattr $C$DW$T$113, DW_AT_decl_file("C:/TI_CodeComposer/ccsv6/tools/compiler/ti-cgt-arm_15.12
    1252                            .dwattr $C$DW$T$113, DW_AT_decl_line(0x4f)
    1253                            .dwattr $C$DW$T$113, DW_AT_decl_column(0x16)
    1254                    
    1255                    $C$DW$T$114     .dwtag  DW_TAG_typedef
    1256                            .dwattr $C$DW$T$114, DW_AT_name("uint_least64_t")
    1257                            .dwattr $C$DW$T$114, DW_AT_type(*$C$DW$T$112)
    1258                            .dwattr $C$DW$T$114, DW_AT_language(DW_LANG_C)
    1259                            .dwattr $C$DW$T$114, DW_AT_decl_file("C:/TI_CodeComposer/ccsv6/tools/compiler/ti-cgt-arm_15.12
    1260                            .dwattr $C$DW$T$114, DW_AT_decl_line(0x41)
    1261                            .dwattr $C$DW$T$114, DW_AT_decl_column(0x16)
    1262                    
    1263                    $C$DW$T$115     .dwtag  DW_TAG_typedef
    1264                            .dwattr $C$DW$T$115, DW_AT_name("uintmax_t")
    1265                            .dwattr $C$DW$T$115, DW_AT_type(*$C$DW$T$15)
    1266                            .dwattr $C$DW$T$115, DW_AT_language(DW_LANG_C)
    1267                            .dwattr $C$DW$T$115, DW_AT_decl_file("C:/TI_CodeComposer/ccsv6/tools/compiler/ti-cgt-arm_15.12
    1268                            .dwattr $C$DW$T$115, DW_AT_decl_line(0x57)
    1269                            .dwattr $C$DW$T$115, DW_AT_decl_column(0x20)
    1270                    
    1271                    $C$DW$T$16      .dwtag  DW_TAG_base_type
    1272                            .dwattr $C$DW$T$16, DW_AT_encoding(DW_ATE_float)
    1273                            .dwattr $C$DW$T$16, DW_AT_name("float")
    1274                            .dwattr $C$DW$T$16, DW_AT_byte_size(0x04)
    1275                    
    1276                    $C$DW$T$116     .dwtag  DW_TAG_typedef
    1277                            .dwattr $C$DW$T$116, DW_AT_name("portFLOAT")
    1278                            .dwattr $C$DW$T$116, DW_AT_type(*$C$DW$T$16)
    1279                            .dwattr $C$DW$T$116, DW_AT_language(DW_LANG_C)
    1280                            .dwattr $C$DW$T$116, DW_AT_decl_file("C:/TI_ARM_Tiva_Projects/Source/portable/CCS/ARM_CM4F/por
    1281                            .dwattr $C$DW$T$116, DW_AT_decl_line(0x61)
    1282                            .dwattr $C$DW$T$116, DW_AT_decl_column(0x10)
    1283                    
TI ARM Assembler PC v15.12.1 Thu Dec 01 14:00:53 2016

Tools Copyright (c) 1996-2015 Texas Instruments Incorporated
MagSwitch.asm                                                        PAGE   26

    1284                    $C$DW$T$17      .dwtag  DW_TAG_base_type
    1285                            .dwattr $C$DW$T$17, DW_AT_encoding(DW_ATE_float)
    1286                            .dwattr $C$DW$T$17, DW_AT_name("double")
    1287                            .dwattr $C$DW$T$17, DW_AT_byte_size(0x08)
    1288                    
    1289                    $C$DW$T$18      .dwtag  DW_TAG_base_type
    1290                            .dwattr $C$DW$T$18, DW_AT_encoding(DW_ATE_float)
    1291                            .dwattr $C$DW$T$18, DW_AT_name("long double")
    1292                            .dwattr $C$DW$T$18, DW_AT_byte_size(0x08)
    1293                    
    1294                    $C$DW$T$41      .dwtag  DW_TAG_const_type
    1295                            .dwattr $C$DW$T$41, DW_AT_type(*$C$DW$T$6)
    1296                    
    1297                    $C$DW$T$42      .dwtag  DW_TAG_pointer_type
    1298                            .dwattr $C$DW$T$42, DW_AT_type(*$C$DW$T$41)
    1299                            .dwattr $C$DW$T$42, DW_AT_address_class(0x20)
    1300                    
    1301                    $C$DW$T$43      .dwtag  DW_TAG_const_type
    1302                            .dwattr $C$DW$T$43, DW_AT_type(*$C$DW$T$42)
    1303                    
    1304                    $C$DW$T$123     .dwtag  DW_TAG_base_type
    1305                            .dwattr $C$DW$T$123, DW_AT_encoding(DW_ATE_unsigned_char)
    1306                            .dwattr $C$DW$T$123, DW_AT_name("unsigned char")
    1307                            .dwattr $C$DW$T$123, DW_AT_byte_size(0x01)
    1308                    
    1309                    
    1310                    $C$DW$T$25      .dwtag  DW_TAG_structure_type
    1311                            .dwattr $C$DW$T$25, DW_AT_name("__va_list")
    1312                            .dwattr $C$DW$T$25, DW_AT_byte_size(0x04)
    1313                    $C$DW$68        .dwtag  DW_TAG_member
    1314                            .dwattr $C$DW$68, DW_AT_type(*$C$DW$T$3)
    1315                            .dwattr $C$DW$68, DW_AT_name("__ap")
    1316                            .dwattr $C$DW$68, DW_AT_TI_symbol_name("__ap")
    1317                            .dwattr $C$DW$68, DW_AT_data_member_location[DW_OP_plus_uconst 0x0]
    1318                            .dwattr $C$DW$68, DW_AT_accessibility(DW_ACCESS_public)
    1319                            .dwattr $C$DW$68, DW_AT_decl_file("C:/TI_CodeComposer/ccsv6/tools/compiler/ti-cgt-arm_15.12.1.
    1320                            .dwattr $C$DW$68, DW_AT_decl_line(0x38)
    1321                            .dwattr $C$DW$68, DW_AT_decl_column(0x0c)
    1322                    
    1323                            .dwattr $C$DW$T$25, DW_AT_decl_file("C:/TI_CodeComposer/ccsv6/tools/compiler/ti-cgt-arm_15.12.
    1324                            .dwattr $C$DW$T$25, DW_AT_decl_line(0x37)
    1325                            .dwattr $C$DW$T$25, DW_AT_decl_column(0x10)
    1326                            .dwendtag $C$DW$T$25
    1327                    
    1328                    $C$DW$T$124     .dwtag  DW_TAG_typedef
    1329                            .dwattr $C$DW$T$124, DW_AT_name("va_list")
    1330                            .dwattr $C$DW$T$124, DW_AT_type(*$C$DW$T$25)
    1331                            .dwattr $C$DW$T$124, DW_AT_language(DW_LANG_C)
    1332                            .dwattr $C$DW$T$124, DW_AT_decl_file("C:/TI_CodeComposer/ccsv6/tools/compiler/ti-cgt-arm_15.12
    1333                            .dwattr $C$DW$T$124, DW_AT_decl_line(0x39)
    1334                            .dwattr $C$DW$T$124, DW_AT_decl_column(0x03)
    1335                    
    1336                    
    1337                    $C$DW$T$31      .dwtag  DW_TAG_structure_type
    1338                            .dwattr $C$DW$T$31, DW_AT_name("xLIST")
TI ARM Assembler PC v15.12.1 Thu Dec 01 14:00:53 2016

Tools Copyright (c) 1996-2015 Texas Instruments Incorporated
MagSwitch.asm                                                        PAGE   27

    1339                            .dwattr $C$DW$T$31, DW_AT_byte_size(0x14)
    1340                    $C$DW$69        .dwtag  DW_TAG_member
    1341                            .dwattr $C$DW$69, DW_AT_type(*$C$DW$T$27)
    1342                            .dwattr $C$DW$69, DW_AT_name("uxNumberOfItems")
    1343                            .dwattr $C$DW$69, DW_AT_TI_symbol_name("uxNumberOfItems")
    1344                            .dwattr $C$DW$69, DW_AT_data_member_location[DW_OP_plus_uconst 0x0]
    1345                            .dwattr $C$DW$69, DW_AT_accessibility(DW_ACCESS_public)
    1346                            .dwattr $C$DW$69, DW_AT_decl_file("C:\TI_ARM_Tiva_Projects\Source\include\list.h")
    1347                            .dwattr $C$DW$69, DW_AT_decl_line(0xd0)
    1348                            .dwattr $C$DW$69, DW_AT_decl_column(0x22)
    1349                    
    1350                    $C$DW$70        .dwtag  DW_TAG_member
    1351                            .dwattr $C$DW$70, DW_AT_type(*$C$DW$T$29)
    1352                            .dwattr $C$DW$70, DW_AT_name("pxIndex")
    1353                            .dwattr $C$DW$70, DW_AT_TI_symbol_name("pxIndex")
    1354                            .dwattr $C$DW$70, DW_AT_data_member_location[DW_OP_plus_uconst 0x4]
    1355                            .dwattr $C$DW$70, DW_AT_accessibility(DW_ACCESS_public)
    1356                            .dwattr $C$DW$70, DW_AT_decl_file("C:\TI_ARM_Tiva_Projects\Source\include\list.h")
    1357                            .dwattr $C$DW$70, DW_AT_decl_line(0xd1)
    1358                            .dwattr $C$DW$70, DW_AT_decl_column(0x23)
    1359                    
    1360                    $C$DW$71        .dwtag  DW_TAG_member
    1361                            .dwattr $C$DW$71, DW_AT_type(*$C$DW$T$30)
    1362                            .dwattr $C$DW$71, DW_AT_name("xListEnd")
    1363                            .dwattr $C$DW$71, DW_AT_TI_symbol_name("xListEnd")
    1364                            .dwattr $C$DW$71, DW_AT_data_member_location[DW_OP_plus_uconst 0x8]
    1365                            .dwattr $C$DW$71, DW_AT_accessibility(DW_ACCESS_public)
    1366                            .dwattr $C$DW$71, DW_AT_decl_file("C:\TI_ARM_Tiva_Projects\Source\include\list.h")
    1367                            .dwattr $C$DW$71, DW_AT_decl_line(0xd2)
    1368                            .dwattr $C$DW$71, DW_AT_decl_column(0x11)
    1369                    
    1370                            .dwattr $C$DW$T$31, DW_AT_decl_file("C:\TI_ARM_Tiva_Projects\Source\include\list.h")
    1371                            .dwattr $C$DW$T$31, DW_AT_decl_line(0xcd)
    1372                            .dwattr $C$DW$T$31, DW_AT_decl_column(0x10)
    1373                            .dwendtag $C$DW$T$31
    1374                    
    1375                    $C$DW$T$125     .dwtag  DW_TAG_typedef
    1376                            .dwattr $C$DW$T$125, DW_AT_name("List_t")
    1377                            .dwattr $C$DW$T$125, DW_AT_type(*$C$DW$T$31)
    1378                            .dwattr $C$DW$T$125, DW_AT_language(DW_LANG_C)
    1379                            .dwattr $C$DW$T$125, DW_AT_decl_file("C:\TI_ARM_Tiva_Projects\Source\include\list.h")
    1380                            .dwattr $C$DW$T$125, DW_AT_decl_line(0xd4)
    1381                            .dwattr $C$DW$T$125, DW_AT_decl_column(0x03)
    1382                    
    1383                    
    1384                    $C$DW$T$34      .dwtag  DW_TAG_structure_type
    1385                            .dwattr $C$DW$T$34, DW_AT_name("xLIST_ITEM")
    1386                            .dwattr $C$DW$T$34, DW_AT_byte_size(0x14)
    1387                    $C$DW$72        .dwtag  DW_TAG_member
    1388                            .dwattr $C$DW$72, DW_AT_type(*$C$DW$T$32)
    1389                            .dwattr $C$DW$72, DW_AT_name("xItemValue")
    1390                            .dwattr $C$DW$72, DW_AT_TI_symbol_name("xItemValue")
    1391                            .dwattr $C$DW$72, DW_AT_data_member_location[DW_OP_plus_uconst 0x0]
    1392                            .dwattr $C$DW$72, DW_AT_accessibility(DW_ACCESS_public)
    1393                            .dwattr $C$DW$72, DW_AT_decl_file("C:\TI_ARM_Tiva_Projects\Source\include\list.h")
TI ARM Assembler PC v15.12.1 Thu Dec 01 14:00:53 2016

Tools Copyright (c) 1996-2015 Texas Instruments Incorporated
MagSwitch.asm                                                        PAGE   28

    1394                            .dwattr $C$DW$72, DW_AT_decl_line(0xb8)
    1395                            .dwattr $C$DW$72, DW_AT_decl_column(0x21)
    1396                    
    1397                    $C$DW$73        .dwtag  DW_TAG_member
    1398                            .dwattr $C$DW$73, DW_AT_type(*$C$DW$T$33)
    1399                            .dwattr $C$DW$73, DW_AT_name("pxNext")
    1400                            .dwattr $C$DW$73, DW_AT_TI_symbol_name("pxNext")
    1401                            .dwattr $C$DW$73, DW_AT_data_member_location[DW_OP_plus_uconst 0x4]
    1402                            .dwattr $C$DW$73, DW_AT_accessibility(DW_ACCESS_public)
    1403                            .dwattr $C$DW$73, DW_AT_decl_file("C:\TI_ARM_Tiva_Projects\Source\include\list.h")
    1404                            .dwattr $C$DW$73, DW_AT_decl_line(0xb9)
    1405                            .dwattr $C$DW$73, DW_AT_decl_column(0x2a)
    1406                    
    1407                    $C$DW$74        .dwtag  DW_TAG_member
    1408                            .dwattr $C$DW$74, DW_AT_type(*$C$DW$T$33)
    1409                            .dwattr $C$DW$74, DW_AT_name("pxPrevious")
    1410                            .dwattr $C$DW$74, DW_AT_TI_symbol_name("pxPrevious")
    1411                            .dwattr $C$DW$74, DW_AT_data_member_location[DW_OP_plus_uconst 0x8]
    1412                            .dwattr $C$DW$74, DW_AT_accessibility(DW_ACCESS_public)
    1413                            .dwattr $C$DW$74, DW_AT_decl_file("C:\TI_ARM_Tiva_Projects\Source\include\list.h")
    1414                            .dwattr $C$DW$74, DW_AT_decl_line(0xba)
    1415                            .dwattr $C$DW$74, DW_AT_decl_column(0x2a)
    1416                    
    1417                    $C$DW$75        .dwtag  DW_TAG_member
    1418                            .dwattr $C$DW$75, DW_AT_type(*$C$DW$T$3)
    1419                            .dwattr $C$DW$75, DW_AT_name("pvOwner")
    1420                            .dwattr $C$DW$75, DW_AT_TI_symbol_name("pvOwner")
    1421                            .dwattr $C$DW$75, DW_AT_data_member_location[DW_OP_plus_uconst 0xc]
    1422                            .dwattr $C$DW$75, DW_AT_accessibility(DW_ACCESS_public)
    1423                            .dwattr $C$DW$75, DW_AT_decl_file("C:\TI_ARM_Tiva_Projects\Source\include\list.h")
    1424                            .dwattr $C$DW$75, DW_AT_decl_line(0xbb)
    1425                            .dwattr $C$DW$75, DW_AT_decl_column(0x09)
    1426                    
    1427                    $C$DW$76        .dwtag  DW_TAG_member
    1428                            .dwattr $C$DW$76, DW_AT_type(*$C$DW$T$3)
    1429                            .dwattr $C$DW$76, DW_AT_name("pvContainer")
    1430                            .dwattr $C$DW$76, DW_AT_TI_symbol_name("pvContainer")
    1431                            .dwattr $C$DW$76, DW_AT_data_member_location[DW_OP_plus_uconst 0x10]
    1432                            .dwattr $C$DW$76, DW_AT_accessibility(DW_ACCESS_public)
    1433                            .dwattr $C$DW$76, DW_AT_decl_file("C:\TI_ARM_Tiva_Projects\Source\include\list.h")
    1434                            .dwattr $C$DW$76, DW_AT_decl_line(0xbc)
    1435                            .dwattr $C$DW$76, DW_AT_decl_column(0x1d)
    1436                    
    1437                            .dwattr $C$DW$T$34, DW_AT_decl_file("C:\TI_ARM_Tiva_Projects\Source\include\list.h")
    1438                            .dwattr $C$DW$T$34, DW_AT_decl_line(0xb5)
    1439                            .dwattr $C$DW$T$34, DW_AT_decl_column(0x08)
    1440                            .dwendtag $C$DW$T$34
    1441                    
    1442                    $C$DW$T$28      .dwtag  DW_TAG_typedef
    1443                            .dwattr $C$DW$T$28, DW_AT_name("ListItem_t")
    1444                            .dwattr $C$DW$T$28, DW_AT_type(*$C$DW$T$34)
    1445                            .dwattr $C$DW$T$28, DW_AT_language(DW_LANG_C)
    1446                            .dwattr $C$DW$T$28, DW_AT_decl_file("C:\TI_ARM_Tiva_Projects\Source\include\list.h")
    1447                            .dwattr $C$DW$T$28, DW_AT_decl_line(0xbf)
    1448                            .dwattr $C$DW$T$28, DW_AT_decl_column(0x1b)
TI ARM Assembler PC v15.12.1 Thu Dec 01 14:00:53 2016

Tools Copyright (c) 1996-2015 Texas Instruments Incorporated
MagSwitch.asm                                                        PAGE   29

    1449                    
    1450                    $C$DW$T$29      .dwtag  DW_TAG_pointer_type
    1451                            .dwattr $C$DW$T$29, DW_AT_type(*$C$DW$T$28)
    1452                            .dwattr $C$DW$T$29, DW_AT_address_class(0x20)
    1453                    
    1454                    $C$DW$T$33      .dwtag  DW_TAG_pointer_type
    1455                            .dwattr $C$DW$T$33, DW_AT_type(*$C$DW$T$34)
    1456                            .dwattr $C$DW$T$33, DW_AT_address_class(0x20)
    1457                    
    1458                    
    1459                    $C$DW$T$35      .dwtag  DW_TAG_structure_type
    1460                            .dwattr $C$DW$T$35, DW_AT_name("xMEMORY_REGION")
    1461                            .dwattr $C$DW$T$35, DW_AT_byte_size(0x0c)
    1462                    $C$DW$77        .dwtag  DW_TAG_member
    1463                            .dwattr $C$DW$77, DW_AT_type(*$C$DW$T$3)
    1464                            .dwattr $C$DW$77, DW_AT_name("pvBaseAddress")
    1465                            .dwattr $C$DW$77, DW_AT_TI_symbol_name("pvBaseAddress")
    1466                            .dwattr $C$DW$77, DW_AT_data_member_location[DW_OP_plus_uconst 0x0]
    1467                            .dwattr $C$DW$77, DW_AT_accessibility(DW_ACCESS_public)
    1468                            .dwattr $C$DW$77, DW_AT_decl_file("C:/TI_ARM_Tiva_Projects/Source/include/task.h")
    1469                            .dwattr $C$DW$77, DW_AT_decl_line(0x91)
    1470                            .dwattr $C$DW$77, DW_AT_decl_column(0x08)
    1471                    
    1472                    $C$DW$78        .dwtag  DW_TAG_member
    1473                            .dwattr $C$DW$78, DW_AT_type(*$C$DW$T$26)
    1474                            .dwattr $C$DW$78, DW_AT_name("ulLengthInBytes")
    1475                            .dwattr $C$DW$78, DW_AT_TI_symbol_name("ulLengthInBytes")
    1476                            .dwattr $C$DW$78, DW_AT_data_member_location[DW_OP_plus_uconst 0x4]
    1477                            .dwattr $C$DW$78, DW_AT_accessibility(DW_ACCESS_public)
    1478                            .dwattr $C$DW$78, DW_AT_decl_file("C:/TI_ARM_Tiva_Projects/Source/include/task.h")
    1479                            .dwattr $C$DW$78, DW_AT_decl_line(0x92)
    1480                            .dwattr $C$DW$78, DW_AT_decl_column(0x0b)
    1481                    
    1482                    $C$DW$79        .dwtag  DW_TAG_member
    1483                            .dwattr $C$DW$79, DW_AT_type(*$C$DW$T$26)
    1484                            .dwattr $C$DW$79, DW_AT_name("ulParameters")
    1485                            .dwattr $C$DW$79, DW_AT_TI_symbol_name("ulParameters")
    1486                            .dwattr $C$DW$79, DW_AT_data_member_location[DW_OP_plus_uconst 0x8]
    1487                            .dwattr $C$DW$79, DW_AT_accessibility(DW_ACCESS_public)
    1488                            .dwattr $C$DW$79, DW_AT_decl_file("C:/TI_ARM_Tiva_Projects/Source/include/task.h")
    1489                            .dwattr $C$DW$79, DW_AT_decl_line(0x93)
    1490                            .dwattr $C$DW$79, DW_AT_decl_column(0x0b)
    1491                    
    1492                            .dwattr $C$DW$T$35, DW_AT_decl_file("C:/TI_ARM_Tiva_Projects/Source/include/task.h")
    1493                            .dwattr $C$DW$T$35, DW_AT_decl_line(0x8f)
    1494                            .dwattr $C$DW$T$35, DW_AT_decl_column(0x10)
    1495                            .dwendtag $C$DW$T$35
    1496                    
    1497                    $C$DW$T$47      .dwtag  DW_TAG_typedef
    1498                            .dwattr $C$DW$T$47, DW_AT_name("MemoryRegion_t")
    1499                            .dwattr $C$DW$T$47, DW_AT_type(*$C$DW$T$35)
    1500                            .dwattr $C$DW$T$47, DW_AT_language(DW_LANG_C)
    1501                            .dwattr $C$DW$T$47, DW_AT_decl_file("C:/TI_ARM_Tiva_Projects/Source/include/task.h")
    1502                            .dwattr $C$DW$T$47, DW_AT_decl_line(0x94)
    1503                            .dwattr $C$DW$T$47, DW_AT_decl_column(0x03)
TI ARM Assembler PC v15.12.1 Thu Dec 01 14:00:53 2016

Tools Copyright (c) 1996-2015 Texas Instruments Incorporated
MagSwitch.asm                                                        PAGE   30

    1504                    
    1505                    
    1506                    $C$DW$T$48      .dwtag  DW_TAG_array_type
    1507                            .dwattr $C$DW$T$48, DW_AT_type(*$C$DW$T$47)
    1508                            .dwattr $C$DW$T$48, DW_AT_language(DW_LANG_C)
    1509                            .dwattr $C$DW$T$48, DW_AT_byte_size(0x0c)
    1510                    $C$DW$80        .dwtag  DW_TAG_subrange_type
    1511                            .dwattr $C$DW$80, DW_AT_upper_bound(0x00)
    1512                    
    1513                            .dwendtag $C$DW$T$48
    1514                    
    1515                    
    1516                    $C$DW$T$36      .dwtag  DW_TAG_structure_type
    1517                            .dwattr $C$DW$T$36, DW_AT_name("xMINI_LIST_ITEM")
    1518                            .dwattr $C$DW$T$36, DW_AT_byte_size(0x0c)
    1519                    $C$DW$81        .dwtag  DW_TAG_member
    1520                            .dwattr $C$DW$81, DW_AT_type(*$C$DW$T$32)
    1521                            .dwattr $C$DW$81, DW_AT_name("xItemValue")
    1522                            .dwattr $C$DW$81, DW_AT_TI_symbol_name("xItemValue")
    1523                            .dwattr $C$DW$81, DW_AT_data_member_location[DW_OP_plus_uconst 0x0]
    1524                            .dwattr $C$DW$81, DW_AT_accessibility(DW_ACCESS_public)
    1525                            .dwattr $C$DW$81, DW_AT_decl_file("C:\TI_ARM_Tiva_Projects\Source\include\list.h")
    1526                            .dwattr $C$DW$81, DW_AT_decl_line(0xc4)
    1527                            .dwattr $C$DW$81, DW_AT_decl_column(0x21)
    1528                    
    1529                    $C$DW$82        .dwtag  DW_TAG_member
    1530                            .dwattr $C$DW$82, DW_AT_type(*$C$DW$T$33)
    1531                            .dwattr $C$DW$82, DW_AT_name("pxNext")
    1532                            .dwattr $C$DW$82, DW_AT_TI_symbol_name("pxNext")
    1533                            .dwattr $C$DW$82, DW_AT_data_member_location[DW_OP_plus_uconst 0x4]
    1534                            .dwattr $C$DW$82, DW_AT_accessibility(DW_ACCESS_public)
    1535                            .dwattr $C$DW$82, DW_AT_decl_file("C:\TI_ARM_Tiva_Projects\Source\include\list.h")
    1536                            .dwattr $C$DW$82, DW_AT_decl_line(0xc5)
    1537                            .dwattr $C$DW$82, DW_AT_decl_column(0x2a)
    1538                    
    1539                    $C$DW$83        .dwtag  DW_TAG_member
    1540                            .dwattr $C$DW$83, DW_AT_type(*$C$DW$T$33)
    1541                            .dwattr $C$DW$83, DW_AT_name("pxPrevious")
    1542                            .dwattr $C$DW$83, DW_AT_TI_symbol_name("pxPrevious")
    1543                            .dwattr $C$DW$83, DW_AT_data_member_location[DW_OP_plus_uconst 0x8]
    1544                            .dwattr $C$DW$83, DW_AT_accessibility(DW_ACCESS_public)
    1545                            .dwattr $C$DW$83, DW_AT_decl_file("C:\TI_ARM_Tiva_Projects\Source\include\list.h")
    1546                            .dwattr $C$DW$83, DW_AT_decl_line(0xc6)
    1547                            .dwattr $C$DW$83, DW_AT_decl_column(0x2a)
    1548                    
    1549                            .dwattr $C$DW$T$36, DW_AT_decl_file("C:\TI_ARM_Tiva_Projects\Source\include\list.h")
    1550                            .dwattr $C$DW$T$36, DW_AT_decl_line(0xc1)
    1551                            .dwattr $C$DW$T$36, DW_AT_decl_column(0x08)
    1552                            .dwendtag $C$DW$T$36
    1553                    
    1554                    $C$DW$T$30      .dwtag  DW_TAG_typedef
    1555                            .dwattr $C$DW$T$30, DW_AT_name("MiniListItem_t")
    1556                            .dwattr $C$DW$T$30, DW_AT_type(*$C$DW$T$36)
    1557                            .dwattr $C$DW$T$30, DW_AT_language(DW_LANG_C)
    1558                            .dwattr $C$DW$T$30, DW_AT_decl_file("C:\TI_ARM_Tiva_Projects\Source\include\list.h")
TI ARM Assembler PC v15.12.1 Thu Dec 01 14:00:53 2016

Tools Copyright (c) 1996-2015 Texas Instruments Incorporated
MagSwitch.asm                                                        PAGE   31

    1559                            .dwattr $C$DW$T$30, DW_AT_decl_line(0xc8)
    1560                            .dwattr $C$DW$T$30, DW_AT_decl_column(0x20)
    1561                    
    1562                    
    1563                    $C$DW$T$49      .dwtag  DW_TAG_structure_type
    1564                            .dwattr $C$DW$T$49, DW_AT_name("xTASK_PARAMETERS")
    1565                            .dwattr $C$DW$T$49, DW_AT_byte_size(0x24)
    1566                    $C$DW$84        .dwtag  DW_TAG_member
    1567                            .dwattr $C$DW$84, DW_AT_type(*$C$DW$T$39)
    1568                            .dwattr $C$DW$84, DW_AT_name("pvTaskCode")
    1569                            .dwattr $C$DW$84, DW_AT_TI_symbol_name("pvTaskCode")
    1570                            .dwattr $C$DW$84, DW_AT_data_member_location[DW_OP_plus_uconst 0x0]
    1571                            .dwattr $C$DW$84, DW_AT_accessibility(DW_ACCESS_public)
    1572                            .dwattr $C$DW$84, DW_AT_decl_file("C:/TI_ARM_Tiva_Projects/Source/include/task.h")
    1573                            .dwattr $C$DW$84, DW_AT_decl_line(0x9b)
    1574                            .dwattr $C$DW$84, DW_AT_decl_column(0x11)
    1575                    
    1576                    $C$DW$85        .dwtag  DW_TAG_member
    1577                            .dwattr $C$DW$85, DW_AT_type(*$C$DW$T$43)
    1578                            .dwattr $C$DW$85, DW_AT_name("pcName")
    1579                            .dwattr $C$DW$85, DW_AT_TI_symbol_name("pcName")
    1580                            .dwattr $C$DW$85, DW_AT_data_member_location[DW_OP_plus_uconst 0x4]
    1581                            .dwattr $C$DW$85, DW_AT_accessibility(DW_ACCESS_public)
    1582                            .dwattr $C$DW$85, DW_AT_decl_file("C:/TI_ARM_Tiva_Projects/Source/include/task.h")
    1583                            .dwattr $C$DW$85, DW_AT_decl_line(0x9c)
    1584                            .dwattr $C$DW$85, DW_AT_decl_column(0x15)
    1585                    
    1586                    $C$DW$86        .dwtag  DW_TAG_member
    1587                            .dwattr $C$DW$86, DW_AT_type(*$C$DW$T$44)
    1588                            .dwattr $C$DW$86, DW_AT_name("usStackDepth")
    1589                            .dwattr $C$DW$86, DW_AT_TI_symbol_name("usStackDepth")
    1590                            .dwattr $C$DW$86, DW_AT_data_member_location[DW_OP_plus_uconst 0x8]
    1591                            .dwattr $C$DW$86, DW_AT_accessibility(DW_ACCESS_public)
    1592                            .dwattr $C$DW$86, DW_AT_decl_file("C:/TI_ARM_Tiva_Projects/Source/include/task.h")
    1593                            .dwattr $C$DW$86, DW_AT_decl_line(0x9d)
    1594                            .dwattr $C$DW$86, DW_AT_decl_column(0x0b)
    1595                    
    1596                    $C$DW$87        .dwtag  DW_TAG_member
    1597                            .dwattr $C$DW$87, DW_AT_type(*$C$DW$T$3)
    1598                            .dwattr $C$DW$87, DW_AT_name("pvParameters")
    1599                            .dwattr $C$DW$87, DW_AT_TI_symbol_name("pvParameters")
    1600                            .dwattr $C$DW$87, DW_AT_data_member_location[DW_OP_plus_uconst 0xc]
    1601                            .dwattr $C$DW$87, DW_AT_accessibility(DW_ACCESS_public)
    1602                            .dwattr $C$DW$87, DW_AT_decl_file("C:/TI_ARM_Tiva_Projects/Source/include/task.h")
    1603                            .dwattr $C$DW$87, DW_AT_decl_line(0x9e)
    1604                            .dwattr $C$DW$87, DW_AT_decl_column(0x08)
    1605                    
    1606                    $C$DW$88        .dwtag  DW_TAG_member
    1607                            .dwattr $C$DW$88, DW_AT_type(*$C$DW$T$27)
    1608                            .dwattr $C$DW$88, DW_AT_name("uxPriority")
    1609                            .dwattr $C$DW$88, DW_AT_TI_symbol_name("uxPriority")
    1610                            .dwattr $C$DW$88, DW_AT_data_member_location[DW_OP_plus_uconst 0x10]
    1611                            .dwattr $C$DW$88, DW_AT_accessibility(DW_ACCESS_public)
    1612                            .dwattr $C$DW$88, DW_AT_decl_file("C:/TI_ARM_Tiva_Projects/Source/include/task.h")
    1613                            .dwattr $C$DW$88, DW_AT_decl_line(0x9f)
TI ARM Assembler PC v15.12.1 Thu Dec 01 14:00:53 2016

Tools Copyright (c) 1996-2015 Texas Instruments Incorporated
MagSwitch.asm                                                        PAGE   32

    1614                            .dwattr $C$DW$88, DW_AT_decl_column(0x0e)
    1615                    
    1616                    $C$DW$89        .dwtag  DW_TAG_member
    1617                            .dwattr $C$DW$89, DW_AT_type(*$C$DW$T$46)
    1618                            .dwattr $C$DW$89, DW_AT_name("puxStackBuffer")
    1619                            .dwattr $C$DW$89, DW_AT_TI_symbol_name("puxStackBuffer")
    1620                            .dwattr $C$DW$89, DW_AT_data_member_location[DW_OP_plus_uconst 0x14]
    1621                            .dwattr $C$DW$89, DW_AT_accessibility(DW_ACCESS_public)
    1622                            .dwattr $C$DW$89, DW_AT_decl_file("C:/TI_ARM_Tiva_Projects/Source/include/task.h")
    1623                            .dwattr $C$DW$89, DW_AT_decl_line(0xa0)
    1624                            .dwattr $C$DW$89, DW_AT_decl_column(0x0f)
    1625                    
    1626                    $C$DW$90        .dwtag  DW_TAG_member
    1627                            .dwattr $C$DW$90, DW_AT_type(*$C$DW$T$48)
    1628                            .dwattr $C$DW$90, DW_AT_name("xRegions")
    1629                            .dwattr $C$DW$90, DW_AT_TI_symbol_name("xRegions")
    1630                            .dwattr $C$DW$90, DW_AT_data_member_location[DW_OP_plus_uconst 0x18]
    1631                            .dwattr $C$DW$90, DW_AT_accessibility(DW_ACCESS_public)
    1632                            .dwattr $C$DW$90, DW_AT_decl_file("C:/TI_ARM_Tiva_Projects/Source/include/task.h")
    1633                            .dwattr $C$DW$90, DW_AT_decl_line(0xa1)
    1634                            .dwattr $C$DW$90, DW_AT_decl_column(0x11)
    1635                    
    1636                            .dwattr $C$DW$T$49, DW_AT_decl_file("C:/TI_ARM_Tiva_Projects/Source/include/task.h")
    1637                            .dwattr $C$DW$T$49, DW_AT_decl_line(0x99)
    1638                            .dwattr $C$DW$T$49, DW_AT_decl_column(0x10)
    1639                            .dwendtag $C$DW$T$49
    1640                    
    1641                    $C$DW$T$126     .dwtag  DW_TAG_typedef
    1642                            .dwattr $C$DW$T$126, DW_AT_name("TaskParameters_t")
    1643                            .dwattr $C$DW$T$126, DW_AT_type(*$C$DW$T$49)
    1644                            .dwattr $C$DW$T$126, DW_AT_language(DW_LANG_C)
    1645                            .dwattr $C$DW$T$126, DW_AT_decl_file("C:/TI_ARM_Tiva_Projects/Source/include/task.h")
    1646                            .dwattr $C$DW$T$126, DW_AT_decl_line(0xa2)
    1647                            .dwattr $C$DW$T$126, DW_AT_decl_column(0x03)
    1648                    
    1649                    
    1650                    $C$DW$T$53      .dwtag  DW_TAG_structure_type
    1651                            .dwattr $C$DW$T$53, DW_AT_name("xTASK_STATUS")
    1652                            .dwattr $C$DW$T$53, DW_AT_byte_size(0x20)
    1653                    $C$DW$91        .dwtag  DW_TAG_member
    1654                            .dwattr $C$DW$91, DW_AT_type(*$C$DW$T$50)
    1655                            .dwattr $C$DW$91, DW_AT_name("xHandle")
    1656                            .dwattr $C$DW$91, DW_AT_TI_symbol_name("xHandle")
    1657                            .dwattr $C$DW$91, DW_AT_data_member_location[DW_OP_plus_uconst 0x0]
    1658                            .dwattr $C$DW$91, DW_AT_accessibility(DW_ACCESS_public)
    1659                            .dwattr $C$DW$91, DW_AT_decl_file("C:/TI_ARM_Tiva_Projects/Source/include/task.h")
    1660                            .dwattr $C$DW$91, DW_AT_decl_line(0xa8)
    1661                            .dwattr $C$DW$91, DW_AT_decl_column(0x0f)
    1662                    
    1663                    $C$DW$92        .dwtag  DW_TAG_member
    1664                            .dwattr $C$DW$92, DW_AT_type(*$C$DW$T$42)
    1665                            .dwattr $C$DW$92, DW_AT_name("pcTaskName")
    1666                            .dwattr $C$DW$92, DW_AT_TI_symbol_name("pcTaskName")
    1667                            .dwattr $C$DW$92, DW_AT_data_member_location[DW_OP_plus_uconst 0x4]
    1668                            .dwattr $C$DW$92, DW_AT_accessibility(DW_ACCESS_public)
TI ARM Assembler PC v15.12.1 Thu Dec 01 14:00:53 2016

Tools Copyright (c) 1996-2015 Texas Instruments Incorporated
MagSwitch.asm                                                        PAGE   33

    1669                            .dwattr $C$DW$92, DW_AT_decl_file("C:/TI_ARM_Tiva_Projects/Source/include/task.h")
    1670                            .dwattr $C$DW$92, DW_AT_decl_line(0xa9)
    1671                            .dwattr $C$DW$92, DW_AT_decl_column(0x0e)
    1672                    
    1673                    $C$DW$93        .dwtag  DW_TAG_member
    1674                            .dwattr $C$DW$93, DW_AT_type(*$C$DW$T$27)
    1675                            .dwattr $C$DW$93, DW_AT_name("xTaskNumber")
    1676                            .dwattr $C$DW$93, DW_AT_TI_symbol_name("xTaskNumber")
    1677                            .dwattr $C$DW$93, DW_AT_data_member_location[DW_OP_plus_uconst 0x8]
    1678                            .dwattr $C$DW$93, DW_AT_accessibility(DW_ACCESS_public)
    1679                            .dwattr $C$DW$93, DW_AT_decl_file("C:/TI_ARM_Tiva_Projects/Source/include/task.h")
    1680                            .dwattr $C$DW$93, DW_AT_decl_line(0xaa)
    1681                            .dwattr $C$DW$93, DW_AT_decl_column(0x0e)
    1682                    
    1683                    $C$DW$94        .dwtag  DW_TAG_member
    1684                            .dwattr $C$DW$94, DW_AT_type(*$C$DW$T$52)
    1685                            .dwattr $C$DW$94, DW_AT_name("eCurrentState")
    1686                            .dwattr $C$DW$94, DW_AT_TI_symbol_name("eCurrentState")
    1687                            .dwattr $C$DW$94, DW_AT_data_member_location[DW_OP_plus_uconst 0xc]
    1688                            .dwattr $C$DW$94, DW_AT_accessibility(DW_ACCESS_public)
    1689                            .dwattr $C$DW$94, DW_AT_decl_file("C:/TI_ARM_Tiva_Projects/Source/include/task.h")
    1690                            .dwattr $C$DW$94, DW_AT_decl_line(0xab)
    1691                            .dwattr $C$DW$94, DW_AT_decl_column(0x0d)
    1692                    
    1693                    $C$DW$95        .dwtag  DW_TAG_member
    1694                            .dwattr $C$DW$95, DW_AT_type(*$C$DW$T$27)
    1695                            .dwattr $C$DW$95, DW_AT_name("uxCurrentPriority")
    1696                            .dwattr $C$DW$95, DW_AT_TI_symbol_name("uxCurrentPriority")
    1697                            .dwattr $C$DW$95, DW_AT_data_member_location[DW_OP_plus_uconst 0x10]
    1698                            .dwattr $C$DW$95, DW_AT_accessibility(DW_ACCESS_public)
    1699                            .dwattr $C$DW$95, DW_AT_decl_file("C:/TI_ARM_Tiva_Projects/Source/include/task.h")
    1700                            .dwattr $C$DW$95, DW_AT_decl_line(0xac)
    1701                            .dwattr $C$DW$95, DW_AT_decl_column(0x0e)
    1702                    
    1703                    $C$DW$96        .dwtag  DW_TAG_member
    1704                            .dwattr $C$DW$96, DW_AT_type(*$C$DW$T$27)
    1705                            .dwattr $C$DW$96, DW_AT_name("uxBasePriority")
    1706                            .dwattr $C$DW$96, DW_AT_TI_symbol_name("uxBasePriority")
    1707                            .dwattr $C$DW$96, DW_AT_data_member_location[DW_OP_plus_uconst 0x14]
    1708                            .dwattr $C$DW$96, DW_AT_accessibility(DW_ACCESS_public)
    1709                            .dwattr $C$DW$96, DW_AT_decl_file("C:/TI_ARM_Tiva_Projects/Source/include/task.h")
    1710                            .dwattr $C$DW$96, DW_AT_decl_line(0xad)
    1711                            .dwattr $C$DW$96, DW_AT_decl_column(0x0e)
    1712                    
    1713                    $C$DW$97        .dwtag  DW_TAG_member
    1714                            .dwattr $C$DW$97, DW_AT_type(*$C$DW$T$26)
    1715                            .dwattr $C$DW$97, DW_AT_name("ulRunTimeCounter")
    1716                            .dwattr $C$DW$97, DW_AT_TI_symbol_name("ulRunTimeCounter")
    1717                            .dwattr $C$DW$97, DW_AT_data_member_location[DW_OP_plus_uconst 0x18]
    1718                            .dwattr $C$DW$97, DW_AT_accessibility(DW_ACCESS_public)
    1719                            .dwattr $C$DW$97, DW_AT_decl_file("C:/TI_ARM_Tiva_Projects/Source/include/task.h")
    1720                            .dwattr $C$DW$97, DW_AT_decl_line(0xae)
    1721                            .dwattr $C$DW$97, DW_AT_decl_column(0x0b)
    1722                    
    1723                    $C$DW$98        .dwtag  DW_TAG_member
TI ARM Assembler PC v15.12.1 Thu Dec 01 14:00:53 2016

Tools Copyright (c) 1996-2015 Texas Instruments Incorporated
MagSwitch.asm                                                        PAGE   34

    1724                            .dwattr $C$DW$98, DW_AT_type(*$C$DW$T$44)
    1725                            .dwattr $C$DW$98, DW_AT_name("usStackHighWaterMark")
    1726                            .dwattr $C$DW$98, DW_AT_TI_symbol_name("usStackHighWaterMark")
    1727                            .dwattr $C$DW$98, DW_AT_data_member_location[DW_OP_plus_uconst 0x1c]
    1728                            .dwattr $C$DW$98, DW_AT_accessibility(DW_ACCESS_public)
    1729                            .dwattr $C$DW$98, DW_AT_decl_file("C:/TI_ARM_Tiva_Projects/Source/include/task.h")
    1730                            .dwattr $C$DW$98, DW_AT_decl_line(0xaf)
    1731                            .dwattr $C$DW$98, DW_AT_decl_column(0x0b)
    1732                    
    1733                            .dwattr $C$DW$T$53, DW_AT_decl_file("C:/TI_ARM_Tiva_Projects/Source/include/task.h")
    1734                            .dwattr $C$DW$T$53, DW_AT_decl_line(0xa6)
    1735                            .dwattr $C$DW$T$53, DW_AT_decl_column(0x10)
    1736                            .dwendtag $C$DW$T$53
    1737                    
    1738                    $C$DW$T$127     .dwtag  DW_TAG_typedef
    1739                            .dwattr $C$DW$T$127, DW_AT_name("TaskStatus_t")
    1740                            .dwattr $C$DW$T$127, DW_AT_type(*$C$DW$T$53)
    1741                            .dwattr $C$DW$T$127, DW_AT_language(DW_LANG_C)
    1742                            .dwattr $C$DW$T$127, DW_AT_decl_file("C:/TI_ARM_Tiva_Projects/Source/include/task.h")
    1743                            .dwattr $C$DW$T$127, DW_AT_decl_line(0xb0)
    1744                            .dwattr $C$DW$T$127, DW_AT_decl_column(0x03)
    1745                    
    1746                    
    1747                    $C$DW$T$56      .dwtag  DW_TAG_structure_type
    1748                            .dwattr $C$DW$T$56, DW_AT_name("xTIME_OUT")
    1749                            .dwattr $C$DW$T$56, DW_AT_byte_size(0x08)
    1750                    $C$DW$99        .dwtag  DW_TAG_member
    1751                            .dwattr $C$DW$99, DW_AT_type(*$C$DW$T$55)
    1752                            .dwattr $C$DW$99, DW_AT_name("xOverflowCount")
    1753                            .dwattr $C$DW$99, DW_AT_TI_symbol_name("xOverflowCount")
    1754                            .dwattr $C$DW$99, DW_AT_data_member_location[DW_OP_plus_uconst 0x0]
    1755                            .dwattr $C$DW$99, DW_AT_accessibility(DW_ACCESS_public)
    1756                            .dwattr $C$DW$99, DW_AT_decl_file("C:/TI_ARM_Tiva_Projects/Source/include/task.h")
    1757                            .dwattr $C$DW$99, DW_AT_decl_line(0x88)
    1758                            .dwattr $C$DW$99, DW_AT_decl_column(0x0d)
    1759                    
    1760                    $C$DW$100       .dwtag  DW_TAG_member
    1761                            .dwattr $C$DW$100, DW_AT_type(*$C$DW$T$32)
    1762                            .dwattr $C$DW$100, DW_AT_name("xTimeOnEntering")
    1763                            .dwattr $C$DW$100, DW_AT_TI_symbol_name("xTimeOnEntering")
    1764                            .dwattr $C$DW$100, DW_AT_data_member_location[DW_OP_plus_uconst 0x4]
    1765                            .dwattr $C$DW$100, DW_AT_accessibility(DW_ACCESS_public)
    1766                            .dwattr $C$DW$100, DW_AT_decl_file("C:/TI_ARM_Tiva_Projects/Source/include/task.h")
    1767                            .dwattr $C$DW$100, DW_AT_decl_line(0x89)
    1768                            .dwattr $C$DW$100, DW_AT_decl_column(0x0d)
    1769                    
    1770                            .dwattr $C$DW$T$56, DW_AT_decl_file("C:/TI_ARM_Tiva_Projects/Source/include/task.h")
    1771                            .dwattr $C$DW$T$56, DW_AT_decl_line(0x86)
    1772                            .dwattr $C$DW$T$56, DW_AT_decl_column(0x10)
    1773                            .dwendtag $C$DW$T$56
    1774                    
    1775                    $C$DW$T$128     .dwtag  DW_TAG_typedef
    1776                            .dwattr $C$DW$T$128, DW_AT_name("TimeOut_t")
    1777                            .dwattr $C$DW$T$128, DW_AT_type(*$C$DW$T$56)
    1778                            .dwattr $C$DW$T$128, DW_AT_language(DW_LANG_C)
TI ARM Assembler PC v15.12.1 Thu Dec 01 14:00:53 2016

Tools Copyright (c) 1996-2015 Texas Instruments Incorporated
MagSwitch.asm                                                        PAGE   35

    1779                            .dwattr $C$DW$T$128, DW_AT_decl_file("C:/TI_ARM_Tiva_Projects/Source/include/task.h")
    1780                            .dwattr $C$DW$T$128, DW_AT_decl_line(0x8a)
    1781                            .dwattr $C$DW$T$128, DW_AT_decl_column(0x03)
    1782                    
    1783                            .dwattr $C$DW$CU, DW_AT_language(DW_LANG_C)
    1784                    
    1785                    ;***************************************************************
    1786                    ;* DWARF CIE ENTRIES                                           *
    1787                    ;***************************************************************
    1788                    
    1789                    $C$DW$CIE       .dwcie 14
    1790                            .dwcfi  cfa_register, 13
    1791                            .dwcfi  cfa_offset, 0
    1792                            .dwcfi  undefined, 0
    1793                            .dwcfi  undefined, 1
    1794                            .dwcfi  undefined, 2
    1795                            .dwcfi  undefined, 3
    1796                            .dwcfi  same_value, 4
    1797                            .dwcfi  same_value, 5
    1798                            .dwcfi  same_value, 6
    1799                            .dwcfi  same_value, 7
    1800                            .dwcfi  same_value, 8
    1801                            .dwcfi  same_value, 9
    1802                            .dwcfi  same_value, 10
    1803                            .dwcfi  same_value, 11
    1804                            .dwcfi  undefined, 12
    1805                            .dwcfi  undefined, 13
    1806                            .dwcfi  undefined, 14
    1807                            .dwcfi  undefined, 14
    1808                            .dwcfi  undefined, 7
    1809                            .dwcfi  undefined, 64
    1810                            .dwcfi  undefined, 65
    1811                            .dwcfi  undefined, 66
    1812                            .dwcfi  undefined, 67
    1813                            .dwcfi  undefined, 68
    1814                            .dwcfi  undefined, 69
    1815                            .dwcfi  undefined, 70
    1816                            .dwcfi  undefined, 71
    1817                            .dwcfi  undefined, 72
    1818                            .dwcfi  undefined, 73
    1819                            .dwcfi  undefined, 74
    1820                            .dwcfi  undefined, 75
    1821                            .dwcfi  undefined, 76
    1822                            .dwcfi  undefined, 77
    1823                            .dwcfi  undefined, 78
    1824                            .dwcfi  undefined, 79
    1825                            .dwcfi  same_value, 80
    1826                            .dwcfi  same_value, 81
    1827                            .dwcfi  same_value, 82
    1828                            .dwcfi  same_value, 83
    1829                            .dwcfi  same_value, 84
    1830                            .dwcfi  same_value, 85
    1831                            .dwcfi  same_value, 86
    1832                            .dwcfi  same_value, 87
    1833                            .dwcfi  same_value, 88
TI ARM Assembler PC v15.12.1 Thu Dec 01 14:00:53 2016

Tools Copyright (c) 1996-2015 Texas Instruments Incorporated
MagSwitch.asm                                                        PAGE   36

    1834                            .dwcfi  same_value, 89
    1835                            .dwcfi  same_value, 90
    1836                            .dwcfi  same_value, 91
    1837                            .dwcfi  same_value, 92
    1838                            .dwcfi  same_value, 93
    1839                            .dwcfi  same_value, 94
    1840                            .dwcfi  same_value, 95
    1841                            .dwendentry
    1842                            .dwendtag $C$DW$CU
    1843                    

--------------------------
Thumb2 Statistics
--------------------------
Number of Thumb2 ins converted to Thumb = 0 (0%)
Number of Thumb ins in input = 59 (79%)
Number of Thumb2 ins encoded as Thumb2 = 15 (100%)
Number of Thumb2 ins converted to 2 OPND Thumb = 0


No Assembly Errors, No Assembly Warnings
