TI ARM Assembler PC v15.12.3 Wed Sep 14 21:38:55 2016

Tools Copyright (c) 1996-2015 Texas Instruments Incorporated
Task_TimerInterrupt.asm                                              PAGE    1

       1                    ;******************************************************************************
       2                    ;* TI ARM C/C++ Codegen                                       PC v15.12.3.LTS *
       3                    ;* Date/Time created: Wed Sep 14 21:38:55 2016                                *
       4                    ;******************************************************************************
       5                            .compiler_opts --abi=eabi --arm_vmrs_si_workaround=off --code_state=16 --diag_wrap=off --disab
       6 00000000                   .thumb
       7                    
       8                    $C$DW$CU        .dwtag  DW_TAG_compile_unit
       9                            .dwattr $C$DW$CU, DW_AT_name("../Tasks/Task_TimerInterrupt.c")
      10                            .dwattr $C$DW$CU, DW_AT_producer("TI TI ARM C/C++ Codegen PC v15.12.3.LTS Copyright (c) 1996-2
      11                            .dwattr $C$DW$CU, DW_AT_TI_version(0x01)
      12                            .dwattr $C$DW$CU, DW_AT_comp_dir("F:\eecs690\TI_ARM_Tiva_Projects\FreeRTOS82_TM4C1294_Base\Deb
      13                    
      14                    $C$DW$1 .dwtag  DW_TAG_subprogram
      15                            .dwattr $C$DW$1, DW_AT_name("SysCtlPeripheralEnable")
      16                            .dwattr $C$DW$1, DW_AT_TI_symbol_name("SysCtlPeripheralEnable")
      17                            .dwattr $C$DW$1, DW_AT_declaration
      18                            .dwattr $C$DW$1, DW_AT_external
      19                            .dwattr $C$DW$1, DW_AT_decl_file("C:/TI_CodeComposer/TivaWare/driverlib/sysctl.h")
      20                            .dwattr $C$DW$1, DW_AT_decl_line(0x24e)
      21                            .dwattr $C$DW$1, DW_AT_decl_column(0x0d)
      22                    $C$DW$2 .dwtag  DW_TAG_formal_parameter
      23                            .dwattr $C$DW$2, DW_AT_type(*$C$DW$T$24)
      24                    
      25                            .dwendtag $C$DW$1
      26                    
      27                    
      28                    $C$DW$3 .dwtag  DW_TAG_subprogram
      29                            .dwattr $C$DW$3, DW_AT_name("TimerEnable")
      30                            .dwattr $C$DW$3, DW_AT_TI_symbol_name("TimerEnable")
      31                            .dwattr $C$DW$3, DW_AT_declaration
      32                            .dwattr $C$DW$3, DW_AT_external
      33                            .dwattr $C$DW$3, DW_AT_decl_file("C:/TI_CodeComposer/TivaWare/driverlib/timer.h")
      34                            .dwattr $C$DW$3, DW_AT_decl_line(0xf3)
      35                            .dwattr $C$DW$3, DW_AT_decl_column(0x0d)
      36                    $C$DW$4 .dwtag  DW_TAG_formal_parameter
      37                            .dwattr $C$DW$4, DW_AT_type(*$C$DW$T$24)
      38                    
      39                    $C$DW$5 .dwtag  DW_TAG_formal_parameter
      40                            .dwattr $C$DW$5, DW_AT_type(*$C$DW$T$24)
      41                    
      42                            .dwendtag $C$DW$3
      43                    
      44                    
      45                    $C$DW$6 .dwtag  DW_TAG_subprogram
      46                            .dwattr $C$DW$6, DW_AT_name("TimerConfigure")
      47                            .dwattr $C$DW$6, DW_AT_TI_symbol_name("TimerConfigure")
      48                            .dwattr $C$DW$6, DW_AT_declaration
      49                            .dwattr $C$DW$6, DW_AT_external
      50                            .dwattr $C$DW$6, DW_AT_decl_file("C:/TI_CodeComposer/TivaWare/driverlib/timer.h")
      51                            .dwattr $C$DW$6, DW_AT_decl_line(0xf5)
      52                            .dwattr $C$DW$6, DW_AT_decl_column(0x0d)
      53                    $C$DW$7 .dwtag  DW_TAG_formal_parameter
      54                            .dwattr $C$DW$7, DW_AT_type(*$C$DW$T$24)
      55                    
TI ARM Assembler PC v15.12.3 Wed Sep 14 21:38:55 2016

Tools Copyright (c) 1996-2015 Texas Instruments Incorporated
Task_TimerInterrupt.asm                                              PAGE    2

      56                    $C$DW$8 .dwtag  DW_TAG_formal_parameter
      57                            .dwattr $C$DW$8, DW_AT_type(*$C$DW$T$24)
      58                    
      59                            .dwendtag $C$DW$6
      60                    
      61                    
      62                    $C$DW$9 .dwtag  DW_TAG_subprogram
      63                            .dwattr $C$DW$9, DW_AT_name("TimerPrescaleSet")
      64                            .dwattr $C$DW$9, DW_AT_TI_symbol_name("TimerPrescaleSet")
      65                            .dwattr $C$DW$9, DW_AT_declaration
      66                            .dwattr $C$DW$9, DW_AT_external
      67                            .dwattr $C$DW$9, DW_AT_decl_file("C:/TI_CodeComposer/TivaWare/driverlib/timer.h")
      68                            .dwattr $C$DW$9, DW_AT_decl_line(0x102)
      69                            .dwattr $C$DW$9, DW_AT_decl_column(0x0d)
      70                    $C$DW$10        .dwtag  DW_TAG_formal_parameter
      71                            .dwattr $C$DW$10, DW_AT_type(*$C$DW$T$24)
      72                    
      73                    $C$DW$11        .dwtag  DW_TAG_formal_parameter
      74                            .dwattr $C$DW$11, DW_AT_type(*$C$DW$T$24)
      75                    
      76                    $C$DW$12        .dwtag  DW_TAG_formal_parameter
      77                            .dwattr $C$DW$12, DW_AT_type(*$C$DW$T$24)
      78                    
      79                            .dwendtag $C$DW$9
      80                    
      81                    
      82                    $C$DW$13        .dwtag  DW_TAG_subprogram
      83                            .dwattr $C$DW$13, DW_AT_name("TimerLoadSet")
      84                            .dwattr $C$DW$13, DW_AT_TI_symbol_name("TimerLoadSet")
      85                            .dwattr $C$DW$13, DW_AT_declaration
      86                            .dwattr $C$DW$13, DW_AT_external
      87                            .dwattr $C$DW$13, DW_AT_decl_file("C:/TI_CodeComposer/TivaWare/driverlib/timer.h")
      88                            .dwattr $C$DW$13, DW_AT_decl_line(0x108)
      89                            .dwattr $C$DW$13, DW_AT_decl_column(0x0d)
      90                    $C$DW$14        .dwtag  DW_TAG_formal_parameter
      91                            .dwattr $C$DW$14, DW_AT_type(*$C$DW$T$24)
      92                    
      93                    $C$DW$15        .dwtag  DW_TAG_formal_parameter
      94                            .dwattr $C$DW$15, DW_AT_type(*$C$DW$T$24)
      95                    
      96                    $C$DW$16        .dwtag  DW_TAG_formal_parameter
      97                            .dwattr $C$DW$16, DW_AT_type(*$C$DW$T$24)
      98                    
      99                            .dwendtag $C$DW$13
     100                    
     101                    
     102                    $C$DW$17        .dwtag  DW_TAG_subprogram
     103                            .dwattr $C$DW$17, DW_AT_name("TimerIntEnable")
     104                            .dwattr $C$DW$17, DW_AT_TI_symbol_name("TimerIntEnable")
     105                            .dwattr $C$DW$17, DW_AT_declaration
     106                            .dwattr $C$DW$17, DW_AT_external
     107                            .dwattr $C$DW$17, DW_AT_decl_file("C:/TI_CodeComposer/TivaWare/driverlib/timer.h")
     108                            .dwattr $C$DW$17, DW_AT_decl_line(0x117)
     109                            .dwattr $C$DW$17, DW_AT_decl_column(0x0d)
     110                    $C$DW$18        .dwtag  DW_TAG_formal_parameter
TI ARM Assembler PC v15.12.3 Wed Sep 14 21:38:55 2016

Tools Copyright (c) 1996-2015 Texas Instruments Incorporated
Task_TimerInterrupt.asm                                              PAGE    3

     111                            .dwattr $C$DW$18, DW_AT_type(*$C$DW$T$24)
     112                    
     113                    $C$DW$19        .dwtag  DW_TAG_formal_parameter
     114                            .dwattr $C$DW$19, DW_AT_type(*$C$DW$T$24)
     115                    
     116                            .dwendtag $C$DW$17
     117                    
     118                    
     119                    $C$DW$20        .dwtag  DW_TAG_subprogram
     120                            .dwattr $C$DW$20, DW_AT_name("TimerIntClear")
     121                            .dwattr $C$DW$20, DW_AT_TI_symbol_name("TimerIntClear")
     122                            .dwattr $C$DW$20, DW_AT_declaration
     123                            .dwattr $C$DW$20, DW_AT_external
     124                            .dwattr $C$DW$20, DW_AT_decl_file("C:/TI_CodeComposer/TivaWare/driverlib/timer.h")
     125                            .dwattr $C$DW$20, DW_AT_decl_line(0x11a)
     126                            .dwattr $C$DW$20, DW_AT_decl_column(0x0d)
     127                    $C$DW$21        .dwtag  DW_TAG_formal_parameter
     128                            .dwattr $C$DW$21, DW_AT_type(*$C$DW$T$24)
     129                    
     130                    $C$DW$22        .dwtag  DW_TAG_formal_parameter
     131                            .dwattr $C$DW$22, DW_AT_type(*$C$DW$T$24)
     132                    
     133                            .dwendtag $C$DW$20
     134                    
     135                    
     136                    $C$DW$23        .dwtag  DW_TAG_subprogram
     137                            .dwattr $C$DW$23, DW_AT_name("xQueueGenericSend")
     138                            .dwattr $C$DW$23, DW_AT_TI_symbol_name("xQueueGenericSend")
     139                            .dwattr $C$DW$23, DW_AT_type(*$C$DW$T$53)
     140                            .dwattr $C$DW$23, DW_AT_declaration
     141                            .dwattr $C$DW$23, DW_AT_external
     142                            .dwattr $C$DW$23, DW_AT_decl_file("F:\eecs690\TI_ARM_Tiva_Projects\Source\include\queue.h")
     143                            .dwattr $C$DW$23, DW_AT_decl_line(0x250)
     144                            .dwattr $C$DW$23, DW_AT_decl_column(0x0c)
     145                    $C$DW$24        .dwtag  DW_TAG_formal_parameter
     146                            .dwattr $C$DW$24, DW_AT_type(*$C$DW$T$60)
     147                    
     148                    $C$DW$25        .dwtag  DW_TAG_formal_parameter
     149                            .dwattr $C$DW$25, DW_AT_type(*$C$DW$T$77)
     150                    
     151                    $C$DW$26        .dwtag  DW_TAG_formal_parameter
     152                            .dwattr $C$DW$26, DW_AT_type(*$C$DW$T$30)
     153                    
     154                    $C$DW$27        .dwtag  DW_TAG_formal_parameter
     155                            .dwattr $C$DW$27, DW_AT_type(*$C$DW$T$90)
     156                    
     157                            .dwendtag $C$DW$23
     158                    
     159                    
     160                    $C$DW$28        .dwtag  DW_TAG_subprogram
     161                            .dwattr $C$DW$28, DW_AT_name("xQueueGenericReceive")
     162                            .dwattr $C$DW$28, DW_AT_TI_symbol_name("xQueueGenericReceive")
     163                            .dwattr $C$DW$28, DW_AT_type(*$C$DW$T$53)
     164                            .dwattr $C$DW$28, DW_AT_declaration
     165                            .dwattr $C$DW$28, DW_AT_external
TI ARM Assembler PC v15.12.3 Wed Sep 14 21:38:55 2016

Tools Copyright (c) 1996-2015 Texas Instruments Incorporated
Task_TimerInterrupt.asm                                              PAGE    4

     166                            .dwattr $C$DW$28, DW_AT_decl_file("F:\eecs690\TI_ARM_Tiva_Projects\Source\include\queue.h")
     167                            .dwattr $C$DW$28, DW_AT_decl_line(0x391)
     168                            .dwattr $C$DW$28, DW_AT_decl_column(0x0c)
     169                    $C$DW$29        .dwtag  DW_TAG_formal_parameter
     170                            .dwattr $C$DW$29, DW_AT_type(*$C$DW$T$60)
     171                    
     172                    $C$DW$30        .dwtag  DW_TAG_formal_parameter
     173                            .dwattr $C$DW$30, DW_AT_type(*$C$DW$T$68)
     174                    
     175                    $C$DW$31        .dwtag  DW_TAG_formal_parameter
     176                            .dwattr $C$DW$31, DW_AT_type(*$C$DW$T$30)
     177                    
     178                    $C$DW$32        .dwtag  DW_TAG_formal_parameter
     179                            .dwattr $C$DW$32, DW_AT_type(*$C$DW$T$90)
     180                    
     181                            .dwendtag $C$DW$28
     182                    
     183                    
     184                    $C$DW$33        .dwtag  DW_TAG_subprogram
     185                            .dwattr $C$DW$33, DW_AT_name("xQueueGiveFromISR")
     186                            .dwattr $C$DW$33, DW_AT_TI_symbol_name("xQueueGiveFromISR")
     187                            .dwattr $C$DW$33, DW_AT_type(*$C$DW$T$53)
     188                            .dwattr $C$DW$33, DW_AT_declaration
     189                            .dwattr $C$DW$33, DW_AT_external
     190                            .dwattr $C$DW$33, DW_AT_decl_file("F:\eecs690\TI_ARM_Tiva_Projects\Source\include\queue.h")
     191                            .dwattr $C$DW$33, DW_AT_decl_line(0x53d)
     192                            .dwattr $C$DW$33, DW_AT_decl_column(0x0c)
     193                    $C$DW$34        .dwtag  DW_TAG_formal_parameter
     194                            .dwattr $C$DW$34, DW_AT_type(*$C$DW$T$60)
     195                    
     196                    $C$DW$35        .dwtag  DW_TAG_formal_parameter
     197                            .dwattr $C$DW$35, DW_AT_type(*$C$DW$T$96)
     198                    
     199                            .dwendtag $C$DW$33
     200                    
     201                    
     202                    $C$DW$36        .dwtag  DW_TAG_subprogram
     203                            .dwattr $C$DW$36, DW_AT_name("xQueueGenericCreate")
     204                            .dwattr $C$DW$36, DW_AT_TI_symbol_name("xQueueGenericCreate")
     205                            .dwattr $C$DW$36, DW_AT_type(*$C$DW$T$60)
     206                            .dwattr $C$DW$36, DW_AT_declaration
     207                            .dwattr $C$DW$36, DW_AT_external
     208                            .dwattr $C$DW$36, DW_AT_decl_file("F:\eecs690\TI_ARM_Tiva_Projects\Source\include\queue.h")
     209                            .dwattr $C$DW$36, DW_AT_decl_line(0x606)
     210                            .dwattr $C$DW$36, DW_AT_decl_column(0x0f)
     211                    $C$DW$37        .dwtag  DW_TAG_formal_parameter
     212                            .dwattr $C$DW$37, DW_AT_type(*$C$DW$T$62)
     213                    
     214                    $C$DW$38        .dwtag  DW_TAG_formal_parameter
     215                            .dwattr $C$DW$38, DW_AT_type(*$C$DW$T$62)
     216                    
     217                    $C$DW$39        .dwtag  DW_TAG_formal_parameter
     218                            .dwattr $C$DW$39, DW_AT_type(*$C$DW$T$63)
     219                    
     220                            .dwendtag $C$DW$36
TI ARM Assembler PC v15.12.3 Wed Sep 14 21:38:55 2016

Tools Copyright (c) 1996-2015 Texas Instruments Incorporated
Task_TimerInterrupt.asm                                              PAGE    5

     221                    
     222                    
     223                    $C$DW$40        .dwtag  DW_TAG_subprogram
     224                            .dwattr $C$DW$40, DW_AT_name("IntEnable")
     225                            .dwattr $C$DW$40, DW_AT_TI_symbol_name("IntEnable")
     226                            .dwattr $C$DW$40, DW_AT_type(*$C$DW$T$10)
     227                            .dwattr $C$DW$40, DW_AT_declaration
     228                            .dwattr $C$DW$40, DW_AT_external
     229                            .dwattr $C$DW$40, DW_AT_decl_file("../Tasks/Task_TimerInterrupt.c")
     230                            .dwattr $C$DW$40, DW_AT_decl_line(0x47)
     231                            .dwattr $C$DW$40, DW_AT_decl_column(0x02)
     232                            .dwendtag $C$DW$40
     233                    
     234                    
     235                    $C$DW$41        .dwtag  DW_TAG_subprogram
     236                            .dwattr $C$DW$41, DW_AT_name("UARTprintf")
     237                            .dwattr $C$DW$41, DW_AT_TI_symbol_name("UARTprintf")
     238                            .dwattr $C$DW$41, DW_AT_type(*$C$DW$T$10)
     239                            .dwattr $C$DW$41, DW_AT_declaration
     240                            .dwattr $C$DW$41, DW_AT_external
     241                            .dwattr $C$DW$41, DW_AT_decl_file("../Tasks/Task_TimerInterrupt.c")
     242                            .dwattr $C$DW$41, DW_AT_decl_line(0x5f)
     243                            .dwattr $C$DW$41, DW_AT_decl_column(0x04)
     244                            .dwendtag $C$DW$41
     245                    
     246                            .global TimeCount
     247 00000000                   .data
     248                            .align  4
     249                            .elfsym TimeCount,SYM_SIZE(4)
     250 00000000           TimeCount:
     251 00000000 00000000          .bits   0,32                    ; TimeCount @ 0
     252                    
     253                    $C$DW$42        .dwtag  DW_TAG_variable
     254                            .dwattr $C$DW$42, DW_AT_name("TimeCount")
     255                            .dwattr $C$DW$42, DW_AT_TI_symbol_name("TimeCount")
     256                            .dwattr $C$DW$42, DW_AT_location[DW_OP_addr TimeCount]
     257                            .dwattr $C$DW$42, DW_AT_type(*$C$DW$T$24)
     258                            .dwattr $C$DW$42, DW_AT_external
     259                            .dwattr $C$DW$42, DW_AT_decl_file("../Tasks/Task_TimerInterrupt.c")
     260                            .dwattr $C$DW$42, DW_AT_decl_line(0x22)
     261                            .dwattr $C$DW$42, DW_AT_decl_column(0x0a)
     262                    
     263                            .global TimerStatus_1
     264 00000004                   .data
     265                            .align  4
     266                            .elfsym TimerStatus_1,SYM_SIZE(4)
     267 00000004           TimerStatus_1:
     268 00000004 00000000          .bits   0,32                    ; TimerStatus_1 @ 0
     269                    
     270                    $C$DW$43        .dwtag  DW_TAG_variable
     271                            .dwattr $C$DW$43, DW_AT_name("TimerStatus_1")
     272                            .dwattr $C$DW$43, DW_AT_TI_symbol_name("TimerStatus_1")
     273                            .dwattr $C$DW$43, DW_AT_location[DW_OP_addr TimerStatus_1]
     274                            .dwattr $C$DW$43, DW_AT_type(*$C$DW$T$24)
     275                            .dwattr $C$DW$43, DW_AT_external
TI ARM Assembler PC v15.12.3 Wed Sep 14 21:38:55 2016

Tools Copyright (c) 1996-2015 Texas Instruments Incorporated
Task_TimerInterrupt.asm                                              PAGE    6

     276                            .dwattr $C$DW$43, DW_AT_decl_file("../Tasks/Task_TimerInterrupt.c")
     277                            .dwattr $C$DW$43, DW_AT_decl_line(0x27)
     278                            .dwattr $C$DW$43, DW_AT_decl_column(0x0a)
     279                    
     280                            .global Timer_0_A_Semaphore
     281                            .common Timer_0_A_Semaphore,4,4
     282                    $C$DW$44        .dwtag  DW_TAG_variable
     283                            .dwattr $C$DW$44, DW_AT_name("Timer_0_A_Semaphore")
     284                            .dwattr $C$DW$44, DW_AT_TI_symbol_name("Timer_0_A_Semaphore")
     285                            .dwattr $C$DW$44, DW_AT_location[DW_OP_addr Timer_0_A_Semaphore]
     286                            .dwattr $C$DW$44, DW_AT_type(*$C$DW$T$61)
     287                            .dwattr $C$DW$44, DW_AT_external
     288                            .dwattr $C$DW$44, DW_AT_decl_file("../Tasks/Task_TimerInterrupt.c")
     289                            .dwattr $C$DW$44, DW_AT_decl_line(0x2c)
     290                            .dwattr $C$DW$44, DW_AT_decl_column(0x12)
     291                    
     292 00000008                   .data
     293                            .align  4
     294                            .elfsym xHigherPriorityTaskWoken$1,SYM_SIZE(4)
     295 00000008           xHigherPriorityTaskWoken$1:
     296 00000008 00000000          .bits   0,32                    ; xHigherPriorityTaskWoken$1 @ 0
     297                    
     298                    ;       C:\ti\ccsv6\tools\compiler\arm_15.12.3.LTS\bin\armacpia.exe -@C:\\DOCUME~1\\ADMINI~1\\LOCALS~1
     299 00000000                   .sect   ".text"
     300                            .clink
     301                            .thumbfunc Task_TimeOfDay
     302 00000000                   .thumb
     303                            .global Task_TimeOfDay
     304                    
     305                    $C$DW$45        .dwtag  DW_TAG_subprogram
     306                            .dwattr $C$DW$45, DW_AT_name("Task_TimeOfDay")
     307                            .dwattr $C$DW$45, DW_AT_low_pc(Task_TimeOfDay)
     308                            .dwattr $C$DW$45, DW_AT_high_pc(0x00)
     309                            .dwattr $C$DW$45, DW_AT_TI_symbol_name("Task_TimeOfDay")
     310                            .dwattr $C$DW$45, DW_AT_external
     311                            .dwattr $C$DW$45, DW_AT_TI_begin_file("../Tasks/Task_TimerInterrupt.c")
     312                            .dwattr $C$DW$45, DW_AT_TI_begin_line(0x31)
     313                            .dwattr $C$DW$45, DW_AT_TI_begin_column(0x0d)
     314                            .dwattr $C$DW$45, DW_AT_decl_file("../Tasks/Task_TimerInterrupt.c")
     315                            .dwattr $C$DW$45, DW_AT_decl_line(0x31)
     316                            .dwattr $C$DW$45, DW_AT_decl_column(0x0d)
     317                            .dwattr $C$DW$45, DW_AT_TI_max_frame_size(0x10)
     318                            .dwpsn  file "../Tasks/Task_TimerInterrupt.c",line 49,column 48,is_stmt,address Task_TimeOfDay
     319                    
     320                            .dwfde $C$DW$CIE, Task_TimeOfDay
     321                    $C$DW$46        .dwtag  DW_TAG_formal_parameter
     322                            .dwattr $C$DW$46, DW_AT_name("pvParameters")
     323                            .dwattr $C$DW$46, DW_AT_TI_symbol_name("pvParameters")
     324                            .dwattr $C$DW$46, DW_AT_type(*$C$DW$T$3)
     325                            .dwattr $C$DW$46, DW_AT_location[DW_OP_reg0]
     326                    
     327                    
     328                    ;*****************************************************************************
     329                    ;* FUNCTION NAME: Task_TimeOfDay                                             *
     330                    ;*                                                                           *
TI ARM Assembler PC v15.12.3 Wed Sep 14 21:38:55 2016

Tools Copyright (c) 1996-2015 Texas Instruments Incorporated
Task_TimerInterrupt.asm                                              PAGE    7

     331                    ;*   Regs Modified     : A1,A2,A3,A4,V9,SP,LR,SR,D0,D0_hi,D1,D1_hi,D2,D2_hi, *
     332                    ;*                           D3,D3_hi,D4,D4_hi,D5,D5_hi,D6,D6_hi,D7,D7_hi,   *
     333                    ;*                           FPEXC,FPSCR                                     *
     334                    ;*   Regs Used         : A1,A2,A3,A4,V9,SP,LR,SR,D0,D0_hi,D1,D1_hi,D2,D2_hi, *
     335                    ;*                           D3,D3_hi,D4,D4_hi,D5,D5_hi,D6,D6_hi,D7,D7_hi,   *
     336                    ;*                           FPEXC,FPSCR                                     *
     337                    ;*   Local Frame Size  : 4 Args + 8 Auto + 4 Save = 16 byte                  *
     338                    ;*****************************************************************************
     339 00000000           Task_TimeOfDay:
     340                    ;* --------------------------------------------------------------------------*
     341                            .dwcfi  cfa_offset, 0
     342 00000000 B50E              PUSH      {A2, A3, A4, LR}      ; [DPU_3_PIPE]  ; [ORIG 16-BIT INS]
     343                            .dwcfi  cfa_offset, 16
     344                            .dwcfi  save_reg_to_mem, 14, -4
     345                            .dwcfi  save_reg_to_mem, 3, -8
     346                            .dwcfi  save_reg_to_mem, 2, -12
     347                            .dwcfi  save_reg_to_mem, 1, -16
     348                    $C$DW$47        .dwtag  DW_TAG_variable
     349                            .dwattr $C$DW$47, DW_AT_name("pvParameters")
     350                            .dwattr $C$DW$47, DW_AT_TI_symbol_name("pvParameters")
     351                            .dwattr $C$DW$47, DW_AT_type(*$C$DW$T$3)
     352                            .dwattr $C$DW$47, DW_AT_location[DW_OP_breg13 4]
     353                    
     354                    $C$DW$48        .dwtag  DW_TAG_variable
     355                            .dwattr $C$DW$48, DW_AT_name("hours")
     356                            .dwattr $C$DW$48, DW_AT_TI_symbol_name("hours")
     357                            .dwattr $C$DW$48, DW_AT_type(*$C$DW$T$19)
     358                            .dwattr $C$DW$48, DW_AT_location[DW_OP_breg13 8]
     359                    
     360                    $C$DW$49        .dwtag  DW_TAG_variable
     361                            .dwattr $C$DW$49, DW_AT_name("minutes")
     362                            .dwattr $C$DW$49, DW_AT_TI_symbol_name("minutes")
     363                            .dwattr $C$DW$49, DW_AT_type(*$C$DW$T$19)
     364                            .dwattr $C$DW$49, DW_AT_location[DW_OP_breg13 9]
     365                    
     366                    $C$DW$50        .dwtag  DW_TAG_variable
     367                            .dwattr $C$DW$50, DW_AT_name("seconds")
     368                            .dwattr $C$DW$50, DW_AT_TI_symbol_name("seconds")
     369                            .dwattr $C$DW$50, DW_AT_type(*$C$DW$T$19)
     370                            .dwattr $C$DW$50, DW_AT_location[DW_OP_breg13 10]
     371                    
     372 00000002 9001              STR       A1, [SP, #4]          ; [DPU_3_PIPE] |49|  ; [ORIG 16-BIT INS]
     373                            .dwpsn  file "../Tasks/Task_TimerInterrupt.c",line 50,column 16,is_stmt,isa 1
     374 00000004 2000              MOVS      A1, #0                ; [DPU_3_PIPE] |50|  ; [ORIG 16-BIT INS]
     375 00000006 0008F88D          STRB      A1, [SP, #8]          ; [DPU_3_PIPE] |50|  ; [KEEP 32-BIT INS]
     376                            .dwpsn  file "../Tasks/Task_TimerInterrupt.c",line 51,column 18,is_stmt,isa 1
     377 0000000a 2000              MOVS      A1, #0                ; [DPU_3_PIPE] |51|  ; [ORIG 16-BIT INS]
     378 0000000c 0009F88D          STRB      A1, [SP, #9]          ; [DPU_3_PIPE] |51|  ; [KEEP 32-BIT INS]
     379                            .dwpsn  file "../Tasks/Task_TimerInterrupt.c",line 52,column 18,is_stmt,isa 1
     380 00000010 2000              MOVS      A1, #0                ; [DPU_3_PIPE] |52|  ; [ORIG 16-BIT INS]
     381 00000012 000AF88D          STRB      A1, [SP, #10]         ; [DPU_3_PIPE] |52|  ; [KEEP 32-BIT INS]
     382                            .dwpsn  file "../Tasks/Task_TimerInterrupt.c",line 57,column 2,is_stmt,isa 1
     383 00000016 2100              MOVS      A2, #0                ; [DPU_3_PIPE] |57|  ; [ORIG 16-BIT INS]
     384 00000018 2203              MOVS      A3, #3                ; [DPU_3_PIPE] |57|  ; [ORIG 16-BIT INS]
     385 0000001a 2001              MOVS      A1, #1                ; [DPU_3_PIPE] |57|  ; [ORIG 16-BIT INS]
TI ARM Assembler PC v15.12.3 Wed Sep 14 21:38:55 2016

Tools Copyright (c) 1996-2015 Texas Instruments Incorporated
Task_TimerInterrupt.asm                                              PAGE    8

     386                    $C$DW$51        .dwtag  DW_TAG_TI_branch
     387                            .dwattr $C$DW$51, DW_AT_low_pc(0x00)
     388                            .dwattr $C$DW$51, DW_AT_name("xQueueGenericCreate")
     389                            .dwattr $C$DW$51, DW_AT_TI_call
     390                    
     391 0000001c FFFEF7FF!         BL        xQueueGenericCreate   ; [DPU_3_PIPE] |57|  ; [KEEP 32-BIT INS]
     392                            ; CALL OCCURS {xQueueGenericCreate }  ; [] |57| 
     393 00000020 4A4F              LDR       A3, $C$CON1           ; [DPU_3_PIPE] |57|  ; [ORIG 16-BIT INS]
     394 00000022 494F              LDR       A2, $C$CON1           ; [DPU_3_PIPE] |57|  ; [ORIG 16-BIT INS]
     395 00000024 6010              STR       A1, [A3, #0]          ; [DPU_3_PIPE] |57|  ; [ORIG 16-BIT INS]
     396 00000026 6808              LDR       A1, [A2, #0]          ; [DPU_3_PIPE] |57|  ; [ORIG 16-BIT INS]
     397 00000028 B130              CBZ       A1, ||$C$L1||         ; []  ; [ORIG 16-BIT INS]
     398                            ; BRANCHCC OCCURS {||$C$L1||}    ; [] |57| 
     399                    ;* --------------------------------------------------------------------------*
     400 0000002a 484D              LDR       A1, $C$CON1           ; [DPU_3_PIPE] |57|  ; [ORIG 16-BIT INS]
     401 0000002c 6800              LDR       A1, [A1, #0]          ; [DPU_3_PIPE] |57|  ; [ORIG 16-BIT INS]
     402 0000002e 2100              MOVS      A2, #0                ; [DPU_3_PIPE] |57|  ; [ORIG 16-BIT INS]
     403 00000030 2200              MOVS      A3, #0                ; [DPU_3_PIPE] |57|  ; [ORIG 16-BIT INS]
     404 00000032 2300              MOVS      A4, #0                ; [DPU_3_PIPE] |57|  ; [ORIG 16-BIT INS]
     405                    $C$DW$52        .dwtag  DW_TAG_TI_branch
     406                            .dwattr $C$DW$52, DW_AT_low_pc(0x00)
     407                            .dwattr $C$DW$52, DW_AT_name("xQueueGenericSend")
     408                            .dwattr $C$DW$52, DW_AT_TI_call
     409                    
     410 00000034 FFFEF7FF!         BL        xQueueGenericSend     ; [DPU_3_PIPE] |57|  ; [KEEP 32-BIT INS]
     411                            ; CALL OCCURS {xQueueGenericSend }  ; [] |57| 
     412                    ;* --------------------------------------------------------------------------*
     413 00000038           ||$C$L1||:    
     414                            .dwpsn  file "../Tasks/Task_TimerInterrupt.c",line 60,column 2,is_stmt,isa 1
     415 00000038 484A              LDR       A1, $C$CON2           ; [DPU_3_PIPE] |60|  ; [ORIG 16-BIT INS]
     416                    $C$DW$53        .dwtag  DW_TAG_TI_branch
     417                            .dwattr $C$DW$53, DW_AT_low_pc(0x00)
     418                            .dwattr $C$DW$53, DW_AT_name("SysCtlPeripheralEnable")
     419                            .dwattr $C$DW$53, DW_AT_TI_call
     420                    
     421 0000003a FFFEF7FF!         BL        SysCtlPeripheralEnable ; [DPU_3_PIPE] |60|  ; [KEEP 32-BIT INS]
     422                            ; CALL OCCURS {SysCtlPeripheralEnable }  ; [] |60| 
     423                            .dwpsn  file "../Tasks/Task_TimerInterrupt.c",line 62,column 2,is_stmt,isa 1
     424 0000003e 484A              LDR       A1, $C$CON3           ; [DPU_3_PIPE] |62|  ; [ORIG 16-BIT INS]
     425 00000040 494A              LDR       A2, $C$CON4           ; [DPU_3_PIPE] |62|  ; [ORIG 16-BIT INS]
     426                    $C$DW$54        .dwtag  DW_TAG_TI_branch
     427                            .dwattr $C$DW$54, DW_AT_low_pc(0x00)
     428                            .dwattr $C$DW$54, DW_AT_name("TimerConfigure")
     429                            .dwattr $C$DW$54, DW_AT_TI_call
     430                    
     431 00000042 FFFEF7FF!         BL        TimerConfigure        ; [DPU_3_PIPE] |62|  ; [KEEP 32-BIT INS]
     432                            ; CALL OCCURS {TimerConfigure }  ; [] |62| 
     433                            .dwpsn  file "../Tasks/Task_TimerInterrupt.c",line 64,column 2,is_stmt,isa 1
     434 00000046 4848              LDR       A1, $C$CON3           ; [DPU_3_PIPE] |64|  ; [ORIG 16-BIT INS]
     435 00000048 21FF              MOVS      A2, #255              ; [DPU_3_PIPE] |64|  ; [ORIG 16-BIT INS]
     436 0000004a 2214              MOVS      A3, #20               ; [DPU_3_PIPE] |64|  ; [ORIG 16-BIT INS]
     437                    $C$DW$55        .dwtag  DW_TAG_TI_branch
     438                            .dwattr $C$DW$55, DW_AT_low_pc(0x00)
     439                            .dwattr $C$DW$55, DW_AT_name("TimerPrescaleSet")
     440                            .dwattr $C$DW$55, DW_AT_TI_call
TI ARM Assembler PC v15.12.3 Wed Sep 14 21:38:55 2016

Tools Copyright (c) 1996-2015 Texas Instruments Incorporated
Task_TimerInterrupt.asm                                              PAGE    9

     441                    
     442 0000004c FFFEF7FF!         BL        TimerPrescaleSet      ; [DPU_3_PIPE] |64|  ; [KEEP 32-BIT INS]
     443                            ; CALL OCCURS {TimerPrescaleSet }  ; [] |64| 
     444                            .dwpsn  file "../Tasks/Task_TimerInterrupt.c",line 66,column 2,is_stmt,isa 1
     445 00000050 4845              LDR       A1, $C$CON3           ; [DPU_3_PIPE] |66|  ; [ORIG 16-BIT INS]
     446 00000052 21FF              MOVS      A2, #255              ; [DPU_3_PIPE] |66|  ; [ORIG 16-BIT INS]
     447 00000054 2260F64E          MOV       A3, #60000            ; [DPU_3_PIPE] |66|  ; [KEEP 32-BIT INS]
     448                    $C$DW$56        .dwtag  DW_TAG_TI_branch
     449                            .dwattr $C$DW$56, DW_AT_low_pc(0x00)
     450                            .dwattr $C$DW$56, DW_AT_name("TimerLoadSet")
     451                            .dwattr $C$DW$56, DW_AT_TI_call
     452                    
     453 00000058 FFFEF7FF!         BL        TimerLoadSet          ; [DPU_3_PIPE] |66|  ; [KEEP 32-BIT INS]
     454                            ; CALL OCCURS {TimerLoadSet }    ; [] |66| 
     455                            .dwpsn  file "../Tasks/Task_TimerInterrupt.c",line 68,column 2,is_stmt,isa 1
     456 0000005c 4842              LDR       A1, $C$CON3           ; [DPU_3_PIPE] |68|  ; [ORIG 16-BIT INS]
     457 0000005e 21FF              MOVS      A2, #255              ; [DPU_3_PIPE] |68|  ; [ORIG 16-BIT INS]
     458                    $C$DW$57        .dwtag  DW_TAG_TI_branch
     459                            .dwattr $C$DW$57, DW_AT_low_pc(0x00)
     460                            .dwattr $C$DW$57, DW_AT_name("TimerEnable")
     461                            .dwattr $C$DW$57, DW_AT_TI_call
     462                    
     463 00000060 FFFEF7FF!         BL        TimerEnable           ; [DPU_3_PIPE] |68|  ; [KEEP 32-BIT INS]
     464                            ; CALL OCCURS {TimerEnable }     ; [] |68| 
     465                            .dwpsn  file "../Tasks/Task_TimerInterrupt.c",line 70,column 2,is_stmt,isa 1
     466 00000064 4840              LDR       A1, $C$CON3           ; [DPU_3_PIPE] |70|  ; [ORIG 16-BIT INS]
     467 00000066 2101              MOVS      A2, #1                ; [DPU_3_PIPE] |70|  ; [ORIG 16-BIT INS]
     468                    $C$DW$58        .dwtag  DW_TAG_TI_branch
     469                            .dwattr $C$DW$58, DW_AT_low_pc(0x00)
     470                            .dwattr $C$DW$58, DW_AT_name("TimerIntEnable")
     471                            .dwattr $C$DW$58, DW_AT_TI_call
     472                    
     473 00000068 FFFEF7FF!         BL        TimerIntEnable        ; [DPU_3_PIPE] |70|  ; [KEEP 32-BIT INS]
     474                            ; CALL OCCURS {TimerIntEnable }  ; [] |70| 
     475                            .dwpsn  file "../Tasks/Task_TimerInterrupt.c",line 71,column 2,is_stmt,isa 1
     476 0000006c 2023              MOVS      A1, #35               ; [DPU_3_PIPE] |71|  ; [ORIG 16-BIT INS]
     477                    $C$DW$59        .dwtag  DW_TAG_TI_branch
     478                            .dwattr $C$DW$59, DW_AT_low_pc(0x00)
     479                            .dwattr $C$DW$59, DW_AT_name("IntEnable")
     480                            .dwattr $C$DW$59, DW_AT_TI_call
     481                    
     482 0000006e FFFEF7FF!         BL        IntEnable             ; [DPU_3_PIPE] |71|  ; [KEEP 32-BIT INS]
     483                            ; CALL OCCURS {IntEnable }       ; [] |71| 
     484                            .dwpsn  file "../Tasks/Task_TimerInterrupt.c",line 73,column 2,is_stmt,isa 1
     485 00000072 2001              MOVS      A1, #1                ; [DPU_3_PIPE] |73|  ; [ORIG 16-BIT INS]
     486 00000074 2100              MOVS      A2, #0                ; [DPU_3_PIPE] |73|  ; [ORIG 16-BIT INS]
     487 00000076 2203              MOVS      A3, #3                ; [DPU_3_PIPE] |73|  ; [ORIG 16-BIT INS]
     488                    $C$DW$60        .dwtag  DW_TAG_TI_branch
     489                            .dwattr $C$DW$60, DW_AT_low_pc(0x00)
     490                            .dwattr $C$DW$60, DW_AT_name("xQueueGenericCreate")
     491                            .dwattr $C$DW$60, DW_AT_TI_call
     492                    
     493 00000078 FFFEF7FF!         BL        xQueueGenericCreate   ; [DPU_3_PIPE] |73|  ; [KEEP 32-BIT INS]
     494                            ; CALL OCCURS {xQueueGenericCreate }  ; [] |73| 
     495 0000007c 4A38              LDR       A3, $C$CON1           ; [DPU_3_PIPE] |73|  ; [ORIG 16-BIT INS]
TI ARM Assembler PC v15.12.3 Wed Sep 14 21:38:55 2016

Tools Copyright (c) 1996-2015 Texas Instruments Incorporated
Task_TimerInterrupt.asm                                              PAGE   10

     496 0000007e 4938              LDR       A2, $C$CON1           ; [DPU_3_PIPE] |73|  ; [ORIG 16-BIT INS]
     497 00000080 6010              STR       A1, [A3, #0]          ; [DPU_3_PIPE] |73|  ; [ORIG 16-BIT INS]
     498 00000082 6808              LDR       A1, [A2, #0]          ; [DPU_3_PIPE] |73|  ; [ORIG 16-BIT INS]
     499 00000084 B130              CBZ       A1, ||$C$L2||         ; []  ; [ORIG 16-BIT INS]
     500                            ; BRANCHCC OCCURS {||$C$L2||}    ; [] |73| 
     501                    ;* --------------------------------------------------------------------------*
     502 00000086 4836              LDR       A1, $C$CON1           ; [DPU_3_PIPE] |73|  ; [ORIG 16-BIT INS]
     503 00000088 6800              LDR       A1, [A1, #0]          ; [DPU_3_PIPE] |73|  ; [ORIG 16-BIT INS]
     504 0000008a 2100              MOVS      A2, #0                ; [DPU_3_PIPE] |73|  ; [ORIG 16-BIT INS]
     505 0000008c 2200              MOVS      A3, #0                ; [DPU_3_PIPE] |73|  ; [ORIG 16-BIT INS]
     506 0000008e 2300              MOVS      A4, #0                ; [DPU_3_PIPE] |73|  ; [ORIG 16-BIT INS]
     507                    $C$DW$61        .dwtag  DW_TAG_TI_branch
     508                            .dwattr $C$DW$61, DW_AT_low_pc(0x00)
     509                            .dwattr $C$DW$61, DW_AT_name("xQueueGenericSend")
     510                            .dwattr $C$DW$61, DW_AT_TI_call
     511                    
     512 00000090 FFFEF7FF!         BL        xQueueGenericSend     ; [DPU_3_PIPE] |73|  ; [KEEP 32-BIT INS]
     513                            ; CALL OCCURS {xQueueGenericSend }  ; [] |73| 
     514                    ;* --------------------------------------------------------------------------*
     515 00000094           ||$C$L2||:    
     516                            .dwpsn  file "../Tasks/Task_TimerInterrupt.c",line 74,column 9,is_stmt,isa 1
     517                    ;* --------------------------------------------------------------------------*
     518                    ;*   BEGIN LOOP ||$C$L3||
     519                    ;*
     520                    ;*   Loop source line                : 74
     521                    ;*   Loop closing brace source line  : 110
     522                    ;*   Known Minimum Trip Count        : 1
     523                    ;*   Known Maximum Trip Count        : 4294967295
     524                    ;*   Known Max Trip Count Factor     : 1
     525                    ;* --------------------------------------------------------------------------*
     526 00000094           ||$C$L3||:    
     527                            .dwpsn  file "../Tasks/Task_TimerInterrupt.c",line 91,column 3,is_stmt,isa 1
     528 00000094 4832              LDR       A1, $C$CON1           ; [DPU_3_PIPE] |91|  ; [ORIG 16-BIT INS]
     529 00000096 6800              LDR       A1, [A1, #0]          ; [DPU_3_PIPE] |91|  ; [ORIG 16-BIT INS]
     530 00000098 2100              MOVS      A2, #0                ; [DPU_3_PIPE] |91|  ; [ORIG 16-BIT INS]
     531 0000009a 32FFF04F          MOV       A3, #-1               ; [DPU_3_PIPE] |91|  ; [KEEP 32-BIT INS]
     532 0000009e 2300              MOVS      A4, #0                ; [DPU_3_PIPE] |91|  ; [ORIG 16-BIT INS]
     533                    $C$DW$62        .dwtag  DW_TAG_TI_branch
     534                            .dwattr $C$DW$62, DW_AT_low_pc(0x00)
     535                            .dwattr $C$DW$62, DW_AT_name("xQueueGenericReceive")
     536                            .dwattr $C$DW$62, DW_AT_TI_call
     537                    
     538 000000a0 FFFEF7FF!         BL        xQueueGenericReceive  ; [DPU_3_PIPE] |91|  ; [KEEP 32-BIT INS]
     539                            ; CALL OCCURS {xQueueGenericReceive }  ; [] |91| 
     540                            .dwpsn  file "../Tasks/Task_TimerInterrupt.c",line 92,column 3,is_stmt,isa 1
     541 000000a4 4832              LDR       A1, $C$CON5           ; [DPU_3_PIPE] |92|  ; [ORIG 16-BIT INS]
     542 000000a6 6800              LDR       A1, [A1, #0]          ; [DPU_3_PIPE] |92|  ; [ORIG 16-BIT INS]
     543 000000a8 2863              CMP       A1, #99               ; [DPU_3_PIPE] |92|  ; [ORIG 16-BIT INS]
     544 000000aa D1F3              BNE       ||$C$L3||             ; [DPU_3_PIPE] |92|  ; [ORIG 16-BIT INS]
     545                            ; BRANCHCC OCCURS {||$C$L3||}    ; [] |92| 
     546                    ;* --------------------------------------------------------------------------*
     547                            .dwpsn  file "../Tasks/Task_TimerInterrupt.c",line 93,column 4,is_stmt,isa 1
     548 000000ac 4930              LDR       A2, $C$CON5           ; [DPU_3_PIPE] |93|  ; [ORIG 16-BIT INS]
     549 000000ae 2000              MOVS      A1, #0                ; [DPU_3_PIPE] |93|  ; [ORIG 16-BIT INS]
     550 000000b0 6008              STR       A1, [A2, #0]          ; [DPU_3_PIPE] |93|  ; [ORIG 16-BIT INS]
TI ARM Assembler PC v15.12.3 Wed Sep 14 21:38:55 2016

Tools Copyright (c) 1996-2015 Texas Instruments Incorporated
Task_TimerInterrupt.asm                                              PAGE   11

     551                            .dwpsn  file "../Tasks/Task_TimerInterrupt.c",line 94,column 4,is_stmt,isa 1
     552 000000b2 000AF89D          LDRB      A1, [SP, #10]         ; [DPU_3_PIPE] |94|  ; [KEEP 32-BIT INS]
     553 000000b6 1C40              ADDS      A1, A1, #1            ; [DPU_3_PIPE] |94|  ; [ORIG 16-BIT INS]
     554 000000b8 000AF88D          STRB      A1, [SP, #10]         ; [DPU_3_PIPE] |94|  ; [KEEP 32-BIT INS]
     555                            .dwpsn  file "../Tasks/Task_TimerInterrupt.c",line 95,column 4,is_stmt,isa 1
     556 000000bc 482C              LDR       A1, $C$CON5           ; [DPU_3_PIPE] |95|  ; [ORIG 16-BIT INS]
     557 000000be 6800              LDR       A1, [A1, #0]          ; [DPU_3_PIPE] |95|  ; [ORIG 16-BIT INS]
     558 000000c0 9000              STR       A1, [SP, #0]          ; [DPU_3_PIPE] |95|  ; [ORIG 16-BIT INS]
     559 000000c2 2009F89D          LDRB      A3, [SP, #9]          ; [DPU_3_PIPE] |95|  ; [KEEP 32-BIT INS]
     560 000000c6 300AF89D          LDRB      A4, [SP, #10]         ; [DPU_3_PIPE] |95|  ; [KEEP 32-BIT INS]
     561 000000ca 1008F89D          LDRB      A2, [SP, #8]          ; [DPU_3_PIPE] |95|  ; [KEEP 32-BIT INS]
     562 000000ce A01E              ADR       A1, $C$SL1            ; [DPU_3_PIPE] |95|  ; [ORIG 16-BIT INS]
     563                    $C$DW$63        .dwtag  DW_TAG_TI_branch
     564                            .dwattr $C$DW$63, DW_AT_low_pc(0x00)
     565                            .dwattr $C$DW$63, DW_AT_name("UARTprintf")
     566                            .dwattr $C$DW$63, DW_AT_TI_call
     567                    
     568 000000d0 FFFEF7FF!         BL        UARTprintf            ; [DPU_3_PIPE] |95|  ; [KEEP 32-BIT INS]
     569                            ; CALL OCCURS {UARTprintf }      ; [] |95| 
     570                            .dwpsn  file "../Tasks/Task_TimerInterrupt.c",line 97,column 4,is_stmt,isa 1
     571 000000d4 000AF89D          LDRB      A1, [SP, #10]         ; [DPU_3_PIPE] |97|  ; [KEEP 32-BIT INS]
     572 000000d8 283B              CMP       A1, #59               ; [DPU_3_PIPE] |97|  ; [ORIG 16-BIT INS]
     573 000000da D1DB              BNE       ||$C$L3||             ; [DPU_3_PIPE] |97|  ; [ORIG 16-BIT INS]
     574                            ; BRANCHCC OCCURS {||$C$L3||}    ; [] |97| 
     575                    ;* --------------------------------------------------------------------------*
     576                            .dwpsn  file "../Tasks/Task_TimerInterrupt.c",line 98,column 5,is_stmt,isa 1
     577 000000dc 0009F89D          LDRB      A1, [SP, #9]          ; [DPU_3_PIPE] |98|  ; [KEEP 32-BIT INS]
     578 000000e0 1C40              ADDS      A1, A1, #1            ; [DPU_3_PIPE] |98|  ; [ORIG 16-BIT INS]
     579 000000e2 0009F88D          STRB      A1, [SP, #9]          ; [DPU_3_PIPE] |98|  ; [KEEP 32-BIT INS]
     580                            .dwpsn  file "../Tasks/Task_TimerInterrupt.c",line 99,column 5,is_stmt,isa 1
     581 000000e6 2000              MOVS      A1, #0                ; [DPU_3_PIPE] |99|  ; [ORIG 16-BIT INS]
     582 000000e8 000AF88D          STRB      A1, [SP, #10]         ; [DPU_3_PIPE] |99|  ; [KEEP 32-BIT INS]
     583                            .dwpsn  file "../Tasks/Task_TimerInterrupt.c",line 100,column 5,is_stmt,isa 1
     584 000000ec 0009F89D          LDRB      A1, [SP, #9]          ; [DPU_3_PIPE] |100|  ; [KEEP 32-BIT INS]
     585 000000f0 283B              CMP       A1, #59               ; [DPU_3_PIPE] |100|  ; [ORIG 16-BIT INS]
     586 000000f2 D1CF              BNE       ||$C$L3||             ; [DPU_3_PIPE] |100|  ; [ORIG 16-BIT INS]
     587                            ; BRANCHCC OCCURS {||$C$L3||}    ; [] |100| 
     588                    ;* --------------------------------------------------------------------------*
     589                            .dwpsn  file "../Tasks/Task_TimerInterrupt.c",line 101,column 6,is_stmt,isa 1
     590 000000f4 0008F89D          LDRB      A1, [SP, #8]          ; [DPU_3_PIPE] |101|  ; [KEEP 32-BIT INS]
     591 000000f8 1C40              ADDS      A1, A1, #1            ; [DPU_3_PIPE] |101|  ; [ORIG 16-BIT INS]
     592 000000fa 0008F88D          STRB      A1, [SP, #8]          ; [DPU_3_PIPE] |101|  ; [KEEP 32-BIT INS]
     593                            .dwpsn  file "../Tasks/Task_TimerInterrupt.c",line 102,column 6,is_stmt,isa 1
     594 000000fe 2000              MOVS      A1, #0                ; [DPU_3_PIPE] |102|  ; [ORIG 16-BIT INS]
     595 00000100 0009F88D          STRB      A1, [SP, #9]          ; [DPU_3_PIPE] |102|  ; [KEEP 32-BIT INS]
     596                            .dwpsn  file "../Tasks/Task_TimerInterrupt.c",line 103,column 6,is_stmt,isa 1
     597 00000104 0008F89D          LDRB      A1, [SP, #8]          ; [DPU_3_PIPE] |103|  ; [KEEP 32-BIT INS]
     598 00000108 2817              CMP       A1, #23               ; [DPU_3_PIPE] |103|  ; [ORIG 16-BIT INS]
     599 0000010a D1C3              BNE       ||$C$L3||             ; [DPU_3_PIPE] |103|  ; [ORIG 16-BIT INS]
     600                            ; BRANCHCC OCCURS {||$C$L3||}    ; [] |103| 
     601                    ;* --------------------------------------------------------------------------*
     602                            .dwpsn  file "../Tasks/Task_TimerInterrupt.c",line 104,column 7,is_stmt,isa 1
     603 0000010c 2000              MOVS      A1, #0                ; [DPU_3_PIPE] |104|  ; [ORIG 16-BIT INS]
     604 0000010e 0008F88D          STRB      A1, [SP, #8]          ; [DPU_3_PIPE] |104|  ; [KEEP 32-BIT INS]
     605                            .dwpsn  file "../Tasks/Task_TimerInterrupt.c",line 74,column 9,is_stmt,isa 1
TI ARM Assembler PC v15.12.3 Wed Sep 14 21:38:55 2016

Tools Copyright (c) 1996-2015 Texas Instruments Incorporated
Task_TimerInterrupt.asm                                              PAGE   12

     606 00000112 E7BF              B         ||$C$L3||             ; [DPU_3_PIPE] |74|  ; [ORIG 16-BIT INS]
     607                            ; BRANCH OCCURS {||$C$L3||}      ; [] |74| 
     608                    ;* --------------------------------------------------------------------------*
     609                            .dwattr $C$DW$45, DW_AT_TI_end_file("../Tasks/Task_TimerInterrupt.c")
     610                            .dwattr $C$DW$45, DW_AT_TI_end_line(0x70)
     611                            .dwattr $C$DW$45, DW_AT_TI_end_column(0x01)
     612                            .dwendentry
     613                            .dwendtag $C$DW$45
     614                    
     615 00000114                   .sect   ".text"
     616                            .clink
     617                            .thumbfunc Timer_0_A_ISR_Handler
     618 00000114                   .thumb
     619                            .global Timer_0_A_ISR_Handler
     620                    
     621                    $C$DW$64        .dwtag  DW_TAG_subprogram
     622                            .dwattr $C$DW$64, DW_AT_name("Timer_0_A_ISR_Handler")
     623                            .dwattr $C$DW$64, DW_AT_low_pc(Timer_0_A_ISR_Handler)
     624                            .dwattr $C$DW$64, DW_AT_high_pc(0x00)
     625                            .dwattr $C$DW$64, DW_AT_TI_symbol_name("Timer_0_A_ISR_Handler")
     626                            .dwattr $C$DW$64, DW_AT_external
     627                            .dwattr $C$DW$64, DW_AT_TI_begin_file("../Tasks/Task_TimerInterrupt.c")
     628                            .dwattr $C$DW$64, DW_AT_TI_begin_line(0x75)
     629                            .dwattr $C$DW$64, DW_AT_TI_begin_column(0x06)
     630                            .dwattr $C$DW$64, DW_AT_decl_file("../Tasks/Task_TimerInterrupt.c")
     631                            .dwattr $C$DW$64, DW_AT_decl_line(0x75)
     632                            .dwattr $C$DW$64, DW_AT_decl_column(0x06)
     633                            .dwattr $C$DW$64, DW_AT_TI_max_frame_size(0x08)
     634                            .dwpsn  file "../Tasks/Task_TimerInterrupt.c",line 117,column 34,is_stmt,address Timer_0_A_ISR
     635                    
     636                            .dwfde $C$DW$CIE, Timer_0_A_ISR_Handler
     637                    $C$DW$65        .dwtag  DW_TAG_variable
     638                            .dwattr $C$DW$65, DW_AT_name("xHigherPriorityTaskWoken")
     639                            .dwattr $C$DW$65, DW_AT_TI_symbol_name("xHigherPriorityTaskWoken$1")
     640                            .dwattr $C$DW$65, DW_AT_type(*$C$DW$T$106)
     641                            .dwattr $C$DW$65, DW_AT_location[DW_OP_addr xHigherPriorityTaskWoken$1]
     642                    
     643                    
     644                    ;*****************************************************************************
     645                    ;* FUNCTION NAME: Timer_0_A_ISR_Handler                                      *
     646                    ;*                                                                           *
     647                    ;*   Regs Modified     : A1,A2,A3,A4,V9,SP,LR,SR,D0,D0_hi,D1,D1_hi,D2,D2_hi, *
     648                    ;*                           D3,D3_hi,D4,D4_hi,D5,D5_hi,D6,D6_hi,D7,D7_hi,   *
     649                    ;*                           FPEXC,FPSCR                                     *
     650                    ;*   Regs Used         : A1,A2,A3,A4,V9,SP,LR,SR,D0,D0_hi,D1,D1_hi,D2,D2_hi, *
     651                    ;*                           D3,D3_hi,D4,D4_hi,D5,D5_hi,D6,D6_hi,D7,D7_hi,   *
     652                    ;*                           FPEXC,FPSCR                                     *
     653                    ;*   Local Frame Size  : 0 Args + 0 Auto + 4 Save = 4 byte                   *
     654                    ;*****************************************************************************
     655 00000114           Timer_0_A_ISR_Handler:
     656                    ;* --------------------------------------------------------------------------*
     657                            .dwcfi  cfa_offset, 0
     658 00000114 B508              PUSH      {A4, LR}              ; [DPU_3_PIPE]  ; [ORIG 16-BIT INS]
     659                            .dwcfi  cfa_offset, 8
     660                            .dwcfi  save_reg_to_mem, 14, -4
TI ARM Assembler PC v15.12.3 Wed Sep 14 21:38:55 2016

Tools Copyright (c) 1996-2015 Texas Instruments Incorporated
Task_TimerInterrupt.asm                                              PAGE   13

     661                            .dwcfi  save_reg_to_mem, 3, -8
     662                            .dwpsn  file "../Tasks/Task_TimerInterrupt.c",line 118,column 2,is_stmt,isa 1
     663 00000116 4916              LDR       A2, $C$CON5           ; [DPU_3_PIPE] |118|  ; [ORIG 16-BIT INS]
     664 00000118 6808              LDR       A1, [A2, #0]          ; [DPU_3_PIPE] |118|  ; [ORIG 16-BIT INS]
     665 0000011a 1C40              ADDS      A1, A1, #1            ; [DPU_3_PIPE] |118|  ; [ORIG 16-BIT INS]
     666 0000011c 6008              STR       A1, [A2, #0]          ; [DPU_3_PIPE] |118|  ; [ORIG 16-BIT INS]
     667                            .dwpsn  file "../Tasks/Task_TimerInterrupt.c",line 125,column 2,is_stmt,isa 1
     668 0000011e 4810              LDR       A1, $C$CON1           ; [DPU_3_PIPE] |125|  ; [ORIG 16-BIT INS]
     669 00000120 4914              LDR       A2, $C$CON6           ; [DPU_3_PIPE] |125|  ; [ORIG 16-BIT INS]
     670 00000122 6800              LDR       A1, [A1, #0]          ; [DPU_3_PIPE] |125|  ; [ORIG 16-BIT INS]
     671                    $C$DW$66        .dwtag  DW_TAG_TI_branch
     672                            .dwattr $C$DW$66, DW_AT_low_pc(0x00)
     673                            .dwattr $C$DW$66, DW_AT_name("xQueueGiveFromISR")
     674                            .dwattr $C$DW$66, DW_AT_TI_call
     675                    
     676 00000124 FFFEF7FF!         BL        xQueueGiveFromISR     ; [DPU_3_PIPE] |125|  ; [KEEP 32-BIT INS]
     677                            ; CALL OCCURS {xQueueGiveFromISR }  ; [] |125| 
     678                            .dwpsn  file "../Tasks/Task_TimerInterrupt.c",line 126,column 2,is_stmt,isa 1
     679 00000128 4812              LDR       A1, $C$CON6           ; [DPU_3_PIPE] |126|  ; [ORIG 16-BIT INS]
     680 0000012a 6800              LDR       A1, [A1, #0]          ; [DPU_3_PIPE] |126|  ; [ORIG 16-BIT INS]
     681 0000012c B138              CBZ       A1, ||$C$L4||         ; []  ; [ORIG 16-BIT INS]
     682                            ; BRANCHCC OCCURS {||$C$L4||}    ; [] |126| 
     683                    ;* --------------------------------------------------------------------------*
     684 0000012e 4912              LDR       A2, $C$CON7           ; [DPU_3_PIPE] |126|  ; [ORIG 16-BIT INS]
     685 00000130 5080F04F          MOV       A1, #268435456        ; [DPU_3_PIPE] |126|  ; [KEEP 32-BIT INS]
     686 00000134 6008              STR       A1, [A2, #0]          ; [DPU_3_PIPE] |126|  ; [ORIG 16-BIT INS]
     687 00000136 8F4FF3BF          dsb ; [KEEP 32-BIT INS]
     688 0000013a 8F6FF3BF          isb ; [KEEP 32-BIT INS]
     689                    ;* --------------------------------------------------------------------------*
     690 0000013e           ||$C$L4||:    
     691                            .dwpsn  file "../Tasks/Task_TimerInterrupt.c",line 131,column 2,is_stmt,isa 1
     692 0000013e 480A              LDR       A1, $C$CON3           ; [DPU_3_PIPE] |131|  ; [ORIG 16-BIT INS]
     693 00000140 2101              MOVS      A2, #1                ; [DPU_3_PIPE] |131|  ; [ORIG 16-BIT INS]
     694                    $C$DW$67        .dwtag  DW_TAG_TI_branch
     695                            .dwattr $C$DW$67, DW_AT_low_pc(0x00)
     696                            .dwattr $C$DW$67, DW_AT_name("TimerIntClear")
     697                            .dwattr $C$DW$67, DW_AT_TI_call
     698                    
     699 00000142 FFFEF7FF!         BL        TimerIntClear         ; [DPU_3_PIPE] |131|  ; [KEEP 32-BIT INS]
     700                            ; CALL OCCURS {TimerIntClear }   ; [] |131| 
     701                            .dwpsn  file "../Tasks/Task_TimerInterrupt.c",line 132,column 1,is_stmt,isa 1
     702                    $C$DW$68        .dwtag  DW_TAG_TI_branch
     703                            .dwattr $C$DW$68, DW_AT_low_pc(0x00)
     704                            .dwattr $C$DW$68, DW_AT_TI_return
     705                    
     706 00000146 BD08              POP       {A4, PC}              ; [DPU_3_PIPE]  ; [ORIG 16-BIT INS]
     707                            .dwcfi  cfa_offset, 0
     708                            ; BRANCH OCCURS                  ; [] 
     709                            .dwattr $C$DW$64, DW_AT_TI_end_file("../Tasks/Task_TimerInterrupt.c")
     710                            .dwattr $C$DW$64, DW_AT_TI_end_line(0x84)
     711                            .dwattr $C$DW$64, DW_AT_TI_end_column(0x01)
     712                            .dwendentry
     713                            .dwendtag $C$DW$64
     714                    
     715                    ;******************************************************************************
TI ARM Assembler PC v15.12.3 Wed Sep 14 21:38:55 2016

Tools Copyright (c) 1996-2015 Texas Instruments Incorporated
Task_TimerInterrupt.asm                                              PAGE   14

     716                    ;* STRINGS                                                                    *
     717                    ;******************************************************************************
     718 00000148                   .sect   ".text"
     719                            .align  4
     720 00000148 25        ||$C$SL1||:     .string "%02d:%02d:%02d:%02d",10,0
         00000149 30       
         0000014a 32       
         0000014b 64       
         0000014c 3A       
         0000014d 25       
         0000014e 30       
         0000014f 32       
         00000150 64       
         00000151 3A       
         00000152 25       
         00000153 30       
         00000154 32       
         00000155 64       
         00000156 3A       
         00000157 25       
         00000158 30       
         00000159 32       
         0000015a 64       
         0000015b 0A       
         0000015c 00       
     721                    ;******************************************************************************
     722                    ;* CONSTANT TABLE                                                             *
     723                    ;******************************************************************************
     724 0000015d                   .sect   ".text"
     725                            .align  4
     726 00000160 00000000! ||$C$CON1||:    .bits   Timer_0_A_Semaphore,32
     727                            .align  4
     728 00000164 F0000400  ||$C$CON2||:    .bits   -268434432,32
     729                            .align  4
     730 00000168 40030000  ||$C$CON3||:    .bits   1073938432,32
     731                            .align  4
     732 0000016c 04000032  ||$C$CON4||:    .bits   67108914,32
     733                            .align  4
     734 00000170 00000000! ||$C$CON5||:    .bits   TimeCount,32
     735                            .align  4
     736 00000174 00000000! ||$C$CON6||:    .bits   xHigherPriorityTaskWoken$1,32
     737                            .align  4
     738 00000178 E000ED04  ||$C$CON7||:    .bits   -536810236,32
     739                    ;*****************************************************************************
     740                    ;* UNDEFINED EXTERNAL REFERENCES                                             *
     741                    ;*****************************************************************************
     742                            .global SysCtlPeripheralEnable
     743                            .global TimerEnable
     744                            .global TimerConfigure
     745                            .global TimerPrescaleSet
     746                            .global TimerLoadSet
     747                            .global TimerIntEnable
     748                            .global TimerIntClear
     749                            .global xQueueGenericSend
     750                            .global xQueueGenericReceive
TI ARM Assembler PC v15.12.3 Wed Sep 14 21:38:55 2016

Tools Copyright (c) 1996-2015 Texas Instruments Incorporated
Task_TimerInterrupt.asm                                              PAGE   15

     751                            .global xQueueGiveFromISR
     752                            .global xQueueGenericCreate
     753                            .global IntEnable
     754                            .global UARTprintf
     755                    
     756                    ;******************************************************************************
     757                    ;* BUILD ATTRIBUTES                                                           *
     758                    ;******************************************************************************
     759                            .battr "aeabi", Tag_File, 1, Tag_ABI_PCS_wchar_t(2)
     760                            .battr "aeabi", Tag_File, 1, Tag_ABI_FP_rounding(0)
     761                            .battr "aeabi", Tag_File, 1, Tag_ABI_FP_denormal(0)
     762                            .battr "aeabi", Tag_File, 1, Tag_ABI_FP_exceptions(0)
     763                            .battr "aeabi", Tag_File, 1, Tag_ABI_FP_number_model(1)
     764                            .battr "aeabi", Tag_File, 1, Tag_ABI_enum_size(1)
     765                            .battr "aeabi", Tag_File, 1, Tag_ABI_optimization_goals(5)
     766                            .battr "aeabi", Tag_File, 1, Tag_ABI_FP_optimization_goals(0)
     767                            .battr "TI", Tag_File, 1, Tag_Bitfield_layout(2)
     768                            .battr "TI", Tag_File, 1, Tag_FP_interface(1)
     769                    
     770                    ;******************************************************************************
     771                    ;* TYPE INFORMATION                                                           *
     772                    ;******************************************************************************
     773                    
     774                    $C$DW$T$49      .dwtag  DW_TAG_enumeration_type
     775                            .dwattr $C$DW$T$49, DW_AT_byte_size(0x01)
     776                    $C$DW$69        .dwtag  DW_TAG_enumerator
     777                            .dwattr $C$DW$69, DW_AT_name("eRunning")
     778                            .dwattr $C$DW$69, DW_AT_const_value(0x00)
     779                            .dwattr $C$DW$69, DW_AT_decl_file("F:/eecs690/TI_ARM_Tiva_Projects/Source/include/task.h")
     780                            .dwattr $C$DW$69, DW_AT_decl_line(0x72)
     781                            .dwattr $C$DW$69, DW_AT_decl_column(0x02)
     782                    
     783                    $C$DW$70        .dwtag  DW_TAG_enumerator
     784                            .dwattr $C$DW$70, DW_AT_name("eReady")
     785                            .dwattr $C$DW$70, DW_AT_const_value(0x01)
     786                            .dwattr $C$DW$70, DW_AT_decl_file("F:/eecs690/TI_ARM_Tiva_Projects/Source/include/task.h")
     787                            .dwattr $C$DW$70, DW_AT_decl_line(0x73)
     788                            .dwattr $C$DW$70, DW_AT_decl_column(0x02)
     789                    
     790                    $C$DW$71        .dwtag  DW_TAG_enumerator
     791                            .dwattr $C$DW$71, DW_AT_name("eBlocked")
     792                            .dwattr $C$DW$71, DW_AT_const_value(0x02)
     793                            .dwattr $C$DW$71, DW_AT_decl_file("F:/eecs690/TI_ARM_Tiva_Projects/Source/include/task.h")
     794                            .dwattr $C$DW$71, DW_AT_decl_line(0x74)
     795                            .dwattr $C$DW$71, DW_AT_decl_column(0x02)
     796                    
     797                    $C$DW$72        .dwtag  DW_TAG_enumerator
     798                            .dwattr $C$DW$72, DW_AT_name("eSuspended")
     799                            .dwattr $C$DW$72, DW_AT_const_value(0x03)
     800                            .dwattr $C$DW$72, DW_AT_decl_file("F:/eecs690/TI_ARM_Tiva_Projects/Source/include/task.h")
     801                            .dwattr $C$DW$72, DW_AT_decl_line(0x75)
     802                            .dwattr $C$DW$72, DW_AT_decl_column(0x02)
     803                    
     804                    $C$DW$73        .dwtag  DW_TAG_enumerator
     805                            .dwattr $C$DW$73, DW_AT_name("eDeleted")
TI ARM Assembler PC v15.12.3 Wed Sep 14 21:38:55 2016

Tools Copyright (c) 1996-2015 Texas Instruments Incorporated
Task_TimerInterrupt.asm                                              PAGE   16

     806                            .dwattr $C$DW$73, DW_AT_const_value(0x04)
     807                            .dwattr $C$DW$73, DW_AT_decl_file("F:/eecs690/TI_ARM_Tiva_Projects/Source/include/task.h")
     808                            .dwattr $C$DW$73, DW_AT_decl_line(0x76)
     809                            .dwattr $C$DW$73, DW_AT_decl_column(0x02)
     810                    
     811                            .dwattr $C$DW$T$49, DW_AT_decl_file("F:/eecs690/TI_ARM_Tiva_Projects/Source/include/task.h")
     812                            .dwattr $C$DW$T$49, DW_AT_decl_line(0x71)
     813                            .dwattr $C$DW$T$49, DW_AT_decl_column(0x01)
     814                            .dwendtag $C$DW$T$49
     815                    
     816                    $C$DW$T$50      .dwtag  DW_TAG_typedef
     817                            .dwattr $C$DW$T$50, DW_AT_name("eTaskState")
     818                            .dwattr $C$DW$T$50, DW_AT_type(*$C$DW$T$49)
     819                            .dwattr $C$DW$T$50, DW_AT_language(DW_LANG_C)
     820                            .dwattr $C$DW$T$50, DW_AT_decl_file("F:/eecs690/TI_ARM_Tiva_Projects/Source/include/task.h")
     821                            .dwattr $C$DW$T$50, DW_AT_decl_line(0x77)
     822                            .dwattr $C$DW$T$50, DW_AT_decl_column(0x03)
     823                    
     824                    
     825                    $C$DW$T$55      .dwtag  DW_TAG_enumeration_type
     826                            .dwattr $C$DW$T$55, DW_AT_byte_size(0x01)
     827                    $C$DW$74        .dwtag  DW_TAG_enumerator
     828                            .dwattr $C$DW$74, DW_AT_name("eNoAction")
     829                            .dwattr $C$DW$74, DW_AT_const_value(0x00)
     830                            .dwattr $C$DW$74, DW_AT_decl_file("F:/eecs690/TI_ARM_Tiva_Projects/Source/include/task.h")
     831                            .dwattr $C$DW$74, DW_AT_decl_line(0x7c)
     832                            .dwattr $C$DW$74, DW_AT_decl_column(0x02)
     833                    
     834                    $C$DW$75        .dwtag  DW_TAG_enumerator
     835                            .dwattr $C$DW$75, DW_AT_name("eSetBits")
     836                            .dwattr $C$DW$75, DW_AT_const_value(0x01)
     837                            .dwattr $C$DW$75, DW_AT_decl_file("F:/eecs690/TI_ARM_Tiva_Projects/Source/include/task.h")
     838                            .dwattr $C$DW$75, DW_AT_decl_line(0x7d)
     839                            .dwattr $C$DW$75, DW_AT_decl_column(0x02)
     840                    
     841                    $C$DW$76        .dwtag  DW_TAG_enumerator
     842                            .dwattr $C$DW$76, DW_AT_name("eIncrement")
     843                            .dwattr $C$DW$76, DW_AT_const_value(0x02)
     844                            .dwattr $C$DW$76, DW_AT_decl_file("F:/eecs690/TI_ARM_Tiva_Projects/Source/include/task.h")
     845                            .dwattr $C$DW$76, DW_AT_decl_line(0x7e)
     846                            .dwattr $C$DW$76, DW_AT_decl_column(0x02)
     847                    
     848                    $C$DW$77        .dwtag  DW_TAG_enumerator
     849                            .dwattr $C$DW$77, DW_AT_name("eSetValueWithOverwrite")
     850                            .dwattr $C$DW$77, DW_AT_const_value(0x03)
     851                            .dwattr $C$DW$77, DW_AT_decl_file("F:/eecs690/TI_ARM_Tiva_Projects/Source/include/task.h")
     852                            .dwattr $C$DW$77, DW_AT_decl_line(0x7f)
     853                            .dwattr $C$DW$77, DW_AT_decl_column(0x02)
     854                    
     855                    $C$DW$78        .dwtag  DW_TAG_enumerator
     856                            .dwattr $C$DW$78, DW_AT_name("eSetValueWithoutOverwrite")
     857                            .dwattr $C$DW$78, DW_AT_const_value(0x04)
     858                            .dwattr $C$DW$78, DW_AT_decl_file("F:/eecs690/TI_ARM_Tiva_Projects/Source/include/task.h")
     859                            .dwattr $C$DW$78, DW_AT_decl_line(0x80)
     860                            .dwattr $C$DW$78, DW_AT_decl_column(0x02)
TI ARM Assembler PC v15.12.3 Wed Sep 14 21:38:55 2016

Tools Copyright (c) 1996-2015 Texas Instruments Incorporated
Task_TimerInterrupt.asm                                              PAGE   17

     861                    
     862                            .dwattr $C$DW$T$55, DW_AT_decl_file("F:/eecs690/TI_ARM_Tiva_Projects/Source/include/task.h")
     863                            .dwattr $C$DW$T$55, DW_AT_decl_line(0x7b)
     864                            .dwattr $C$DW$T$55, DW_AT_decl_column(0x01)
     865                            .dwendtag $C$DW$T$55
     866                    
     867                    $C$DW$T$56      .dwtag  DW_TAG_typedef
     868                            .dwattr $C$DW$T$56, DW_AT_name("eNotifyAction")
     869                            .dwattr $C$DW$T$56, DW_AT_type(*$C$DW$T$55)
     870                            .dwattr $C$DW$T$56, DW_AT_language(DW_LANG_C)
     871                            .dwattr $C$DW$T$56, DW_AT_decl_file("F:/eecs690/TI_ARM_Tiva_Projects/Source/include/task.h")
     872                            .dwattr $C$DW$T$56, DW_AT_decl_line(0x81)
     873                            .dwattr $C$DW$T$56, DW_AT_decl_column(0x03)
     874                    
     875                    
     876                    $C$DW$T$57      .dwtag  DW_TAG_enumeration_type
     877                            .dwattr $C$DW$T$57, DW_AT_byte_size(0x01)
     878                    $C$DW$79        .dwtag  DW_TAG_enumerator
     879                            .dwattr $C$DW$79, DW_AT_name("eAbortSleep")
     880                            .dwattr $C$DW$79, DW_AT_const_value(0x00)
     881                            .dwattr $C$DW$79, DW_AT_decl_file("F:/eecs690/TI_ARM_Tiva_Projects/Source/include/task.h")
     882                            .dwattr $C$DW$79, DW_AT_decl_line(0xb5)
     883                            .dwattr $C$DW$79, DW_AT_decl_column(0x02)
     884                    
     885                    $C$DW$80        .dwtag  DW_TAG_enumerator
     886                            .dwattr $C$DW$80, DW_AT_name("eStandardSleep")
     887                            .dwattr $C$DW$80, DW_AT_const_value(0x01)
     888                            .dwattr $C$DW$80, DW_AT_decl_file("F:/eecs690/TI_ARM_Tiva_Projects/Source/include/task.h")
     889                            .dwattr $C$DW$80, DW_AT_decl_line(0xb6)
     890                            .dwattr $C$DW$80, DW_AT_decl_column(0x02)
     891                    
     892                    $C$DW$81        .dwtag  DW_TAG_enumerator
     893                            .dwattr $C$DW$81, DW_AT_name("eNoTasksWaitingTimeout")
     894                            .dwattr $C$DW$81, DW_AT_const_value(0x02)
     895                            .dwattr $C$DW$81, DW_AT_decl_file("F:/eecs690/TI_ARM_Tiva_Projects/Source/include/task.h")
     896                            .dwattr $C$DW$81, DW_AT_decl_line(0xb7)
     897                            .dwattr $C$DW$81, DW_AT_decl_column(0x02)
     898                    
     899                            .dwattr $C$DW$T$57, DW_AT_decl_file("F:/eecs690/TI_ARM_Tiva_Projects/Source/include/task.h")
     900                            .dwattr $C$DW$T$57, DW_AT_decl_line(0xb4)
     901                            .dwattr $C$DW$T$57, DW_AT_decl_column(0x01)
     902                            .dwendtag $C$DW$T$57
     903                    
     904                    $C$DW$T$58      .dwtag  DW_TAG_typedef
     905                            .dwattr $C$DW$T$58, DW_AT_name("eSleepModeStatus")
     906                            .dwattr $C$DW$T$58, DW_AT_type(*$C$DW$T$57)
     907                            .dwattr $C$DW$T$58, DW_AT_language(DW_LANG_C)
     908                            .dwattr $C$DW$T$58, DW_AT_decl_file("F:/eecs690/TI_ARM_Tiva_Projects/Source/include/task.h")
     909                            .dwattr $C$DW$T$58, DW_AT_decl_line(0xb8)
     910                            .dwattr $C$DW$T$58, DW_AT_decl_column(0x03)
     911                    
     912                    
     913                    $C$DW$T$22      .dwtag  DW_TAG_structure_type
     914                            .dwattr $C$DW$T$22, DW_AT_name("HeapRegion")
     915                            .dwattr $C$DW$T$22, DW_AT_byte_size(0x08)
TI ARM Assembler PC v15.12.3 Wed Sep 14 21:38:55 2016

Tools Copyright (c) 1996-2015 Texas Instruments Incorporated
Task_TimerInterrupt.asm                                              PAGE   18

     916                    $C$DW$82        .dwtag  DW_TAG_member
     917                            .dwattr $C$DW$82, DW_AT_type(*$C$DW$T$20)
     918                            .dwattr $C$DW$82, DW_AT_name("pucStartAddress")
     919                            .dwattr $C$DW$82, DW_AT_TI_symbol_name("pucStartAddress")
     920                            .dwattr $C$DW$82, DW_AT_data_member_location[DW_OP_plus_uconst 0x0]
     921                            .dwattr $C$DW$82, DW_AT_accessibility(DW_ACCESS_public)
     922                            .dwattr $C$DW$82, DW_AT_decl_file("F:\eecs690\TI_ARM_Tiva_Projects\Source\include\portable.h")
     923                            .dwattr $C$DW$82, DW_AT_decl_line(0x96)
     924                            .dwattr $C$DW$82, DW_AT_decl_column(0x0b)
     925                    
     926                    $C$DW$83        .dwtag  DW_TAG_member
     927                            .dwattr $C$DW$83, DW_AT_type(*$C$DW$T$21)
     928                            .dwattr $C$DW$83, DW_AT_name("xSizeInBytes")
     929                            .dwattr $C$DW$83, DW_AT_TI_symbol_name("xSizeInBytes")
     930                            .dwattr $C$DW$83, DW_AT_data_member_location[DW_OP_plus_uconst 0x4]
     931                            .dwattr $C$DW$83, DW_AT_accessibility(DW_ACCESS_public)
     932                            .dwattr $C$DW$83, DW_AT_decl_file("F:\eecs690\TI_ARM_Tiva_Projects\Source\include\portable.h")
     933                            .dwattr $C$DW$83, DW_AT_decl_line(0x97)
     934                            .dwattr $C$DW$83, DW_AT_decl_column(0x09)
     935                    
     936                            .dwattr $C$DW$T$22, DW_AT_decl_file("F:\eecs690\TI_ARM_Tiva_Projects\Source\include\portable.h
     937                            .dwattr $C$DW$T$22, DW_AT_decl_line(0x94)
     938                            .dwattr $C$DW$T$22, DW_AT_decl_column(0x10)
     939                            .dwendtag $C$DW$T$22
     940                    
     941                    $C$DW$T$59      .dwtag  DW_TAG_typedef
     942                            .dwattr $C$DW$T$59, DW_AT_name("HeapRegion_t")
     943                            .dwattr $C$DW$T$59, DW_AT_type(*$C$DW$T$22)
     944                            .dwattr $C$DW$T$59, DW_AT_language(DW_LANG_C)
     945                            .dwattr $C$DW$T$59, DW_AT_decl_file("F:\eecs690\TI_ARM_Tiva_Projects\Source\include\portable.h
     946                            .dwattr $C$DW$T$59, DW_AT_decl_line(0x98)
     947                            .dwattr $C$DW$T$59, DW_AT_decl_column(0x03)
     948                    
     949                    $C$DW$T$2       .dwtag  DW_TAG_unspecified_type
     950                            .dwattr $C$DW$T$2, DW_AT_name("void")
     951                    
     952                    $C$DW$T$3       .dwtag  DW_TAG_pointer_type
     953                            .dwattr $C$DW$T$3, DW_AT_type(*$C$DW$T$2)
     954                            .dwattr $C$DW$T$3, DW_AT_address_class(0x20)
     955                    
     956                    $C$DW$T$60      .dwtag  DW_TAG_typedef
     957                            .dwattr $C$DW$T$60, DW_AT_name("QueueHandle_t")
     958                            .dwattr $C$DW$T$60, DW_AT_type(*$C$DW$T$3)
     959                            .dwattr $C$DW$T$60, DW_AT_language(DW_LANG_C)
     960                            .dwattr $C$DW$T$60, DW_AT_decl_file("F:\eecs690\TI_ARM_Tiva_Projects\Source\include\queue.h")
     961                            .dwattr $C$DW$T$60, DW_AT_decl_line(0x58)
     962                            .dwattr $C$DW$T$60, DW_AT_decl_column(0x10)
     963                    
     964                    $C$DW$T$61      .dwtag  DW_TAG_typedef
     965                            .dwattr $C$DW$T$61, DW_AT_name("SemaphoreHandle_t")
     966                            .dwattr $C$DW$T$61, DW_AT_type(*$C$DW$T$60)
     967                            .dwattr $C$DW$T$61, DW_AT_language(DW_LANG_C)
     968                            .dwattr $C$DW$T$61, DW_AT_decl_file("F:/eecs690/TI_ARM_Tiva_Projects/Source/include/semphr.h")
     969                            .dwattr $C$DW$T$61, DW_AT_decl_line(0x4f)
     970                            .dwattr $C$DW$T$61, DW_AT_decl_column(0x17)
TI ARM Assembler PC v15.12.3 Wed Sep 14 21:38:55 2016

Tools Copyright (c) 1996-2015 Texas Instruments Incorporated
Task_TimerInterrupt.asm                                              PAGE   19

     971                    
     972                    $C$DW$T$66      .dwtag  DW_TAG_typedef
     973                            .dwattr $C$DW$T$66, DW_AT_name("QueueSetHandle_t")
     974                            .dwattr $C$DW$T$66, DW_AT_type(*$C$DW$T$3)
     975                            .dwattr $C$DW$T$66, DW_AT_language(DW_LANG_C)
     976                            .dwattr $C$DW$T$66, DW_AT_decl_file("F:\eecs690\TI_ARM_Tiva_Projects\Source\include\queue.h")
     977                            .dwattr $C$DW$T$66, DW_AT_decl_line(0x5f)
     978                            .dwattr $C$DW$T$66, DW_AT_decl_column(0x10)
     979                    
     980                    $C$DW$T$67      .dwtag  DW_TAG_typedef
     981                            .dwattr $C$DW$T$67, DW_AT_name("QueueSetMemberHandle_t")
     982                            .dwattr $C$DW$T$67, DW_AT_type(*$C$DW$T$3)
     983                            .dwattr $C$DW$T$67, DW_AT_language(DW_LANG_C)
     984                            .dwattr $C$DW$T$67, DW_AT_decl_file("F:\eecs690\TI_ARM_Tiva_Projects\Source\include\queue.h")
     985                            .dwattr $C$DW$T$67, DW_AT_decl_line(0x66)
     986                            .dwattr $C$DW$T$67, DW_AT_decl_column(0x10)
     987                    
     988                    $C$DW$T$48      .dwtag  DW_TAG_typedef
     989                            .dwattr $C$DW$T$48, DW_AT_name("TaskHandle_t")
     990                            .dwattr $C$DW$T$48, DW_AT_type(*$C$DW$T$3)
     991                            .dwattr $C$DW$T$48, DW_AT_language(DW_LANG_C)
     992                            .dwattr $C$DW$T$48, DW_AT_decl_file("F:/eecs690/TI_ARM_Tiva_Projects/Source/include/task.h")
     993                            .dwattr $C$DW$T$48, DW_AT_decl_line(0x67)
     994                            .dwattr $C$DW$T$48, DW_AT_decl_column(0x10)
     995                    
     996                    $C$DW$T$68      .dwtag  DW_TAG_const_type
     997                            .dwattr $C$DW$T$68, DW_AT_type(*$C$DW$T$3)
     998                    
     999                    
    1000                    $C$DW$T$35      .dwtag  DW_TAG_subroutine_type
    1001                            .dwattr $C$DW$T$35, DW_AT_language(DW_LANG_C)
    1002                    $C$DW$84        .dwtag  DW_TAG_formal_parameter
    1003                            .dwattr $C$DW$84, DW_AT_type(*$C$DW$T$3)
    1004                    
    1005                            .dwendtag $C$DW$T$35
    1006                    
    1007                    $C$DW$T$36      .dwtag  DW_TAG_pointer_type
    1008                            .dwattr $C$DW$T$36, DW_AT_type(*$C$DW$T$35)
    1009                            .dwattr $C$DW$T$36, DW_AT_address_class(0x20)
    1010                    
    1011                    $C$DW$T$37      .dwtag  DW_TAG_typedef
    1012                            .dwattr $C$DW$T$37, DW_AT_name("TaskFunction_t")
    1013                            .dwattr $C$DW$T$37, DW_AT_type(*$C$DW$T$36)
    1014                            .dwattr $C$DW$T$37, DW_AT_language(DW_LANG_C)
    1015                            .dwattr $C$DW$T$37, DW_AT_decl_file("F:\eecs690\TI_ARM_Tiva_Projects\Source\include\projdefs.h
    1016                            .dwattr $C$DW$T$37, DW_AT_decl_line(0x4d)
    1017                            .dwattr $C$DW$T$37, DW_AT_decl_column(0x10)
    1018                    
    1019                    $C$DW$T$75      .dwtag  DW_TAG_const_type
    1020                            .dwattr $C$DW$T$75, DW_AT_type(*$C$DW$T$2)
    1021                    
    1022                    $C$DW$T$76      .dwtag  DW_TAG_pointer_type
    1023                            .dwattr $C$DW$T$76, DW_AT_type(*$C$DW$T$75)
    1024                            .dwattr $C$DW$T$76, DW_AT_address_class(0x20)
    1025                    
TI ARM Assembler PC v15.12.3 Wed Sep 14 21:38:55 2016

Tools Copyright (c) 1996-2015 Texas Instruments Incorporated
Task_TimerInterrupt.asm                                              PAGE   20

    1026                    $C$DW$T$77      .dwtag  DW_TAG_const_type
    1027                            .dwattr $C$DW$T$77, DW_AT_type(*$C$DW$T$76)
    1028                    
    1029                    $C$DW$T$4       .dwtag  DW_TAG_base_type
    1030                            .dwattr $C$DW$T$4, DW_AT_encoding(DW_ATE_boolean)
    1031                            .dwattr $C$DW$T$4, DW_AT_name("bool")
    1032                            .dwattr $C$DW$T$4, DW_AT_byte_size(0x01)
    1033                    
    1034                    $C$DW$T$5       .dwtag  DW_TAG_base_type
    1035                            .dwattr $C$DW$T$5, DW_AT_encoding(DW_ATE_signed_char)
    1036                            .dwattr $C$DW$T$5, DW_AT_name("signed char")
    1037                            .dwattr $C$DW$T$5, DW_AT_byte_size(0x01)
    1038                    
    1039                    $C$DW$T$79      .dwtag  DW_TAG_typedef
    1040                            .dwattr $C$DW$T$79, DW_AT_name("int8_t")
    1041                            .dwattr $C$DW$T$79, DW_AT_type(*$C$DW$T$5)
    1042                            .dwattr $C$DW$T$79, DW_AT_language(DW_LANG_C)
    1043                            .dwattr $C$DW$T$79, DW_AT_decl_file("C:/ti/ccsv6/tools/compiler/arm_15.12.3.LTS/include/stdint
    1044                            .dwattr $C$DW$T$79, DW_AT_decl_line(0x2a)
    1045                            .dwattr $C$DW$T$79, DW_AT_decl_column(0x1d)
    1046                    
    1047                    $C$DW$T$80      .dwtag  DW_TAG_typedef
    1048                            .dwattr $C$DW$T$80, DW_AT_name("int_least8_t")
    1049                            .dwattr $C$DW$T$80, DW_AT_type(*$C$DW$T$79)
    1050                            .dwattr $C$DW$T$80, DW_AT_language(DW_LANG_C)
    1051                            .dwattr $C$DW$T$80, DW_AT_decl_file("C:/ti/ccsv6/tools/compiler/arm_15.12.3.LTS/include/stdint
    1052                            .dwattr $C$DW$T$80, DW_AT_decl_line(0x37)
    1053                            .dwattr $C$DW$T$80, DW_AT_decl_column(0x17)
    1054                    
    1055                    $C$DW$T$6       .dwtag  DW_TAG_base_type
    1056                            .dwattr $C$DW$T$6, DW_AT_encoding(DW_ATE_unsigned_char)
    1057                            .dwattr $C$DW$T$6, DW_AT_name("unsigned char")
    1058                            .dwattr $C$DW$T$6, DW_AT_byte_size(0x01)
    1059                    
    1060                    $C$DW$T$19      .dwtag  DW_TAG_typedef
    1061                            .dwattr $C$DW$T$19, DW_AT_name("uint8_t")
    1062                            .dwattr $C$DW$T$19, DW_AT_type(*$C$DW$T$6)
    1063                            .dwattr $C$DW$T$19, DW_AT_language(DW_LANG_C)
    1064                            .dwattr $C$DW$T$19, DW_AT_decl_file("C:/ti/ccsv6/tools/compiler/arm_15.12.3.LTS/include/stdint
    1065                            .dwattr $C$DW$T$19, DW_AT_decl_line(0x2b)
    1066                            .dwattr $C$DW$T$19, DW_AT_decl_column(0x1c)
    1067                    
    1068                    $C$DW$T$20      .dwtag  DW_TAG_pointer_type
    1069                            .dwattr $C$DW$T$20, DW_AT_type(*$C$DW$T$19)
    1070                            .dwattr $C$DW$T$20, DW_AT_address_class(0x20)
    1071                    
    1072                    $C$DW$T$81      .dwtag  DW_TAG_typedef
    1073                            .dwattr $C$DW$T$81, DW_AT_name("portCHAR")
    1074                            .dwattr $C$DW$T$81, DW_AT_type(*$C$DW$T$19)
    1075                            .dwattr $C$DW$T$81, DW_AT_language(DW_LANG_C)
    1076                            .dwattr $C$DW$T$81, DW_AT_decl_file("F:/eecs690/TI_ARM_Tiva_Projects/Source/portable/CCS/ARM_C
    1077                            .dwattr $C$DW$T$81, DW_AT_decl_line(0x60)
    1078                            .dwattr $C$DW$T$81, DW_AT_decl_column(0x12)
    1079                    
    1080                    $C$DW$T$63      .dwtag  DW_TAG_const_type
TI ARM Assembler PC v15.12.3 Wed Sep 14 21:38:55 2016

Tools Copyright (c) 1996-2015 Texas Instruments Incorporated
Task_TimerInterrupt.asm                                              PAGE   21

    1081                            .dwattr $C$DW$T$63, DW_AT_type(*$C$DW$T$19)
    1082                    
    1083                    $C$DW$T$82      .dwtag  DW_TAG_typedef
    1084                            .dwattr $C$DW$T$82, DW_AT_name("uint_least8_t")
    1085                            .dwattr $C$DW$T$82, DW_AT_type(*$C$DW$T$19)
    1086                            .dwattr $C$DW$T$82, DW_AT_language(DW_LANG_C)
    1087                            .dwattr $C$DW$T$82, DW_AT_decl_file("C:/ti/ccsv6/tools/compiler/arm_15.12.3.LTS/include/stdint
    1088                            .dwattr $C$DW$T$82, DW_AT_decl_line(0x38)
    1089                            .dwattr $C$DW$T$82, DW_AT_decl_column(0x16)
    1090                    
    1091                    $C$DW$T$7       .dwtag  DW_TAG_base_type
    1092                            .dwattr $C$DW$T$7, DW_AT_encoding(DW_ATE_signed_char)
    1093                            .dwattr $C$DW$T$7, DW_AT_name("wchar_t")
    1094                            .dwattr $C$DW$T$7, DW_AT_byte_size(0x02)
    1095                    
    1096                    $C$DW$T$8       .dwtag  DW_TAG_base_type
    1097                            .dwattr $C$DW$T$8, DW_AT_encoding(DW_ATE_signed)
    1098                            .dwattr $C$DW$T$8, DW_AT_name("short")
    1099                            .dwattr $C$DW$T$8, DW_AT_byte_size(0x02)
    1100                    
    1101                    $C$DW$T$83      .dwtag  DW_TAG_typedef
    1102                            .dwattr $C$DW$T$83, DW_AT_name("int16_t")
    1103                            .dwattr $C$DW$T$83, DW_AT_type(*$C$DW$T$8)
    1104                            .dwattr $C$DW$T$83, DW_AT_language(DW_LANG_C)
    1105                            .dwattr $C$DW$T$83, DW_AT_decl_file("C:/ti/ccsv6/tools/compiler/arm_15.12.3.LTS/include/stdint
    1106                            .dwattr $C$DW$T$83, DW_AT_decl_line(0x2c)
    1107                            .dwattr $C$DW$T$83, DW_AT_decl_column(0x1d)
    1108                    
    1109                    $C$DW$T$84      .dwtag  DW_TAG_typedef
    1110                            .dwattr $C$DW$T$84, DW_AT_name("int_least16_t")
    1111                            .dwattr $C$DW$T$84, DW_AT_type(*$C$DW$T$83)
    1112                            .dwattr $C$DW$T$84, DW_AT_language(DW_LANG_C)
    1113                            .dwattr $C$DW$T$84, DW_AT_decl_file("C:/ti/ccsv6/tools/compiler/arm_15.12.3.LTS/include/stdint
    1114                            .dwattr $C$DW$T$84, DW_AT_decl_line(0x3a)
    1115                            .dwattr $C$DW$T$84, DW_AT_decl_column(0x17)
    1116                    
    1117                    $C$DW$T$85      .dwtag  DW_TAG_typedef
    1118                            .dwattr $C$DW$T$85, DW_AT_name("portSHORT")
    1119                            .dwattr $C$DW$T$85, DW_AT_type(*$C$DW$T$83)
    1120                            .dwattr $C$DW$T$85, DW_AT_language(DW_LANG_C)
    1121                            .dwattr $C$DW$T$85, DW_AT_decl_file("F:/eecs690/TI_ARM_Tiva_Projects/Source/portable/CCS/ARM_C
    1122                            .dwattr $C$DW$T$85, DW_AT_decl_line(0x64)
    1123                            .dwattr $C$DW$T$85, DW_AT_decl_column(0x12)
    1124                    
    1125                    $C$DW$T$9       .dwtag  DW_TAG_base_type
    1126                            .dwattr $C$DW$T$9, DW_AT_encoding(DW_ATE_unsigned)
    1127                            .dwattr $C$DW$T$9, DW_AT_name("unsigned short")
    1128                            .dwattr $C$DW$T$9, DW_AT_byte_size(0x02)
    1129                    
    1130                    $C$DW$T$42      .dwtag  DW_TAG_typedef
    1131                            .dwattr $C$DW$T$42, DW_AT_name("uint16_t")
    1132                            .dwattr $C$DW$T$42, DW_AT_type(*$C$DW$T$9)
    1133                            .dwattr $C$DW$T$42, DW_AT_language(DW_LANG_C)
    1134                            .dwattr $C$DW$T$42, DW_AT_decl_file("C:/ti/ccsv6/tools/compiler/arm_15.12.3.LTS/include/stdint
    1135                            .dwattr $C$DW$T$42, DW_AT_decl_line(0x2d)
TI ARM Assembler PC v15.12.3 Wed Sep 14 21:38:55 2016

Tools Copyright (c) 1996-2015 Texas Instruments Incorporated
Task_TimerInterrupt.asm                                              PAGE   22

    1136                            .dwattr $C$DW$T$42, DW_AT_decl_column(0x1c)
    1137                    
    1138                    $C$DW$T$86      .dwtag  DW_TAG_typedef
    1139                            .dwattr $C$DW$T$86, DW_AT_name("uint_least16_t")
    1140                            .dwattr $C$DW$T$86, DW_AT_type(*$C$DW$T$42)
    1141                            .dwattr $C$DW$T$86, DW_AT_language(DW_LANG_C)
    1142                            .dwattr $C$DW$T$86, DW_AT_decl_file("C:/ti/ccsv6/tools/compiler/arm_15.12.3.LTS/include/stdint
    1143                            .dwattr $C$DW$T$86, DW_AT_decl_line(0x3b)
    1144                            .dwattr $C$DW$T$86, DW_AT_decl_column(0x16)
    1145                    
    1146                    $C$DW$T$87      .dwtag  DW_TAG_typedef
    1147                            .dwattr $C$DW$T$87, DW_AT_name("wchar_t")
    1148                            .dwattr $C$DW$T$87, DW_AT_type(*$C$DW$T$9)
    1149                            .dwattr $C$DW$T$87, DW_AT_language(DW_LANG_C)
    1150                            .dwattr $C$DW$T$87, DW_AT_decl_file("C:/ti/ccsv6/tools/compiler/arm_15.12.3.LTS/include/stddef
    1151                            .dwattr $C$DW$T$87, DW_AT_decl_line(0x41)
    1152                            .dwattr $C$DW$T$87, DW_AT_decl_column(0x1a)
    1153                    
    1154                    $C$DW$T$10      .dwtag  DW_TAG_base_type
    1155                            .dwattr $C$DW$T$10, DW_AT_encoding(DW_ATE_signed)
    1156                            .dwattr $C$DW$T$10, DW_AT_name("int")
    1157                            .dwattr $C$DW$T$10, DW_AT_byte_size(0x04)
    1158                    
    1159                    $C$DW$T$52      .dwtag  DW_TAG_typedef
    1160                            .dwattr $C$DW$T$52, DW_AT_name("int32_t")
    1161                            .dwattr $C$DW$T$52, DW_AT_type(*$C$DW$T$10)
    1162                            .dwattr $C$DW$T$52, DW_AT_language(DW_LANG_C)
    1163                            .dwattr $C$DW$T$52, DW_AT_decl_file("C:/ti/ccsv6/tools/compiler/arm_15.12.3.LTS/include/stdint
    1164                            .dwattr $C$DW$T$52, DW_AT_decl_line(0x2e)
    1165                            .dwattr $C$DW$T$52, DW_AT_decl_column(0x1d)
    1166                    
    1167                    $C$DW$T$53      .dwtag  DW_TAG_typedef
    1168                            .dwattr $C$DW$T$53, DW_AT_name("BaseType_t")
    1169                            .dwattr $C$DW$T$53, DW_AT_type(*$C$DW$T$52)
    1170                            .dwattr $C$DW$T$53, DW_AT_language(DW_LANG_C)
    1171                            .dwattr $C$DW$T$53, DW_AT_decl_file("F:/eecs690/TI_ARM_Tiva_Projects/Source/portable/CCS/ARM_C
    1172                            .dwattr $C$DW$T$53, DW_AT_decl_line(0x69)
    1173                            .dwattr $C$DW$T$53, DW_AT_decl_column(0x12)
    1174                    
    1175                    $C$DW$T$90      .dwtag  DW_TAG_const_type
    1176                            .dwattr $C$DW$T$90, DW_AT_type(*$C$DW$T$53)
    1177                    
    1178                    $C$DW$T$95      .dwtag  DW_TAG_pointer_type
    1179                            .dwattr $C$DW$T$95, DW_AT_type(*$C$DW$T$53)
    1180                            .dwattr $C$DW$T$95, DW_AT_address_class(0x20)
    1181                    
    1182                    $C$DW$T$96      .dwtag  DW_TAG_const_type
    1183                            .dwattr $C$DW$T$96, DW_AT_type(*$C$DW$T$95)
    1184                    
    1185                    
    1186                    $C$DW$T$99      .dwtag  DW_TAG_subroutine_type
    1187                            .dwattr $C$DW$T$99, DW_AT_type(*$C$DW$T$53)
    1188                            .dwattr $C$DW$T$99, DW_AT_language(DW_LANG_C)
    1189                    $C$DW$85        .dwtag  DW_TAG_formal_parameter
    1190                            .dwattr $C$DW$85, DW_AT_type(*$C$DW$T$3)
TI ARM Assembler PC v15.12.3 Wed Sep 14 21:38:55 2016

Tools Copyright (c) 1996-2015 Texas Instruments Incorporated
Task_TimerInterrupt.asm                                              PAGE   23

    1191                    
    1192                            .dwendtag $C$DW$T$99
    1193                    
    1194                    $C$DW$T$100     .dwtag  DW_TAG_pointer_type
    1195                            .dwattr $C$DW$T$100, DW_AT_type(*$C$DW$T$99)
    1196                            .dwattr $C$DW$T$100, DW_AT_address_class(0x20)
    1197                    
    1198                    $C$DW$T$101     .dwtag  DW_TAG_typedef
    1199                            .dwattr $C$DW$T$101, DW_AT_name("TaskHookFunction_t")
    1200                            .dwattr $C$DW$T$101, DW_AT_type(*$C$DW$T$100)
    1201                            .dwattr $C$DW$T$101, DW_AT_language(DW_LANG_C)
    1202                            .dwattr $C$DW$T$101, DW_AT_decl_file("F:/eecs690/TI_ARM_Tiva_Projects/Source/include/task.h")
    1203                            .dwattr $C$DW$T$101, DW_AT_decl_line(0x6d)
    1204                            .dwattr $C$DW$T$101, DW_AT_decl_column(0x16)
    1205                    
    1206                    $C$DW$T$102     .dwtag  DW_TAG_typedef
    1207                            .dwattr $C$DW$T$102, DW_AT_name("int_fast16_t")
    1208                            .dwattr $C$DW$T$102, DW_AT_type(*$C$DW$T$52)
    1209                            .dwattr $C$DW$T$102, DW_AT_language(DW_LANG_C)
    1210                            .dwattr $C$DW$T$102, DW_AT_decl_file("C:/ti/ccsv6/tools/compiler/arm_15.12.3.LTS/include/stdin
    1211                            .dwattr $C$DW$T$102, DW_AT_decl_line(0x47)
    1212                            .dwattr $C$DW$T$102, DW_AT_decl_column(0x17)
    1213                    
    1214                    $C$DW$T$103     .dwtag  DW_TAG_typedef
    1215                            .dwattr $C$DW$T$103, DW_AT_name("int_fast32_t")
    1216                            .dwattr $C$DW$T$103, DW_AT_type(*$C$DW$T$52)
    1217                            .dwattr $C$DW$T$103, DW_AT_language(DW_LANG_C)
    1218                            .dwattr $C$DW$T$103, DW_AT_decl_file("C:/ti/ccsv6/tools/compiler/arm_15.12.3.LTS/include/stdin
    1219                            .dwattr $C$DW$T$103, DW_AT_decl_line(0x4a)
    1220                            .dwattr $C$DW$T$103, DW_AT_decl_column(0x17)
    1221                    
    1222                    $C$DW$T$104     .dwtag  DW_TAG_typedef
    1223                            .dwattr $C$DW$T$104, DW_AT_name("int_fast8_t")
    1224                            .dwattr $C$DW$T$104, DW_AT_type(*$C$DW$T$52)
    1225                            .dwattr $C$DW$T$104, DW_AT_language(DW_LANG_C)
    1226                            .dwattr $C$DW$T$104, DW_AT_decl_file("C:/ti/ccsv6/tools/compiler/arm_15.12.3.LTS/include/stdin
    1227                            .dwattr $C$DW$T$104, DW_AT_decl_line(0x45)
    1228                            .dwattr $C$DW$T$104, DW_AT_decl_column(0x17)
    1229                    
    1230                    $C$DW$T$105     .dwtag  DW_TAG_typedef
    1231                            .dwattr $C$DW$T$105, DW_AT_name("int_least32_t")
    1232                            .dwattr $C$DW$T$105, DW_AT_type(*$C$DW$T$52)
    1233                            .dwattr $C$DW$T$105, DW_AT_language(DW_LANG_C)
    1234                            .dwattr $C$DW$T$105, DW_AT_decl_file("C:/ti/ccsv6/tools/compiler/arm_15.12.3.LTS/include/stdin
    1235                            .dwattr $C$DW$T$105, DW_AT_decl_line(0x3c)
    1236                            .dwattr $C$DW$T$105, DW_AT_decl_column(0x17)
    1237                    
    1238                    $C$DW$T$106     .dwtag  DW_TAG_typedef
    1239                            .dwattr $C$DW$T$106, DW_AT_name("portBASE_TYPE")
    1240                            .dwattr $C$DW$T$106, DW_AT_type(*$C$DW$T$52)
    1241                            .dwattr $C$DW$T$106, DW_AT_language(DW_LANG_C)
    1242                            .dwattr $C$DW$T$106, DW_AT_decl_file("F:/eecs690/TI_ARM_Tiva_Projects/Source/portable/CCS/ARM_
    1243                            .dwattr $C$DW$T$106, DW_AT_decl_line(0x66)
    1244                            .dwattr $C$DW$T$106, DW_AT_decl_column(0x12)
    1245                    
TI ARM Assembler PC v15.12.3 Wed Sep 14 21:38:55 2016

Tools Copyright (c) 1996-2015 Texas Instruments Incorporated
Task_TimerInterrupt.asm                                              PAGE   24

    1246                    $C$DW$T$108     .dwtag  DW_TAG_typedef
    1247                            .dwattr $C$DW$T$108, DW_AT_name("portLONG")
    1248                            .dwattr $C$DW$T$108, DW_AT_type(*$C$DW$T$52)
    1249                            .dwattr $C$DW$T$108, DW_AT_language(DW_LANG_C)
    1250                            .dwattr $C$DW$T$108, DW_AT_decl_file("F:/eecs690/TI_ARM_Tiva_Projects/Source/portable/CCS/ARM_
    1251                            .dwattr $C$DW$T$108, DW_AT_decl_line(0x63)
    1252                            .dwattr $C$DW$T$108, DW_AT_decl_column(0x12)
    1253                    
    1254                    $C$DW$T$109     .dwtag  DW_TAG_typedef
    1255                            .dwattr $C$DW$T$109, DW_AT_name("intptr_t")
    1256                            .dwattr $C$DW$T$109, DW_AT_type(*$C$DW$T$10)
    1257                            .dwattr $C$DW$T$109, DW_AT_language(DW_LANG_C)
    1258                            .dwattr $C$DW$T$109, DW_AT_decl_file("C:/ti/ccsv6/tools/compiler/arm_15.12.3.LTS/include/stdin
    1259                            .dwattr $C$DW$T$109, DW_AT_decl_line(0x52)
    1260                            .dwattr $C$DW$T$109, DW_AT_decl_column(0x1a)
    1261                    
    1262                    $C$DW$T$110     .dwtag  DW_TAG_typedef
    1263                            .dwattr $C$DW$T$110, DW_AT_name("ptrdiff_t")
    1264                            .dwattr $C$DW$T$110, DW_AT_type(*$C$DW$T$10)
    1265                            .dwattr $C$DW$T$110, DW_AT_language(DW_LANG_C)
    1266                            .dwattr $C$DW$T$110, DW_AT_decl_file("C:/ti/ccsv6/tools/compiler/arm_15.12.3.LTS/include/stdde
    1267                            .dwattr $C$DW$T$110, DW_AT_decl_line(0x36)
    1268                            .dwattr $C$DW$T$110, DW_AT_decl_column(0x1c)
    1269                    
    1270                    $C$DW$T$11      .dwtag  DW_TAG_base_type
    1271                            .dwattr $C$DW$T$11, DW_AT_encoding(DW_ATE_unsigned)
    1272                            .dwattr $C$DW$T$11, DW_AT_name("unsigned int")
    1273                            .dwattr $C$DW$T$11, DW_AT_byte_size(0x04)
    1274                    
    1275                    $C$DW$T$21      .dwtag  DW_TAG_typedef
    1276                            .dwattr $C$DW$T$21, DW_AT_name("size_t")
    1277                            .dwattr $C$DW$T$21, DW_AT_type(*$C$DW$T$11)
    1278                            .dwattr $C$DW$T$21, DW_AT_language(DW_LANG_C)
    1279                            .dwattr $C$DW$T$21, DW_AT_decl_file("C:/ti/ccsv6/tools/compiler/arm_15.12.3.LTS/include/stddef
    1280                            .dwattr $C$DW$T$21, DW_AT_decl_line(0x3a)
    1281                            .dwattr $C$DW$T$21, DW_AT_decl_column(0x19)
    1282                    
    1283                    $C$DW$T$24      .dwtag  DW_TAG_typedef
    1284                            .dwattr $C$DW$T$24, DW_AT_name("uint32_t")
    1285                            .dwattr $C$DW$T$24, DW_AT_type(*$C$DW$T$11)
    1286                            .dwattr $C$DW$T$24, DW_AT_language(DW_LANG_C)
    1287                            .dwattr $C$DW$T$24, DW_AT_decl_file("C:/ti/ccsv6/tools/compiler/arm_15.12.3.LTS/include/stdint
    1288                            .dwattr $C$DW$T$24, DW_AT_decl_line(0x2f)
    1289                            .dwattr $C$DW$T$24, DW_AT_decl_column(0x1c)
    1290                    
    1291                    $C$DW$T$43      .dwtag  DW_TAG_typedef
    1292                            .dwattr $C$DW$T$43, DW_AT_name("StackType_t")
    1293                            .dwattr $C$DW$T$43, DW_AT_type(*$C$DW$T$24)
    1294                            .dwattr $C$DW$T$43, DW_AT_language(DW_LANG_C)
    1295                            .dwattr $C$DW$T$43, DW_AT_decl_file("F:/eecs690/TI_ARM_Tiva_Projects/Source/portable/CCS/ARM_C
    1296                            .dwattr $C$DW$T$43, DW_AT_decl_line(0x68)
    1297                            .dwattr $C$DW$T$43, DW_AT_decl_column(0x12)
    1298                    
    1299                    $C$DW$T$44      .dwtag  DW_TAG_pointer_type
    1300                            .dwattr $C$DW$T$44, DW_AT_type(*$C$DW$T$43)
TI ARM Assembler PC v15.12.3 Wed Sep 14 21:38:55 2016

Tools Copyright (c) 1996-2015 Texas Instruments Incorporated
Task_TimerInterrupt.asm                                              PAGE   25

    1301                            .dwattr $C$DW$T$44, DW_AT_address_class(0x20)
    1302                    
    1303                    $C$DW$T$30      .dwtag  DW_TAG_typedef
    1304                            .dwattr $C$DW$T$30, DW_AT_name("TickType_t")
    1305                            .dwattr $C$DW$T$30, DW_AT_type(*$C$DW$T$24)
    1306                            .dwattr $C$DW$T$30, DW_AT_language(DW_LANG_C)
    1307                            .dwattr $C$DW$T$30, DW_AT_decl_file("F:/eecs690/TI_ARM_Tiva_Projects/Source/portable/CCS/ARM_C
    1308                            .dwattr $C$DW$T$30, DW_AT_decl_line(0x70)
    1309                            .dwattr $C$DW$T$30, DW_AT_decl_column(0x13)
    1310                    
    1311                    $C$DW$T$25      .dwtag  DW_TAG_typedef
    1312                            .dwattr $C$DW$T$25, DW_AT_name("UBaseType_t")
    1313                            .dwattr $C$DW$T$25, DW_AT_type(*$C$DW$T$24)
    1314                            .dwattr $C$DW$T$25, DW_AT_language(DW_LANG_C)
    1315                            .dwattr $C$DW$T$25, DW_AT_decl_file("F:/eecs690/TI_ARM_Tiva_Projects/Source/portable/CCS/ARM_C
    1316                            .dwattr $C$DW$T$25, DW_AT_decl_line(0x6a)
    1317                            .dwattr $C$DW$T$25, DW_AT_decl_column(0x12)
    1318                    
    1319                    $C$DW$T$62      .dwtag  DW_TAG_const_type
    1320                            .dwattr $C$DW$T$62, DW_AT_type(*$C$DW$T$25)
    1321                    
    1322                    $C$DW$T$111     .dwtag  DW_TAG_typedef
    1323                            .dwattr $C$DW$T$111, DW_AT_name("portSTACK_TYPE")
    1324                            .dwattr $C$DW$T$111, DW_AT_type(*$C$DW$T$24)
    1325                            .dwattr $C$DW$T$111, DW_AT_language(DW_LANG_C)
    1326                            .dwattr $C$DW$T$111, DW_AT_decl_file("F:/eecs690/TI_ARM_Tiva_Projects/Source/portable/CCS/ARM_
    1327                            .dwattr $C$DW$T$111, DW_AT_decl_line(0x65)
    1328                            .dwattr $C$DW$T$111, DW_AT_decl_column(0x12)
    1329                    
    1330                    $C$DW$T$114     .dwtag  DW_TAG_typedef
    1331                            .dwattr $C$DW$T$114, DW_AT_name("uint_fast16_t")
    1332                            .dwattr $C$DW$T$114, DW_AT_type(*$C$DW$T$24)
    1333                            .dwattr $C$DW$T$114, DW_AT_language(DW_LANG_C)
    1334                            .dwattr $C$DW$T$114, DW_AT_decl_file("C:/ti/ccsv6/tools/compiler/arm_15.12.3.LTS/include/stdin
    1335                            .dwattr $C$DW$T$114, DW_AT_decl_line(0x48)
    1336                            .dwattr $C$DW$T$114, DW_AT_decl_column(0x16)
    1337                    
    1338                    $C$DW$T$115     .dwtag  DW_TAG_typedef
    1339                            .dwattr $C$DW$T$115, DW_AT_name("uint_fast32_t")
    1340                            .dwattr $C$DW$T$115, DW_AT_type(*$C$DW$T$24)
    1341                            .dwattr $C$DW$T$115, DW_AT_language(DW_LANG_C)
    1342                            .dwattr $C$DW$T$115, DW_AT_decl_file("C:/ti/ccsv6/tools/compiler/arm_15.12.3.LTS/include/stdin
    1343                            .dwattr $C$DW$T$115, DW_AT_decl_line(0x4b)
    1344                            .dwattr $C$DW$T$115, DW_AT_decl_column(0x16)
    1345                    
    1346                    $C$DW$T$116     .dwtag  DW_TAG_typedef
    1347                            .dwattr $C$DW$T$116, DW_AT_name("uint_fast8_t")
    1348                            .dwattr $C$DW$T$116, DW_AT_type(*$C$DW$T$24)
    1349                            .dwattr $C$DW$T$116, DW_AT_language(DW_LANG_C)
    1350                            .dwattr $C$DW$T$116, DW_AT_decl_file("C:/ti/ccsv6/tools/compiler/arm_15.12.3.LTS/include/stdin
    1351                            .dwattr $C$DW$T$116, DW_AT_decl_line(0x46)
    1352                            .dwattr $C$DW$T$116, DW_AT_decl_column(0x16)
    1353                    
    1354                    $C$DW$T$117     .dwtag  DW_TAG_typedef
    1355                            .dwattr $C$DW$T$117, DW_AT_name("uint_least32_t")
TI ARM Assembler PC v15.12.3 Wed Sep 14 21:38:55 2016

Tools Copyright (c) 1996-2015 Texas Instruments Incorporated
Task_TimerInterrupt.asm                                              PAGE   26

    1356                            .dwattr $C$DW$T$117, DW_AT_type(*$C$DW$T$24)
    1357                            .dwattr $C$DW$T$117, DW_AT_language(DW_LANG_C)
    1358                            .dwattr $C$DW$T$117, DW_AT_decl_file("C:/ti/ccsv6/tools/compiler/arm_15.12.3.LTS/include/stdin
    1359                            .dwattr $C$DW$T$117, DW_AT_decl_line(0x3d)
    1360                            .dwattr $C$DW$T$117, DW_AT_decl_column(0x16)
    1361                    
    1362                    $C$DW$T$118     .dwtag  DW_TAG_typedef
    1363                            .dwattr $C$DW$T$118, DW_AT_name("uintptr_t")
    1364                            .dwattr $C$DW$T$118, DW_AT_type(*$C$DW$T$11)
    1365                            .dwattr $C$DW$T$118, DW_AT_language(DW_LANG_C)
    1366                            .dwattr $C$DW$T$118, DW_AT_decl_file("C:/ti/ccsv6/tools/compiler/arm_15.12.3.LTS/include/stdin
    1367                            .dwattr $C$DW$T$118, DW_AT_decl_line(0x53)
    1368                            .dwattr $C$DW$T$118, DW_AT_decl_column(0x1a)
    1369                    
    1370                    $C$DW$T$12      .dwtag  DW_TAG_base_type
    1371                            .dwattr $C$DW$T$12, DW_AT_encoding(DW_ATE_signed)
    1372                            .dwattr $C$DW$T$12, DW_AT_name("long")
    1373                            .dwattr $C$DW$T$12, DW_AT_byte_size(0x04)
    1374                    
    1375                    $C$DW$T$13      .dwtag  DW_TAG_base_type
    1376                            .dwattr $C$DW$T$13, DW_AT_encoding(DW_ATE_unsigned)
    1377                            .dwattr $C$DW$T$13, DW_AT_name("unsigned long")
    1378                            .dwattr $C$DW$T$13, DW_AT_byte_size(0x04)
    1379                    
    1380                    $C$DW$T$14      .dwtag  DW_TAG_base_type
    1381                            .dwattr $C$DW$T$14, DW_AT_encoding(DW_ATE_signed)
    1382                            .dwattr $C$DW$T$14, DW_AT_name("long long")
    1383                            .dwattr $C$DW$T$14, DW_AT_byte_size(0x08)
    1384                    
    1385                    $C$DW$T$119     .dwtag  DW_TAG_typedef
    1386                            .dwattr $C$DW$T$119, DW_AT_name("int64_t")
    1387                            .dwattr $C$DW$T$119, DW_AT_type(*$C$DW$T$14)
    1388                            .dwattr $C$DW$T$119, DW_AT_language(DW_LANG_C)
    1389                            .dwattr $C$DW$T$119, DW_AT_decl_file("C:/ti/ccsv6/tools/compiler/arm_15.12.3.LTS/include/stdin
    1390                            .dwattr $C$DW$T$119, DW_AT_decl_line(0x32)
    1391                            .dwattr $C$DW$T$119, DW_AT_decl_column(0x21)
    1392                    
    1393                    $C$DW$T$120     .dwtag  DW_TAG_typedef
    1394                            .dwattr $C$DW$T$120, DW_AT_name("int_fast64_t")
    1395                            .dwattr $C$DW$T$120, DW_AT_type(*$C$DW$T$119)
    1396                            .dwattr $C$DW$T$120, DW_AT_language(DW_LANG_C)
    1397                            .dwattr $C$DW$T$120, DW_AT_decl_file("C:/ti/ccsv6/tools/compiler/arm_15.12.3.LTS/include/stdin
    1398                            .dwattr $C$DW$T$120, DW_AT_decl_line(0x4e)
    1399                            .dwattr $C$DW$T$120, DW_AT_decl_column(0x17)
    1400                    
    1401                    $C$DW$T$121     .dwtag  DW_TAG_typedef
    1402                            .dwattr $C$DW$T$121, DW_AT_name("int_least64_t")
    1403                            .dwattr $C$DW$T$121, DW_AT_type(*$C$DW$T$119)
    1404                            .dwattr $C$DW$T$121, DW_AT_language(DW_LANG_C)
    1405                            .dwattr $C$DW$T$121, DW_AT_decl_file("C:/ti/ccsv6/tools/compiler/arm_15.12.3.LTS/include/stdin
    1406                            .dwattr $C$DW$T$121, DW_AT_decl_line(0x40)
    1407                            .dwattr $C$DW$T$121, DW_AT_decl_column(0x17)
    1408                    
    1409                    $C$DW$T$122     .dwtag  DW_TAG_typedef
    1410                            .dwattr $C$DW$T$122, DW_AT_name("portDOUBLE")
TI ARM Assembler PC v15.12.3 Wed Sep 14 21:38:55 2016

Tools Copyright (c) 1996-2015 Texas Instruments Incorporated
Task_TimerInterrupt.asm                                              PAGE   27

    1411                            .dwattr $C$DW$T$122, DW_AT_type(*$C$DW$T$119)
    1412                            .dwattr $C$DW$T$122, DW_AT_language(DW_LANG_C)
    1413                            .dwattr $C$DW$T$122, DW_AT_decl_file("F:/eecs690/TI_ARM_Tiva_Projects/Source/portable/CCS/ARM_
    1414                            .dwattr $C$DW$T$122, DW_AT_decl_line(0x62)
    1415                            .dwattr $C$DW$T$122, DW_AT_decl_column(0x12)
    1416                    
    1417                    $C$DW$T$123     .dwtag  DW_TAG_typedef
    1418                            .dwattr $C$DW$T$123, DW_AT_name("intmax_t")
    1419                            .dwattr $C$DW$T$123, DW_AT_type(*$C$DW$T$14)
    1420                            .dwattr $C$DW$T$123, DW_AT_language(DW_LANG_C)
    1421                            .dwattr $C$DW$T$123, DW_AT_decl_file("C:/ti/ccsv6/tools/compiler/arm_15.12.3.LTS/include/stdin
    1422                            .dwattr $C$DW$T$123, DW_AT_decl_line(0x56)
    1423                            .dwattr $C$DW$T$123, DW_AT_decl_column(0x20)
    1424                    
    1425                    $C$DW$T$15      .dwtag  DW_TAG_base_type
    1426                            .dwattr $C$DW$T$15, DW_AT_encoding(DW_ATE_unsigned)
    1427                            .dwattr $C$DW$T$15, DW_AT_name("unsigned long long")
    1428                            .dwattr $C$DW$T$15, DW_AT_byte_size(0x08)
    1429                    
    1430                    $C$DW$T$124     .dwtag  DW_TAG_typedef
    1431                            .dwattr $C$DW$T$124, DW_AT_name("uint64_t")
    1432                            .dwattr $C$DW$T$124, DW_AT_type(*$C$DW$T$15)
    1433                            .dwattr $C$DW$T$124, DW_AT_language(DW_LANG_C)
    1434                            .dwattr $C$DW$T$124, DW_AT_decl_file("C:/ti/ccsv6/tools/compiler/arm_15.12.3.LTS/include/stdin
    1435                            .dwattr $C$DW$T$124, DW_AT_decl_line(0x33)
    1436                            .dwattr $C$DW$T$124, DW_AT_decl_column(0x20)
    1437                    
    1438                    $C$DW$T$125     .dwtag  DW_TAG_typedef
    1439                            .dwattr $C$DW$T$125, DW_AT_name("uint_fast64_t")
    1440                            .dwattr $C$DW$T$125, DW_AT_type(*$C$DW$T$124)
    1441                            .dwattr $C$DW$T$125, DW_AT_language(DW_LANG_C)
    1442                            .dwattr $C$DW$T$125, DW_AT_decl_file("C:/ti/ccsv6/tools/compiler/arm_15.12.3.LTS/include/stdin
    1443                            .dwattr $C$DW$T$125, DW_AT_decl_line(0x4f)
    1444                            .dwattr $C$DW$T$125, DW_AT_decl_column(0x16)
    1445                    
    1446                    $C$DW$T$126     .dwtag  DW_TAG_typedef
    1447                            .dwattr $C$DW$T$126, DW_AT_name("uint_least64_t")
    1448                            .dwattr $C$DW$T$126, DW_AT_type(*$C$DW$T$124)
    1449                            .dwattr $C$DW$T$126, DW_AT_language(DW_LANG_C)
    1450                            .dwattr $C$DW$T$126, DW_AT_decl_file("C:/ti/ccsv6/tools/compiler/arm_15.12.3.LTS/include/stdin
    1451                            .dwattr $C$DW$T$126, DW_AT_decl_line(0x41)
    1452                            .dwattr $C$DW$T$126, DW_AT_decl_column(0x16)
    1453                    
    1454                    $C$DW$T$127     .dwtag  DW_TAG_typedef
    1455                            .dwattr $C$DW$T$127, DW_AT_name("uintmax_t")
    1456                            .dwattr $C$DW$T$127, DW_AT_type(*$C$DW$T$15)
    1457                            .dwattr $C$DW$T$127, DW_AT_language(DW_LANG_C)
    1458                            .dwattr $C$DW$T$127, DW_AT_decl_file("C:/ti/ccsv6/tools/compiler/arm_15.12.3.LTS/include/stdin
    1459                            .dwattr $C$DW$T$127, DW_AT_decl_line(0x57)
    1460                            .dwattr $C$DW$T$127, DW_AT_decl_column(0x20)
    1461                    
    1462                    $C$DW$T$16      .dwtag  DW_TAG_base_type
    1463                            .dwattr $C$DW$T$16, DW_AT_encoding(DW_ATE_float)
    1464                            .dwattr $C$DW$T$16, DW_AT_name("float")
    1465                            .dwattr $C$DW$T$16, DW_AT_byte_size(0x04)
TI ARM Assembler PC v15.12.3 Wed Sep 14 21:38:55 2016

Tools Copyright (c) 1996-2015 Texas Instruments Incorporated
Task_TimerInterrupt.asm                                              PAGE   28

    1466                    
    1467                    $C$DW$T$128     .dwtag  DW_TAG_typedef
    1468                            .dwattr $C$DW$T$128, DW_AT_name("portFLOAT")
    1469                            .dwattr $C$DW$T$128, DW_AT_type(*$C$DW$T$16)
    1470                            .dwattr $C$DW$T$128, DW_AT_language(DW_LANG_C)
    1471                            .dwattr $C$DW$T$128, DW_AT_decl_file("F:/eecs690/TI_ARM_Tiva_Projects/Source/portable/CCS/ARM_
    1472                            .dwattr $C$DW$T$128, DW_AT_decl_line(0x61)
    1473                            .dwattr $C$DW$T$128, DW_AT_decl_column(0x10)
    1474                    
    1475                    $C$DW$T$17      .dwtag  DW_TAG_base_type
    1476                            .dwattr $C$DW$T$17, DW_AT_encoding(DW_ATE_float)
    1477                            .dwattr $C$DW$T$17, DW_AT_name("double")
    1478                            .dwattr $C$DW$T$17, DW_AT_byte_size(0x08)
    1479                    
    1480                    $C$DW$T$18      .dwtag  DW_TAG_base_type
    1481                            .dwattr $C$DW$T$18, DW_AT_encoding(DW_ATE_float)
    1482                            .dwattr $C$DW$T$18, DW_AT_name("long double")
    1483                            .dwattr $C$DW$T$18, DW_AT_byte_size(0x08)
    1484                    
    1485                    $C$DW$T$39      .dwtag  DW_TAG_const_type
    1486                            .dwattr $C$DW$T$39, DW_AT_type(*$C$DW$T$6)
    1487                    
    1488                    $C$DW$T$40      .dwtag  DW_TAG_pointer_type
    1489                            .dwattr $C$DW$T$40, DW_AT_type(*$C$DW$T$39)
    1490                            .dwattr $C$DW$T$40, DW_AT_address_class(0x20)
    1491                    
    1492                    $C$DW$T$41      .dwtag  DW_TAG_const_type
    1493                            .dwattr $C$DW$T$41, DW_AT_type(*$C$DW$T$40)
    1494                    
    1495                    
    1496                    $C$DW$T$23      .dwtag  DW_TAG_structure_type
    1497                            .dwattr $C$DW$T$23, DW_AT_name("__va_list")
    1498                            .dwattr $C$DW$T$23, DW_AT_byte_size(0x04)
    1499                    $C$DW$86        .dwtag  DW_TAG_member
    1500                            .dwattr $C$DW$86, DW_AT_type(*$C$DW$T$3)
    1501                            .dwattr $C$DW$86, DW_AT_name("__ap")
    1502                            .dwattr $C$DW$86, DW_AT_TI_symbol_name("__ap")
    1503                            .dwattr $C$DW$86, DW_AT_data_member_location[DW_OP_plus_uconst 0x0]
    1504                            .dwattr $C$DW$86, DW_AT_accessibility(DW_ACCESS_public)
    1505                            .dwattr $C$DW$86, DW_AT_decl_file("C:/ti/ccsv6/tools/compiler/arm_15.12.3.LTS/include/stdarg.h
    1506                            .dwattr $C$DW$86, DW_AT_decl_line(0x38)
    1507                            .dwattr $C$DW$86, DW_AT_decl_column(0x0c)
    1508                    
    1509                            .dwattr $C$DW$T$23, DW_AT_decl_file("C:/ti/ccsv6/tools/compiler/arm_15.12.3.LTS/include/stdarg
    1510                            .dwattr $C$DW$T$23, DW_AT_decl_line(0x37)
    1511                            .dwattr $C$DW$T$23, DW_AT_decl_column(0x10)
    1512                            .dwendtag $C$DW$T$23
    1513                    
    1514                    $C$DW$T$130     .dwtag  DW_TAG_typedef
    1515                            .dwattr $C$DW$T$130, DW_AT_name("va_list")
    1516                            .dwattr $C$DW$T$130, DW_AT_type(*$C$DW$T$23)
    1517                            .dwattr $C$DW$T$130, DW_AT_language(DW_LANG_C)
    1518                            .dwattr $C$DW$T$130, DW_AT_decl_file("C:/ti/ccsv6/tools/compiler/arm_15.12.3.LTS/include/stdar
    1519                            .dwattr $C$DW$T$130, DW_AT_decl_line(0x39)
    1520                            .dwattr $C$DW$T$130, DW_AT_decl_column(0x03)
TI ARM Assembler PC v15.12.3 Wed Sep 14 21:38:55 2016

Tools Copyright (c) 1996-2015 Texas Instruments Incorporated
Task_TimerInterrupt.asm                                              PAGE   29

    1521                    
    1522                    
    1523                    $C$DW$T$29      .dwtag  DW_TAG_structure_type
    1524                            .dwattr $C$DW$T$29, DW_AT_name("xLIST")
    1525                            .dwattr $C$DW$T$29, DW_AT_byte_size(0x14)
    1526                    $C$DW$87        .dwtag  DW_TAG_member
    1527                            .dwattr $C$DW$87, DW_AT_type(*$C$DW$T$25)
    1528                            .dwattr $C$DW$87, DW_AT_name("uxNumberOfItems")
    1529                            .dwattr $C$DW$87, DW_AT_TI_symbol_name("uxNumberOfItems")
    1530                            .dwattr $C$DW$87, DW_AT_data_member_location[DW_OP_plus_uconst 0x0]
    1531                            .dwattr $C$DW$87, DW_AT_accessibility(DW_ACCESS_public)
    1532                            .dwattr $C$DW$87, DW_AT_decl_file("F:\eecs690\TI_ARM_Tiva_Projects\Source\include\list.h")
    1533                            .dwattr $C$DW$87, DW_AT_decl_line(0xd0)
    1534                            .dwattr $C$DW$87, DW_AT_decl_column(0x22)
    1535                    
    1536                    $C$DW$88        .dwtag  DW_TAG_member
    1537                            .dwattr $C$DW$88, DW_AT_type(*$C$DW$T$27)
    1538                            .dwattr $C$DW$88, DW_AT_name("pxIndex")
    1539                            .dwattr $C$DW$88, DW_AT_TI_symbol_name("pxIndex")
    1540                            .dwattr $C$DW$88, DW_AT_data_member_location[DW_OP_plus_uconst 0x4]
    1541                            .dwattr $C$DW$88, DW_AT_accessibility(DW_ACCESS_public)
    1542                            .dwattr $C$DW$88, DW_AT_decl_file("F:\eecs690\TI_ARM_Tiva_Projects\Source\include\list.h")
    1543                            .dwattr $C$DW$88, DW_AT_decl_line(0xd1)
    1544                            .dwattr $C$DW$88, DW_AT_decl_column(0x23)
    1545                    
    1546                    $C$DW$89        .dwtag  DW_TAG_member
    1547                            .dwattr $C$DW$89, DW_AT_type(*$C$DW$T$28)
    1548                            .dwattr $C$DW$89, DW_AT_name("xListEnd")
    1549                            .dwattr $C$DW$89, DW_AT_TI_symbol_name("xListEnd")
    1550                            .dwattr $C$DW$89, DW_AT_data_member_location[DW_OP_plus_uconst 0x8]
    1551                            .dwattr $C$DW$89, DW_AT_accessibility(DW_ACCESS_public)
    1552                            .dwattr $C$DW$89, DW_AT_decl_file("F:\eecs690\TI_ARM_Tiva_Projects\Source\include\list.h")
    1553                            .dwattr $C$DW$89, DW_AT_decl_line(0xd2)
    1554                            .dwattr $C$DW$89, DW_AT_decl_column(0x11)
    1555                    
    1556                            .dwattr $C$DW$T$29, DW_AT_decl_file("F:\eecs690\TI_ARM_Tiva_Projects\Source\include\list.h")
    1557                            .dwattr $C$DW$T$29, DW_AT_decl_line(0xcd)
    1558                            .dwattr $C$DW$T$29, DW_AT_decl_column(0x10)
    1559                            .dwendtag $C$DW$T$29
    1560                    
    1561                    $C$DW$T$131     .dwtag  DW_TAG_typedef
    1562                            .dwattr $C$DW$T$131, DW_AT_name("List_t")
    1563                            .dwattr $C$DW$T$131, DW_AT_type(*$C$DW$T$29)
    1564                            .dwattr $C$DW$T$131, DW_AT_language(DW_LANG_C)
    1565                            .dwattr $C$DW$T$131, DW_AT_decl_file("F:\eecs690\TI_ARM_Tiva_Projects\Source\include\list.h")
    1566                            .dwattr $C$DW$T$131, DW_AT_decl_line(0xd4)
    1567                            .dwattr $C$DW$T$131, DW_AT_decl_column(0x03)
    1568                    
    1569                    
    1570                    $C$DW$T$32      .dwtag  DW_TAG_structure_type
    1571                            .dwattr $C$DW$T$32, DW_AT_name("xLIST_ITEM")
    1572                            .dwattr $C$DW$T$32, DW_AT_byte_size(0x14)
    1573                    $C$DW$90        .dwtag  DW_TAG_member
    1574                            .dwattr $C$DW$90, DW_AT_type(*$C$DW$T$30)
    1575                            .dwattr $C$DW$90, DW_AT_name("xItemValue")
TI ARM Assembler PC v15.12.3 Wed Sep 14 21:38:55 2016

Tools Copyright (c) 1996-2015 Texas Instruments Incorporated
Task_TimerInterrupt.asm                                              PAGE   30

    1576                            .dwattr $C$DW$90, DW_AT_TI_symbol_name("xItemValue")
    1577                            .dwattr $C$DW$90, DW_AT_data_member_location[DW_OP_plus_uconst 0x0]
    1578                            .dwattr $C$DW$90, DW_AT_accessibility(DW_ACCESS_public)
    1579                            .dwattr $C$DW$90, DW_AT_decl_file("F:\eecs690\TI_ARM_Tiva_Projects\Source\include\list.h")
    1580                            .dwattr $C$DW$90, DW_AT_decl_line(0xb8)
    1581                            .dwattr $C$DW$90, DW_AT_decl_column(0x21)
    1582                    
    1583                    $C$DW$91        .dwtag  DW_TAG_member
    1584                            .dwattr $C$DW$91, DW_AT_type(*$C$DW$T$31)
    1585                            .dwattr $C$DW$91, DW_AT_name("pxNext")
    1586                            .dwattr $C$DW$91, DW_AT_TI_symbol_name("pxNext")
    1587                            .dwattr $C$DW$91, DW_AT_data_member_location[DW_OP_plus_uconst 0x4]
    1588                            .dwattr $C$DW$91, DW_AT_accessibility(DW_ACCESS_public)
    1589                            .dwattr $C$DW$91, DW_AT_decl_file("F:\eecs690\TI_ARM_Tiva_Projects\Source\include\list.h")
    1590                            .dwattr $C$DW$91, DW_AT_decl_line(0xb9)
    1591                            .dwattr $C$DW$91, DW_AT_decl_column(0x2a)
    1592                    
    1593                    $C$DW$92        .dwtag  DW_TAG_member
    1594                            .dwattr $C$DW$92, DW_AT_type(*$C$DW$T$31)
    1595                            .dwattr $C$DW$92, DW_AT_name("pxPrevious")
    1596                            .dwattr $C$DW$92, DW_AT_TI_symbol_name("pxPrevious")
    1597                            .dwattr $C$DW$92, DW_AT_data_member_location[DW_OP_plus_uconst 0x8]
    1598                            .dwattr $C$DW$92, DW_AT_accessibility(DW_ACCESS_public)
    1599                            .dwattr $C$DW$92, DW_AT_decl_file("F:\eecs690\TI_ARM_Tiva_Projects\Source\include\list.h")
    1600                            .dwattr $C$DW$92, DW_AT_decl_line(0xba)
    1601                            .dwattr $C$DW$92, DW_AT_decl_column(0x2a)
    1602                    
    1603                    $C$DW$93        .dwtag  DW_TAG_member
    1604                            .dwattr $C$DW$93, DW_AT_type(*$C$DW$T$3)
    1605                            .dwattr $C$DW$93, DW_AT_name("pvOwner")
    1606                            .dwattr $C$DW$93, DW_AT_TI_symbol_name("pvOwner")
    1607                            .dwattr $C$DW$93, DW_AT_data_member_location[DW_OP_plus_uconst 0xc]
    1608                            .dwattr $C$DW$93, DW_AT_accessibility(DW_ACCESS_public)
    1609                            .dwattr $C$DW$93, DW_AT_decl_file("F:\eecs690\TI_ARM_Tiva_Projects\Source\include\list.h")
    1610                            .dwattr $C$DW$93, DW_AT_decl_line(0xbb)
    1611                            .dwattr $C$DW$93, DW_AT_decl_column(0x09)
    1612                    
    1613                    $C$DW$94        .dwtag  DW_TAG_member
    1614                            .dwattr $C$DW$94, DW_AT_type(*$C$DW$T$3)
    1615                            .dwattr $C$DW$94, DW_AT_name("pvContainer")
    1616                            .dwattr $C$DW$94, DW_AT_TI_symbol_name("pvContainer")
    1617                            .dwattr $C$DW$94, DW_AT_data_member_location[DW_OP_plus_uconst 0x10]
    1618                            .dwattr $C$DW$94, DW_AT_accessibility(DW_ACCESS_public)
    1619                            .dwattr $C$DW$94, DW_AT_decl_file("F:\eecs690\TI_ARM_Tiva_Projects\Source\include\list.h")
    1620                            .dwattr $C$DW$94, DW_AT_decl_line(0xbc)
    1621                            .dwattr $C$DW$94, DW_AT_decl_column(0x1d)
    1622                    
    1623                            .dwattr $C$DW$T$32, DW_AT_decl_file("F:\eecs690\TI_ARM_Tiva_Projects\Source\include\list.h")
    1624                            .dwattr $C$DW$T$32, DW_AT_decl_line(0xb5)
    1625                            .dwattr $C$DW$T$32, DW_AT_decl_column(0x08)
    1626                            .dwendtag $C$DW$T$32
    1627                    
    1628                    $C$DW$T$26      .dwtag  DW_TAG_typedef
    1629                            .dwattr $C$DW$T$26, DW_AT_name("ListItem_t")
    1630                            .dwattr $C$DW$T$26, DW_AT_type(*$C$DW$T$32)
TI ARM Assembler PC v15.12.3 Wed Sep 14 21:38:55 2016

Tools Copyright (c) 1996-2015 Texas Instruments Incorporated
Task_TimerInterrupt.asm                                              PAGE   31

    1631                            .dwattr $C$DW$T$26, DW_AT_language(DW_LANG_C)
    1632                            .dwattr $C$DW$T$26, DW_AT_decl_file("F:\eecs690\TI_ARM_Tiva_Projects\Source\include\list.h")
    1633                            .dwattr $C$DW$T$26, DW_AT_decl_line(0xbf)
    1634                            .dwattr $C$DW$T$26, DW_AT_decl_column(0x1b)
    1635                    
    1636                    $C$DW$T$27      .dwtag  DW_TAG_pointer_type
    1637                            .dwattr $C$DW$T$27, DW_AT_type(*$C$DW$T$26)
    1638                            .dwattr $C$DW$T$27, DW_AT_address_class(0x20)
    1639                    
    1640                    $C$DW$T$31      .dwtag  DW_TAG_pointer_type
    1641                            .dwattr $C$DW$T$31, DW_AT_type(*$C$DW$T$32)
    1642                            .dwattr $C$DW$T$31, DW_AT_address_class(0x20)
    1643                    
    1644                    
    1645                    $C$DW$T$33      .dwtag  DW_TAG_structure_type
    1646                            .dwattr $C$DW$T$33, DW_AT_name("xMEMORY_REGION")
    1647                            .dwattr $C$DW$T$33, DW_AT_byte_size(0x0c)
    1648                    $C$DW$95        .dwtag  DW_TAG_member
    1649                            .dwattr $C$DW$95, DW_AT_type(*$C$DW$T$3)
    1650                            .dwattr $C$DW$95, DW_AT_name("pvBaseAddress")
    1651                            .dwattr $C$DW$95, DW_AT_TI_symbol_name("pvBaseAddress")
    1652                            .dwattr $C$DW$95, DW_AT_data_member_location[DW_OP_plus_uconst 0x0]
    1653                            .dwattr $C$DW$95, DW_AT_accessibility(DW_ACCESS_public)
    1654                            .dwattr $C$DW$95, DW_AT_decl_file("F:/eecs690/TI_ARM_Tiva_Projects/Source/include/task.h")
    1655                            .dwattr $C$DW$95, DW_AT_decl_line(0x91)
    1656                            .dwattr $C$DW$95, DW_AT_decl_column(0x08)
    1657                    
    1658                    $C$DW$96        .dwtag  DW_TAG_member
    1659                            .dwattr $C$DW$96, DW_AT_type(*$C$DW$T$24)
    1660                            .dwattr $C$DW$96, DW_AT_name("ulLengthInBytes")
    1661                            .dwattr $C$DW$96, DW_AT_TI_symbol_name("ulLengthInBytes")
    1662                            .dwattr $C$DW$96, DW_AT_data_member_location[DW_OP_plus_uconst 0x4]
    1663                            .dwattr $C$DW$96, DW_AT_accessibility(DW_ACCESS_public)
    1664                            .dwattr $C$DW$96, DW_AT_decl_file("F:/eecs690/TI_ARM_Tiva_Projects/Source/include/task.h")
    1665                            .dwattr $C$DW$96, DW_AT_decl_line(0x92)
    1666                            .dwattr $C$DW$96, DW_AT_decl_column(0x0b)
    1667                    
    1668                    $C$DW$97        .dwtag  DW_TAG_member
    1669                            .dwattr $C$DW$97, DW_AT_type(*$C$DW$T$24)
    1670                            .dwattr $C$DW$97, DW_AT_name("ulParameters")
    1671                            .dwattr $C$DW$97, DW_AT_TI_symbol_name("ulParameters")
    1672                            .dwattr $C$DW$97, DW_AT_data_member_location[DW_OP_plus_uconst 0x8]
    1673                            .dwattr $C$DW$97, DW_AT_accessibility(DW_ACCESS_public)
    1674                            .dwattr $C$DW$97, DW_AT_decl_file("F:/eecs690/TI_ARM_Tiva_Projects/Source/include/task.h")
    1675                            .dwattr $C$DW$97, DW_AT_decl_line(0x93)
    1676                            .dwattr $C$DW$97, DW_AT_decl_column(0x0b)
    1677                    
    1678                            .dwattr $C$DW$T$33, DW_AT_decl_file("F:/eecs690/TI_ARM_Tiva_Projects/Source/include/task.h")
    1679                            .dwattr $C$DW$T$33, DW_AT_decl_line(0x8f)
    1680                            .dwattr $C$DW$T$33, DW_AT_decl_column(0x10)
    1681                            .dwendtag $C$DW$T$33
    1682                    
    1683                    $C$DW$T$45      .dwtag  DW_TAG_typedef
    1684                            .dwattr $C$DW$T$45, DW_AT_name("MemoryRegion_t")
    1685                            .dwattr $C$DW$T$45, DW_AT_type(*$C$DW$T$33)
TI ARM Assembler PC v15.12.3 Wed Sep 14 21:38:55 2016

Tools Copyright (c) 1996-2015 Texas Instruments Incorporated
Task_TimerInterrupt.asm                                              PAGE   32

    1686                            .dwattr $C$DW$T$45, DW_AT_language(DW_LANG_C)
    1687                            .dwattr $C$DW$T$45, DW_AT_decl_file("F:/eecs690/TI_ARM_Tiva_Projects/Source/include/task.h")
    1688                            .dwattr $C$DW$T$45, DW_AT_decl_line(0x94)
    1689                            .dwattr $C$DW$T$45, DW_AT_decl_column(0x03)
    1690                    
    1691                    
    1692                    $C$DW$T$46      .dwtag  DW_TAG_array_type
    1693                            .dwattr $C$DW$T$46, DW_AT_type(*$C$DW$T$45)
    1694                            .dwattr $C$DW$T$46, DW_AT_language(DW_LANG_C)
    1695                            .dwattr $C$DW$T$46, DW_AT_byte_size(0x0c)
    1696                    $C$DW$98        .dwtag  DW_TAG_subrange_type
    1697                            .dwattr $C$DW$98, DW_AT_upper_bound(0x00)
    1698                    
    1699                            .dwendtag $C$DW$T$46
    1700                    
    1701                    
    1702                    $C$DW$T$34      .dwtag  DW_TAG_structure_type
    1703                            .dwattr $C$DW$T$34, DW_AT_name("xMINI_LIST_ITEM")
    1704                            .dwattr $C$DW$T$34, DW_AT_byte_size(0x0c)
    1705                    $C$DW$99        .dwtag  DW_TAG_member
    1706                            .dwattr $C$DW$99, DW_AT_type(*$C$DW$T$30)
    1707                            .dwattr $C$DW$99, DW_AT_name("xItemValue")
    1708                            .dwattr $C$DW$99, DW_AT_TI_symbol_name("xItemValue")
    1709                            .dwattr $C$DW$99, DW_AT_data_member_location[DW_OP_plus_uconst 0x0]
    1710                            .dwattr $C$DW$99, DW_AT_accessibility(DW_ACCESS_public)
    1711                            .dwattr $C$DW$99, DW_AT_decl_file("F:\eecs690\TI_ARM_Tiva_Projects\Source\include\list.h")
    1712                            .dwattr $C$DW$99, DW_AT_decl_line(0xc4)
    1713                            .dwattr $C$DW$99, DW_AT_decl_column(0x21)
    1714                    
    1715                    $C$DW$100       .dwtag  DW_TAG_member
    1716                            .dwattr $C$DW$100, DW_AT_type(*$C$DW$T$31)
    1717                            .dwattr $C$DW$100, DW_AT_name("pxNext")
    1718                            .dwattr $C$DW$100, DW_AT_TI_symbol_name("pxNext")
    1719                            .dwattr $C$DW$100, DW_AT_data_member_location[DW_OP_plus_uconst 0x4]
    1720                            .dwattr $C$DW$100, DW_AT_accessibility(DW_ACCESS_public)
    1721                            .dwattr $C$DW$100, DW_AT_decl_file("F:\eecs690\TI_ARM_Tiva_Projects\Source\include\list.h")
    1722                            .dwattr $C$DW$100, DW_AT_decl_line(0xc5)
    1723                            .dwattr $C$DW$100, DW_AT_decl_column(0x2a)
    1724                    
    1725                    $C$DW$101       .dwtag  DW_TAG_member
    1726                            .dwattr $C$DW$101, DW_AT_type(*$C$DW$T$31)
    1727                            .dwattr $C$DW$101, DW_AT_name("pxPrevious")
    1728                            .dwattr $C$DW$101, DW_AT_TI_symbol_name("pxPrevious")
    1729                            .dwattr $C$DW$101, DW_AT_data_member_location[DW_OP_plus_uconst 0x8]
    1730                            .dwattr $C$DW$101, DW_AT_accessibility(DW_ACCESS_public)
    1731                            .dwattr $C$DW$101, DW_AT_decl_file("F:\eecs690\TI_ARM_Tiva_Projects\Source\include\list.h")
    1732                            .dwattr $C$DW$101, DW_AT_decl_line(0xc6)
    1733                            .dwattr $C$DW$101, DW_AT_decl_column(0x2a)
    1734                    
    1735                            .dwattr $C$DW$T$34, DW_AT_decl_file("F:\eecs690\TI_ARM_Tiva_Projects\Source\include\list.h")
    1736                            .dwattr $C$DW$T$34, DW_AT_decl_line(0xc1)
    1737                            .dwattr $C$DW$T$34, DW_AT_decl_column(0x08)
    1738                            .dwendtag $C$DW$T$34
    1739                    
    1740                    $C$DW$T$28      .dwtag  DW_TAG_typedef
TI ARM Assembler PC v15.12.3 Wed Sep 14 21:38:55 2016

Tools Copyright (c) 1996-2015 Texas Instruments Incorporated
Task_TimerInterrupt.asm                                              PAGE   33

    1741                            .dwattr $C$DW$T$28, DW_AT_name("MiniListItem_t")
    1742                            .dwattr $C$DW$T$28, DW_AT_type(*$C$DW$T$34)
    1743                            .dwattr $C$DW$T$28, DW_AT_language(DW_LANG_C)
    1744                            .dwattr $C$DW$T$28, DW_AT_decl_file("F:\eecs690\TI_ARM_Tiva_Projects\Source\include\list.h")
    1745                            .dwattr $C$DW$T$28, DW_AT_decl_line(0xc8)
    1746                            .dwattr $C$DW$T$28, DW_AT_decl_column(0x20)
    1747                    
    1748                    
    1749                    $C$DW$T$47      .dwtag  DW_TAG_structure_type
    1750                            .dwattr $C$DW$T$47, DW_AT_name("xTASK_PARAMETERS")
    1751                            .dwattr $C$DW$T$47, DW_AT_byte_size(0x24)
    1752                    $C$DW$102       .dwtag  DW_TAG_member
    1753                            .dwattr $C$DW$102, DW_AT_type(*$C$DW$T$37)
    1754                            .dwattr $C$DW$102, DW_AT_name("pvTaskCode")
    1755                            .dwattr $C$DW$102, DW_AT_TI_symbol_name("pvTaskCode")
    1756                            .dwattr $C$DW$102, DW_AT_data_member_location[DW_OP_plus_uconst 0x0]
    1757                            .dwattr $C$DW$102, DW_AT_accessibility(DW_ACCESS_public)
    1758                            .dwattr $C$DW$102, DW_AT_decl_file("F:/eecs690/TI_ARM_Tiva_Projects/Source/include/task.h")
    1759                            .dwattr $C$DW$102, DW_AT_decl_line(0x9b)
    1760                            .dwattr $C$DW$102, DW_AT_decl_column(0x11)
    1761                    
    1762                    $C$DW$103       .dwtag  DW_TAG_member
    1763                            .dwattr $C$DW$103, DW_AT_type(*$C$DW$T$41)
    1764                            .dwattr $C$DW$103, DW_AT_name("pcName")
    1765                            .dwattr $C$DW$103, DW_AT_TI_symbol_name("pcName")
    1766                            .dwattr $C$DW$103, DW_AT_data_member_location[DW_OP_plus_uconst 0x4]
    1767                            .dwattr $C$DW$103, DW_AT_accessibility(DW_ACCESS_public)
    1768                            .dwattr $C$DW$103, DW_AT_decl_file("F:/eecs690/TI_ARM_Tiva_Projects/Source/include/task.h")
    1769                            .dwattr $C$DW$103, DW_AT_decl_line(0x9c)
    1770                            .dwattr $C$DW$103, DW_AT_decl_column(0x15)
    1771                    
    1772                    $C$DW$104       .dwtag  DW_TAG_member
    1773                            .dwattr $C$DW$104, DW_AT_type(*$C$DW$T$42)
    1774                            .dwattr $C$DW$104, DW_AT_name("usStackDepth")
    1775                            .dwattr $C$DW$104, DW_AT_TI_symbol_name("usStackDepth")
    1776                            .dwattr $C$DW$104, DW_AT_data_member_location[DW_OP_plus_uconst 0x8]
    1777                            .dwattr $C$DW$104, DW_AT_accessibility(DW_ACCESS_public)
    1778                            .dwattr $C$DW$104, DW_AT_decl_file("F:/eecs690/TI_ARM_Tiva_Projects/Source/include/task.h")
    1779                            .dwattr $C$DW$104, DW_AT_decl_line(0x9d)
    1780                            .dwattr $C$DW$104, DW_AT_decl_column(0x0b)
    1781                    
    1782                    $C$DW$105       .dwtag  DW_TAG_member
    1783                            .dwattr $C$DW$105, DW_AT_type(*$C$DW$T$3)
    1784                            .dwattr $C$DW$105, DW_AT_name("pvParameters")
    1785                            .dwattr $C$DW$105, DW_AT_TI_symbol_name("pvParameters")
    1786                            .dwattr $C$DW$105, DW_AT_data_member_location[DW_OP_plus_uconst 0xc]
    1787                            .dwattr $C$DW$105, DW_AT_accessibility(DW_ACCESS_public)
    1788                            .dwattr $C$DW$105, DW_AT_decl_file("F:/eecs690/TI_ARM_Tiva_Projects/Source/include/task.h")
    1789                            .dwattr $C$DW$105, DW_AT_decl_line(0x9e)
    1790                            .dwattr $C$DW$105, DW_AT_decl_column(0x08)
    1791                    
    1792                    $C$DW$106       .dwtag  DW_TAG_member
    1793                            .dwattr $C$DW$106, DW_AT_type(*$C$DW$T$25)
    1794                            .dwattr $C$DW$106, DW_AT_name("uxPriority")
    1795                            .dwattr $C$DW$106, DW_AT_TI_symbol_name("uxPriority")
TI ARM Assembler PC v15.12.3 Wed Sep 14 21:38:55 2016

Tools Copyright (c) 1996-2015 Texas Instruments Incorporated
Task_TimerInterrupt.asm                                              PAGE   34

    1796                            .dwattr $C$DW$106, DW_AT_data_member_location[DW_OP_plus_uconst 0x10]
    1797                            .dwattr $C$DW$106, DW_AT_accessibility(DW_ACCESS_public)
    1798                            .dwattr $C$DW$106, DW_AT_decl_file("F:/eecs690/TI_ARM_Tiva_Projects/Source/include/task.h")
    1799                            .dwattr $C$DW$106, DW_AT_decl_line(0x9f)
    1800                            .dwattr $C$DW$106, DW_AT_decl_column(0x0e)
    1801                    
    1802                    $C$DW$107       .dwtag  DW_TAG_member
    1803                            .dwattr $C$DW$107, DW_AT_type(*$C$DW$T$44)
    1804                            .dwattr $C$DW$107, DW_AT_name("puxStackBuffer")
    1805                            .dwattr $C$DW$107, DW_AT_TI_symbol_name("puxStackBuffer")
    1806                            .dwattr $C$DW$107, DW_AT_data_member_location[DW_OP_plus_uconst 0x14]
    1807                            .dwattr $C$DW$107, DW_AT_accessibility(DW_ACCESS_public)
    1808                            .dwattr $C$DW$107, DW_AT_decl_file("F:/eecs690/TI_ARM_Tiva_Projects/Source/include/task.h")
    1809                            .dwattr $C$DW$107, DW_AT_decl_line(0xa0)
    1810                            .dwattr $C$DW$107, DW_AT_decl_column(0x0f)
    1811                    
    1812                    $C$DW$108       .dwtag  DW_TAG_member
    1813                            .dwattr $C$DW$108, DW_AT_type(*$C$DW$T$46)
    1814                            .dwattr $C$DW$108, DW_AT_name("xRegions")
    1815                            .dwattr $C$DW$108, DW_AT_TI_symbol_name("xRegions")
    1816                            .dwattr $C$DW$108, DW_AT_data_member_location[DW_OP_plus_uconst 0x18]
    1817                            .dwattr $C$DW$108, DW_AT_accessibility(DW_ACCESS_public)
    1818                            .dwattr $C$DW$108, DW_AT_decl_file("F:/eecs690/TI_ARM_Tiva_Projects/Source/include/task.h")
    1819                            .dwattr $C$DW$108, DW_AT_decl_line(0xa1)
    1820                            .dwattr $C$DW$108, DW_AT_decl_column(0x11)
    1821                    
    1822                            .dwattr $C$DW$T$47, DW_AT_decl_file("F:/eecs690/TI_ARM_Tiva_Projects/Source/include/task.h")
    1823                            .dwattr $C$DW$T$47, DW_AT_decl_line(0x99)
    1824                            .dwattr $C$DW$T$47, DW_AT_decl_column(0x10)
    1825                            .dwendtag $C$DW$T$47
    1826                    
    1827                    $C$DW$T$132     .dwtag  DW_TAG_typedef
    1828                            .dwattr $C$DW$T$132, DW_AT_name("TaskParameters_t")
    1829                            .dwattr $C$DW$T$132, DW_AT_type(*$C$DW$T$47)
    1830                            .dwattr $C$DW$T$132, DW_AT_language(DW_LANG_C)
    1831                            .dwattr $C$DW$T$132, DW_AT_decl_file("F:/eecs690/TI_ARM_Tiva_Projects/Source/include/task.h")
    1832                            .dwattr $C$DW$T$132, DW_AT_decl_line(0xa2)
    1833                            .dwattr $C$DW$T$132, DW_AT_decl_column(0x03)
    1834                    
    1835                    
    1836                    $C$DW$T$51      .dwtag  DW_TAG_structure_type
    1837                            .dwattr $C$DW$T$51, DW_AT_name("xTASK_STATUS")
    1838                            .dwattr $C$DW$T$51, DW_AT_byte_size(0x20)
    1839                    $C$DW$109       .dwtag  DW_TAG_member
    1840                            .dwattr $C$DW$109, DW_AT_type(*$C$DW$T$48)
    1841                            .dwattr $C$DW$109, DW_AT_name("xHandle")
    1842                            .dwattr $C$DW$109, DW_AT_TI_symbol_name("xHandle")
    1843                            .dwattr $C$DW$109, DW_AT_data_member_location[DW_OP_plus_uconst 0x0]
    1844                            .dwattr $C$DW$109, DW_AT_accessibility(DW_ACCESS_public)
    1845                            .dwattr $C$DW$109, DW_AT_decl_file("F:/eecs690/TI_ARM_Tiva_Projects/Source/include/task.h")
    1846                            .dwattr $C$DW$109, DW_AT_decl_line(0xa8)
    1847                            .dwattr $C$DW$109, DW_AT_decl_column(0x0f)
    1848                    
    1849                    $C$DW$110       .dwtag  DW_TAG_member
    1850                            .dwattr $C$DW$110, DW_AT_type(*$C$DW$T$40)
TI ARM Assembler PC v15.12.3 Wed Sep 14 21:38:55 2016

Tools Copyright (c) 1996-2015 Texas Instruments Incorporated
Task_TimerInterrupt.asm                                              PAGE   35

    1851                            .dwattr $C$DW$110, DW_AT_name("pcTaskName")
    1852                            .dwattr $C$DW$110, DW_AT_TI_symbol_name("pcTaskName")
    1853                            .dwattr $C$DW$110, DW_AT_data_member_location[DW_OP_plus_uconst 0x4]
    1854                            .dwattr $C$DW$110, DW_AT_accessibility(DW_ACCESS_public)
    1855                            .dwattr $C$DW$110, DW_AT_decl_file("F:/eecs690/TI_ARM_Tiva_Projects/Source/include/task.h")
    1856                            .dwattr $C$DW$110, DW_AT_decl_line(0xa9)
    1857                            .dwattr $C$DW$110, DW_AT_decl_column(0x0e)
    1858                    
    1859                    $C$DW$111       .dwtag  DW_TAG_member
    1860                            .dwattr $C$DW$111, DW_AT_type(*$C$DW$T$25)
    1861                            .dwattr $C$DW$111, DW_AT_name("xTaskNumber")
    1862                            .dwattr $C$DW$111, DW_AT_TI_symbol_name("xTaskNumber")
    1863                            .dwattr $C$DW$111, DW_AT_data_member_location[DW_OP_plus_uconst 0x8]
    1864                            .dwattr $C$DW$111, DW_AT_accessibility(DW_ACCESS_public)
    1865                            .dwattr $C$DW$111, DW_AT_decl_file("F:/eecs690/TI_ARM_Tiva_Projects/Source/include/task.h")
    1866                            .dwattr $C$DW$111, DW_AT_decl_line(0xaa)
    1867                            .dwattr $C$DW$111, DW_AT_decl_column(0x0e)
    1868                    
    1869                    $C$DW$112       .dwtag  DW_TAG_member
    1870                            .dwattr $C$DW$112, DW_AT_type(*$C$DW$T$50)
    1871                            .dwattr $C$DW$112, DW_AT_name("eCurrentState")
    1872                            .dwattr $C$DW$112, DW_AT_TI_symbol_name("eCurrentState")
    1873                            .dwattr $C$DW$112, DW_AT_data_member_location[DW_OP_plus_uconst 0xc]
    1874                            .dwattr $C$DW$112, DW_AT_accessibility(DW_ACCESS_public)
    1875                            .dwattr $C$DW$112, DW_AT_decl_file("F:/eecs690/TI_ARM_Tiva_Projects/Source/include/task.h")
    1876                            .dwattr $C$DW$112, DW_AT_decl_line(0xab)
    1877                            .dwattr $C$DW$112, DW_AT_decl_column(0x0d)
    1878                    
    1879                    $C$DW$113       .dwtag  DW_TAG_member
    1880                            .dwattr $C$DW$113, DW_AT_type(*$C$DW$T$25)
    1881                            .dwattr $C$DW$113, DW_AT_name("uxCurrentPriority")
    1882                            .dwattr $C$DW$113, DW_AT_TI_symbol_name("uxCurrentPriority")
    1883                            .dwattr $C$DW$113, DW_AT_data_member_location[DW_OP_plus_uconst 0x10]
    1884                            .dwattr $C$DW$113, DW_AT_accessibility(DW_ACCESS_public)
    1885                            .dwattr $C$DW$113, DW_AT_decl_file("F:/eecs690/TI_ARM_Tiva_Projects/Source/include/task.h")
    1886                            .dwattr $C$DW$113, DW_AT_decl_line(0xac)
    1887                            .dwattr $C$DW$113, DW_AT_decl_column(0x0e)
    1888                    
    1889                    $C$DW$114       .dwtag  DW_TAG_member
    1890                            .dwattr $C$DW$114, DW_AT_type(*$C$DW$T$25)
    1891                            .dwattr $C$DW$114, DW_AT_name("uxBasePriority")
    1892                            .dwattr $C$DW$114, DW_AT_TI_symbol_name("uxBasePriority")
    1893                            .dwattr $C$DW$114, DW_AT_data_member_location[DW_OP_plus_uconst 0x14]
    1894                            .dwattr $C$DW$114, DW_AT_accessibility(DW_ACCESS_public)
    1895                            .dwattr $C$DW$114, DW_AT_decl_file("F:/eecs690/TI_ARM_Tiva_Projects/Source/include/task.h")
    1896                            .dwattr $C$DW$114, DW_AT_decl_line(0xad)
    1897                            .dwattr $C$DW$114, DW_AT_decl_column(0x0e)
    1898                    
    1899                    $C$DW$115       .dwtag  DW_TAG_member
    1900                            .dwattr $C$DW$115, DW_AT_type(*$C$DW$T$24)
    1901                            .dwattr $C$DW$115, DW_AT_name("ulRunTimeCounter")
    1902                            .dwattr $C$DW$115, DW_AT_TI_symbol_name("ulRunTimeCounter")
    1903                            .dwattr $C$DW$115, DW_AT_data_member_location[DW_OP_plus_uconst 0x18]
    1904                            .dwattr $C$DW$115, DW_AT_accessibility(DW_ACCESS_public)
    1905                            .dwattr $C$DW$115, DW_AT_decl_file("F:/eecs690/TI_ARM_Tiva_Projects/Source/include/task.h")
TI ARM Assembler PC v15.12.3 Wed Sep 14 21:38:55 2016

Tools Copyright (c) 1996-2015 Texas Instruments Incorporated
Task_TimerInterrupt.asm                                              PAGE   36

    1906                            .dwattr $C$DW$115, DW_AT_decl_line(0xae)
    1907                            .dwattr $C$DW$115, DW_AT_decl_column(0x0b)
    1908                    
    1909                    $C$DW$116       .dwtag  DW_TAG_member
    1910                            .dwattr $C$DW$116, DW_AT_type(*$C$DW$T$42)
    1911                            .dwattr $C$DW$116, DW_AT_name("usStackHighWaterMark")
    1912                            .dwattr $C$DW$116, DW_AT_TI_symbol_name("usStackHighWaterMark")
    1913                            .dwattr $C$DW$116, DW_AT_data_member_location[DW_OP_plus_uconst 0x1c]
    1914                            .dwattr $C$DW$116, DW_AT_accessibility(DW_ACCESS_public)
    1915                            .dwattr $C$DW$116, DW_AT_decl_file("F:/eecs690/TI_ARM_Tiva_Projects/Source/include/task.h")
    1916                            .dwattr $C$DW$116, DW_AT_decl_line(0xaf)
    1917                            .dwattr $C$DW$116, DW_AT_decl_column(0x0b)
    1918                    
    1919                            .dwattr $C$DW$T$51, DW_AT_decl_file("F:/eecs690/TI_ARM_Tiva_Projects/Source/include/task.h")
    1920                            .dwattr $C$DW$T$51, DW_AT_decl_line(0xa6)
    1921                            .dwattr $C$DW$T$51, DW_AT_decl_column(0x10)
    1922                            .dwendtag $C$DW$T$51
    1923                    
    1924                    $C$DW$T$133     .dwtag  DW_TAG_typedef
    1925                            .dwattr $C$DW$T$133, DW_AT_name("TaskStatus_t")
    1926                            .dwattr $C$DW$T$133, DW_AT_type(*$C$DW$T$51)
    1927                            .dwattr $C$DW$T$133, DW_AT_language(DW_LANG_C)
    1928                            .dwattr $C$DW$T$133, DW_AT_decl_file("F:/eecs690/TI_ARM_Tiva_Projects/Source/include/task.h")
    1929                            .dwattr $C$DW$T$133, DW_AT_decl_line(0xb0)
    1930                            .dwattr $C$DW$T$133, DW_AT_decl_column(0x03)
    1931                    
    1932                    
    1933                    $C$DW$T$54      .dwtag  DW_TAG_structure_type
    1934                            .dwattr $C$DW$T$54, DW_AT_name("xTIME_OUT")
    1935                            .dwattr $C$DW$T$54, DW_AT_byte_size(0x08)
    1936                    $C$DW$117       .dwtag  DW_TAG_member
    1937                            .dwattr $C$DW$117, DW_AT_type(*$C$DW$T$53)
    1938                            .dwattr $C$DW$117, DW_AT_name("xOverflowCount")
    1939                            .dwattr $C$DW$117, DW_AT_TI_symbol_name("xOverflowCount")
    1940                            .dwattr $C$DW$117, DW_AT_data_member_location[DW_OP_plus_uconst 0x0]
    1941                            .dwattr $C$DW$117, DW_AT_accessibility(DW_ACCESS_public)
    1942                            .dwattr $C$DW$117, DW_AT_decl_file("F:/eecs690/TI_ARM_Tiva_Projects/Source/include/task.h")
    1943                            .dwattr $C$DW$117, DW_AT_decl_line(0x88)
    1944                            .dwattr $C$DW$117, DW_AT_decl_column(0x0d)
    1945                    
    1946                    $C$DW$118       .dwtag  DW_TAG_member
    1947                            .dwattr $C$DW$118, DW_AT_type(*$C$DW$T$30)
    1948                            .dwattr $C$DW$118, DW_AT_name("xTimeOnEntering")
    1949                            .dwattr $C$DW$118, DW_AT_TI_symbol_name("xTimeOnEntering")
    1950                            .dwattr $C$DW$118, DW_AT_data_member_location[DW_OP_plus_uconst 0x4]
    1951                            .dwattr $C$DW$118, DW_AT_accessibility(DW_ACCESS_public)
    1952                            .dwattr $C$DW$118, DW_AT_decl_file("F:/eecs690/TI_ARM_Tiva_Projects/Source/include/task.h")
    1953                            .dwattr $C$DW$118, DW_AT_decl_line(0x89)
    1954                            .dwattr $C$DW$118, DW_AT_decl_column(0x0d)
    1955                    
    1956                            .dwattr $C$DW$T$54, DW_AT_decl_file("F:/eecs690/TI_ARM_Tiva_Projects/Source/include/task.h")
    1957                            .dwattr $C$DW$T$54, DW_AT_decl_line(0x86)
    1958                            .dwattr $C$DW$T$54, DW_AT_decl_column(0x10)
    1959                            .dwendtag $C$DW$T$54
    1960                    
TI ARM Assembler PC v15.12.3 Wed Sep 14 21:38:55 2016

Tools Copyright (c) 1996-2015 Texas Instruments Incorporated
Task_TimerInterrupt.asm                                              PAGE   37

    1961                    $C$DW$T$134     .dwtag  DW_TAG_typedef
    1962                            .dwattr $C$DW$T$134, DW_AT_name("TimeOut_t")
    1963                            .dwattr $C$DW$T$134, DW_AT_type(*$C$DW$T$54)
    1964                            .dwattr $C$DW$T$134, DW_AT_language(DW_LANG_C)
    1965                            .dwattr $C$DW$T$134, DW_AT_decl_file("F:/eecs690/TI_ARM_Tiva_Projects/Source/include/task.h")
    1966                            .dwattr $C$DW$T$134, DW_AT_decl_line(0x8a)
    1967                            .dwattr $C$DW$T$134, DW_AT_decl_column(0x03)
    1968                    
    1969                            .dwattr $C$DW$CU, DW_AT_language(DW_LANG_C)
    1970                    
    1971                    ;***************************************************************
    1972                    ;* DWARF CIE ENTRIES                                           *
    1973                    ;***************************************************************
    1974                    
    1975                    $C$DW$CIE       .dwcie 14
    1976                            .dwcfi  cfa_register, 13
    1977                            .dwcfi  cfa_offset, 0
    1978                            .dwcfi  undefined, 0
    1979                            .dwcfi  undefined, 1
    1980                            .dwcfi  undefined, 2
    1981                            .dwcfi  undefined, 3
    1982                            .dwcfi  same_value, 4
    1983                            .dwcfi  same_value, 5
    1984                            .dwcfi  same_value, 6
    1985                            .dwcfi  same_value, 7
    1986                            .dwcfi  same_value, 8
    1987                            .dwcfi  same_value, 9
    1988                            .dwcfi  same_value, 10
    1989                            .dwcfi  same_value, 11
    1990                            .dwcfi  undefined, 12
    1991                            .dwcfi  undefined, 13
    1992                            .dwcfi  undefined, 14
    1993                            .dwcfi  undefined, 14
    1994                            .dwcfi  undefined, 7
    1995                            .dwcfi  undefined, 64
    1996                            .dwcfi  undefined, 65
    1997                            .dwcfi  undefined, 66
    1998                            .dwcfi  undefined, 67
    1999                            .dwcfi  undefined, 68
    2000                            .dwcfi  undefined, 69
    2001                            .dwcfi  undefined, 70
    2002                            .dwcfi  undefined, 71
    2003                            .dwcfi  undefined, 72
    2004                            .dwcfi  undefined, 73
    2005                            .dwcfi  undefined, 74
    2006                            .dwcfi  undefined, 75
    2007                            .dwcfi  undefined, 76
    2008                            .dwcfi  undefined, 77
    2009                            .dwcfi  undefined, 78
    2010                            .dwcfi  undefined, 79
    2011                            .dwcfi  same_value, 80
    2012                            .dwcfi  same_value, 81
    2013                            .dwcfi  same_value, 82
    2014                            .dwcfi  same_value, 83
    2015                            .dwcfi  same_value, 84
TI ARM Assembler PC v15.12.3 Wed Sep 14 21:38:55 2016

Tools Copyright (c) 1996-2015 Texas Instruments Incorporated
Task_TimerInterrupt.asm                                              PAGE   38

    2016                            .dwcfi  same_value, 85
    2017                            .dwcfi  same_value, 86
    2018                            .dwcfi  same_value, 87
    2019                            .dwcfi  same_value, 88
    2020                            .dwcfi  same_value, 89
    2021                            .dwcfi  same_value, 90
    2022                            .dwcfi  same_value, 91
    2023                            .dwcfi  same_value, 92
    2024                            .dwcfi  same_value, 93
    2025                            .dwcfi  same_value, 94
    2026                            .dwcfi  same_value, 95
    2027                            .dwendentry
    2028                            .dwendtag $C$DW$CU
    2029                    

--------------------------
Thumb2 Statistics
--------------------------
Number of Thumb2 ins converted to Thumb = 0 (0%)
Number of Thumb ins in input = 106 (73%)
Number of Thumb2 ins encoded as Thumb2 = 38 (100%)
Number of Thumb2 ins converted to 2 OPND Thumb = 39


No Assembly Errors, No Assembly Warnings
