TI ARM Assembler PC v15.12.1 Tue Oct 18 10:42:46 2016

Tools Copyright (c) 1996-2015 Texas Instruments Incorporated
Task_I2C7_Handler.asm                                                PAGE    1

       1                    ;******************************************************************************
       2                    ;* TI ARM C/C++ Codegen                                       PC v15.12.1.LTS *
       3                    ;* Date/Time created: Tue Oct 18 10:42:46 2016                                *
       4                    ;******************************************************************************
       5                            .compiler_opts --abi=eabi --arm_vmrs_si_workaround=off --code_state=16 --diag_wrap=off --disab
       6 00000000                   .thumb
       7                    
       8                    $C$DW$CU        .dwtag  DW_TAG_compile_unit
       9                            .dwattr $C$DW$CU, DW_AT_name("../Tasks/Task_I2C7_Handler.c")
      10                            .dwattr $C$DW$CU, DW_AT_producer("TI TI ARM C/C++ Codegen PC v15.12.1.LTS Copyright (c) 1996-2
      11                            .dwattr $C$DW$CU, DW_AT_TI_version(0x01)
      12                            .dwattr $C$DW$CU, DW_AT_comp_dir("C:\TI_ARM_Tiva_Projects\Proj2_Magnetometer\Debug")
      13                    
      14                    $C$DW$1 .dwtag  DW_TAG_subprogram
      15                            .dwattr $C$DW$1, DW_AT_name("SysCtlPeripheralEnable")
      16                            .dwattr $C$DW$1, DW_AT_TI_symbol_name("SysCtlPeripheralEnable")
      17                            .dwattr $C$DW$1, DW_AT_declaration
      18                            .dwattr $C$DW$1, DW_AT_external
      19                            .dwattr $C$DW$1, DW_AT_decl_file("C:/TI_CodeComposer/TivaWare/driverlib/sysctl.h")
      20                            .dwattr $C$DW$1, DW_AT_decl_line(0x24e)
      21                            .dwattr $C$DW$1, DW_AT_decl_column(0x0d)
      22                    $C$DW$2 .dwtag  DW_TAG_formal_parameter
      23                            .dwattr $C$DW$2, DW_AT_type(*$C$DW$T$24)
      24                    
      25                            .dwendtag $C$DW$1
      26                    
      27                    
      28                    $C$DW$3 .dwtag  DW_TAG_subprogram
      29                            .dwattr $C$DW$3, DW_AT_name("GPIOPinConfigure")
      30                            .dwattr $C$DW$3, DW_AT_TI_symbol_name("GPIOPinConfigure")
      31                            .dwattr $C$DW$3, DW_AT_declaration
      32                            .dwattr $C$DW$3, DW_AT_external
      33                            .dwattr $C$DW$3, DW_AT_decl_file("C:/TI_CodeComposer/TivaWare/driverlib/gpio.h")
      34                            .dwattr $C$DW$3, DW_AT_decl_line(0x9f)
      35                            .dwattr $C$DW$3, DW_AT_decl_column(0x0d)
      36                    $C$DW$4 .dwtag  DW_TAG_formal_parameter
      37                            .dwattr $C$DW$4, DW_AT_type(*$C$DW$T$24)
      38                    
      39                            .dwendtag $C$DW$3
      40                    
      41                    
      42                    $C$DW$5 .dwtag  DW_TAG_subprogram
      43                            .dwattr $C$DW$5, DW_AT_name("GPIOPinTypeI2C")
      44                            .dwattr $C$DW$5, DW_AT_TI_symbol_name("GPIOPinTypeI2C")
      45                            .dwattr $C$DW$5, DW_AT_declaration
      46                            .dwattr $C$DW$5, DW_AT_external
      47                            .dwattr $C$DW$5, DW_AT_decl_file("C:/TI_CodeComposer/TivaWare/driverlib/gpio.h")
      48                            .dwattr $C$DW$5, DW_AT_decl_line(0xac)
      49                            .dwattr $C$DW$5, DW_AT_decl_column(0x0d)
      50                    $C$DW$6 .dwtag  DW_TAG_formal_parameter
      51                            .dwattr $C$DW$6, DW_AT_type(*$C$DW$T$24)
      52                    
      53                    $C$DW$7 .dwtag  DW_TAG_formal_parameter
      54                            .dwattr $C$DW$7, DW_AT_type(*$C$DW$T$19)
      55                    
TI ARM Assembler PC v15.12.1 Tue Oct 18 10:42:46 2016

Tools Copyright (c) 1996-2015 Texas Instruments Incorporated
Task_I2C7_Handler.asm                                                PAGE    2

      56                            .dwendtag $C$DW$5
      57                    
      58                    
      59                    $C$DW$8 .dwtag  DW_TAG_subprogram
      60                            .dwattr $C$DW$8, DW_AT_name("GPIOPinTypeI2CSCL")
      61                            .dwattr $C$DW$8, DW_AT_TI_symbol_name("GPIOPinTypeI2CSCL")
      62                            .dwattr $C$DW$8, DW_AT_declaration
      63                            .dwattr $C$DW$8, DW_AT_external
      64                            .dwattr $C$DW$8, DW_AT_decl_file("C:/TI_CodeComposer/TivaWare/driverlib/gpio.h")
      65                            .dwattr $C$DW$8, DW_AT_decl_line(0xad)
      66                            .dwattr $C$DW$8, DW_AT_decl_column(0x0d)
      67                    $C$DW$9 .dwtag  DW_TAG_formal_parameter
      68                            .dwattr $C$DW$9, DW_AT_type(*$C$DW$T$24)
      69                    
      70                    $C$DW$10        .dwtag  DW_TAG_formal_parameter
      71                            .dwattr $C$DW$10, DW_AT_type(*$C$DW$T$19)
      72                    
      73                            .dwendtag $C$DW$8
      74                    
      75                    
      76                    $C$DW$11        .dwtag  DW_TAG_subprogram
      77                            .dwattr $C$DW$11, DW_AT_name("I2CMIntHandler")
      78                            .dwattr $C$DW$11, DW_AT_TI_symbol_name("I2CMIntHandler")
      79                            .dwattr $C$DW$11, DW_AT_declaration
      80                            .dwattr $C$DW$11, DW_AT_external
      81                            .dwattr $C$DW$11, DW_AT_decl_file("C:/TI_CodeComposer/TivaWare/sensorlib/i2cm_drv.h")
      82                            .dwattr $C$DW$11, DW_AT_decl_line(0x192)
      83                            .dwattr $C$DW$11, DW_AT_decl_column(0x0d)
      84                    $C$DW$12        .dwtag  DW_TAG_formal_parameter
      85                            .dwattr $C$DW$12, DW_AT_type(*$C$DW$T$34)
      86                    
      87                            .dwendtag $C$DW$11
      88                    
      89                    
      90                    $C$DW$13        .dwtag  DW_TAG_subprogram
      91                            .dwattr $C$DW$13, DW_AT_name("I2CMInit")
      92                            .dwattr $C$DW$13, DW_AT_TI_symbol_name("I2CMInit")
      93                            .dwattr $C$DW$13, DW_AT_declaration
      94                            .dwattr $C$DW$13, DW_AT_external
      95                            .dwattr $C$DW$13, DW_AT_decl_file("C:/TI_CodeComposer/TivaWare/sensorlib/i2cm_drv.h")
      96                            .dwattr $C$DW$13, DW_AT_decl_line(0x193)
      97                            .dwattr $C$DW$13, DW_AT_decl_column(0x0d)
      98                    $C$DW$14        .dwtag  DW_TAG_formal_parameter
      99                            .dwattr $C$DW$14, DW_AT_type(*$C$DW$T$34)
     100                    
     101                    $C$DW$15        .dwtag  DW_TAG_formal_parameter
     102                            .dwattr $C$DW$15, DW_AT_type(*$C$DW$T$24)
     103                    
     104                    $C$DW$16        .dwtag  DW_TAG_formal_parameter
     105                            .dwattr $C$DW$16, DW_AT_type(*$C$DW$T$25)
     106                    
     107                    $C$DW$17        .dwtag  DW_TAG_formal_parameter
     108                            .dwattr $C$DW$17, DW_AT_type(*$C$DW$T$25)
     109                    
     110                    $C$DW$18        .dwtag  DW_TAG_formal_parameter
TI ARM Assembler PC v15.12.1 Tue Oct 18 10:42:46 2016

Tools Copyright (c) 1996-2015 Texas Instruments Incorporated
Task_I2C7_Handler.asm                                                PAGE    3

     111                            .dwattr $C$DW$18, DW_AT_type(*$C$DW$T$25)
     112                    
     113                    $C$DW$19        .dwtag  DW_TAG_formal_parameter
     114                            .dwattr $C$DW$19, DW_AT_type(*$C$DW$T$24)
     115                    
     116                            .dwendtag $C$DW$13
     117                    
     118                    
     119                    $C$DW$20        .dwtag  DW_TAG_subprogram
     120                            .dwattr $C$DW$20, DW_AT_name("I2CMCommand")
     121                            .dwattr $C$DW$20, DW_AT_TI_symbol_name("I2CMCommand")
     122                            .dwattr $C$DW$20, DW_AT_type(*$C$DW$T$25)
     123                            .dwattr $C$DW$20, DW_AT_declaration
     124                            .dwattr $C$DW$20, DW_AT_external
     125                            .dwattr $C$DW$20, DW_AT_decl_file("C:/TI_CodeComposer/TivaWare/sensorlib/i2cm_drv.h")
     126                            .dwattr $C$DW$20, DW_AT_decl_line(0x196)
     127                            .dwattr $C$DW$20, DW_AT_decl_column(0x15)
     128                    $C$DW$21        .dwtag  DW_TAG_formal_parameter
     129                            .dwattr $C$DW$21, DW_AT_type(*$C$DW$T$34)
     130                    
     131                    $C$DW$22        .dwtag  DW_TAG_formal_parameter
     132                            .dwattr $C$DW$22, DW_AT_type(*$C$DW$T$25)
     133                    
     134                    $C$DW$23        .dwtag  DW_TAG_formal_parameter
     135                            .dwattr $C$DW$23, DW_AT_type(*$C$DW$T$21)
     136                    
     137                    $C$DW$24        .dwtag  DW_TAG_formal_parameter
     138                            .dwattr $C$DW$24, DW_AT_type(*$C$DW$T$132)
     139                    
     140                    $C$DW$25        .dwtag  DW_TAG_formal_parameter
     141                            .dwattr $C$DW$25, DW_AT_type(*$C$DW$T$132)
     142                    
     143                    $C$DW$26        .dwtag  DW_TAG_formal_parameter
     144                            .dwattr $C$DW$26, DW_AT_type(*$C$DW$T$23)
     145                    
     146                    $C$DW$27        .dwtag  DW_TAG_formal_parameter
     147                            .dwattr $C$DW$27, DW_AT_type(*$C$DW$T$132)
     148                    
     149                    $C$DW$28        .dwtag  DW_TAG_formal_parameter
     150                            .dwattr $C$DW$28, DW_AT_type(*$C$DW$T$132)
     151                    
     152                    $C$DW$29        .dwtag  DW_TAG_formal_parameter
     153                            .dwattr $C$DW$29, DW_AT_type(*$C$DW$T$28)
     154                    
     155                    $C$DW$30        .dwtag  DW_TAG_formal_parameter
     156                            .dwattr $C$DW$30, DW_AT_type(*$C$DW$T$3)
     157                    
     158                            .dwendtag $C$DW$20
     159                    
     160                    
     161                    $C$DW$31        .dwtag  DW_TAG_subprogram
     162                            .dwattr $C$DW$31, DW_AT_name("I2CMReadModifyWrite16LE")
     163                            .dwattr $C$DW$31, DW_AT_TI_symbol_name("I2CMReadModifyWrite16LE")
     164                            .dwattr $C$DW$31, DW_AT_type(*$C$DW$T$25)
     165                            .dwattr $C$DW$31, DW_AT_declaration
TI ARM Assembler PC v15.12.1 Tue Oct 18 10:42:46 2016

Tools Copyright (c) 1996-2015 Texas Instruments Incorporated
Task_I2C7_Handler.asm                                                PAGE    4

     166                            .dwattr $C$DW$31, DW_AT_external
     167                            .dwattr $C$DW$31, DW_AT_decl_file("C:/TI_CodeComposer/TivaWare/sensorlib/i2cm_drv.h")
     168                            .dwattr $C$DW$31, DW_AT_decl_line(0x1a9)
     169                            .dwattr $C$DW$31, DW_AT_decl_column(0x15)
     170                    $C$DW$32        .dwtag  DW_TAG_formal_parameter
     171                            .dwattr $C$DW$32, DW_AT_type(*$C$DW$T$81)
     172                    
     173                    $C$DW$33        .dwtag  DW_TAG_formal_parameter
     174                            .dwattr $C$DW$33, DW_AT_type(*$C$DW$T$34)
     175                    
     176                    $C$DW$34        .dwtag  DW_TAG_formal_parameter
     177                            .dwattr $C$DW$34, DW_AT_type(*$C$DW$T$25)
     178                    
     179                    $C$DW$35        .dwtag  DW_TAG_formal_parameter
     180                            .dwattr $C$DW$35, DW_AT_type(*$C$DW$T$25)
     181                    
     182                    $C$DW$36        .dwtag  DW_TAG_formal_parameter
     183                            .dwattr $C$DW$36, DW_AT_type(*$C$DW$T$132)
     184                    
     185                    $C$DW$37        .dwtag  DW_TAG_formal_parameter
     186                            .dwattr $C$DW$37, DW_AT_type(*$C$DW$T$132)
     187                    
     188                    $C$DW$38        .dwtag  DW_TAG_formal_parameter
     189                            .dwattr $C$DW$38, DW_AT_type(*$C$DW$T$28)
     190                    
     191                    $C$DW$39        .dwtag  DW_TAG_formal_parameter
     192                            .dwattr $C$DW$39, DW_AT_type(*$C$DW$T$3)
     193                    
     194                            .dwendtag $C$DW$31
     195                    
     196                    
     197                    $C$DW$40        .dwtag  DW_TAG_subprogram
     198                            .dwattr $C$DW$40, DW_AT_name("UART_Initialization")
     199                            .dwattr $C$DW$40, DW_AT_TI_symbol_name("UART_Initialization")
     200                            .dwattr $C$DW$40, DW_AT_type(*$C$DW$T$24)
     201                            .dwattr $C$DW$40, DW_AT_declaration
     202                            .dwattr $C$DW$40, DW_AT_external
     203                            .dwattr $C$DW$40, DW_AT_decl_file("C:/TI_ARM_Tiva_Projects/Proj2_Magnetometer/Drivers/Processo
     204                            .dwattr $C$DW$40, DW_AT_decl_line(0x29)
     205                            .dwattr $C$DW$40, DW_AT_decl_column(0x11)
     206                            .dwendtag $C$DW$40
     207                    
     208                    
     209                    $C$DW$41        .dwtag  DW_TAG_subprogram
     210                            .dwattr $C$DW$41, DW_AT_name("UARTprintf")
     211                            .dwattr $C$DW$41, DW_AT_TI_symbol_name("UARTprintf")
     212                            .dwattr $C$DW$41, DW_AT_declaration
     213                            .dwattr $C$DW$41, DW_AT_external
     214                            .dwattr $C$DW$41, DW_AT_decl_file("C:/TI_CodeComposer/TivaWare/utils/uartstdio.h")
     215                            .dwattr $C$DW$41, DW_AT_decl_line(0x41)
     216                            .dwattr $C$DW$41, DW_AT_decl_column(0x0d)
     217                    $C$DW$42        .dwtag  DW_TAG_formal_parameter
     218                            .dwattr $C$DW$42, DW_AT_type(*$C$DW$T$62)
     219                    
     220                    $C$DW$43        .dwtag  DW_TAG_unspecified_parameters
TI ARM Assembler PC v15.12.1 Tue Oct 18 10:42:46 2016

Tools Copyright (c) 1996-2015 Texas Instruments Incorporated
Task_I2C7_Handler.asm                                                PAGE    5

     221                    
     222                            .dwendtag $C$DW$41
     223                    
     224                    
     225                    $C$DW$44        .dwtag  DW_TAG_subprogram
     226                            .dwattr $C$DW$44, DW_AT_name("vTaskDelay")
     227                            .dwattr $C$DW$44, DW_AT_TI_symbol_name("vTaskDelay")
     228                            .dwattr $C$DW$44, DW_AT_declaration
     229                            .dwattr $C$DW$44, DW_AT_external
     230                            .dwattr $C$DW$44, DW_AT_decl_file("C:/TI_ARM_Tiva_Projects/Source/include/task.h")
     231                            .dwattr $C$DW$44, DW_AT_decl_line(0x22b)
     232                            .dwattr $C$DW$44, DW_AT_decl_column(0x06)
     233                    $C$DW$45        .dwtag  DW_TAG_formal_parameter
     234                            .dwattr $C$DW$45, DW_AT_type(*$C$DW$T$103)
     235                    
     236                            .dwendtag $C$DW$44
     237                    
     238                    $C$DW$46        .dwtag  DW_TAG_variable
     239                            .dwattr $C$DW$46, DW_AT_name("g_ulSystemClock")
     240                            .dwattr $C$DW$46, DW_AT_TI_symbol_name("g_ulSystemClock")
     241                            .dwattr $C$DW$46, DW_AT_type(*$C$DW$T$24)
     242                            .dwattr $C$DW$46, DW_AT_declaration
     243                            .dwattr $C$DW$46, DW_AT_external
     244                            .dwattr $C$DW$46, DW_AT_decl_file("C:/TI_ARM_Tiva_Projects/Proj2_Magnetometer/Drivers/Processo
     245                            .dwattr $C$DW$46, DW_AT_decl_line(0x23)
     246                            .dwattr $C$DW$46, DW_AT_decl_column(0x13)
     247                    
     248                            .global I2C7_Interrupts_Nbr
     249 00000000                   .data
     250                            .align  4
     251                            .elfsym I2C7_Interrupts_Nbr,SYM_SIZE(4)
     252 00000000           I2C7_Interrupts_Nbr:
     253 00000000 00000000          .bits   0,32                    ; I2C7_Interrupts_Nbr @ 0
     254                    
     255                    $C$DW$47        .dwtag  DW_TAG_variable
     256                            .dwattr $C$DW$47, DW_AT_name("I2C7_Interrupts_Nbr")
     257                            .dwattr $C$DW$47, DW_AT_TI_symbol_name("I2C7_Interrupts_Nbr")
     258                            .dwattr $C$DW$47, DW_AT_location[DW_OP_addr I2C7_Interrupts_Nbr]
     259                            .dwattr $C$DW$47, DW_AT_type(*$C$DW$T$24)
     260                            .dwattr $C$DW$47, DW_AT_external
     261                            .dwattr $C$DW$47, DW_AT_decl_file("../Tasks/Task_I2C7_Handler.c")
     262                            .dwattr $C$DW$47, DW_AT_decl_line(0x39)
     263                            .dwattr $C$DW$47, DW_AT_decl_column(0x0a)
     264                    
     265                            .global I2C7_Callbacks_Nbr
     266 00000004                   .data
     267                            .align  4
     268                            .elfsym I2C7_Callbacks_Nbr,SYM_SIZE(4)
     269 00000004           I2C7_Callbacks_Nbr:
     270 00000004 00000000          .bits   0,32                    ; I2C7_Callbacks_Nbr @ 0
     271                    
     272                    $C$DW$48        .dwtag  DW_TAG_variable
     273                            .dwattr $C$DW$48, DW_AT_name("I2C7_Callbacks_Nbr")
     274                            .dwattr $C$DW$48, DW_AT_TI_symbol_name("I2C7_Callbacks_Nbr")
     275                            .dwattr $C$DW$48, DW_AT_location[DW_OP_addr I2C7_Callbacks_Nbr]
TI ARM Assembler PC v15.12.1 Tue Oct 18 10:42:46 2016

Tools Copyright (c) 1996-2015 Texas Instruments Incorporated
Task_I2C7_Handler.asm                                                PAGE    6

     276                            .dwattr $C$DW$48, DW_AT_type(*$C$DW$T$24)
     277                            .dwattr $C$DW$48, DW_AT_external
     278                            .dwattr $C$DW$48, DW_AT_decl_file("../Tasks/Task_I2C7_Handler.c")
     279                            .dwattr $C$DW$48, DW_AT_decl_line(0x3a)
     280                            .dwattr $C$DW$48, DW_AT_decl_column(0x0a)
     281                    
     282                            .global I2C7_Instance
     283                            .common I2C7_Instance,292,4
     284                    $C$DW$49        .dwtag  DW_TAG_variable
     285                            .dwattr $C$DW$49, DW_AT_name("I2C7_Instance")
     286                            .dwattr $C$DW$49, DW_AT_TI_symbol_name("I2C7_Instance")
     287                            .dwattr $C$DW$49, DW_AT_location[DW_OP_addr I2C7_Instance]
     288                            .dwattr $C$DW$49, DW_AT_type(*$C$DW$T$33)
     289                            .dwattr $C$DW$49, DW_AT_external
     290                            .dwattr $C$DW$49, DW_AT_decl_file("../Tasks/Task_I2C7_Handler.c")
     291                            .dwattr $C$DW$49, DW_AT_decl_line(0x3f)
     292                            .dwattr $C$DW$49, DW_AT_decl_column(0x0f)
     293                    
     294                            .global I2C7_Instance_Ref
     295 00000008                   .data
     296                            .align  4
     297                            .elfsym I2C7_Instance_Ref,SYM_SIZE(4)
     298 00000008           I2C7_Instance_Ref:
     299 00000008 00000000!         .bits   I2C7_Instance,32                ; I2C7_Instance_Ref @ 0
     300                    
     301                    $C$DW$50        .dwtag  DW_TAG_variable
     302                            .dwattr $C$DW$50, DW_AT_name("I2C7_Instance_Ref")
     303                            .dwattr $C$DW$50, DW_AT_TI_symbol_name("I2C7_Instance_Ref")
     304                            .dwattr $C$DW$50, DW_AT_location[DW_OP_addr I2C7_Instance_Ref]
     305                            .dwattr $C$DW$50, DW_AT_type(*$C$DW$T$34)
     306                            .dwattr $C$DW$50, DW_AT_external
     307                            .dwattr $C$DW$50, DW_AT_decl_file("../Tasks/Task_I2C7_Handler.c")
     308                            .dwattr $C$DW$50, DW_AT_decl_line(0x40)
     309                            .dwattr $C$DW$50, DW_AT_decl_column(0x17)
     310                    
     311                            .global I2C7_Initialized
     312 0000000c                   .data
     313                            .align  1
     314                            .elfsym I2C7_Initialized,SYM_SIZE(1)
     315 0000000c           I2C7_Initialized:
     316 0000000c 00000000          .bits   0,8                     ; I2C7_Initialized @ 0
     317                    
     318                    $C$DW$51        .dwtag  DW_TAG_variable
     319                            .dwattr $C$DW$51, DW_AT_name("I2C7_Initialized")
     320                            .dwattr $C$DW$51, DW_AT_TI_symbol_name("I2C7_Initialized")
     321                            .dwattr $C$DW$51, DW_AT_location[DW_OP_addr I2C7_Initialized]
     322                            .dwattr $C$DW$51, DW_AT_type(*$C$DW$T$159)
     323                            .dwattr $C$DW$51, DW_AT_external
     324                            .dwattr $C$DW$51, DW_AT_decl_file("../Tasks/Task_I2C7_Handler.c")
     325                            .dwattr $C$DW$51, DW_AT_decl_line(0x42)
     326                            .dwattr $C$DW$51, DW_AT_decl_column(0x06)
     327                    
     328                            .global I2C7WriteData
     329 00000000                   .sect   ".data:I2C7WriteData", RW
     330                            .clink
TI ARM Assembler PC v15.12.1 Tue Oct 18 10:42:46 2016

Tools Copyright (c) 1996-2015 Texas Instruments Incorporated
Task_I2C7_Handler.asm                                                PAGE    7

     331                            .align  1
     332                            .elfsym I2C7WriteData,SYM_SIZE(8)
     333 00000000           I2C7WriteData:
     334 00000000 00000010          .bits   16,8                    ; I2C7WriteData[0] @ 0
     335 00000000 00001110          .bits   17,8                    ; I2C7WriteData[1] @ 8
     336 00000000 00121110          .bits   18,8                    ; I2C7WriteData[2] @ 16
     337 00000000 13121110          .bits   19,8                    ; I2C7WriteData[3] @ 24
     338 00000004 00000014          .bits   20,8                    ; I2C7WriteData[4] @ 32
     339 00000004 00001514          .bits   21,8                    ; I2C7WriteData[5] @ 40
     340 00000004 00161514          .bits   22,8                    ; I2C7WriteData[6] @ 48
     341 00000004 17161514          .bits   23,8                    ; I2C7WriteData[7] @ 56
     342                    
     343                    $C$DW$52        .dwtag  DW_TAG_variable
     344                            .dwattr $C$DW$52, DW_AT_name("I2C7WriteData")
     345                            .dwattr $C$DW$52, DW_AT_TI_symbol_name("I2C7WriteData")
     346                            .dwattr $C$DW$52, DW_AT_location[DW_OP_addr I2C7WriteData]
     347                            .dwattr $C$DW$52, DW_AT_type(*$C$DW$T$110)
     348                            .dwattr $C$DW$52, DW_AT_external
     349                            .dwattr $C$DW$52, DW_AT_decl_file("../Tasks/Task_I2C7_Handler.c")
     350                            .dwattr $C$DW$52, DW_AT_decl_line(0x44)
     351                            .dwattr $C$DW$52, DW_AT_decl_column(0x09)
     352                    
     353                            .global I2C7_Status
     354 0000000d                   .data
     355                            .align  4
     356                            .elfsym I2C7_Status,SYM_SIZE(4)
     357 00000010           I2C7_Status:
     358 00000010 00000000          .bits   0,32                    ; I2C7_Status @ 0
     359                    
     360                    $C$DW$53        .dwtag  DW_TAG_variable
     361                            .dwattr $C$DW$53, DW_AT_name("I2C7_Status")
     362                            .dwattr $C$DW$53, DW_AT_TI_symbol_name("I2C7_Status")
     363                            .dwattr $C$DW$53, DW_AT_location[DW_OP_addr I2C7_Status]
     364                            .dwattr $C$DW$53, DW_AT_type(*$C$DW$T$24)
     365                            .dwattr $C$DW$53, DW_AT_external
     366                            .dwattr $C$DW$53, DW_AT_decl_file("../Tasks/Task_I2C7_Handler.c")
     367                            .dwattr $C$DW$53, DW_AT_decl_line(0x47)
     368                            .dwattr $C$DW$53, DW_AT_decl_column(0x0a)
     369                    
     370                            .global I2C7_HWStatus
     371 00000014                   .data
     372                            .align  4
     373                            .elfsym I2C7_HWStatus,SYM_SIZE(4)
     374 00000014           I2C7_HWStatus:
     375 00000014 00000000          .bits   0,32                    ; I2C7_HWStatus @ 0
     376                    
     377                    $C$DW$54        .dwtag  DW_TAG_variable
     378                            .dwattr $C$DW$54, DW_AT_name("I2C7_HWStatus")
     379                            .dwattr $C$DW$54, DW_AT_TI_symbol_name("I2C7_HWStatus")
     380                            .dwattr $C$DW$54, DW_AT_location[DW_OP_addr I2C7_HWStatus]
     381                            .dwattr $C$DW$54, DW_AT_type(*$C$DW$T$24)
     382                            .dwattr $C$DW$54, DW_AT_external
     383                            .dwattr $C$DW$54, DW_AT_decl_file("../Tasks/Task_I2C7_Handler.c")
     384                            .dwattr $C$DW$54, DW_AT_decl_line(0x48)
     385                            .dwattr $C$DW$54, DW_AT_decl_column(0x11)
TI ARM Assembler PC v15.12.1 Tue Oct 18 10:42:46 2016

Tools Copyright (c) 1996-2015 Texas Instruments Incorporated
Task_I2C7_Handler.asm                                                PAGE    8

     386                    
     387                            .global I2C7_SimpleDone
     388 00000018                   .data
     389                            .align  1
     390                            .elfsym I2C7_SimpleDone,SYM_SIZE(1)
     391 00000018           I2C7_SimpleDone:
     392 00000018 00000000          .bits   0,8                     ; I2C7_SimpleDone @ 0
     393                    
     394                    $C$DW$55        .dwtag  DW_TAG_variable
     395                            .dwattr $C$DW$55, DW_AT_name("I2C7_SimpleDone")
     396                            .dwattr $C$DW$55, DW_AT_TI_symbol_name("I2C7_SimpleDone")
     397                            .dwattr $C$DW$55, DW_AT_location[DW_OP_addr I2C7_SimpleDone]
     398                            .dwattr $C$DW$55, DW_AT_type(*$C$DW$T$160)
     399                            .dwattr $C$DW$55, DW_AT_external
     400                            .dwattr $C$DW$55, DW_AT_decl_file("../Tasks/Task_I2C7_Handler.c")
     401                            .dwattr $C$DW$55, DW_AT_decl_line(0x4d)
     402                            .dwattr $C$DW$55, DW_AT_decl_column(0x0f)
     403                    
     404                    ;       C:\TI_CodeComposer\ccsv6\tools\compiler\ti-cgt-arm_15.12.1.LTS\bin\armacpia.exe -@C:\\Users\\R
     405 00000000                   .sect   ".text:I2CMWrite"
     406                            .clink
     407                            .thumbfunc I2CMWrite
     408 00000000                   .thumb
     409                            .global I2CMWrite
     410                    
     411                    $C$DW$56        .dwtag  DW_TAG_subprogram
     412                            .dwattr $C$DW$56, DW_AT_name("I2CMWrite")
     413                            .dwattr $C$DW$56, DW_AT_low_pc(I2CMWrite)
     414                            .dwattr $C$DW$56, DW_AT_high_pc(0x00)
     415                            .dwattr $C$DW$56, DW_AT_TI_symbol_name("I2CMWrite")
     416                            .dwattr $C$DW$56, DW_AT_external
     417                            .dwattr $C$DW$56, DW_AT_type(*$C$DW$T$25)
     418                            .dwattr $C$DW$56, DW_AT_TI_begin_file("C:/TI_CodeComposer/TivaWare/sensorlib/i2cm_drv.h")
     419                            .dwattr $C$DW$56, DW_AT_TI_begin_line(0x1cb)
     420                            .dwattr $C$DW$56, DW_AT_TI_begin_column(0x01)
     421                            .dwattr $C$DW$56, DW_AT_decl_file("C:/TI_CodeComposer/TivaWare/sensorlib/i2cm_drv.h")
     422                            .dwattr $C$DW$56, DW_AT_decl_line(0x1cb)
     423                            .dwattr $C$DW$56, DW_AT_decl_column(0x01)
     424                            .dwattr $C$DW$56, DW_AT_TI_max_frame_size(0x30)
     425                            .dwpsn  file "C:/TI_CodeComposer/TivaWare/sensorlib/i2cm_drv.h",line 462,column 1,is_stmt,addr
     426                    
     427                            .dwfde $C$DW$CIE, I2CMWrite
     428                    $C$DW$57        .dwtag  DW_TAG_formal_parameter
     429                            .dwattr $C$DW$57, DW_AT_name("psInst")
     430                            .dwattr $C$DW$57, DW_AT_TI_symbol_name("psInst")
     431                            .dwattr $C$DW$57, DW_AT_type(*$C$DW$T$34)
     432                            .dwattr $C$DW$57, DW_AT_location[DW_OP_reg0]
     433                    
     434                    $C$DW$58        .dwtag  DW_TAG_formal_parameter
     435                            .dwattr $C$DW$58, DW_AT_name("ui8Addr")
     436                            .dwattr $C$DW$58, DW_AT_TI_symbol_name("ui8Addr")
     437                            .dwattr $C$DW$58, DW_AT_type(*$C$DW$T$25)
     438                            .dwattr $C$DW$58, DW_AT_location[DW_OP_reg1]
     439                    
     440                    $C$DW$59        .dwtag  DW_TAG_formal_parameter
TI ARM Assembler PC v15.12.1 Tue Oct 18 10:42:46 2016

Tools Copyright (c) 1996-2015 Texas Instruments Incorporated
Task_I2C7_Handler.asm                                                PAGE    9

     441                            .dwattr $C$DW$59, DW_AT_name("pui8Data")
     442                            .dwattr $C$DW$59, DW_AT_TI_symbol_name("pui8Data")
     443                            .dwattr $C$DW$59, DW_AT_type(*$C$DW$T$21)
     444                            .dwattr $C$DW$59, DW_AT_location[DW_OP_reg2]
     445                    
     446                    $C$DW$60        .dwtag  DW_TAG_formal_parameter
     447                            .dwattr $C$DW$60, DW_AT_name("ui16Count")
     448                            .dwattr $C$DW$60, DW_AT_TI_symbol_name("ui16Count")
     449                            .dwattr $C$DW$60, DW_AT_type(*$C$DW$T$132)
     450                            .dwattr $C$DW$60, DW_AT_location[DW_OP_reg3]
     451                    
     452                    $C$DW$61        .dwtag  DW_TAG_formal_parameter
     453                            .dwattr $C$DW$61, DW_AT_name("pfnCallback")
     454                            .dwattr $C$DW$61, DW_AT_TI_symbol_name("pfnCallback")
     455                            .dwattr $C$DW$61, DW_AT_type(*$C$DW$T$28)
     456                            .dwattr $C$DW$61, DW_AT_location[DW_OP_breg13 48]
     457                    
     458                    $C$DW$62        .dwtag  DW_TAG_formal_parameter
     459                            .dwattr $C$DW$62, DW_AT_name("pvCallbackData")
     460                            .dwattr $C$DW$62, DW_AT_TI_symbol_name("pvCallbackData")
     461                            .dwattr $C$DW$62, DW_AT_type(*$C$DW$T$3)
     462                            .dwattr $C$DW$62, DW_AT_location[DW_OP_breg13 52]
     463                    
     464                    
     465                    ;*****************************************************************************
     466                    ;* FUNCTION NAME: I2CMWrite                                                  *
     467                    ;*                                                                           *
     468                    ;*   Regs Modified     : A1,A2,A3,A4,V9,SP,LR,SR,D0,D0_hi,D1,D1_hi,D2,D2_hi, *
     469                    ;*                           D3,D3_hi,D4,D4_hi,D5,D5_hi,D6,D6_hi,D7,D7_hi,   *
     470                    ;*                           FPEXC,FPSCR                                     *
     471                    ;*   Regs Used         : A1,A2,A3,A4,V9,SP,LR,SR,D0,D0_hi,D1,D1_hi,D2,D2_hi, *
     472                    ;*                           D3,D3_hi,D4,D4_hi,D5,D5_hi,D6,D6_hi,D7,D7_hi,   *
     473                    ;*                           FPEXC,FPSCR                                     *
     474                    ;*   Local Frame Size  : 24 Args + 16 Auto + 4 Save = 44 byte                *
     475                    ;*****************************************************************************
     476 00000000           I2CMWrite:
     477                    ;* --------------------------------------------------------------------------*
     478                            .dwcfi  cfa_offset, 0
     479 00000000 B500              PUSH      {LR}                  ; [DPU_3_PIPE]  ; [ORIG 16-BIT INS]
     480                            .dwcfi  cfa_offset, 4
     481                            .dwcfi  save_reg_to_mem, 14, -4
     482 00000002 0D2CF1AD          SUB       SP, SP, #44           ; [DPU_3_PIPE]  ; [KEEP 32-BIT INS]
     483                            .dwcfi  cfa_offset, 48
     484                    $C$DW$63        .dwtag  DW_TAG_variable
     485                            .dwattr $C$DW$63, DW_AT_name("psInst")
     486                            .dwattr $C$DW$63, DW_AT_TI_symbol_name("psInst")
     487                            .dwattr $C$DW$63, DW_AT_type(*$C$DW$T$34)
     488                            .dwattr $C$DW$63, DW_AT_location[DW_OP_breg13 24]
     489                    
     490                    $C$DW$64        .dwtag  DW_TAG_variable
     491                            .dwattr $C$DW$64, DW_AT_name("ui8Addr")
     492                            .dwattr $C$DW$64, DW_AT_TI_symbol_name("ui8Addr")
     493                            .dwattr $C$DW$64, DW_AT_type(*$C$DW$T$25)
     494                            .dwattr $C$DW$64, DW_AT_location[DW_OP_breg13 28]
     495                    
TI ARM Assembler PC v15.12.1 Tue Oct 18 10:42:46 2016

Tools Copyright (c) 1996-2015 Texas Instruments Incorporated
Task_I2C7_Handler.asm                                                PAGE   10

     496                    $C$DW$65        .dwtag  DW_TAG_variable
     497                            .dwattr $C$DW$65, DW_AT_name("pui8Data")
     498                            .dwattr $C$DW$65, DW_AT_TI_symbol_name("pui8Data")
     499                            .dwattr $C$DW$65, DW_AT_type(*$C$DW$T$21)
     500                            .dwattr $C$DW$65, DW_AT_location[DW_OP_breg13 32]
     501                    
     502                    $C$DW$66        .dwtag  DW_TAG_variable
     503                            .dwattr $C$DW$66, DW_AT_name("ui16Count")
     504                            .dwattr $C$DW$66, DW_AT_TI_symbol_name("ui16Count")
     505                            .dwattr $C$DW$66, DW_AT_type(*$C$DW$T$132)
     506                            .dwattr $C$DW$66, DW_AT_location[DW_OP_breg13 36]
     507                    
     508 00000006 9309              STR       A4, [SP, #36]         ; [DPU_3_PIPE] |462|  ; [ORIG 16-BIT INS]
     509 00000008 9208              STR       A3, [SP, #32]         ; [DPU_3_PIPE] |462|  ; [ORIG 16-BIT INS]
     510 0000000a 9107              STR       A2, [SP, #28]         ; [DPU_3_PIPE] |462|  ; [ORIG 16-BIT INS]
     511 0000000c 9006              STR       A1, [SP, #24]         ; [DPU_3_PIPE] |462|  ; [ORIG 16-BIT INS]
     512                            .dwpsn  file "C:/TI_CodeComposer/TivaWare/sensorlib/i2cm_drv.h",line 463,column 5,is_stmt,isa 
     513 0000000e 9809              LDR       A1, [SP, #36]         ; [DPU_3_PIPE] |463|  ; [ORIG 16-BIT INS]
     514 00000010 9000              STR       A1, [SP, #0]          ; [DPU_3_PIPE] |463|  ; [ORIG 16-BIT INS]
     515 00000012 2000              MOVS      A1, #0                ; [DPU_3_PIPE] |463|  ; [ORIG 16-BIT INS]
     516 00000014 9001              STR       A1, [SP, #4]          ; [DPU_3_PIPE] |463|  ; [ORIG 16-BIT INS]
     517 00000016 2000              MOVS      A1, #0                ; [DPU_3_PIPE] |463|  ; [ORIG 16-BIT INS]
     518 00000018 9002              STR       A1, [SP, #8]          ; [DPU_3_PIPE] |463|  ; [ORIG 16-BIT INS]
     519 0000001a 2000              MOVS      A1, #0                ; [DPU_3_PIPE] |463|  ; [ORIG 16-BIT INS]
     520 0000001c 9003              STR       A1, [SP, #12]         ; [DPU_3_PIPE] |463|  ; [ORIG 16-BIT INS]
     521 0000001e 980C              LDR       A1, [SP, #48]         ; [DPU_3_PIPE] |463|  ; [ORIG 16-BIT INS]
     522 00000020 9004              STR       A1, [SP, #16]         ; [DPU_3_PIPE] |463|  ; [ORIG 16-BIT INS]
     523 00000022 980D              LDR       A1, [SP, #52]         ; [DPU_3_PIPE] |463|  ; [ORIG 16-BIT INS]
     524 00000024 9005              STR       A1, [SP, #20]         ; [DPU_3_PIPE] |463|  ; [ORIG 16-BIT INS]
     525 00000026 9B09              LDR       A4, [SP, #36]         ; [DPU_3_PIPE] |463|  ; [ORIG 16-BIT INS]
     526 00000028 9A08              LDR       A3, [SP, #32]         ; [DPU_3_PIPE] |463|  ; [ORIG 16-BIT INS]
     527 0000002a 9907              LDR       A2, [SP, #28]         ; [DPU_3_PIPE] |463|  ; [ORIG 16-BIT INS]
     528 0000002c 9806              LDR       A1, [SP, #24]         ; [DPU_3_PIPE] |463|  ; [ORIG 16-BIT INS]
     529                    $C$DW$67        .dwtag  DW_TAG_TI_branch
     530                            .dwattr $C$DW$67, DW_AT_low_pc(0x00)
     531                            .dwattr $C$DW$67, DW_AT_name("I2CMCommand")
     532                            .dwattr $C$DW$67, DW_AT_TI_call
     533                    
     534 0000002e FFFEF7FF!         BL        I2CMCommand           ; [DPU_3_PIPE] |463|  ; [KEEP 32-BIT INS]
     535                            ; CALL OCCURS {I2CMCommand }     ; [] |463| 
     536                            .dwpsn  file "C:/TI_CodeComposer/TivaWare/sensorlib/i2cm_drv.h",line 465,column 1,is_stmt,isa 
     537 00000032 B00B              ADD       SP, SP, #44           ; [DPU_3_PIPE]  ; [ORIG 16-BIT INS]
     538                            .dwcfi  cfa_offset, 4
     539                    $C$DW$68        .dwtag  DW_TAG_TI_branch
     540                            .dwattr $C$DW$68, DW_AT_low_pc(0x00)
     541                            .dwattr $C$DW$68, DW_AT_TI_return
     542                    
     543 00000034 BD00              POP       {PC}                  ; [DPU_3_PIPE]  ; [ORIG 16-BIT INS]
     544                            .dwcfi  cfa_offset, 0
     545                            ; BRANCH OCCURS                  ; [] 
     546                            .dwattr $C$DW$56, DW_AT_TI_end_file("C:/TI_CodeComposer/TivaWare/sensorlib/i2cm_drv.h")
     547                            .dwattr $C$DW$56, DW_AT_TI_end_line(0x1d1)
     548                            .dwattr $C$DW$56, DW_AT_TI_end_column(0x01)
     549                            .dwendentry
     550                            .dwendtag $C$DW$56
TI ARM Assembler PC v15.12.1 Tue Oct 18 10:42:46 2016

Tools Copyright (c) 1996-2015 Texas Instruments Incorporated
Task_I2C7_Handler.asm                                                PAGE   11

     551                    
     552 00000000                   .sect   ".text:I2CMRead"
     553                            .clink
     554                            .thumbfunc I2CMRead
     555 00000000                   .thumb
     556                            .global I2CMRead
     557                    
     558                    $C$DW$69        .dwtag  DW_TAG_subprogram
     559                            .dwattr $C$DW$69, DW_AT_name("I2CMRead")
     560                            .dwattr $C$DW$69, DW_AT_low_pc(I2CMRead)
     561                            .dwattr $C$DW$69, DW_AT_high_pc(0x00)
     562                            .dwattr $C$DW$69, DW_AT_TI_symbol_name("I2CMRead")
     563                            .dwattr $C$DW$69, DW_AT_external
     564                            .dwattr $C$DW$69, DW_AT_type(*$C$DW$T$25)
     565                            .dwattr $C$DW$69, DW_AT_TI_begin_file("C:/TI_CodeComposer/TivaWare/sensorlib/i2cm_drv.h")
     566                            .dwattr $C$DW$69, DW_AT_TI_begin_line(0x1d9)
     567                            .dwattr $C$DW$69, DW_AT_TI_begin_column(0x01)
     568                            .dwattr $C$DW$69, DW_AT_decl_file("C:/TI_CodeComposer/TivaWare/sensorlib/i2cm_drv.h")
     569                            .dwattr $C$DW$69, DW_AT_decl_line(0x1d9)
     570                            .dwattr $C$DW$69, DW_AT_decl_column(0x01)
     571                            .dwattr $C$DW$69, DW_AT_TI_max_frame_size(0x30)
     572                            .dwpsn  file "C:/TI_CodeComposer/TivaWare/sensorlib/i2cm_drv.h",line 477,column 1,is_stmt,addr
     573                    
     574                            .dwfde $C$DW$CIE, I2CMRead
     575                    $C$DW$70        .dwtag  DW_TAG_formal_parameter
     576                            .dwattr $C$DW$70, DW_AT_name("psInst")
     577                            .dwattr $C$DW$70, DW_AT_TI_symbol_name("psInst")
     578                            .dwattr $C$DW$70, DW_AT_type(*$C$DW$T$34)
     579                            .dwattr $C$DW$70, DW_AT_location[DW_OP_reg0]
     580                    
     581                    $C$DW$71        .dwtag  DW_TAG_formal_parameter
     582                            .dwattr $C$DW$71, DW_AT_name("ui8Addr")
     583                            .dwattr $C$DW$71, DW_AT_TI_symbol_name("ui8Addr")
     584                            .dwattr $C$DW$71, DW_AT_type(*$C$DW$T$25)
     585                            .dwattr $C$DW$71, DW_AT_location[DW_OP_reg1]
     586                    
     587                    $C$DW$72        .dwtag  DW_TAG_formal_parameter
     588                            .dwattr $C$DW$72, DW_AT_name("pui8WriteData")
     589                            .dwattr $C$DW$72, DW_AT_TI_symbol_name("pui8WriteData")
     590                            .dwattr $C$DW$72, DW_AT_type(*$C$DW$T$21)
     591                            .dwattr $C$DW$72, DW_AT_location[DW_OP_reg2]
     592                    
     593                    $C$DW$73        .dwtag  DW_TAG_formal_parameter
     594                            .dwattr $C$DW$73, DW_AT_name("ui16WriteCount")
     595                            .dwattr $C$DW$73, DW_AT_TI_symbol_name("ui16WriteCount")
     596                            .dwattr $C$DW$73, DW_AT_type(*$C$DW$T$132)
     597                            .dwattr $C$DW$73, DW_AT_location[DW_OP_reg3]
     598                    
     599                    $C$DW$74        .dwtag  DW_TAG_formal_parameter
     600                            .dwattr $C$DW$74, DW_AT_name("pui8ReadData")
     601                            .dwattr $C$DW$74, DW_AT_TI_symbol_name("pui8ReadData")
     602                            .dwattr $C$DW$74, DW_AT_type(*$C$DW$T$23)
     603                            .dwattr $C$DW$74, DW_AT_location[DW_OP_breg13 48]
     604                    
     605                    $C$DW$75        .dwtag  DW_TAG_formal_parameter
TI ARM Assembler PC v15.12.1 Tue Oct 18 10:42:46 2016

Tools Copyright (c) 1996-2015 Texas Instruments Incorporated
Task_I2C7_Handler.asm                                                PAGE   12

     606                            .dwattr $C$DW$75, DW_AT_name("ui16ReadCount")
     607                            .dwattr $C$DW$75, DW_AT_TI_symbol_name("ui16ReadCount")
     608                            .dwattr $C$DW$75, DW_AT_type(*$C$DW$T$132)
     609                            .dwattr $C$DW$75, DW_AT_location[DW_OP_breg13 52]
     610                    
     611                    $C$DW$76        .dwtag  DW_TAG_formal_parameter
     612                            .dwattr $C$DW$76, DW_AT_name("pfnCallback")
     613                            .dwattr $C$DW$76, DW_AT_TI_symbol_name("pfnCallback")
     614                            .dwattr $C$DW$76, DW_AT_type(*$C$DW$T$28)
     615                            .dwattr $C$DW$76, DW_AT_location[DW_OP_breg13 56]
     616                    
     617                    $C$DW$77        .dwtag  DW_TAG_formal_parameter
     618                            .dwattr $C$DW$77, DW_AT_name("pvCallbackData")
     619                            .dwattr $C$DW$77, DW_AT_TI_symbol_name("pvCallbackData")
     620                            .dwattr $C$DW$77, DW_AT_type(*$C$DW$T$3)
     621                            .dwattr $C$DW$77, DW_AT_location[DW_OP_breg13 60]
     622                    
     623                    
     624                    ;*****************************************************************************
     625                    ;* FUNCTION NAME: I2CMRead                                                   *
     626                    ;*                                                                           *
     627                    ;*   Regs Modified     : A1,A2,A3,A4,V9,SP,LR,SR,D0,D0_hi,D1,D1_hi,D2,D2_hi, *
     628                    ;*                           D3,D3_hi,D4,D4_hi,D5,D5_hi,D6,D6_hi,D7,D7_hi,   *
     629                    ;*                           FPEXC,FPSCR                                     *
     630                    ;*   Regs Used         : A1,A2,A3,A4,V9,SP,LR,SR,D0,D0_hi,D1,D1_hi,D2,D2_hi, *
     631                    ;*                           D3,D3_hi,D4,D4_hi,D5,D5_hi,D6,D6_hi,D7,D7_hi,   *
     632                    ;*                           FPEXC,FPSCR                                     *
     633                    ;*   Local Frame Size  : 24 Args + 16 Auto + 4 Save = 44 byte                *
     634                    ;*****************************************************************************
     635 00000000           I2CMRead:
     636                    ;* --------------------------------------------------------------------------*
     637                            .dwcfi  cfa_offset, 0
     638 00000000 B500              PUSH      {LR}                  ; [DPU_3_PIPE]  ; [ORIG 16-BIT INS]
     639                            .dwcfi  cfa_offset, 4
     640                            .dwcfi  save_reg_to_mem, 14, -4
     641 00000002 0D2CF1AD          SUB       SP, SP, #44           ; [DPU_3_PIPE]  ; [KEEP 32-BIT INS]
     642                            .dwcfi  cfa_offset, 48
     643                    $C$DW$78        .dwtag  DW_TAG_variable
     644                            .dwattr $C$DW$78, DW_AT_name("psInst")
     645                            .dwattr $C$DW$78, DW_AT_TI_symbol_name("psInst")
     646                            .dwattr $C$DW$78, DW_AT_type(*$C$DW$T$34)
     647                            .dwattr $C$DW$78, DW_AT_location[DW_OP_breg13 24]
     648                    
     649                    $C$DW$79        .dwtag  DW_TAG_variable
     650                            .dwattr $C$DW$79, DW_AT_name("ui8Addr")
     651                            .dwattr $C$DW$79, DW_AT_TI_symbol_name("ui8Addr")
     652                            .dwattr $C$DW$79, DW_AT_type(*$C$DW$T$25)
     653                            .dwattr $C$DW$79, DW_AT_location[DW_OP_breg13 28]
     654                    
     655                    $C$DW$80        .dwtag  DW_TAG_variable
     656                            .dwattr $C$DW$80, DW_AT_name("pui8WriteData")
     657                            .dwattr $C$DW$80, DW_AT_TI_symbol_name("pui8WriteData")
     658                            .dwattr $C$DW$80, DW_AT_type(*$C$DW$T$21)
     659                            .dwattr $C$DW$80, DW_AT_location[DW_OP_breg13 32]
     660                    
TI ARM Assembler PC v15.12.1 Tue Oct 18 10:42:46 2016

Tools Copyright (c) 1996-2015 Texas Instruments Incorporated
Task_I2C7_Handler.asm                                                PAGE   13

     661                    $C$DW$81        .dwtag  DW_TAG_variable
     662                            .dwattr $C$DW$81, DW_AT_name("ui16WriteCount")
     663                            .dwattr $C$DW$81, DW_AT_TI_symbol_name("ui16WriteCount")
     664                            .dwattr $C$DW$81, DW_AT_type(*$C$DW$T$132)
     665                            .dwattr $C$DW$81, DW_AT_location[DW_OP_breg13 36]
     666                    
     667 00000006 9309              STR       A4, [SP, #36]         ; [DPU_3_PIPE] |477|  ; [ORIG 16-BIT INS]
     668 00000008 9208              STR       A3, [SP, #32]         ; [DPU_3_PIPE] |477|  ; [ORIG 16-BIT INS]
     669 0000000a 9107              STR       A2, [SP, #28]         ; [DPU_3_PIPE] |477|  ; [ORIG 16-BIT INS]
     670 0000000c 9006              STR       A1, [SP, #24]         ; [DPU_3_PIPE] |477|  ; [ORIG 16-BIT INS]
     671                            .dwpsn  file "C:/TI_CodeComposer/TivaWare/sensorlib/i2cm_drv.h",line 478,column 5,is_stmt,isa 
     672 0000000e 9809              LDR       A1, [SP, #36]         ; [DPU_3_PIPE] |478|  ; [ORIG 16-BIT INS]
     673 00000010 9000              STR       A1, [SP, #0]          ; [DPU_3_PIPE] |478|  ; [ORIG 16-BIT INS]
     674 00000012 980C              LDR       A1, [SP, #48]         ; [DPU_3_PIPE] |478|  ; [ORIG 16-BIT INS]
     675 00000014 9001              STR       A1, [SP, #4]          ; [DPU_3_PIPE] |478|  ; [ORIG 16-BIT INS]
     676 00000016 980D              LDR       A1, [SP, #52]         ; [DPU_3_PIPE] |478|  ; [ORIG 16-BIT INS]
     677 00000018 9002              STR       A1, [SP, #8]          ; [DPU_3_PIPE] |478|  ; [ORIG 16-BIT INS]
     678 0000001a 980D              LDR       A1, [SP, #52]         ; [DPU_3_PIPE] |478|  ; [ORIG 16-BIT INS]
     679 0000001c 9003              STR       A1, [SP, #12]         ; [DPU_3_PIPE] |478|  ; [ORIG 16-BIT INS]
     680 0000001e 980E              LDR       A1, [SP, #56]         ; [DPU_3_PIPE] |478|  ; [ORIG 16-BIT INS]
     681 00000020 9004              STR       A1, [SP, #16]         ; [DPU_3_PIPE] |478|  ; [ORIG 16-BIT INS]
     682 00000022 980F              LDR       A1, [SP, #60]         ; [DPU_3_PIPE] |478|  ; [ORIG 16-BIT INS]
     683 00000024 9005              STR       A1, [SP, #20]         ; [DPU_3_PIPE] |478|  ; [ORIG 16-BIT INS]
     684 00000026 9B09              LDR       A4, [SP, #36]         ; [DPU_3_PIPE] |478|  ; [ORIG 16-BIT INS]
     685 00000028 9A08              LDR       A3, [SP, #32]         ; [DPU_3_PIPE] |478|  ; [ORIG 16-BIT INS]
     686 0000002a 9907              LDR       A2, [SP, #28]         ; [DPU_3_PIPE] |478|  ; [ORIG 16-BIT INS]
     687 0000002c 9806              LDR       A1, [SP, #24]         ; [DPU_3_PIPE] |478|  ; [ORIG 16-BIT INS]
     688                    $C$DW$82        .dwtag  DW_TAG_TI_branch
     689                            .dwattr $C$DW$82, DW_AT_low_pc(0x00)
     690                            .dwattr $C$DW$82, DW_AT_name("I2CMCommand")
     691                            .dwattr $C$DW$82, DW_AT_TI_call
     692                    
     693 0000002e FFFEF7FF!         BL        I2CMCommand           ; [DPU_3_PIPE] |478|  ; [KEEP 32-BIT INS]
     694                            ; CALL OCCURS {I2CMCommand }     ; [] |478| 
     695                            .dwpsn  file "C:/TI_CodeComposer/TivaWare/sensorlib/i2cm_drv.h",line 481,column 1,is_stmt,isa 
     696 00000032 B00B              ADD       SP, SP, #44           ; [DPU_3_PIPE]  ; [ORIG 16-BIT INS]
     697                            .dwcfi  cfa_offset, 4
     698                    $C$DW$83        .dwtag  DW_TAG_TI_branch
     699                            .dwattr $C$DW$83, DW_AT_low_pc(0x00)
     700                            .dwattr $C$DW$83, DW_AT_TI_return
     701                    
     702 00000034 BD00              POP       {PC}                  ; [DPU_3_PIPE]  ; [ORIG 16-BIT INS]
     703                            .dwcfi  cfa_offset, 0
     704                            ; BRANCH OCCURS                  ; [] 
     705                            .dwattr $C$DW$69, DW_AT_TI_end_file("C:/TI_CodeComposer/TivaWare/sensorlib/i2cm_drv.h")
     706                            .dwattr $C$DW$69, DW_AT_TI_end_line(0x1e1)
     707                            .dwattr $C$DW$69, DW_AT_TI_end_column(0x01)
     708                            .dwendentry
     709                            .dwendtag $C$DW$69
     710                    
     711 00000000                   .sect   ".text:I2CMWriteBatched"
     712                            .clink
     713                            .thumbfunc I2CMWriteBatched
     714 00000000                   .thumb
     715                            .global I2CMWriteBatched
TI ARM Assembler PC v15.12.1 Tue Oct 18 10:42:46 2016

Tools Copyright (c) 1996-2015 Texas Instruments Incorporated
Task_I2C7_Handler.asm                                                PAGE   14

     716                    
     717                    $C$DW$84        .dwtag  DW_TAG_subprogram
     718                            .dwattr $C$DW$84, DW_AT_name("I2CMWriteBatched")
     719                            .dwattr $C$DW$84, DW_AT_low_pc(I2CMWriteBatched)
     720                            .dwattr $C$DW$84, DW_AT_high_pc(0x00)
     721                            .dwattr $C$DW$84, DW_AT_TI_symbol_name("I2CMWriteBatched")
     722                            .dwattr $C$DW$84, DW_AT_external
     723                            .dwattr $C$DW$84, DW_AT_type(*$C$DW$T$25)
     724                            .dwattr $C$DW$84, DW_AT_TI_begin_file("C:/TI_CodeComposer/TivaWare/sensorlib/i2cm_drv.h")
     725                            .dwattr $C$DW$84, DW_AT_TI_begin_line(0x1e9)
     726                            .dwattr $C$DW$84, DW_AT_TI_begin_column(0x01)
     727                            .dwattr $C$DW$84, DW_AT_decl_file("C:/TI_CodeComposer/TivaWare/sensorlib/i2cm_drv.h")
     728                            .dwattr $C$DW$84, DW_AT_decl_line(0x1e9)
     729                            .dwattr $C$DW$84, DW_AT_decl_column(0x01)
     730                            .dwattr $C$DW$84, DW_AT_TI_max_frame_size(0x30)
     731                            .dwpsn  file "C:/TI_CodeComposer/TivaWare/sensorlib/i2cm_drv.h",line 493,column 1,is_stmt,addr
     732                    
     733                            .dwfde $C$DW$CIE, I2CMWriteBatched
     734                    $C$DW$85        .dwtag  DW_TAG_formal_parameter
     735                            .dwattr $C$DW$85, DW_AT_name("psInst")
     736                            .dwattr $C$DW$85, DW_AT_TI_symbol_name("psInst")
     737                            .dwattr $C$DW$85, DW_AT_type(*$C$DW$T$34)
     738                            .dwattr $C$DW$85, DW_AT_location[DW_OP_reg0]
     739                    
     740                    $C$DW$86        .dwtag  DW_TAG_formal_parameter
     741                            .dwattr $C$DW$86, DW_AT_name("ui8Addr")
     742                            .dwattr $C$DW$86, DW_AT_TI_symbol_name("ui8Addr")
     743                            .dwattr $C$DW$86, DW_AT_type(*$C$DW$T$25)
     744                            .dwattr $C$DW$86, DW_AT_location[DW_OP_reg1]
     745                    
     746                    $C$DW$87        .dwtag  DW_TAG_formal_parameter
     747                            .dwattr $C$DW$87, DW_AT_name("pui8Data")
     748                            .dwattr $C$DW$87, DW_AT_TI_symbol_name("pui8Data")
     749                            .dwattr $C$DW$87, DW_AT_type(*$C$DW$T$21)
     750                            .dwattr $C$DW$87, DW_AT_location[DW_OP_reg2]
     751                    
     752                    $C$DW$88        .dwtag  DW_TAG_formal_parameter
     753                            .dwattr $C$DW$88, DW_AT_name("ui16Count")
     754                            .dwattr $C$DW$88, DW_AT_TI_symbol_name("ui16Count")
     755                            .dwattr $C$DW$88, DW_AT_type(*$C$DW$T$132)
     756                            .dwattr $C$DW$88, DW_AT_location[DW_OP_reg3]
     757                    
     758                    $C$DW$89        .dwtag  DW_TAG_formal_parameter
     759                            .dwattr $C$DW$89, DW_AT_name("ui16BatchSize")
     760                            .dwattr $C$DW$89, DW_AT_TI_symbol_name("ui16BatchSize")
     761                            .dwattr $C$DW$89, DW_AT_type(*$C$DW$T$132)
     762                            .dwattr $C$DW$89, DW_AT_location[DW_OP_breg13 48]
     763                    
     764                    $C$DW$90        .dwtag  DW_TAG_formal_parameter
     765                            .dwattr $C$DW$90, DW_AT_name("pfnCallback")
     766                            .dwattr $C$DW$90, DW_AT_TI_symbol_name("pfnCallback")
     767                            .dwattr $C$DW$90, DW_AT_type(*$C$DW$T$28)
     768                            .dwattr $C$DW$90, DW_AT_location[DW_OP_breg13 52]
     769                    
     770                    $C$DW$91        .dwtag  DW_TAG_formal_parameter
TI ARM Assembler PC v15.12.1 Tue Oct 18 10:42:46 2016

Tools Copyright (c) 1996-2015 Texas Instruments Incorporated
Task_I2C7_Handler.asm                                                PAGE   15

     771                            .dwattr $C$DW$91, DW_AT_name("pvCallbackData")
     772                            .dwattr $C$DW$91, DW_AT_TI_symbol_name("pvCallbackData")
     773                            .dwattr $C$DW$91, DW_AT_type(*$C$DW$T$3)
     774                            .dwattr $C$DW$91, DW_AT_location[DW_OP_breg13 56]
     775                    
     776                    
     777                    ;*****************************************************************************
     778                    ;* FUNCTION NAME: I2CMWriteBatched                                           *
     779                    ;*                                                                           *
     780                    ;*   Regs Modified     : A1,A2,A3,A4,V9,SP,LR,SR,D0,D0_hi,D1,D1_hi,D2,D2_hi, *
     781                    ;*                           D3,D3_hi,D4,D4_hi,D5,D5_hi,D6,D6_hi,D7,D7_hi,   *
     782                    ;*                           FPEXC,FPSCR                                     *
     783                    ;*   Regs Used         : A1,A2,A3,A4,V9,SP,LR,SR,D0,D0_hi,D1,D1_hi,D2,D2_hi, *
     784                    ;*                           D3,D3_hi,D4,D4_hi,D5,D5_hi,D6,D6_hi,D7,D7_hi,   *
     785                    ;*                           FPEXC,FPSCR                                     *
     786                    ;*   Local Frame Size  : 24 Args + 16 Auto + 4 Save = 44 byte                *
     787                    ;*****************************************************************************
     788 00000000           I2CMWriteBatched:
     789                    ;* --------------------------------------------------------------------------*
     790                            .dwcfi  cfa_offset, 0
     791 00000000 B500              PUSH      {LR}                  ; [DPU_3_PIPE]  ; [ORIG 16-BIT INS]
     792                            .dwcfi  cfa_offset, 4
     793                            .dwcfi  save_reg_to_mem, 14, -4
     794 00000002 0D2CF1AD          SUB       SP, SP, #44           ; [DPU_3_PIPE]  ; [KEEP 32-BIT INS]
     795                            .dwcfi  cfa_offset, 48
     796                    $C$DW$92        .dwtag  DW_TAG_variable
     797                            .dwattr $C$DW$92, DW_AT_name("psInst")
     798                            .dwattr $C$DW$92, DW_AT_TI_symbol_name("psInst")
     799                            .dwattr $C$DW$92, DW_AT_type(*$C$DW$T$34)
     800                            .dwattr $C$DW$92, DW_AT_location[DW_OP_breg13 24]
     801                    
     802                    $C$DW$93        .dwtag  DW_TAG_variable
     803                            .dwattr $C$DW$93, DW_AT_name("ui8Addr")
     804                            .dwattr $C$DW$93, DW_AT_TI_symbol_name("ui8Addr")
     805                            .dwattr $C$DW$93, DW_AT_type(*$C$DW$T$25)
     806                            .dwattr $C$DW$93, DW_AT_location[DW_OP_breg13 28]
     807                    
     808                    $C$DW$94        .dwtag  DW_TAG_variable
     809                            .dwattr $C$DW$94, DW_AT_name("pui8Data")
     810                            .dwattr $C$DW$94, DW_AT_TI_symbol_name("pui8Data")
     811                            .dwattr $C$DW$94, DW_AT_type(*$C$DW$T$21)
     812                            .dwattr $C$DW$94, DW_AT_location[DW_OP_breg13 32]
     813                    
     814                    $C$DW$95        .dwtag  DW_TAG_variable
     815                            .dwattr $C$DW$95, DW_AT_name("ui16Count")
     816                            .dwattr $C$DW$95, DW_AT_TI_symbol_name("ui16Count")
     817                            .dwattr $C$DW$95, DW_AT_type(*$C$DW$T$132)
     818                            .dwattr $C$DW$95, DW_AT_location[DW_OP_breg13 36]
     819                    
     820 00000006 9309              STR       A4, [SP, #36]         ; [DPU_3_PIPE] |493|  ; [ORIG 16-BIT INS]
     821 00000008 9208              STR       A3, [SP, #32]         ; [DPU_3_PIPE] |493|  ; [ORIG 16-BIT INS]
     822 0000000a 9107              STR       A2, [SP, #28]         ; [DPU_3_PIPE] |493|  ; [ORIG 16-BIT INS]
     823 0000000c 9006              STR       A1, [SP, #24]         ; [DPU_3_PIPE] |493|  ; [ORIG 16-BIT INS]
     824                            .dwpsn  file "C:/TI_CodeComposer/TivaWare/sensorlib/i2cm_drv.h",line 494,column 5,is_stmt,isa 
     825 0000000e 980C              LDR       A1, [SP, #48]         ; [DPU_3_PIPE] |494|  ; [ORIG 16-BIT INS]
TI ARM Assembler PC v15.12.1 Tue Oct 18 10:42:46 2016

Tools Copyright (c) 1996-2015 Texas Instruments Incorporated
Task_I2C7_Handler.asm                                                PAGE   16

     826 00000010 9000              STR       A1, [SP, #0]          ; [DPU_3_PIPE] |494|  ; [ORIG 16-BIT INS]
     827 00000012 2000              MOVS      A1, #0                ; [DPU_3_PIPE] |494|  ; [ORIG 16-BIT INS]
     828 00000014 9001              STR       A1, [SP, #4]          ; [DPU_3_PIPE] |494|  ; [ORIG 16-BIT INS]
     829 00000016 2000              MOVS      A1, #0                ; [DPU_3_PIPE] |494|  ; [ORIG 16-BIT INS]
     830 00000018 9002              STR       A1, [SP, #8]          ; [DPU_3_PIPE] |494|  ; [ORIG 16-BIT INS]
     831 0000001a 2000              MOVS      A1, #0                ; [DPU_3_PIPE] |494|  ; [ORIG 16-BIT INS]
     832 0000001c 9003              STR       A1, [SP, #12]         ; [DPU_3_PIPE] |494|  ; [ORIG 16-BIT INS]
     833 0000001e 980D              LDR       A1, [SP, #52]         ; [DPU_3_PIPE] |494|  ; [ORIG 16-BIT INS]
     834 00000020 9004              STR       A1, [SP, #16]         ; [DPU_3_PIPE] |494|  ; [ORIG 16-BIT INS]
     835 00000022 980E              LDR       A1, [SP, #56]         ; [DPU_3_PIPE] |494|  ; [ORIG 16-BIT INS]
     836 00000024 9005              STR       A1, [SP, #20]         ; [DPU_3_PIPE] |494|  ; [ORIG 16-BIT INS]
     837 00000026 9B09              LDR       A4, [SP, #36]         ; [DPU_3_PIPE] |494|  ; [ORIG 16-BIT INS]
     838 00000028 9A08              LDR       A3, [SP, #32]         ; [DPU_3_PIPE] |494|  ; [ORIG 16-BIT INS]
     839 0000002a 9907              LDR       A2, [SP, #28]         ; [DPU_3_PIPE] |494|  ; [ORIG 16-BIT INS]
     840 0000002c 9806              LDR       A1, [SP, #24]         ; [DPU_3_PIPE] |494|  ; [ORIG 16-BIT INS]
     841                    $C$DW$96        .dwtag  DW_TAG_TI_branch
     842                            .dwattr $C$DW$96, DW_AT_low_pc(0x00)
     843                            .dwattr $C$DW$96, DW_AT_name("I2CMCommand")
     844                            .dwattr $C$DW$96, DW_AT_TI_call
     845                    
     846 0000002e FFFEF7FF!         BL        I2CMCommand           ; [DPU_3_PIPE] |494|  ; [KEEP 32-BIT INS]
     847                            ; CALL OCCURS {I2CMCommand }     ; [] |494| 
     848                            .dwpsn  file "C:/TI_CodeComposer/TivaWare/sensorlib/i2cm_drv.h",line 496,column 1,is_stmt,isa 
     849 00000032 B00B              ADD       SP, SP, #44           ; [DPU_3_PIPE]  ; [ORIG 16-BIT INS]
     850                            .dwcfi  cfa_offset, 4
     851                    $C$DW$97        .dwtag  DW_TAG_TI_branch
     852                            .dwattr $C$DW$97, DW_AT_low_pc(0x00)
     853                            .dwattr $C$DW$97, DW_AT_TI_return
     854                    
     855 00000034 BD00              POP       {PC}                  ; [DPU_3_PIPE]  ; [ORIG 16-BIT INS]
     856                            .dwcfi  cfa_offset, 0
     857                            ; BRANCH OCCURS                  ; [] 
     858                            .dwattr $C$DW$84, DW_AT_TI_end_file("C:/TI_CodeComposer/TivaWare/sensorlib/i2cm_drv.h")
     859                            .dwattr $C$DW$84, DW_AT_TI_end_line(0x1f0)
     860                            .dwattr $C$DW$84, DW_AT_TI_end_column(0x01)
     861                            .dwendentry
     862                            .dwendtag $C$DW$84
     863                    
     864 00000000                   .sect   ".text:I2CMReadBatched"
     865                            .clink
     866                            .thumbfunc I2CMReadBatched
     867 00000000                   .thumb
     868                            .global I2CMReadBatched
     869                    
     870                    $C$DW$98        .dwtag  DW_TAG_subprogram
     871                            .dwattr $C$DW$98, DW_AT_name("I2CMReadBatched")
     872                            .dwattr $C$DW$98, DW_AT_low_pc(I2CMReadBatched)
     873                            .dwattr $C$DW$98, DW_AT_high_pc(0x00)
     874                            .dwattr $C$DW$98, DW_AT_TI_symbol_name("I2CMReadBatched")
     875                            .dwattr $C$DW$98, DW_AT_external
     876                            .dwattr $C$DW$98, DW_AT_type(*$C$DW$T$25)
     877                            .dwattr $C$DW$98, DW_AT_TI_begin_file("C:/TI_CodeComposer/TivaWare/sensorlib/i2cm_drv.h")
     878                            .dwattr $C$DW$98, DW_AT_TI_begin_line(0x1f8)
     879                            .dwattr $C$DW$98, DW_AT_TI_begin_column(0x01)
     880                            .dwattr $C$DW$98, DW_AT_decl_file("C:/TI_CodeComposer/TivaWare/sensorlib/i2cm_drv.h")
TI ARM Assembler PC v15.12.1 Tue Oct 18 10:42:46 2016

Tools Copyright (c) 1996-2015 Texas Instruments Incorporated
Task_I2C7_Handler.asm                                                PAGE   17

     881                            .dwattr $C$DW$98, DW_AT_decl_line(0x1f8)
     882                            .dwattr $C$DW$98, DW_AT_decl_column(0x01)
     883                            .dwattr $C$DW$98, DW_AT_TI_max_frame_size(0x30)
     884                            .dwpsn  file "C:/TI_CodeComposer/TivaWare/sensorlib/i2cm_drv.h",line 509,column 1,is_stmt,addr
     885                    
     886                            .dwfde $C$DW$CIE, I2CMReadBatched
     887                    $C$DW$99        .dwtag  DW_TAG_formal_parameter
     888                            .dwattr $C$DW$99, DW_AT_name("psInst")
     889                            .dwattr $C$DW$99, DW_AT_TI_symbol_name("psInst")
     890                            .dwattr $C$DW$99, DW_AT_type(*$C$DW$T$34)
     891                            .dwattr $C$DW$99, DW_AT_location[DW_OP_reg0]
     892                    
     893                    $C$DW$100       .dwtag  DW_TAG_formal_parameter
     894                            .dwattr $C$DW$100, DW_AT_name("ui8Addr")
     895                            .dwattr $C$DW$100, DW_AT_TI_symbol_name("ui8Addr")
     896                            .dwattr $C$DW$100, DW_AT_type(*$C$DW$T$25)
     897                            .dwattr $C$DW$100, DW_AT_location[DW_OP_reg1]
     898                    
     899                    $C$DW$101       .dwtag  DW_TAG_formal_parameter
     900                            .dwattr $C$DW$101, DW_AT_name("pui8WriteData")
     901                            .dwattr $C$DW$101, DW_AT_TI_symbol_name("pui8WriteData")
     902                            .dwattr $C$DW$101, DW_AT_type(*$C$DW$T$21)
     903                            .dwattr $C$DW$101, DW_AT_location[DW_OP_reg2]
     904                    
     905                    $C$DW$102       .dwtag  DW_TAG_formal_parameter
     906                            .dwattr $C$DW$102, DW_AT_name("ui16WriteCount")
     907                            .dwattr $C$DW$102, DW_AT_TI_symbol_name("ui16WriteCount")
     908                            .dwattr $C$DW$102, DW_AT_type(*$C$DW$T$132)
     909                            .dwattr $C$DW$102, DW_AT_location[DW_OP_reg3]
     910                    
     911                    $C$DW$103       .dwtag  DW_TAG_formal_parameter
     912                            .dwattr $C$DW$103, DW_AT_name("ui16WriteBatchSize")
     913                            .dwattr $C$DW$103, DW_AT_TI_symbol_name("ui16WriteBatchSize")
     914                            .dwattr $C$DW$103, DW_AT_type(*$C$DW$T$132)
     915                            .dwattr $C$DW$103, DW_AT_location[DW_OP_breg13 48]
     916                    
     917                    $C$DW$104       .dwtag  DW_TAG_formal_parameter
     918                            .dwattr $C$DW$104, DW_AT_name("pui8ReadData")
     919                            .dwattr $C$DW$104, DW_AT_TI_symbol_name("pui8ReadData")
     920                            .dwattr $C$DW$104, DW_AT_type(*$C$DW$T$23)
     921                            .dwattr $C$DW$104, DW_AT_location[DW_OP_breg13 52]
     922                    
     923                    $C$DW$105       .dwtag  DW_TAG_formal_parameter
     924                            .dwattr $C$DW$105, DW_AT_name("ui16ReadCount")
     925                            .dwattr $C$DW$105, DW_AT_TI_symbol_name("ui16ReadCount")
     926                            .dwattr $C$DW$105, DW_AT_type(*$C$DW$T$132)
     927                            .dwattr $C$DW$105, DW_AT_location[DW_OP_breg13 56]
     928                    
     929                    $C$DW$106       .dwtag  DW_TAG_formal_parameter
     930                            .dwattr $C$DW$106, DW_AT_name("ui16ReadBatchSize")
     931                            .dwattr $C$DW$106, DW_AT_TI_symbol_name("ui16ReadBatchSize")
     932                            .dwattr $C$DW$106, DW_AT_type(*$C$DW$T$132)
     933                            .dwattr $C$DW$106, DW_AT_location[DW_OP_breg13 60]
     934                    
     935                    $C$DW$107       .dwtag  DW_TAG_formal_parameter
TI ARM Assembler PC v15.12.1 Tue Oct 18 10:42:46 2016

Tools Copyright (c) 1996-2015 Texas Instruments Incorporated
Task_I2C7_Handler.asm                                                PAGE   18

     936                            .dwattr $C$DW$107, DW_AT_name("pfnCallback")
     937                            .dwattr $C$DW$107, DW_AT_TI_symbol_name("pfnCallback")
     938                            .dwattr $C$DW$107, DW_AT_type(*$C$DW$T$28)
     939                            .dwattr $C$DW$107, DW_AT_location[DW_OP_breg13 64]
     940                    
     941                    $C$DW$108       .dwtag  DW_TAG_formal_parameter
     942                            .dwattr $C$DW$108, DW_AT_name("pvCallbackData")
     943                            .dwattr $C$DW$108, DW_AT_TI_symbol_name("pvCallbackData")
     944                            .dwattr $C$DW$108, DW_AT_type(*$C$DW$T$3)
     945                            .dwattr $C$DW$108, DW_AT_location[DW_OP_breg13 68]
     946                    
     947                    
     948                    ;*****************************************************************************
     949                    ;* FUNCTION NAME: I2CMReadBatched                                            *
     950                    ;*                                                                           *
     951                    ;*   Regs Modified     : A1,A2,A3,A4,V9,SP,LR,SR,D0,D0_hi,D1,D1_hi,D2,D2_hi, *
     952                    ;*                           D3,D3_hi,D4,D4_hi,D5,D5_hi,D6,D6_hi,D7,D7_hi,   *
     953                    ;*                           FPEXC,FPSCR                                     *
     954                    ;*   Regs Used         : A1,A2,A3,A4,V9,SP,LR,SR,D0,D0_hi,D1,D1_hi,D2,D2_hi, *
     955                    ;*                           D3,D3_hi,D4,D4_hi,D5,D5_hi,D6,D6_hi,D7,D7_hi,   *
     956                    ;*                           FPEXC,FPSCR                                     *
     957                    ;*   Local Frame Size  : 24 Args + 16 Auto + 4 Save = 44 byte                *
     958                    ;*****************************************************************************
     959 00000000           I2CMReadBatched:
     960                    ;* --------------------------------------------------------------------------*
     961                            .dwcfi  cfa_offset, 0
     962 00000000 B500              PUSH      {LR}                  ; [DPU_3_PIPE]  ; [ORIG 16-BIT INS]
     963                            .dwcfi  cfa_offset, 4
     964                            .dwcfi  save_reg_to_mem, 14, -4
     965 00000002 0D2CF1AD          SUB       SP, SP, #44           ; [DPU_3_PIPE]  ; [KEEP 32-BIT INS]
     966                            .dwcfi  cfa_offset, 48
     967                    $C$DW$109       .dwtag  DW_TAG_variable
     968                            .dwattr $C$DW$109, DW_AT_name("psInst")
     969                            .dwattr $C$DW$109, DW_AT_TI_symbol_name("psInst")
     970                            .dwattr $C$DW$109, DW_AT_type(*$C$DW$T$34)
     971                            .dwattr $C$DW$109, DW_AT_location[DW_OP_breg13 24]
     972                    
     973                    $C$DW$110       .dwtag  DW_TAG_variable
     974                            .dwattr $C$DW$110, DW_AT_name("ui8Addr")
     975                            .dwattr $C$DW$110, DW_AT_TI_symbol_name("ui8Addr")
     976                            .dwattr $C$DW$110, DW_AT_type(*$C$DW$T$25)
     977                            .dwattr $C$DW$110, DW_AT_location[DW_OP_breg13 28]
     978                    
     979                    $C$DW$111       .dwtag  DW_TAG_variable
     980                            .dwattr $C$DW$111, DW_AT_name("pui8WriteData")
     981                            .dwattr $C$DW$111, DW_AT_TI_symbol_name("pui8WriteData")
     982                            .dwattr $C$DW$111, DW_AT_type(*$C$DW$T$21)
     983                            .dwattr $C$DW$111, DW_AT_location[DW_OP_breg13 32]
     984                    
     985                    $C$DW$112       .dwtag  DW_TAG_variable
     986                            .dwattr $C$DW$112, DW_AT_name("ui16WriteCount")
     987                            .dwattr $C$DW$112, DW_AT_TI_symbol_name("ui16WriteCount")
     988                            .dwattr $C$DW$112, DW_AT_type(*$C$DW$T$132)
     989                            .dwattr $C$DW$112, DW_AT_location[DW_OP_breg13 36]
     990                    
TI ARM Assembler PC v15.12.1 Tue Oct 18 10:42:46 2016

Tools Copyright (c) 1996-2015 Texas Instruments Incorporated
Task_I2C7_Handler.asm                                                PAGE   19

     991 00000006 9309              STR       A4, [SP, #36]         ; [DPU_3_PIPE] |509|  ; [ORIG 16-BIT INS]
     992 00000008 9208              STR       A3, [SP, #32]         ; [DPU_3_PIPE] |509|  ; [ORIG 16-BIT INS]
     993 0000000a 9107              STR       A2, [SP, #28]         ; [DPU_3_PIPE] |509|  ; [ORIG 16-BIT INS]
     994 0000000c 9006              STR       A1, [SP, #24]         ; [DPU_3_PIPE] |509|  ; [ORIG 16-BIT INS]
     995                            .dwpsn  file "C:/TI_CodeComposer/TivaWare/sensorlib/i2cm_drv.h",line 510,column 5,is_stmt,isa 
     996 0000000e 980C              LDR       A1, [SP, #48]         ; [DPU_3_PIPE] |510|  ; [ORIG 16-BIT INS]
     997 00000010 9000              STR       A1, [SP, #0]          ; [DPU_3_PIPE] |510|  ; [ORIG 16-BIT INS]
     998 00000012 980D              LDR       A1, [SP, #52]         ; [DPU_3_PIPE] |510|  ; [ORIG 16-BIT INS]
     999 00000014 9001              STR       A1, [SP, #4]          ; [DPU_3_PIPE] |510|  ; [ORIG 16-BIT INS]
    1000 00000016 980E              LDR       A1, [SP, #56]         ; [DPU_3_PIPE] |510|  ; [ORIG 16-BIT INS]
    1001 00000018 9002              STR       A1, [SP, #8]          ; [DPU_3_PIPE] |510|  ; [ORIG 16-BIT INS]
    1002 0000001a 980F              LDR       A1, [SP, #60]         ; [DPU_3_PIPE] |510|  ; [ORIG 16-BIT INS]
    1003 0000001c 9003              STR       A1, [SP, #12]         ; [DPU_3_PIPE] |510|  ; [ORIG 16-BIT INS]
    1004 0000001e 9810              LDR       A1, [SP, #64]         ; [DPU_3_PIPE] |510|  ; [ORIG 16-BIT INS]
    1005 00000020 9004              STR       A1, [SP, #16]         ; [DPU_3_PIPE] |510|  ; [ORIG 16-BIT INS]
    1006 00000022 9811              LDR       A1, [SP, #68]         ; [DPU_3_PIPE] |510|  ; [ORIG 16-BIT INS]
    1007 00000024 9005              STR       A1, [SP, #20]         ; [DPU_3_PIPE] |510|  ; [ORIG 16-BIT INS]
    1008 00000026 9B09              LDR       A4, [SP, #36]         ; [DPU_3_PIPE] |510|  ; [ORIG 16-BIT INS]
    1009 00000028 9A08              LDR       A3, [SP, #32]         ; [DPU_3_PIPE] |510|  ; [ORIG 16-BIT INS]
    1010 0000002a 9907              LDR       A2, [SP, #28]         ; [DPU_3_PIPE] |510|  ; [ORIG 16-BIT INS]
    1011 0000002c 9806              LDR       A1, [SP, #24]         ; [DPU_3_PIPE] |510|  ; [ORIG 16-BIT INS]
    1012                    $C$DW$113       .dwtag  DW_TAG_TI_branch
    1013                            .dwattr $C$DW$113, DW_AT_low_pc(0x00)
    1014                            .dwattr $C$DW$113, DW_AT_name("I2CMCommand")
    1015                            .dwattr $C$DW$113, DW_AT_TI_call
    1016                    
    1017 0000002e FFFEF7FF!         BL        I2CMCommand           ; [DPU_3_PIPE] |510|  ; [KEEP 32-BIT INS]
    1018                            ; CALL OCCURS {I2CMCommand }     ; [] |510| 
    1019                            .dwpsn  file "C:/TI_CodeComposer/TivaWare/sensorlib/i2cm_drv.h",line 513,column 1,is_stmt,isa 
    1020 00000032 B00B              ADD       SP, SP, #44           ; [DPU_3_PIPE]  ; [ORIG 16-BIT INS]
    1021                            .dwcfi  cfa_offset, 4
    1022                    $C$DW$114       .dwtag  DW_TAG_TI_branch
    1023                            .dwattr $C$DW$114, DW_AT_low_pc(0x00)
    1024                            .dwattr $C$DW$114, DW_AT_TI_return
    1025                    
    1026 00000034 BD00              POP       {PC}                  ; [DPU_3_PIPE]  ; [ORIG 16-BIT INS]
    1027                            .dwcfi  cfa_offset, 0
    1028                            ; BRANCH OCCURS                  ; [] 
    1029                            .dwattr $C$DW$98, DW_AT_TI_end_file("C:/TI_CodeComposer/TivaWare/sensorlib/i2cm_drv.h")
    1030                            .dwattr $C$DW$98, DW_AT_TI_end_line(0x201)
    1031                            .dwattr $C$DW$98, DW_AT_TI_end_column(0x01)
    1032                            .dwendentry
    1033                            .dwendtag $C$DW$98
    1034                    
    1035 00000000                   .sect   ".text:I2CMReadModifyWrite16BE"
    1036                            .clink
    1037                            .thumbfunc I2CMReadModifyWrite16BE
    1038 00000000                   .thumb
    1039                            .global I2CMReadModifyWrite16BE
    1040                    
    1041                    $C$DW$115       .dwtag  DW_TAG_subprogram
    1042                            .dwattr $C$DW$115, DW_AT_name("I2CMReadModifyWrite16BE")
    1043                            .dwattr $C$DW$115, DW_AT_low_pc(I2CMReadModifyWrite16BE)
    1044                            .dwattr $C$DW$115, DW_AT_high_pc(0x00)
    1045                            .dwattr $C$DW$115, DW_AT_TI_symbol_name("I2CMReadModifyWrite16BE")
TI ARM Assembler PC v15.12.1 Tue Oct 18 10:42:46 2016

Tools Copyright (c) 1996-2015 Texas Instruments Incorporated
Task_I2C7_Handler.asm                                                PAGE   20

    1046                            .dwattr $C$DW$115, DW_AT_external
    1047                            .dwattr $C$DW$115, DW_AT_type(*$C$DW$T$25)
    1048                            .dwattr $C$DW$115, DW_AT_TI_begin_file("C:/TI_CodeComposer/TivaWare/sensorlib/i2cm_drv.h")
    1049                            .dwattr $C$DW$115, DW_AT_TI_begin_line(0x209)
    1050                            .dwattr $C$DW$115, DW_AT_TI_begin_column(0x01)
    1051                            .dwattr $C$DW$115, DW_AT_decl_file("C:/TI_CodeComposer/TivaWare/sensorlib/i2cm_drv.h")
    1052                            .dwattr $C$DW$115, DW_AT_decl_line(0x209)
    1053                            .dwattr $C$DW$115, DW_AT_decl_column(0x01)
    1054                            .dwattr $C$DW$115, DW_AT_TI_max_frame_size(0x28)
    1055                            .dwpsn  file "C:/TI_CodeComposer/TivaWare/sensorlib/i2cm_drv.h",line 526,column 1,is_stmt,addr
    1056                    
    1057                            .dwfde $C$DW$CIE, I2CMReadModifyWrite16BE
    1058                    $C$DW$116       .dwtag  DW_TAG_formal_parameter
    1059                            .dwattr $C$DW$116, DW_AT_name("psInst")
    1060                            .dwattr $C$DW$116, DW_AT_TI_symbol_name("psInst")
    1061                            .dwattr $C$DW$116, DW_AT_type(*$C$DW$T$81)
    1062                            .dwattr $C$DW$116, DW_AT_location[DW_OP_reg0]
    1063                    
    1064                    $C$DW$117       .dwtag  DW_TAG_formal_parameter
    1065                            .dwattr $C$DW$117, DW_AT_name("psI2CInst")
    1066                            .dwattr $C$DW$117, DW_AT_TI_symbol_name("psI2CInst")
    1067                            .dwattr $C$DW$117, DW_AT_type(*$C$DW$T$34)
    1068                            .dwattr $C$DW$117, DW_AT_location[DW_OP_reg1]
    1069                    
    1070                    $C$DW$118       .dwtag  DW_TAG_formal_parameter
    1071                            .dwattr $C$DW$118, DW_AT_name("ui8Addr")
    1072                            .dwattr $C$DW$118, DW_AT_TI_symbol_name("ui8Addr")
    1073                            .dwattr $C$DW$118, DW_AT_type(*$C$DW$T$25)
    1074                            .dwattr $C$DW$118, DW_AT_location[DW_OP_reg2]
    1075                    
    1076                    $C$DW$119       .dwtag  DW_TAG_formal_parameter
    1077                            .dwattr $C$DW$119, DW_AT_name("ui8Reg")
    1078                            .dwattr $C$DW$119, DW_AT_TI_symbol_name("ui8Reg")
    1079                            .dwattr $C$DW$119, DW_AT_type(*$C$DW$T$25)
    1080                            .dwattr $C$DW$119, DW_AT_location[DW_OP_reg3]
    1081                    
    1082                    $C$DW$120       .dwtag  DW_TAG_formal_parameter
    1083                            .dwattr $C$DW$120, DW_AT_name("ui16Mask")
    1084                            .dwattr $C$DW$120, DW_AT_TI_symbol_name("ui16Mask")
    1085                            .dwattr $C$DW$120, DW_AT_type(*$C$DW$T$132)
    1086                            .dwattr $C$DW$120, DW_AT_location[DW_OP_breg13 40]
    1087                    
    1088                    $C$DW$121       .dwtag  DW_TAG_formal_parameter
    1089                            .dwattr $C$DW$121, DW_AT_name("ui16Value")
    1090                            .dwattr $C$DW$121, DW_AT_TI_symbol_name("ui16Value")
    1091                            .dwattr $C$DW$121, DW_AT_type(*$C$DW$T$132)
    1092                            .dwattr $C$DW$121, DW_AT_location[DW_OP_breg13 44]
    1093                    
    1094                    $C$DW$122       .dwtag  DW_TAG_formal_parameter
    1095                            .dwattr $C$DW$122, DW_AT_name("pfnCallback")
    1096                            .dwattr $C$DW$122, DW_AT_TI_symbol_name("pfnCallback")
    1097                            .dwattr $C$DW$122, DW_AT_type(*$C$DW$T$28)
    1098                            .dwattr $C$DW$122, DW_AT_location[DW_OP_breg13 48]
    1099                    
    1100                    $C$DW$123       .dwtag  DW_TAG_formal_parameter
TI ARM Assembler PC v15.12.1 Tue Oct 18 10:42:46 2016

Tools Copyright (c) 1996-2015 Texas Instruments Incorporated
Task_I2C7_Handler.asm                                                PAGE   21

    1101                            .dwattr $C$DW$123, DW_AT_name("pvCallbackData")
    1102                            .dwattr $C$DW$123, DW_AT_TI_symbol_name("pvCallbackData")
    1103                            .dwattr $C$DW$123, DW_AT_type(*$C$DW$T$3)
    1104                            .dwattr $C$DW$123, DW_AT_location[DW_OP_breg13 52]
    1105                    
    1106                    
    1107                    ;*****************************************************************************
    1108                    ;* FUNCTION NAME: I2CMReadModifyWrite16BE                                    *
    1109                    ;*                                                                           *
    1110                    ;*   Regs Modified     : A1,A2,A3,A4,V9,SP,LR,SR,D0,D0_hi,D1,D1_hi,D2,D2_hi, *
    1111                    ;*                           D3,D3_hi,D4,D4_hi,D5,D5_hi,D6,D6_hi,D7,D7_hi,   *
    1112                    ;*                           FPEXC,FPSCR                                     *
    1113                    ;*   Regs Used         : A1,A2,A3,A4,V9,SP,LR,SR,D0,D0_hi,D1,D1_hi,D2,D2_hi, *
    1114                    ;*                           D3,D3_hi,D4,D4_hi,D5,D5_hi,D6,D6_hi,D7,D7_hi,   *
    1115                    ;*                           FPEXC,FPSCR                                     *
    1116                    ;*   Local Frame Size  : 16 Args + 16 Auto + 4 Save = 36 byte                *
    1117                    ;*****************************************************************************
    1118 00000000           I2CMReadModifyWrite16BE:
    1119                    ;* --------------------------------------------------------------------------*
    1120                            .dwcfi  cfa_offset, 0
    1121 00000000 B500              PUSH      {LR}                  ; [DPU_3_PIPE]  ; [ORIG 16-BIT INS]
    1122                            .dwcfi  cfa_offset, 4
    1123                            .dwcfi  save_reg_to_mem, 14, -4
    1124 00000002 0D24F1AD          SUB       SP, SP, #36           ; [DPU_3_PIPE]  ; [KEEP 32-BIT INS]
    1125                            .dwcfi  cfa_offset, 40
    1126                    $C$DW$124       .dwtag  DW_TAG_variable
    1127                            .dwattr $C$DW$124, DW_AT_name("psInst")
    1128                            .dwattr $C$DW$124, DW_AT_TI_symbol_name("psInst")
    1129                            .dwattr $C$DW$124, DW_AT_type(*$C$DW$T$81)
    1130                            .dwattr $C$DW$124, DW_AT_location[DW_OP_breg13 16]
    1131                    
    1132                    $C$DW$125       .dwtag  DW_TAG_variable
    1133                            .dwattr $C$DW$125, DW_AT_name("psI2CInst")
    1134                            .dwattr $C$DW$125, DW_AT_TI_symbol_name("psI2CInst")
    1135                            .dwattr $C$DW$125, DW_AT_type(*$C$DW$T$34)
    1136                            .dwattr $C$DW$125, DW_AT_location[DW_OP_breg13 20]
    1137                    
    1138                    $C$DW$126       .dwtag  DW_TAG_variable
    1139                            .dwattr $C$DW$126, DW_AT_name("ui8Addr")
    1140                            .dwattr $C$DW$126, DW_AT_TI_symbol_name("ui8Addr")
    1141                            .dwattr $C$DW$126, DW_AT_type(*$C$DW$T$25)
    1142                            .dwattr $C$DW$126, DW_AT_location[DW_OP_breg13 24]
    1143                    
    1144                    $C$DW$127       .dwtag  DW_TAG_variable
    1145                            .dwattr $C$DW$127, DW_AT_name("ui8Reg")
    1146                            .dwattr $C$DW$127, DW_AT_TI_symbol_name("ui8Reg")
    1147                            .dwattr $C$DW$127, DW_AT_type(*$C$DW$T$25)
    1148                            .dwattr $C$DW$127, DW_AT_location[DW_OP_breg13 28]
    1149                    
    1150 00000006 9307              STR       A4, [SP, #28]         ; [DPU_3_PIPE] |526|  ; [ORIG 16-BIT INS]
    1151 00000008 9206              STR       A3, [SP, #24]         ; [DPU_3_PIPE] |526|  ; [ORIG 16-BIT INS]
    1152 0000000a 9105              STR       A2, [SP, #20]         ; [DPU_3_PIPE] |526|  ; [ORIG 16-BIT INS]
    1153 0000000c 9004              STR       A1, [SP, #16]         ; [DPU_3_PIPE] |526|  ; [ORIG 16-BIT INS]
    1154                            .dwpsn  file "C:/TI_CodeComposer/TivaWare/sensorlib/i2cm_drv.h",line 527,column 5,is_stmt,isa 
    1155 0000000e 980A              LDR       A1, [SP, #40]         ; [DPU_3_PIPE] |527|  ; [ORIG 16-BIT INS]
TI ARM Assembler PC v15.12.1 Tue Oct 18 10:42:46 2016

Tools Copyright (c) 1996-2015 Texas Instruments Incorporated
Task_I2C7_Handler.asm                                                PAGE   22

    1156 00000010 990A              LDR       A2, [SP, #40]         ; [DPU_3_PIPE] |527|  ; [ORIG 16-BIT INS]
    1157 00000012 407FF400          AND       A1, A1, #65280        ; [DPU_3_PIPE] |527|  ; [KEEP 32-BIT INS]
    1158 00000016 01FFF001          AND       A2, A2, #255          ; [DPU_3_PIPE] |527|  ; [KEEP 32-BIT INS]
    1159 0000001a 0A00              LSRS      A1, A1, #8            ; [DPU_3_PIPE] |527|  ; [ORIG 16-BIT INS]
    1160 0000001c 2001EA40          ORR       A1, A1, A2, LSL #8    ; [DPU_3_PIPE] |527|  ; [KEEP 32-BIT INS]
    1161 00000020 990B              LDR       A2, [SP, #44]         ; [DPU_3_PIPE] |527|  ; [ORIG 16-BIT INS]
    1162 00000022 9000              STR       A1, [SP, #0]          ; [DPU_3_PIPE] |527|  ; [ORIG 16-BIT INS]
    1163 00000024 980B              LDR       A1, [SP, #44]         ; [DPU_3_PIPE] |527|  ; [ORIG 16-BIT INS]
    1164 00000026 01FFF001          AND       A2, A2, #255          ; [DPU_3_PIPE] |527|  ; [KEEP 32-BIT INS]
    1165 0000002a 407FF400          AND       A1, A1, #65280        ; [DPU_3_PIPE] |527|  ; [KEEP 32-BIT INS]
    1166 0000002e 0A00              LSRS      A1, A1, #8            ; [DPU_3_PIPE] |527|  ; [ORIG 16-BIT INS]
    1167 00000030 2001EA40          ORR       A1, A1, A2, LSL #8    ; [DPU_3_PIPE] |527|  ; [KEEP 32-BIT INS]
    1168 00000034 9001              STR       A1, [SP, #4]          ; [DPU_3_PIPE] |527|  ; [ORIG 16-BIT INS]
    1169 00000036 980C              LDR       A1, [SP, #48]         ; [DPU_3_PIPE] |527|  ; [ORIG 16-BIT INS]
    1170 00000038 9002              STR       A1, [SP, #8]          ; [DPU_3_PIPE] |527|  ; [ORIG 16-BIT INS]
    1171 0000003a 980D              LDR       A1, [SP, #52]         ; [DPU_3_PIPE] |527|  ; [ORIG 16-BIT INS]
    1172 0000003c 9003              STR       A1, [SP, #12]         ; [DPU_3_PIPE] |527|  ; [ORIG 16-BIT INS]
    1173 0000003e 9A06              LDR       A3, [SP, #24]         ; [DPU_3_PIPE] |527|  ; [ORIG 16-BIT INS]
    1174 00000040 9B07              LDR       A4, [SP, #28]         ; [DPU_3_PIPE] |527|  ; [ORIG 16-BIT INS]
    1175 00000042 9905              LDR       A2, [SP, #20]         ; [DPU_3_PIPE] |527|  ; [ORIG 16-BIT INS]
    1176 00000044 9804              LDR       A1, [SP, #16]         ; [DPU_3_PIPE] |527|  ; [ORIG 16-BIT INS]
    1177                    $C$DW$128       .dwtag  DW_TAG_TI_branch
    1178                            .dwattr $C$DW$128, DW_AT_low_pc(0x00)
    1179                            .dwattr $C$DW$128, DW_AT_name("I2CMReadModifyWrite16LE")
    1180                            .dwattr $C$DW$128, DW_AT_TI_call
    1181                    
    1182 00000046 FFFEF7FF!         BL        I2CMReadModifyWrite16LE ; [DPU_3_PIPE] |527|  ; [KEEP 32-BIT INS]
    1183                            ; CALL OCCURS {I2CMReadModifyWrite16LE }  ; [] |527| 
    1184                            .dwpsn  file "C:/TI_CodeComposer/TivaWare/sensorlib/i2cm_drv.h",line 533,column 1,is_stmt,isa 
    1185 0000004a B009              ADD       SP, SP, #36           ; [DPU_3_PIPE]  ; [ORIG 16-BIT INS]
    1186                            .dwcfi  cfa_offset, 4
    1187                    $C$DW$129       .dwtag  DW_TAG_TI_branch
    1188                            .dwattr $C$DW$129, DW_AT_low_pc(0x00)
    1189                            .dwattr $C$DW$129, DW_AT_TI_return
    1190                    
    1191 0000004c BD00              POP       {PC}                  ; [DPU_3_PIPE]  ; [ORIG 16-BIT INS]
    1192                            .dwcfi  cfa_offset, 0
    1193                            ; BRANCH OCCURS                  ; [] 
    1194                            .dwattr $C$DW$115, DW_AT_TI_end_file("C:/TI_CodeComposer/TivaWare/sensorlib/i2cm_drv.h")
    1195                            .dwattr $C$DW$115, DW_AT_TI_end_line(0x215)
    1196                            .dwattr $C$DW$115, DW_AT_TI_end_column(0x01)
    1197                            .dwendentry
    1198                            .dwendtag $C$DW$115
    1199                    
    1200 00000000                   .sect   ".text"
    1201                            .clink
    1202                            .thumbfunc I2C7_IntServiceRoutine
    1203 00000000                   .thumb
    1204                            .global I2C7_IntServiceRoutine
    1205                    
    1206                    $C$DW$130       .dwtag  DW_TAG_subprogram
    1207                            .dwattr $C$DW$130, DW_AT_name("I2C7_IntServiceRoutine")
    1208                            .dwattr $C$DW$130, DW_AT_low_pc(I2C7_IntServiceRoutine)
    1209                            .dwattr $C$DW$130, DW_AT_high_pc(0x00)
    1210                            .dwattr $C$DW$130, DW_AT_TI_symbol_name("I2C7_IntServiceRoutine")
TI ARM Assembler PC v15.12.1 Tue Oct 18 10:42:46 2016

Tools Copyright (c) 1996-2015 Texas Instruments Incorporated
Task_I2C7_Handler.asm                                                PAGE   23

    1211                            .dwattr $C$DW$130, DW_AT_external
    1212                            .dwattr $C$DW$130, DW_AT_TI_begin_file("../Tasks/Task_I2C7_Handler.c")
    1213                            .dwattr $C$DW$130, DW_AT_TI_begin_line(0x52)
    1214                            .dwattr $C$DW$130, DW_AT_TI_begin_column(0x0d)
    1215                            .dwattr $C$DW$130, DW_AT_decl_file("../Tasks/Task_I2C7_Handler.c")
    1216                            .dwattr $C$DW$130, DW_AT_decl_line(0x52)
    1217                            .dwattr $C$DW$130, DW_AT_decl_column(0x0d)
    1218                            .dwattr $C$DW$130, DW_AT_TI_max_frame_size(0x08)
    1219                            .dwpsn  file "../Tasks/Task_I2C7_Handler.c",line 82,column 39,is_stmt,address I2C7_IntServiceR
    1220                    
    1221                            .dwfde $C$DW$CIE, I2C7_IntServiceRoutine
    1222                    
    1223                    ;*****************************************************************************
    1224                    ;* FUNCTION NAME: I2C7_IntServiceRoutine                                     *
    1225                    ;*                                                                           *
    1226                    ;*   Regs Modified     : A1,A2,A3,A4,V9,SP,LR,SR,D0,D0_hi,D1,D1_hi,D2,D2_hi, *
    1227                    ;*                           D3,D3_hi,D4,D4_hi,D5,D5_hi,D6,D6_hi,D7,D7_hi,   *
    1228                    ;*                           FPEXC,FPSCR                                     *
    1229                    ;*   Regs Used         : A1,A2,A3,A4,V9,SP,LR,SR,D0,D0_hi,D1,D1_hi,D2,D2_hi, *
    1230                    ;*                           D3,D3_hi,D4,D4_hi,D5,D5_hi,D6,D6_hi,D7,D7_hi,   *
    1231                    ;*                           FPEXC,FPSCR                                     *
    1232                    ;*   Local Frame Size  : 0 Args + 0 Auto + 4 Save = 4 byte                   *
    1233                    ;*****************************************************************************
    1234 00000000           I2C7_IntServiceRoutine:
    1235                    ;* --------------------------------------------------------------------------*
    1236                            .dwcfi  cfa_offset, 0
    1237 00000000 B508              PUSH      {A4, LR}              ; [DPU_3_PIPE]  ; [ORIG 16-BIT INS]
    1238                            .dwcfi  cfa_offset, 8
    1239                            .dwcfi  save_reg_to_mem, 14, -4
    1240                            .dwcfi  save_reg_to_mem, 3, -8
    1241                            .dwpsn  file "../Tasks/Task_I2C7_Handler.c",line 84,column 2,is_stmt,isa 1
    1242 00000002 493F              LDR       A2, $C$CON1           ; [DPU_3_PIPE] |84|  ; [ORIG 16-BIT INS]
    1243 00000004 6808              LDR       A1, [A2, #0]          ; [DPU_3_PIPE] |84|  ; [ORIG 16-BIT INS]
    1244 00000006 1C40              ADDS      A1, A1, #1            ; [DPU_3_PIPE] |84|  ; [ORIG 16-BIT INS]
    1245 00000008 6008              STR       A1, [A2, #0]          ; [DPU_3_PIPE] |84|  ; [ORIG 16-BIT INS]
    1246                            .dwpsn  file "../Tasks/Task_I2C7_Handler.c",line 89,column 2,is_stmt,isa 1
    1247 0000000a 483E              LDR       A1, $C$CON2           ; [DPU_3_PIPE] |89|  ; [ORIG 16-BIT INS]
    1248                    $C$DW$131       .dwtag  DW_TAG_TI_branch
    1249                            .dwattr $C$DW$131, DW_AT_low_pc(0x00)
    1250                            .dwattr $C$DW$131, DW_AT_name("I2CMIntHandler")
    1251                            .dwattr $C$DW$131, DW_AT_TI_call
    1252                    
    1253 0000000c FFFEF7FF!         BL        I2CMIntHandler        ; [DPU_3_PIPE] |89|  ; [KEEP 32-BIT INS]
    1254                            ; CALL OCCURS {I2CMIntHandler }  ; [] |89| 
    1255                            .dwpsn  file "../Tasks/Task_I2C7_Handler.c",line 90,column 2,is_stmt,isa 1
    1256                    $C$DW$132       .dwtag  DW_TAG_TI_branch
    1257                            .dwattr $C$DW$132, DW_AT_low_pc(0x00)
    1258                            .dwattr $C$DW$132, DW_AT_TI_return
    1259                    
    1260 00000010 BD08              POP       {A4, PC}              ; [DPU_3_PIPE]  ; [ORIG 16-BIT INS]
    1261                            .dwcfi  cfa_offset, 0
    1262                            ; BRANCH OCCURS                  ; [] 
    1263                            .dwattr $C$DW$130, DW_AT_TI_end_file("../Tasks/Task_I2C7_Handler.c")
    1264                            .dwattr $C$DW$130, DW_AT_TI_end_line(0x5a)
    1265                            .dwattr $C$DW$130, DW_AT_TI_end_column(0x02)
TI ARM Assembler PC v15.12.1 Tue Oct 18 10:42:46 2016

Tools Copyright (c) 1996-2015 Texas Instruments Incorporated
Task_I2C7_Handler.asm                                                PAGE   24

    1266                            .dwendentry
    1267                            .dwendtag $C$DW$130
    1268                    
    1269 00000012                   .sect   ".text"
    1270                            .clink
    1271                            .thumbfunc I2CMSimpleCallback
    1272 00000012                   .thumb
    1273                            .global I2CMSimpleCallback
    1274                    
    1275                    $C$DW$133       .dwtag  DW_TAG_subprogram
    1276                            .dwattr $C$DW$133, DW_AT_name("I2CMSimpleCallback")
    1277                            .dwattr $C$DW$133, DW_AT_low_pc(I2CMSimpleCallback)
    1278                            .dwattr $C$DW$133, DW_AT_high_pc(0x00)
    1279                            .dwattr $C$DW$133, DW_AT_TI_symbol_name("I2CMSimpleCallback")
    1280                            .dwattr $C$DW$133, DW_AT_external
    1281                            .dwattr $C$DW$133, DW_AT_TI_begin_file("../Tasks/Task_I2C7_Handler.c")
    1282                            .dwattr $C$DW$133, DW_AT_TI_begin_line(0x60)
    1283                            .dwattr $C$DW$133, DW_AT_TI_begin_column(0x06)
    1284                            .dwattr $C$DW$133, DW_AT_decl_file("../Tasks/Task_I2C7_Handler.c")
    1285                            .dwattr $C$DW$133, DW_AT_decl_line(0x60)
    1286                            .dwattr $C$DW$133, DW_AT_decl_column(0x06)
    1287                            .dwattr $C$DW$133, DW_AT_TI_max_frame_size(0x10)
    1288                            .dwpsn  file "../Tasks/Task_I2C7_Handler.c",line 96,column 63,is_stmt,address I2CMSimpleCallba
    1289                    
    1290                            .dwfde $C$DW$CIE, I2CMSimpleCallback
    1291                    $C$DW$134       .dwtag  DW_TAG_formal_parameter
    1292                            .dwattr $C$DW$134, DW_AT_name("pvData")
    1293                            .dwattr $C$DW$134, DW_AT_TI_symbol_name("pvData")
    1294                            .dwattr $C$DW$134, DW_AT_type(*$C$DW$T$3)
    1295                            .dwattr $C$DW$134, DW_AT_location[DW_OP_reg0]
    1296                    
    1297                    $C$DW$135       .dwtag  DW_TAG_formal_parameter
    1298                            .dwattr $C$DW$135, DW_AT_name("ui8Status")
    1299                            .dwattr $C$DW$135, DW_AT_TI_symbol_name("ui8Status")
    1300                            .dwattr $C$DW$135, DW_AT_type(*$C$DW$T$25)
    1301                            .dwattr $C$DW$135, DW_AT_location[DW_OP_reg1]
    1302                    
    1303                    
    1304                    ;*****************************************************************************
    1305                    ;* FUNCTION NAME: I2CMSimpleCallback                                         *
    1306                    ;*                                                                           *
    1307                    ;*   Regs Modified     : A1,A2,A3,A4,V9,SP,LR,SR,D0,D0_hi,D1,D1_hi,D2,D2_hi, *
    1308                    ;*                           D3,D3_hi,D4,D4_hi,D5,D5_hi,D6,D6_hi,D7,D7_hi,   *
    1309                    ;*                           FPEXC,FPSCR                                     *
    1310                    ;*   Regs Used         : A1,A2,A3,A4,V9,SP,LR,SR,D0,D0_hi,D1,D1_hi,D2,D2_hi, *
    1311                    ;*                           D3,D3_hi,D4,D4_hi,D5,D5_hi,D6,D6_hi,D7,D7_hi,   *
    1312                    ;*                           FPEXC,FPSCR                                     *
    1313                    ;*   Local Frame Size  : 0 Args + 8 Auto + 4 Save = 12 byte                  *
    1314                    ;*****************************************************************************
    1315 00000012           I2CMSimpleCallback:
    1316                    ;* --------------------------------------------------------------------------*
    1317                            .dwcfi  cfa_offset, 0
    1318 00000012 B50E              PUSH      {A2, A3, A4, LR}      ; [DPU_3_PIPE]  ; [ORIG 16-BIT INS]
    1319                            .dwcfi  cfa_offset, 16
    1320                            .dwcfi  save_reg_to_mem, 14, -4
TI ARM Assembler PC v15.12.1 Tue Oct 18 10:42:46 2016

Tools Copyright (c) 1996-2015 Texas Instruments Incorporated
Task_I2C7_Handler.asm                                                PAGE   25

    1321                            .dwcfi  save_reg_to_mem, 3, -8
    1322                            .dwcfi  save_reg_to_mem, 2, -12
    1323                            .dwcfi  save_reg_to_mem, 1, -16
    1324                    $C$DW$136       .dwtag  DW_TAG_variable
    1325                            .dwattr $C$DW$136, DW_AT_name("pvData")
    1326                            .dwattr $C$DW$136, DW_AT_TI_symbol_name("pvData")
    1327                            .dwattr $C$DW$136, DW_AT_type(*$C$DW$T$3)
    1328                            .dwattr $C$DW$136, DW_AT_location[DW_OP_breg13 0]
    1329                    
    1330                    $C$DW$137       .dwtag  DW_TAG_variable
    1331                            .dwattr $C$DW$137, DW_AT_name("ui8Status")
    1332                            .dwattr $C$DW$137, DW_AT_TI_symbol_name("ui8Status")
    1333                            .dwattr $C$DW$137, DW_AT_type(*$C$DW$T$25)
    1334                            .dwattr $C$DW$137, DW_AT_location[DW_OP_breg13 4]
    1335                    
    1336 00000014 9101              STR       A2, [SP, #4]          ; [DPU_3_PIPE] |96|  ; [ORIG 16-BIT INS]
    1337 00000016 9000              STR       A1, [SP, #0]          ; [DPU_3_PIPE] |96|  ; [ORIG 16-BIT INS]
    1338                            .dwpsn  file "../Tasks/Task_I2C7_Handler.c",line 98,column 2,is_stmt,isa 1
    1339 00000018 493B              LDR       A2, $C$CON3           ; [DPU_3_PIPE] |98|  ; [ORIG 16-BIT INS]
    1340 0000001a 6808              LDR       A1, [A2, #0]          ; [DPU_3_PIPE] |98|  ; [ORIG 16-BIT INS]
    1341 0000001c 1C40              ADDS      A1, A1, #1            ; [DPU_3_PIPE] |98|  ; [ORIG 16-BIT INS]
    1342 0000001e 6008              STR       A1, [A2, #0]          ; [DPU_3_PIPE] |98|  ; [ORIG 16-BIT INS]
    1343                            .dwpsn  file "../Tasks/Task_I2C7_Handler.c",line 103,column 2,is_stmt,isa 1
    1344 00000020 9801              LDR       A1, [SP, #4]          ; [DPU_3_PIPE] |103|  ; [ORIG 16-BIT INS]
    1345 00000022 B118              CBZ       A1, ||$C$L1||         ; []  ; [ORIG 16-BIT INS]
    1346                            ; BRANCHCC OCCURS {||$C$L1||}    ; [] |103| 
    1347                    ;* --------------------------------------------------------------------------*
    1348                            .dwpsn  file "../Tasks/Task_I2C7_Handler.c",line 107,column 3,is_stmt,isa 1
    1349 00000024 9901              LDR       A2, [SP, #4]          ; [DPU_3_PIPE] |107|  ; [ORIG 16-BIT INS]
    1350 00000026 A028              ADR       A1, $C$SL1            ; [DPU_3_PIPE] |107|  ; [ORIG 16-BIT INS]
    1351                    $C$DW$138       .dwtag  DW_TAG_TI_branch
    1352                            .dwattr $C$DW$138, DW_AT_low_pc(0x00)
    1353                            .dwattr $C$DW$138, DW_AT_name("UARTprintf")
    1354                            .dwattr $C$DW$138, DW_AT_TI_call
    1355                    
    1356 00000028 FFFEF7FF!         BL        UARTprintf            ; [DPU_3_PIPE] |107|  ; [KEEP 32-BIT INS]
    1357                            ; CALL OCCURS {UARTprintf }      ; [] |107| 
    1358                    ;* --------------------------------------------------------------------------*
    1359 0000002c           ||$C$L1||:    
    1360                            .dwpsn  file "../Tasks/Task_I2C7_Handler.c",line 112,column 2,is_stmt,isa 1
    1361 0000002c 4937              LDR       A2, $C$CON4           ; [DPU_3_PIPE] |112|  ; [ORIG 16-BIT INS]
    1362 0000002e 2001              MOVS      A1, #1                ; [DPU_3_PIPE] |112|  ; [ORIG 16-BIT INS]
    1363 00000030 7008              STRB      A1, [A2, #0]          ; [DPU_3_PIPE] |112|  ; [ORIG 16-BIT INS]
    1364                            .dwpsn  file "../Tasks/Task_I2C7_Handler.c",line 113,column 1,is_stmt,isa 1
    1365                    $C$DW$139       .dwtag  DW_TAG_TI_branch
    1366                            .dwattr $C$DW$139, DW_AT_low_pc(0x00)
    1367                            .dwattr $C$DW$139, DW_AT_TI_return
    1368                    
    1369 00000032 BD0E              POP       {A2, A3, A4, PC}      ; [DPU_3_PIPE]  ; [ORIG 16-BIT INS]
    1370                            .dwcfi  cfa_offset, 0
    1371                            ; BRANCH OCCURS                  ; [] 
    1372                            .dwattr $C$DW$133, DW_AT_TI_end_file("../Tasks/Task_I2C7_Handler.c")
    1373                            .dwattr $C$DW$133, DW_AT_TI_end_line(0x71)
    1374                            .dwattr $C$DW$133, DW_AT_TI_end_column(0x01)
    1375                            .dwendentry
TI ARM Assembler PC v15.12.1 Tue Oct 18 10:42:46 2016

Tools Copyright (c) 1996-2015 Texas Instruments Incorporated
Task_I2C7_Handler.asm                                                PAGE   26

    1376                            .dwendtag $C$DW$133
    1377                    
    1378 00000034                   .sect   ".text"
    1379                            .clink
    1380                            .thumbfunc I2C7_Initialization
    1381 00000034                   .thumb
    1382                            .global I2C7_Initialization
    1383                    
    1384                    $C$DW$140       .dwtag  DW_TAG_subprogram
    1385                            .dwattr $C$DW$140, DW_AT_name("I2C7_Initialization")
    1386                            .dwattr $C$DW$140, DW_AT_low_pc(I2C7_Initialization)
    1387                            .dwattr $C$DW$140, DW_AT_high_pc(0x00)
    1388                            .dwattr $C$DW$140, DW_AT_TI_symbol_name("I2C7_Initialization")
    1389                            .dwattr $C$DW$140, DW_AT_external
    1390                            .dwattr $C$DW$140, DW_AT_type(*$C$DW$T$24)
    1391                            .dwattr $C$DW$140, DW_AT_TI_begin_file("../Tasks/Task_I2C7_Handler.c")
    1392                            .dwattr $C$DW$140, DW_AT_TI_begin_line(0x76)
    1393                            .dwattr $C$DW$140, DW_AT_TI_begin_column(0x11)
    1394                            .dwattr $C$DW$140, DW_AT_decl_file("../Tasks/Task_I2C7_Handler.c")
    1395                            .dwattr $C$DW$140, DW_AT_decl_line(0x76)
    1396                            .dwattr $C$DW$140, DW_AT_decl_column(0x11)
    1397                            .dwattr $C$DW$140, DW_AT_TI_max_frame_size(0x10)
    1398                            .dwpsn  file "../Tasks/Task_I2C7_Handler.c",line 118,column 39,is_stmt,address I2C7_Initializa
    1399                    
    1400                            .dwfde $C$DW$CIE, I2C7_Initialization
    1401                    
    1402                    ;*****************************************************************************
    1403                    ;* FUNCTION NAME: I2C7_Initialization                                        *
    1404                    ;*                                                                           *
    1405                    ;*   Regs Modified     : A1,A2,A3,A4,V9,SP,LR,SR,D0,D0_hi,D1,D1_hi,D2,D2_hi, *
    1406                    ;*                           D3,D3_hi,D4,D4_hi,D5,D5_hi,D6,D6_hi,D7,D7_hi,   *
    1407                    ;*                           FPEXC,FPSCR                                     *
    1408                    ;*   Regs Used         : A1,A2,A3,A4,V9,SP,LR,SR,D0,D0_hi,D1,D1_hi,D2,D2_hi, *
    1409                    ;*                           D3,D3_hi,D4,D4_hi,D5,D5_hi,D6,D6_hi,D7,D7_hi,   *
    1410                    ;*                           FPEXC,FPSCR                                     *
    1411                    ;*   Local Frame Size  : 8 Args + 0 Auto + 4 Save = 12 byte                  *
    1412                    ;*****************************************************************************
    1413 00000034           I2C7_Initialization:
    1414                    ;* --------------------------------------------------------------------------*
    1415                            .dwcfi  cfa_offset, 0
    1416 00000034 B50E              PUSH      {A2, A3, A4, LR}      ; [DPU_3_PIPE]  ; [ORIG 16-BIT INS]
    1417                            .dwcfi  cfa_offset, 16
    1418                            .dwcfi  save_reg_to_mem, 14, -4
    1419                            .dwcfi  save_reg_to_mem, 3, -8
    1420                            .dwcfi  save_reg_to_mem, 2, -12
    1421                            .dwcfi  save_reg_to_mem, 1, -16
    1422                            .dwpsn  file "../Tasks/Task_I2C7_Handler.c",line 120,column 2,is_stmt,isa 1
    1423 00000036 4836              LDR       A1, $C$CON5           ; [DPU_3_PIPE] |120|  ; [ORIG 16-BIT INS]
    1424 00000038 7800              LDRB      A1, [A1, #0]          ; [DPU_3_PIPE] |120|  ; [ORIG 16-BIT INS]
    1425 0000003a 2800              CMP       A1, #0                ; [DPU_3_PIPE] |120|  ; [ORIG 16-BIT INS]
    1426 0000003c D13B              BNE       ||$C$L3||             ; [DPU_3_PIPE] |120|  ; [ORIG 16-BIT INS]
    1427                            ; BRANCHCC OCCURS {||$C$L3||}    ; [] |120| 
    1428                    ;* --------------------------------------------------------------------------*
    1429                            .dwpsn  file "../Tasks/Task_I2C7_Handler.c",line 125,column 6,is_stmt,isa 1
    1430 0000003e 4835              LDR       A1, $C$CON6           ; [DPU_3_PIPE] |125|  ; [ORIG 16-BIT INS]
TI ARM Assembler PC v15.12.1 Tue Oct 18 10:42:46 2016

Tools Copyright (c) 1996-2015 Texas Instruments Incorporated
Task_I2C7_Handler.asm                                                PAGE   27

    1431                    $C$DW$141       .dwtag  DW_TAG_TI_branch
    1432                            .dwattr $C$DW$141, DW_AT_low_pc(0x00)
    1433                            .dwattr $C$DW$141, DW_AT_name("SysCtlPeripheralEnable")
    1434                            .dwattr $C$DW$141, DW_AT_TI_call
    1435                    
    1436 00000040 FFFEF7FF!         BL        SysCtlPeripheralEnable ; [DPU_3_PIPE] |125|  ; [KEEP 32-BIT INS]
    1437                            ; CALL OCCURS {SysCtlPeripheralEnable }  ; [] |125| 
    1438                            .dwpsn  file "../Tasks/Task_I2C7_Handler.c",line 126,column 6,is_stmt,isa 1
    1439 00000044 4834              LDR       A1, $C$CON7           ; [DPU_3_PIPE] |126|  ; [ORIG 16-BIT INS]
    1440                    $C$DW$142       .dwtag  DW_TAG_TI_branch
    1441                            .dwattr $C$DW$142, DW_AT_low_pc(0x00)
    1442                            .dwattr $C$DW$142, DW_AT_name("SysCtlPeripheralEnable")
    1443                            .dwattr $C$DW$142, DW_AT_TI_call
    1444                    
    1445 00000046 FFFEF7FF!         BL        SysCtlPeripheralEnable ; [DPU_3_PIPE] |126|  ; [KEEP 32-BIT INS]
    1446                            ; CALL OCCURS {SysCtlPeripheralEnable }  ; [] |126| 
    1447                            .dwpsn  file "../Tasks/Task_I2C7_Handler.c",line 128,column 6,is_stmt,isa 1
    1448 0000004a 4834              LDR       A1, $C$CON8           ; [DPU_3_PIPE] |128|  ; [ORIG 16-BIT INS]
    1449                    $C$DW$143       .dwtag  DW_TAG_TI_branch
    1450                            .dwattr $C$DW$143, DW_AT_low_pc(0x00)
    1451                            .dwattr $C$DW$143, DW_AT_name("GPIOPinConfigure")
    1452                            .dwattr $C$DW$143, DW_AT_TI_call
    1453                    
    1454 0000004c FFFEF7FF!         BL        GPIOPinConfigure      ; [DPU_3_PIPE] |128|  ; [KEEP 32-BIT INS]
    1455                            ; CALL OCCURS {GPIOPinConfigure }  ; [] |128| 
    1456                            .dwpsn  file "../Tasks/Task_I2C7_Handler.c",line 129,column 6,is_stmt,isa 1
    1457 00000050 4833              LDR       A1, $C$CON9           ; [DPU_3_PIPE] |129|  ; [ORIG 16-BIT INS]
    1458                    $C$DW$144       .dwtag  DW_TAG_TI_branch
    1459                            .dwattr $C$DW$144, DW_AT_low_pc(0x00)
    1460                            .dwattr $C$DW$144, DW_AT_name("GPIOPinConfigure")
    1461                            .dwattr $C$DW$144, DW_AT_TI_call
    1462                    
    1463 00000052 FFFEF7FF!         BL        GPIOPinConfigure      ; [DPU_3_PIPE] |129|  ; [KEEP 32-BIT INS]
    1464                            ; CALL OCCURS {GPIOPinConfigure }  ; [] |129| 
    1465                            .dwpsn  file "../Tasks/Task_I2C7_Handler.c",line 130,column 6,is_stmt,isa 1
    1466 00000056 4833              LDR       A1, $C$CON10          ; [DPU_3_PIPE] |130|  ; [ORIG 16-BIT INS]
    1467 00000058 2101              MOVS      A2, #1                ; [DPU_3_PIPE] |130|  ; [ORIG 16-BIT INS]
    1468                    $C$DW$145       .dwtag  DW_TAG_TI_branch
    1469                            .dwattr $C$DW$145, DW_AT_low_pc(0x00)
    1470                            .dwattr $C$DW$145, DW_AT_name("GPIOPinTypeI2CSCL")
    1471                            .dwattr $C$DW$145, DW_AT_TI_call
    1472                    
    1473 0000005a FFFEF7FF!         BL        GPIOPinTypeI2CSCL     ; [DPU_3_PIPE] |130|  ; [KEEP 32-BIT INS]
    1474                            ; CALL OCCURS {GPIOPinTypeI2CSCL }  ; [] |130| 
    1475                            .dwpsn  file "../Tasks/Task_I2C7_Handler.c",line 131,column 6,is_stmt,isa 1
    1476 0000005e 4831              LDR       A1, $C$CON10          ; [DPU_3_PIPE] |131|  ; [ORIG 16-BIT INS]
    1477 00000060 2102              MOVS      A2, #2                ; [DPU_3_PIPE] |131|  ; [ORIG 16-BIT INS]
    1478                    $C$DW$146       .dwtag  DW_TAG_TI_branch
    1479                            .dwattr $C$DW$146, DW_AT_low_pc(0x00)
    1480                            .dwattr $C$DW$146, DW_AT_name("GPIOPinTypeI2C")
    1481                            .dwattr $C$DW$146, DW_AT_TI_call
    1482                    
    1483 00000062 FFFEF7FF!         BL        GPIOPinTypeI2C        ; [DPU_3_PIPE] |131|  ; [KEEP 32-BIT INS]
    1484                            ; CALL OCCURS {GPIOPinTypeI2C }  ; [] |131| 
    1485                            .dwpsn  file "../Tasks/Task_I2C7_Handler.c",line 137,column 6,is_stmt,isa 1
TI ARM Assembler PC v15.12.1 Tue Oct 18 10:42:46 2016

Tools Copyright (c) 1996-2015 Texas Instruments Incorporated
Task_I2C7_Handler.asm                                                PAGE   28

    1486                    $C$DW$147       .dwtag  DW_TAG_TI_branch
    1487                            .dwattr $C$DW$147, DW_AT_low_pc(0x00)
    1488                            .dwattr $C$DW$147, DW_AT_name("UART_Initialization")
    1489                            .dwattr $C$DW$147, DW_AT_TI_call
    1490                    
    1491 00000066 FFFEF7FF!         BL        UART_Initialization   ; [DPU_3_PIPE] |137|  ; [KEEP 32-BIT INS]
    1492                            ; CALL OCCURS {UART_Initialization }  ; [] |137| 
    1493                            .dwpsn  file "../Tasks/Task_I2C7_Handler.c",line 143,column 6,is_stmt,isa 1
    1494 0000006a 21FF              MOVS      A2, #255              ; [DPU_3_PIPE] |143|  ; [ORIG 16-BIT INS]
    1495 0000006c 482E              LDR       A1, $C$CON11          ; [DPU_3_PIPE] |143|  ; [ORIG 16-BIT INS]
    1496 0000006e 9100              STR       A2, [SP, #0]          ; [DPU_3_PIPE] |143|  ; [ORIG 16-BIT INS]
    1497 00000070 6800              LDR       A1, [A1, #0]          ; [DPU_3_PIPE] |143|  ; [ORIG 16-BIT INS]
    1498 00000072 492E              LDR       A2, $C$CON12          ; [DPU_3_PIPE] |143|  ; [ORIG 16-BIT INS]
    1499 00000074 9001              STR       A1, [SP, #4]          ; [DPU_3_PIPE] |143|  ; [ORIG 16-BIT INS]
    1500 00000076 4823              LDR       A1, $C$CON2           ; [DPU_3_PIPE] |143|  ; [ORIG 16-BIT INS]
    1501 00000078 2277              MOVS      A3, #119              ; [DPU_3_PIPE] |143|  ; [ORIG 16-BIT INS]
    1502 0000007a 23FF              MOVS      A4, #255              ; [DPU_3_PIPE] |143|  ; [ORIG 16-BIT INS]
    1503                    $C$DW$148       .dwtag  DW_TAG_TI_branch
    1504                            .dwattr $C$DW$148, DW_AT_low_pc(0x00)
    1505                            .dwattr $C$DW$148, DW_AT_name("I2CMInit")
    1506                            .dwattr $C$DW$148, DW_AT_TI_call
    1507                    
    1508 0000007c FFFEF7FF!         BL        I2CMInit              ; [DPU_3_PIPE] |143|  ; [KEEP 32-BIT INS]
    1509                            ; CALL OCCURS {I2CMInit }        ; [] |143| 
    1510                            .dwpsn  file "../Tasks/Task_I2C7_Handler.c",line 145,column 6,is_stmt,isa 1
    1511 00000080 4922              LDR       A2, $C$CON4           ; [DPU_3_PIPE] |145|  ; [ORIG 16-BIT INS]
    1512 00000082 2000              MOVS      A1, #0                ; [DPU_3_PIPE] |145|  ; [ORIG 16-BIT INS]
    1513 00000084 7008              STRB      A1, [A2, #0]          ; [DPU_3_PIPE] |145|  ; [ORIG 16-BIT INS]
    1514                            .dwpsn  file "../Tasks/Task_I2C7_Handler.c",line 147,column 4,is_stmt,isa 1
    1515 00000086 482B              LDR       A1, $C$CON14          ; [DPU_3_PIPE] |147|  ; [ORIG 16-BIT INS]
    1516 00000088 4A2B              LDR       A3, $C$CON15          ; [DPU_3_PIPE] |147|  ; [ORIG 16-BIT INS]
    1517 0000008a 9000              STR       A1, [SP, #0]          ; [DPU_3_PIPE] |147|  ; [ORIG 16-BIT INS]
    1518 0000008c 2000              MOVS      A1, #0                ; [DPU_3_PIPE] |147|  ; [ORIG 16-BIT INS]
    1519 0000008e 9001              STR       A1, [SP, #4]          ; [DPU_3_PIPE] |147|  ; [ORIG 16-BIT INS]
    1520 00000090 481C              LDR       A1, $C$CON2           ; [DPU_3_PIPE] |147|  ; [ORIG 16-BIT INS]
    1521 00000092 2301              MOVS      A4, #1                ; [DPU_3_PIPE] |147|  ; [ORIG 16-BIT INS]
    1522 00000094 2168              MOVS      A2, #104              ; [DPU_3_PIPE] |147|  ; [ORIG 16-BIT INS]
    1523                    $C$DW$149       .dwtag  DW_TAG_TI_branch
    1524                            .dwattr $C$DW$149, DW_AT_low_pc(0x00)
    1525                            .dwattr $C$DW$149, DW_AT_name("I2CMWrite")
    1526                            .dwattr $C$DW$149, DW_AT_TI_call
    1527                    
    1528 00000096 FFFEF7FF!         BL        I2CMWrite             ; [DPU_3_PIPE] |147|  ; [KEEP 32-BIT INS]
    1529                            ; CALL OCCURS {I2CMWrite }       ; [] |147| 
    1530 0000009a 4925              LDR       A2, $C$CON13          ; [DPU_3_PIPE] |147|  ; [ORIG 16-BIT INS]
    1531 0000009c 6008              STR       A1, [A2, #0]          ; [DPU_3_PIPE] |147|  ; [ORIG 16-BIT INS]
    1532                            .dwpsn  file "../Tasks/Task_I2C7_Handler.c",line 149,column 4,is_stmt,isa 1
    1533                    ;* --------------------------------------------------------------------------*
    1534                    ;*   BEGIN LOOP ||$C$L2||
    1535                    ;*
    1536                    ;*   Loop source line                : 149
    1537                    ;*   Loop closing brace source line  : 149
    1538                    ;*   Known Minimum Trip Count        : 1
    1539                    ;*   Known Maximum Trip Count        : 4294967295
    1540                    ;*   Known Max Trip Count Factor     : 1
TI ARM Assembler PC v15.12.1 Tue Oct 18 10:42:46 2016

Tools Copyright (c) 1996-2015 Texas Instruments Incorporated
Task_I2C7_Handler.asm                                                PAGE   29

    1541                    ;* --------------------------------------------------------------------------*
    1542 0000009e           ||$C$L2||:    
    1543                            .dwpsn  file "../Tasks/Task_I2C7_Handler.c",line 149,column 12,is_stmt,isa 1
    1544 0000009e 481B              LDR       A1, $C$CON4           ; [DPU_3_PIPE] |149|  ; [ORIG 16-BIT INS]
    1545 000000a0 7800              LDRB      A1, [A1, #0]          ; [DPU_3_PIPE] |149|  ; [ORIG 16-BIT INS]
    1546 000000a2 2800              CMP       A1, #0                ; [DPU_3_PIPE] |149|  ; [ORIG 16-BIT INS]
    1547 000000a4 D0FB              BEQ       ||$C$L2||             ; [DPU_3_PIPE] |149|  ; [ORIG 16-BIT INS]
    1548                            ; BRANCHCC OCCURS {||$C$L2||}    ; [] |149| 
    1549                    ;* --------------------------------------------------------------------------*
    1550                            .dwpsn  file "../Tasks/Task_I2C7_Handler.c",line 151,column 6,is_stmt,isa 1
    1551 000000a6 491A              LDR       A2, $C$CON5           ; [DPU_3_PIPE] |151|  ; [ORIG 16-BIT INS]
    1552 000000a8 2001              MOVS      A1, #1                ; [DPU_3_PIPE] |151|  ; [ORIG 16-BIT INS]
    1553 000000aa 7008              STRB      A1, [A2, #0]          ; [DPU_3_PIPE] |151|  ; [ORIG 16-BIT INS]
    1554                            .dwpsn  file "../Tasks/Task_I2C7_Handler.c",line 153,column 3,is_stmt,isa 1
    1555 000000ac 4820              LDR       A1, $C$CON13          ; [DPU_3_PIPE] |153|  ; [ORIG 16-BIT INS]
    1556 000000ae 6801              LDR       A2, [A1, #0]          ; [DPU_3_PIPE] |153|  ; [ORIG 16-BIT INS]
    1557 000000b0 A00B              ADR       A1, $C$SL2            ; [DPU_3_PIPE] |153|  ; [ORIG 16-BIT INS]
    1558                    $C$DW$150       .dwtag  DW_TAG_TI_branch
    1559                            .dwattr $C$DW$150, DW_AT_low_pc(0x00)
    1560                            .dwattr $C$DW$150, DW_AT_name("UARTprintf")
    1561                            .dwattr $C$DW$150, DW_AT_TI_call
    1562                    
    1563 000000b2 FFFEF7FF!         BL        UARTprintf            ; [DPU_3_PIPE] |153|  ; [KEEP 32-BIT INS]
    1564                            ; CALL OCCURS {UARTprintf }      ; [] |153| 
    1565                    ;* --------------------------------------------------------------------------*
    1566 000000b6           ||$C$L3||:    
    1567                            .dwpsn  file "../Tasks/Task_I2C7_Handler.c",line 157,column 2,is_stmt,isa 1
    1568 000000b6 2001              MOVS      A1, #1                ; [DPU_3_PIPE] |157|  ; [ORIG 16-BIT INS]
    1569                            .dwpsn  file "../Tasks/Task_I2C7_Handler.c",line 158,column 1,is_stmt,isa 1
    1570                    $C$DW$151       .dwtag  DW_TAG_TI_branch
    1571                            .dwattr $C$DW$151, DW_AT_low_pc(0x00)
    1572                            .dwattr $C$DW$151, DW_AT_TI_return
    1573                    
    1574 000000b8 BD0E              POP       {A2, A3, A4, PC}      ; [DPU_3_PIPE]  ; [ORIG 16-BIT INS]
    1575                            .dwcfi  cfa_offset, 0
    1576                            ; BRANCH OCCURS                  ; [] 
    1577                            .dwattr $C$DW$140, DW_AT_TI_end_file("../Tasks/Task_I2C7_Handler.c")
    1578                            .dwattr $C$DW$140, DW_AT_TI_end_line(0x9e)
    1579                            .dwattr $C$DW$140, DW_AT_TI_end_column(0x01)
    1580                            .dwendentry
    1581                            .dwendtag $C$DW$140
    1582                    
    1583 000000ba                   .sect   ".text"
    1584                            .clink
    1585                            .thumbfunc Task_I2C7_Handler
    1586 000000ba                   .thumb
    1587                            .global Task_I2C7_Handler
    1588                    
    1589                    $C$DW$152       .dwtag  DW_TAG_subprogram
    1590                            .dwattr $C$DW$152, DW_AT_name("Task_I2C7_Handler")
    1591                            .dwattr $C$DW$152, DW_AT_low_pc(Task_I2C7_Handler)
    1592                            .dwattr $C$DW$152, DW_AT_high_pc(0x00)
    1593                            .dwattr $C$DW$152, DW_AT_TI_symbol_name("Task_I2C7_Handler")
    1594                            .dwattr $C$DW$152, DW_AT_external
    1595                            .dwattr $C$DW$152, DW_AT_TI_begin_file("../Tasks/Task_I2C7_Handler.c")
TI ARM Assembler PC v15.12.1 Tue Oct 18 10:42:46 2016

Tools Copyright (c) 1996-2015 Texas Instruments Incorporated
Task_I2C7_Handler.asm                                                PAGE   30

    1596                            .dwattr $C$DW$152, DW_AT_TI_begin_line(0xa4)
    1597                            .dwattr $C$DW$152, DW_AT_TI_begin_column(0x0d)
    1598                            .dwattr $C$DW$152, DW_AT_decl_file("../Tasks/Task_I2C7_Handler.c")
    1599                            .dwattr $C$DW$152, DW_AT_decl_line(0xa4)
    1600                            .dwattr $C$DW$152, DW_AT_decl_column(0x0d)
    1601                            .dwattr $C$DW$152, DW_AT_TI_max_frame_size(0x08)
    1602                            .dwpsn  file "../Tasks/Task_I2C7_Handler.c",line 164,column 39,is_stmt,address Task_I2C7_Handl
    1603                    
    1604                            .dwfde $C$DW$CIE, Task_I2C7_Handler
    1605                    
    1606                    ;*****************************************************************************
    1607                    ;* FUNCTION NAME: Task_I2C7_Handler                                          *
    1608                    ;*                                                                           *
    1609                    ;*   Regs Modified     : A1,A2,A3,A4,V9,SP,LR,SR,D0,D0_hi,D1,D1_hi,D2,D2_hi, *
    1610                    ;*                           D3,D3_hi,D4,D4_hi,D5,D5_hi,D6,D6_hi,D7,D7_hi,   *
    1611                    ;*                           FPEXC,FPSCR                                     *
    1612                    ;*   Regs Used         : A1,A2,A3,A4,V9,SP,LR,SR,D0,D0_hi,D1,D1_hi,D2,D2_hi, *
    1613                    ;*                           D3,D3_hi,D4,D4_hi,D5,D5_hi,D6,D6_hi,D7,D7_hi,   *
    1614                    ;*                           FPEXC,FPSCR                                     *
    1615                    ;*   Local Frame Size  : 0 Args + 0 Auto + 4 Save = 4 byte                   *
    1616                    ;*****************************************************************************
    1617 000000ba           Task_I2C7_Handler:
    1618                    ;* --------------------------------------------------------------------------*
    1619                            .dwcfi  cfa_offset, 0
    1620 000000ba B508              PUSH      {A4, LR}              ; [DPU_3_PIPE]  ; [ORIG 16-BIT INS]
    1621                            .dwcfi  cfa_offset, 8
    1622                            .dwcfi  save_reg_to_mem, 14, -4
    1623                            .dwcfi  save_reg_to_mem, 3, -8
    1624                            .dwpsn  file "../Tasks/Task_I2C7_Handler.c",line 166,column 2,is_stmt,isa 1
    1625                    $C$DW$153       .dwtag  DW_TAG_TI_branch
    1626                            .dwattr $C$DW$153, DW_AT_low_pc(0x00)
    1627                            .dwattr $C$DW$153, DW_AT_name("I2C7_Initialization")
    1628                            .dwattr $C$DW$153, DW_AT_TI_call
    1629                    
    1630 000000bc FFBAF7FF          BL        I2C7_Initialization   ; [DPU_3_PIPE] |166|  ; [KEEP 32-BIT INS]
    1631                            ; CALL OCCURS {I2C7_Initialization }  ; [] |166| 
    1632                            .dwpsn  file "../Tasks/Task_I2C7_Handler.c",line 168,column 13,is_stmt,isa 1
    1633                    ;* --------------------------------------------------------------------------*
    1634                    ;*   BEGIN LOOP ||$C$L4||
    1635                    ;*
    1636                    ;*   Loop source line                : 168
    1637                    ;*   Loop closing brace source line  : 170
    1638                    ;*   Known Minimum Trip Count        : 1
    1639                    ;*   Known Maximum Trip Count        : 4294967295
    1640                    ;*   Known Max Trip Count Factor     : 1
    1641                    ;* --------------------------------------------------------------------------*
    1642 000000c0           ||$C$L4||:    
    1643                            .dwpsn  file "../Tasks/Task_I2C7_Handler.c",line 169,column 6,is_stmt,isa 1
    1644 000000c0 2064              MOVS      A1, #100              ; [DPU_3_PIPE] |169|  ; [ORIG 16-BIT INS]
    1645                    $C$DW$154       .dwtag  DW_TAG_TI_branch
    1646                            .dwattr $C$DW$154, DW_AT_low_pc(0x00)
    1647                            .dwattr $C$DW$154, DW_AT_name("vTaskDelay")
    1648                            .dwattr $C$DW$154, DW_AT_TI_call
    1649                    
    1650 000000c2 FFFEF7FF!         BL        vTaskDelay            ; [DPU_3_PIPE] |169|  ; [KEEP 32-BIT INS]
TI ARM Assembler PC v15.12.1 Tue Oct 18 10:42:46 2016

Tools Copyright (c) 1996-2015 Texas Instruments Incorporated
Task_I2C7_Handler.asm                                                PAGE   31

    1651                            ; CALL OCCURS {vTaskDelay }      ; [] |169| 
    1652                            .dwpsn  file "../Tasks/Task_I2C7_Handler.c",line 168,column 13,is_stmt,isa 1
    1653 000000c6 E7FB              B         ||$C$L4||             ; [DPU_3_PIPE] |168|  ; [ORIG 16-BIT INS]
    1654                            ; BRANCH OCCURS {||$C$L4||}      ; [] |168| 
    1655                    ;* --------------------------------------------------------------------------*
    1656                            .dwattr $C$DW$152, DW_AT_TI_end_file("../Tasks/Task_I2C7_Handler.c")
    1657                            .dwattr $C$DW$152, DW_AT_TI_end_line(0xac)
    1658                            .dwattr $C$DW$152, DW_AT_TI_end_column(0x01)
    1659                            .dwendentry
    1660                            .dwendtag $C$DW$152
    1661                    
    1662                    ;******************************************************************************
    1663                    ;* STRINGS                                                                    *
    1664                    ;******************************************************************************
    1665 000000c8                   .sect   ".text"
    1666                            .align  4
    1667 000000c8 3E        ||$C$SL1||:     .string ">>>>I2C7 Error: %02X",10,0
         000000c9 3E       
         000000ca 3E       
         000000cb 3E       
         000000cc 49       
         000000cd 32       
         000000ce 43       
         000000cf 37       
         000000d0 20       
         000000d1 45       
         000000d2 72       
         000000d3 72       
         000000d4 6F       
         000000d5 72       
         000000d6 3A       
         000000d7 20       
         000000d8 25       
         000000d9 30       
         000000da 32       
         000000db 58       
         000000dc 0A       
         000000dd 00       
    1668                            .align  4
    1669 000000e0 3E        ||$C$SL2||:     .string ">>>>I2C7_Handler; Status: %02X",10,0
         000000e1 3E       
         000000e2 3E       
         000000e3 3E       
         000000e4 49       
         000000e5 32       
         000000e6 43       
         000000e7 37       
         000000e8 5F       
         000000e9 48       
         000000ea 61       
         000000eb 6E       
         000000ec 64       
         000000ed 6C       
         000000ee 65       
         000000ef 72       
TI ARM Assembler PC v15.12.1 Tue Oct 18 10:42:46 2016

Tools Copyright (c) 1996-2015 Texas Instruments Incorporated
Task_I2C7_Handler.asm                                                PAGE   32

         000000f0 3B       
         000000f1 20       
         000000f2 53       
         000000f3 74       
         000000f4 61       
         000000f5 74       
         000000f6 75       
         000000f7 73       
         000000f8 3A       
         000000f9 20       
         000000fa 25       
         000000fb 30       
         000000fc 32       
         000000fd 58       
         000000fe 0A       
         000000ff 00       
    1670                    ;******************************************************************************
    1671                    ;* CONSTANT TABLE                                                             *
    1672                    ;******************************************************************************
    1673 00000100                   .sect   ".text"
    1674                            .align  4
    1675 00000100 00000000! ||$C$CON1||:    .bits   I2C7_Interrupts_Nbr,32
    1676                            .align  4
    1677 00000104 00000000! ||$C$CON2||:    .bits   I2C7_Instance,32
    1678                            .align  4
    1679 00000108 00000000! ||$C$CON3||:    .bits   I2C7_Callbacks_Nbr,32
    1680                            .align  4
    1681 0000010c 00000000! ||$C$CON4||:    .bits   I2C7_SimpleDone,32
    1682                            .align  4
    1683 00000110 00000000! ||$C$CON5||:    .bits   I2C7_Initialized,32
    1684                            .align  4
    1685 00000114 F0000803  ||$C$CON6||:    .bits   -268433405,32
    1686                            .align  4
    1687 00000118 F0002007  ||$C$CON7||:    .bits   -268427257,32
    1688                            .align  4
    1689 0000011c 00030002  ||$C$CON8||:    .bits   196610,32
    1690                            .align  4
    1691 00000120 00030402  ||$C$CON9||:    .bits   197634,32
    1692                            .align  4
    1693 00000124 40007000  ||$C$CON10||:   .bits   1073770496,32
    1694                            .align  4
    1695 00000128 00000000! ||$C$CON11||:   .bits   g_ulSystemClock,32
    1696                            .align  4
    1697 0000012c 400C3000  ||$C$CON12||:   .bits   1074540544,32
    1698                            .align  4
    1699 00000130 00000000! ||$C$CON13||:   .bits   I2C7_Status,32
    1700                            .align  4
    1701 00000134 00000000! ||$C$CON14||:   .bits   I2CMSimpleCallback,32
    1702                            .align  4
    1703 00000138 00000000! ||$C$CON15||:   .bits   I2C7WriteData,32
    1704                    ;*****************************************************************************
    1705                    ;* UNDEFINED EXTERNAL REFERENCES                                             *
    1706                    ;*****************************************************************************
    1707                            .global SysCtlPeripheralEnable
    1708                            .global GPIOPinConfigure
TI ARM Assembler PC v15.12.1 Tue Oct 18 10:42:46 2016

Tools Copyright (c) 1996-2015 Texas Instruments Incorporated
Task_I2C7_Handler.asm                                                PAGE   33

    1709                            .global GPIOPinTypeI2C
    1710                            .global GPIOPinTypeI2CSCL
    1711                            .global I2CMIntHandler
    1712                            .global I2CMInit
    1713                            .global I2CMCommand
    1714                            .global I2CMReadModifyWrite16LE
    1715                            .global UART_Initialization
    1716                            .global UARTprintf
    1717                            .global vTaskDelay
    1718                            .global g_ulSystemClock
    1719                    ;*****************************************************************************
    1720                    ;* SECTION GROUPS                                                            *
    1721                    ;*****************************************************************************
    1722                            .group    "I2CMRead", 1
    1723                            .gmember  ".text:I2CMRead"
    1724                            .endgroup
    1725                            .group    "I2CMReadBatched", 1
    1726                            .gmember  ".text:I2CMReadBatched"
    1727                            .endgroup
    1728                            .group    "I2CMReadModifyWrite16BE", 1
    1729                            .gmember  ".text:I2CMReadModifyWrite16BE"
    1730                            .endgroup
    1731                            .group    "I2CMWrite", 1
    1732                            .gmember  ".text:I2CMWrite"
    1733                            .endgroup
    1734                            .group    "I2CMWriteBatched", 1
    1735                            .gmember  ".text:I2CMWriteBatched"
    1736                            .endgroup
    1737                    
    1738                    
    1739                    ;******************************************************************************
    1740                    ;* BUILD ATTRIBUTES                                                           *
    1741                    ;******************************************************************************
    1742                            .battr "aeabi", Tag_File, 1, Tag_ABI_PCS_wchar_t(2)
    1743                            .battr "aeabi", Tag_File, 1, Tag_ABI_FP_rounding(0)
    1744                            .battr "aeabi", Tag_File, 1, Tag_ABI_FP_denormal(0)
    1745                            .battr "aeabi", Tag_File, 1, Tag_ABI_FP_exceptions(0)
    1746                            .battr "aeabi", Tag_File, 1, Tag_ABI_FP_number_model(1)
    1747                            .battr "aeabi", Tag_File, 1, Tag_ABI_enum_size(1)
    1748                            .battr "aeabi", Tag_File, 1, Tag_ABI_optimization_goals(5)
    1749                            .battr "aeabi", Tag_File, 1, Tag_ABI_FP_optimization_goals(0)
    1750                            .battr "TI", Tag_File, 1, Tag_Bitfield_layout(2)
    1751                            .battr "TI", Tag_File, 1, Tag_FP_interface(1)
    1752                    
    1753                    ;******************************************************************************
    1754                    ;* TYPE INFORMATION                                                           *
    1755                    ;******************************************************************************
    1756                    
    1757                    $C$DW$T$70      .dwtag  DW_TAG_enumeration_type
    1758                            .dwattr $C$DW$T$70, DW_AT_byte_size(0x01)
    1759                    $C$DW$155       .dwtag  DW_TAG_enumerator
    1760                            .dwattr $C$DW$155, DW_AT_name("eRunning")
    1761                            .dwattr $C$DW$155, DW_AT_const_value(0x00)
    1762                            .dwattr $C$DW$155, DW_AT_decl_file("C:/TI_ARM_Tiva_Projects/Source/include/task.h")
    1763                            .dwattr $C$DW$155, DW_AT_decl_line(0x72)
TI ARM Assembler PC v15.12.1 Tue Oct 18 10:42:46 2016

Tools Copyright (c) 1996-2015 Texas Instruments Incorporated
Task_I2C7_Handler.asm                                                PAGE   34

    1764                            .dwattr $C$DW$155, DW_AT_decl_column(0x02)
    1765                    
    1766                    $C$DW$156       .dwtag  DW_TAG_enumerator
    1767                            .dwattr $C$DW$156, DW_AT_name("eReady")
    1768                            .dwattr $C$DW$156, DW_AT_const_value(0x01)
    1769                            .dwattr $C$DW$156, DW_AT_decl_file("C:/TI_ARM_Tiva_Projects/Source/include/task.h")
    1770                            .dwattr $C$DW$156, DW_AT_decl_line(0x73)
    1771                            .dwattr $C$DW$156, DW_AT_decl_column(0x02)
    1772                    
    1773                    $C$DW$157       .dwtag  DW_TAG_enumerator
    1774                            .dwattr $C$DW$157, DW_AT_name("eBlocked")
    1775                            .dwattr $C$DW$157, DW_AT_const_value(0x02)
    1776                            .dwattr $C$DW$157, DW_AT_decl_file("C:/TI_ARM_Tiva_Projects/Source/include/task.h")
    1777                            .dwattr $C$DW$157, DW_AT_decl_line(0x74)
    1778                            .dwattr $C$DW$157, DW_AT_decl_column(0x02)
    1779                    
    1780                    $C$DW$158       .dwtag  DW_TAG_enumerator
    1781                            .dwattr $C$DW$158, DW_AT_name("eSuspended")
    1782                            .dwattr $C$DW$158, DW_AT_const_value(0x03)
    1783                            .dwattr $C$DW$158, DW_AT_decl_file("C:/TI_ARM_Tiva_Projects/Source/include/task.h")
    1784                            .dwattr $C$DW$158, DW_AT_decl_line(0x75)
    1785                            .dwattr $C$DW$158, DW_AT_decl_column(0x02)
    1786                    
    1787                    $C$DW$159       .dwtag  DW_TAG_enumerator
    1788                            .dwattr $C$DW$159, DW_AT_name("eDeleted")
    1789                            .dwattr $C$DW$159, DW_AT_const_value(0x04)
    1790                            .dwattr $C$DW$159, DW_AT_decl_file("C:/TI_ARM_Tiva_Projects/Source/include/task.h")
    1791                            .dwattr $C$DW$159, DW_AT_decl_line(0x76)
    1792                            .dwattr $C$DW$159, DW_AT_decl_column(0x02)
    1793                    
    1794                            .dwattr $C$DW$T$70, DW_AT_decl_file("C:/TI_ARM_Tiva_Projects/Source/include/task.h")
    1795                            .dwattr $C$DW$T$70, DW_AT_decl_line(0x71)
    1796                            .dwattr $C$DW$T$70, DW_AT_decl_column(0x01)
    1797                            .dwendtag $C$DW$T$70
    1798                    
    1799                    $C$DW$T$71      .dwtag  DW_TAG_typedef
    1800                            .dwattr $C$DW$T$71, DW_AT_name("eTaskState")
    1801                            .dwattr $C$DW$T$71, DW_AT_type(*$C$DW$T$70)
    1802                            .dwattr $C$DW$T$71, DW_AT_language(DW_LANG_C)
    1803                            .dwattr $C$DW$T$71, DW_AT_decl_file("C:/TI_ARM_Tiva_Projects/Source/include/task.h")
    1804                            .dwattr $C$DW$T$71, DW_AT_decl_line(0x77)
    1805                            .dwattr $C$DW$T$71, DW_AT_decl_column(0x03)
    1806                    
    1807                    
    1808                    $C$DW$T$76      .dwtag  DW_TAG_enumeration_type
    1809                            .dwattr $C$DW$T$76, DW_AT_byte_size(0x01)
    1810                    $C$DW$160       .dwtag  DW_TAG_enumerator
    1811                            .dwattr $C$DW$160, DW_AT_name("eNoAction")
    1812                            .dwattr $C$DW$160, DW_AT_const_value(0x00)
    1813                            .dwattr $C$DW$160, DW_AT_decl_file("C:/TI_ARM_Tiva_Projects/Source/include/task.h")
    1814                            .dwattr $C$DW$160, DW_AT_decl_line(0x7c)
    1815                            .dwattr $C$DW$160, DW_AT_decl_column(0x02)
    1816                    
    1817                    $C$DW$161       .dwtag  DW_TAG_enumerator
    1818                            .dwattr $C$DW$161, DW_AT_name("eSetBits")
TI ARM Assembler PC v15.12.1 Tue Oct 18 10:42:46 2016

Tools Copyright (c) 1996-2015 Texas Instruments Incorporated
Task_I2C7_Handler.asm                                                PAGE   35

    1819                            .dwattr $C$DW$161, DW_AT_const_value(0x01)
    1820                            .dwattr $C$DW$161, DW_AT_decl_file("C:/TI_ARM_Tiva_Projects/Source/include/task.h")
    1821                            .dwattr $C$DW$161, DW_AT_decl_line(0x7d)
    1822                            .dwattr $C$DW$161, DW_AT_decl_column(0x02)
    1823                    
    1824                    $C$DW$162       .dwtag  DW_TAG_enumerator
    1825                            .dwattr $C$DW$162, DW_AT_name("eIncrement")
    1826                            .dwattr $C$DW$162, DW_AT_const_value(0x02)
    1827                            .dwattr $C$DW$162, DW_AT_decl_file("C:/TI_ARM_Tiva_Projects/Source/include/task.h")
    1828                            .dwattr $C$DW$162, DW_AT_decl_line(0x7e)
    1829                            .dwattr $C$DW$162, DW_AT_decl_column(0x02)
    1830                    
    1831                    $C$DW$163       .dwtag  DW_TAG_enumerator
    1832                            .dwattr $C$DW$163, DW_AT_name("eSetValueWithOverwrite")
    1833                            .dwattr $C$DW$163, DW_AT_const_value(0x03)
    1834                            .dwattr $C$DW$163, DW_AT_decl_file("C:/TI_ARM_Tiva_Projects/Source/include/task.h")
    1835                            .dwattr $C$DW$163, DW_AT_decl_line(0x7f)
    1836                            .dwattr $C$DW$163, DW_AT_decl_column(0x02)
    1837                    
    1838                    $C$DW$164       .dwtag  DW_TAG_enumerator
    1839                            .dwattr $C$DW$164, DW_AT_name("eSetValueWithoutOverwrite")
    1840                            .dwattr $C$DW$164, DW_AT_const_value(0x04)
    1841                            .dwattr $C$DW$164, DW_AT_decl_file("C:/TI_ARM_Tiva_Projects/Source/include/task.h")
    1842                            .dwattr $C$DW$164, DW_AT_decl_line(0x80)
    1843                            .dwattr $C$DW$164, DW_AT_decl_column(0x02)
    1844                    
    1845                            .dwattr $C$DW$T$76, DW_AT_decl_file("C:/TI_ARM_Tiva_Projects/Source/include/task.h")
    1846                            .dwattr $C$DW$T$76, DW_AT_decl_line(0x7b)
    1847                            .dwattr $C$DW$T$76, DW_AT_decl_column(0x01)
    1848                            .dwendtag $C$DW$T$76
    1849                    
    1850                    $C$DW$T$77      .dwtag  DW_TAG_typedef
    1851                            .dwattr $C$DW$T$77, DW_AT_name("eNotifyAction")
    1852                            .dwattr $C$DW$T$77, DW_AT_type(*$C$DW$T$76)
    1853                            .dwattr $C$DW$T$77, DW_AT_language(DW_LANG_C)
    1854                            .dwattr $C$DW$T$77, DW_AT_decl_file("C:/TI_ARM_Tiva_Projects/Source/include/task.h")
    1855                            .dwattr $C$DW$T$77, DW_AT_decl_line(0x81)
    1856                            .dwattr $C$DW$T$77, DW_AT_decl_column(0x03)
    1857                    
    1858                    
    1859                    $C$DW$T$78      .dwtag  DW_TAG_enumeration_type
    1860                            .dwattr $C$DW$T$78, DW_AT_byte_size(0x01)
    1861                    $C$DW$165       .dwtag  DW_TAG_enumerator
    1862                            .dwattr $C$DW$165, DW_AT_name("eAbortSleep")
    1863                            .dwattr $C$DW$165, DW_AT_const_value(0x00)
    1864                            .dwattr $C$DW$165, DW_AT_decl_file("C:/TI_ARM_Tiva_Projects/Source/include/task.h")
    1865                            .dwattr $C$DW$165, DW_AT_decl_line(0xb5)
    1866                            .dwattr $C$DW$165, DW_AT_decl_column(0x02)
    1867                    
    1868                    $C$DW$166       .dwtag  DW_TAG_enumerator
    1869                            .dwattr $C$DW$166, DW_AT_name("eStandardSleep")
    1870                            .dwattr $C$DW$166, DW_AT_const_value(0x01)
    1871                            .dwattr $C$DW$166, DW_AT_decl_file("C:/TI_ARM_Tiva_Projects/Source/include/task.h")
    1872                            .dwattr $C$DW$166, DW_AT_decl_line(0xb6)
    1873                            .dwattr $C$DW$166, DW_AT_decl_column(0x02)
TI ARM Assembler PC v15.12.1 Tue Oct 18 10:42:46 2016

Tools Copyright (c) 1996-2015 Texas Instruments Incorporated
Task_I2C7_Handler.asm                                                PAGE   36

    1874                    
    1875                    $C$DW$167       .dwtag  DW_TAG_enumerator
    1876                            .dwattr $C$DW$167, DW_AT_name("eNoTasksWaitingTimeout")
    1877                            .dwattr $C$DW$167, DW_AT_const_value(0x02)
    1878                            .dwattr $C$DW$167, DW_AT_decl_file("C:/TI_ARM_Tiva_Projects/Source/include/task.h")
    1879                            .dwattr $C$DW$167, DW_AT_decl_line(0xb7)
    1880                            .dwattr $C$DW$167, DW_AT_decl_column(0x02)
    1881                    
    1882                            .dwattr $C$DW$T$78, DW_AT_decl_file("C:/TI_ARM_Tiva_Projects/Source/include/task.h")
    1883                            .dwattr $C$DW$T$78, DW_AT_decl_line(0xb4)
    1884                            .dwattr $C$DW$T$78, DW_AT_decl_column(0x01)
    1885                            .dwendtag $C$DW$T$78
    1886                    
    1887                    $C$DW$T$79      .dwtag  DW_TAG_typedef
    1888                            .dwattr $C$DW$T$79, DW_AT_name("eSleepModeStatus")
    1889                            .dwattr $C$DW$T$79, DW_AT_type(*$C$DW$T$78)
    1890                            .dwattr $C$DW$T$79, DW_AT_language(DW_LANG_C)
    1891                            .dwattr $C$DW$T$79, DW_AT_decl_file("C:/TI_ARM_Tiva_Projects/Source/include/task.h")
    1892                            .dwattr $C$DW$T$79, DW_AT_decl_line(0xb8)
    1893                            .dwattr $C$DW$T$79, DW_AT_decl_column(0x03)
    1894                    
    1895                    
    1896                    $C$DW$T$29      .dwtag  DW_TAG_structure_type
    1897                            .dwattr $C$DW$T$29, DW_AT_byte_size(0x1c)
    1898                    $C$DW$168       .dwtag  DW_TAG_member
    1899                            .dwattr $C$DW$168, DW_AT_type(*$C$DW$T$19)
    1900                            .dwattr $C$DW$168, DW_AT_name("ui8Addr")
    1901                            .dwattr $C$DW$168, DW_AT_TI_symbol_name("ui8Addr")
    1902                            .dwattr $C$DW$168, DW_AT_data_member_location[DW_OP_plus_uconst 0x0]
    1903                            .dwattr $C$DW$168, DW_AT_accessibility(DW_ACCESS_public)
    1904                            .dwattr $C$DW$168, DW_AT_decl_file("C:/TI_CodeComposer/TivaWare/sensorlib/i2cm_drv.h")
    1905                            .dwattr $C$DW$168, DW_AT_decl_line(0x4c)
    1906                            .dwattr $C$DW$168, DW_AT_decl_column(0x0d)
    1907                    
    1908                    $C$DW$169       .dwtag  DW_TAG_member
    1909                            .dwattr $C$DW$169, DW_AT_type(*$C$DW$T$21)
    1910                            .dwattr $C$DW$169, DW_AT_name("pui8WriteData")
    1911                            .dwattr $C$DW$169, DW_AT_TI_symbol_name("pui8WriteData")
    1912                            .dwattr $C$DW$169, DW_AT_data_member_location[DW_OP_plus_uconst 0x4]
    1913                            .dwattr $C$DW$169, DW_AT_accessibility(DW_ACCESS_public)
    1914                            .dwattr $C$DW$169, DW_AT_decl_file("C:/TI_CodeComposer/TivaWare/sensorlib/i2cm_drv.h")
    1915                            .dwattr $C$DW$169, DW_AT_decl_line(0x51)
    1916                            .dwattr $C$DW$169, DW_AT_decl_column(0x14)
    1917                    
    1918                    $C$DW$170       .dwtag  DW_TAG_member
    1919                            .dwattr $C$DW$170, DW_AT_type(*$C$DW$T$22)
    1920                            .dwattr $C$DW$170, DW_AT_name("ui16WriteCount")
    1921                            .dwattr $C$DW$170, DW_AT_TI_symbol_name("ui16WriteCount")
    1922                            .dwattr $C$DW$170, DW_AT_data_member_location[DW_OP_plus_uconst 0x8]
    1923                            .dwattr $C$DW$170, DW_AT_accessibility(DW_ACCESS_public)
    1924                            .dwattr $C$DW$170, DW_AT_decl_file("C:/TI_CodeComposer/TivaWare/sensorlib/i2cm_drv.h")
    1925                            .dwattr $C$DW$170, DW_AT_decl_line(0x56)
    1926                            .dwattr $C$DW$170, DW_AT_decl_column(0x0e)
    1927                    
    1928                    $C$DW$171       .dwtag  DW_TAG_member
TI ARM Assembler PC v15.12.1 Tue Oct 18 10:42:46 2016

Tools Copyright (c) 1996-2015 Texas Instruments Incorporated
Task_I2C7_Handler.asm                                                PAGE   37

    1929                            .dwattr $C$DW$171, DW_AT_type(*$C$DW$T$22)
    1930                            .dwattr $C$DW$171, DW_AT_name("ui16WriteBatchSize")
    1931                            .dwattr $C$DW$171, DW_AT_TI_symbol_name("ui16WriteBatchSize")
    1932                            .dwattr $C$DW$171, DW_AT_data_member_location[DW_OP_plus_uconst 0xa]
    1933                            .dwattr $C$DW$171, DW_AT_accessibility(DW_ACCESS_public)
    1934                            .dwattr $C$DW$171, DW_AT_decl_file("C:/TI_CodeComposer/TivaWare/sensorlib/i2cm_drv.h")
    1935                            .dwattr $C$DW$171, DW_AT_decl_line(0x5b)
    1936                            .dwattr $C$DW$171, DW_AT_decl_column(0x0e)
    1937                    
    1938                    $C$DW$172       .dwtag  DW_TAG_member
    1939                            .dwattr $C$DW$172, DW_AT_type(*$C$DW$T$23)
    1940                            .dwattr $C$DW$172, DW_AT_name("pui8ReadData")
    1941                            .dwattr $C$DW$172, DW_AT_TI_symbol_name("pui8ReadData")
    1942                            .dwattr $C$DW$172, DW_AT_data_member_location[DW_OP_plus_uconst 0xc]
    1943                            .dwattr $C$DW$172, DW_AT_accessibility(DW_ACCESS_public)
    1944                            .dwattr $C$DW$172, DW_AT_decl_file("C:/TI_CodeComposer/TivaWare/sensorlib/i2cm_drv.h")
    1945                            .dwattr $C$DW$172, DW_AT_decl_line(0x60)
    1946                            .dwattr $C$DW$172, DW_AT_decl_column(0x0e)
    1947                    
    1948                    $C$DW$173       .dwtag  DW_TAG_member
    1949                            .dwattr $C$DW$173, DW_AT_type(*$C$DW$T$22)
    1950                            .dwattr $C$DW$173, DW_AT_name("ui16ReadCount")
    1951                            .dwattr $C$DW$173, DW_AT_TI_symbol_name("ui16ReadCount")
    1952                            .dwattr $C$DW$173, DW_AT_data_member_location[DW_OP_plus_uconst 0x10]
    1953                            .dwattr $C$DW$173, DW_AT_accessibility(DW_ACCESS_public)
    1954                            .dwattr $C$DW$173, DW_AT_decl_file("C:/TI_CodeComposer/TivaWare/sensorlib/i2cm_drv.h")
    1955                            .dwattr $C$DW$173, DW_AT_decl_line(0x65)
    1956                            .dwattr $C$DW$173, DW_AT_decl_column(0x0e)
    1957                    
    1958                    $C$DW$174       .dwtag  DW_TAG_member
    1959                            .dwattr $C$DW$174, DW_AT_type(*$C$DW$T$22)
    1960                            .dwattr $C$DW$174, DW_AT_name("ui16ReadBatchSize")
    1961                            .dwattr $C$DW$174, DW_AT_TI_symbol_name("ui16ReadBatchSize")
    1962                            .dwattr $C$DW$174, DW_AT_data_member_location[DW_OP_plus_uconst 0x12]
    1963                            .dwattr $C$DW$174, DW_AT_accessibility(DW_ACCESS_public)
    1964                            .dwattr $C$DW$174, DW_AT_decl_file("C:/TI_CodeComposer/TivaWare/sensorlib/i2cm_drv.h")
    1965                            .dwattr $C$DW$174, DW_AT_decl_line(0x6a)
    1966                            .dwattr $C$DW$174, DW_AT_decl_column(0x0e)
    1967                    
    1968                    $C$DW$175       .dwtag  DW_TAG_member
    1969                            .dwattr $C$DW$175, DW_AT_type(*$C$DW$T$28)
    1970                            .dwattr $C$DW$175, DW_AT_name("pfnCallback")
    1971                            .dwattr $C$DW$175, DW_AT_TI_symbol_name("pfnCallback")
    1972                            .dwattr $C$DW$175, DW_AT_data_member_location[DW_OP_plus_uconst 0x14]
    1973                            .dwattr $C$DW$175, DW_AT_accessibility(DW_ACCESS_public)
    1974                            .dwattr $C$DW$175, DW_AT_decl_file("C:/TI_CodeComposer/TivaWare/sensorlib/i2cm_drv.h")
    1975                            .dwattr $C$DW$175, DW_AT_decl_line(0x6f)
    1976                            .dwattr $C$DW$175, DW_AT_decl_column(0x16)
    1977                    
    1978                    $C$DW$176       .dwtag  DW_TAG_member
    1979                            .dwattr $C$DW$176, DW_AT_type(*$C$DW$T$3)
    1980                            .dwattr $C$DW$176, DW_AT_name("pvCallbackData")
    1981                            .dwattr $C$DW$176, DW_AT_TI_symbol_name("pvCallbackData")
    1982                            .dwattr $C$DW$176, DW_AT_data_member_location[DW_OP_plus_uconst 0x18]
    1983                            .dwattr $C$DW$176, DW_AT_accessibility(DW_ACCESS_public)
TI ARM Assembler PC v15.12.1 Tue Oct 18 10:42:46 2016

Tools Copyright (c) 1996-2015 Texas Instruments Incorporated
Task_I2C7_Handler.asm                                                PAGE   38

    1984                            .dwattr $C$DW$176, DW_AT_decl_file("C:/TI_CodeComposer/TivaWare/sensorlib/i2cm_drv.h")
    1985                            .dwattr $C$DW$176, DW_AT_decl_line(0x74)
    1986                            .dwattr $C$DW$176, DW_AT_decl_column(0x0b)
    1987                    
    1988                            .dwattr $C$DW$T$29, DW_AT_decl_file("C:/TI_CodeComposer/TivaWare/sensorlib/i2cm_drv.h")
    1989                            .dwattr $C$DW$T$29, DW_AT_decl_line(0x48)
    1990                            .dwattr $C$DW$T$29, DW_AT_decl_column(0x01)
    1991                            .dwendtag $C$DW$T$29
    1992                    
    1993                    $C$DW$T$30      .dwtag  DW_TAG_typedef
    1994                            .dwattr $C$DW$T$30, DW_AT_name("tI2CMCommand")
    1995                            .dwattr $C$DW$T$30, DW_AT_type(*$C$DW$T$29)
    1996                            .dwattr $C$DW$T$30, DW_AT_language(DW_LANG_C)
    1997                            .dwattr $C$DW$T$30, DW_AT_decl_file("C:/TI_CodeComposer/TivaWare/sensorlib/i2cm_drv.h")
    1998                            .dwattr $C$DW$T$30, DW_AT_decl_line(0x76)
    1999                            .dwattr $C$DW$T$30, DW_AT_decl_column(0x01)
    2000                    
    2001                    
    2002                    $C$DW$T$31      .dwtag  DW_TAG_array_type
    2003                            .dwattr $C$DW$T$31, DW_AT_type(*$C$DW$T$30)
    2004                            .dwattr $C$DW$T$31, DW_AT_language(DW_LANG_C)
    2005                            .dwattr $C$DW$T$31, DW_AT_byte_size(0x118)
    2006                    $C$DW$177       .dwtag  DW_TAG_subrange_type
    2007                            .dwattr $C$DW$177, DW_AT_upper_bound(0x09)
    2008                    
    2009                            .dwendtag $C$DW$T$31
    2010                    
    2011                    
    2012                    $C$DW$T$32      .dwtag  DW_TAG_structure_type
    2013                            .dwattr $C$DW$T$32, DW_AT_byte_size(0x124)
    2014                    $C$DW$178       .dwtag  DW_TAG_member
    2015                            .dwattr $C$DW$178, DW_AT_type(*$C$DW$T$24)
    2016                            .dwattr $C$DW$178, DW_AT_name("ui32Base")
    2017                            .dwattr $C$DW$178, DW_AT_TI_symbol_name("ui32Base")
    2018                            .dwattr $C$DW$178, DW_AT_data_member_location[DW_OP_plus_uconst 0x0]
    2019                            .dwattr $C$DW$178, DW_AT_accessibility(DW_ACCESS_public)
    2020                            .dwattr $C$DW$178, DW_AT_decl_file("C:/TI_CodeComposer/TivaWare/sensorlib/i2cm_drv.h")
    2021                            .dwattr $C$DW$178, DW_AT_decl_line(0x82)
    2022                            .dwattr $C$DW$178, DW_AT_decl_column(0x0e)
    2023                    
    2024                    $C$DW$179       .dwtag  DW_TAG_member
    2025                            .dwattr $C$DW$179, DW_AT_type(*$C$DW$T$19)
    2026                            .dwattr $C$DW$179, DW_AT_name("ui8Int")
    2027                            .dwattr $C$DW$179, DW_AT_TI_symbol_name("ui8Int")
    2028                            .dwattr $C$DW$179, DW_AT_data_member_location[DW_OP_plus_uconst 0x4]
    2029                            .dwattr $C$DW$179, DW_AT_accessibility(DW_ACCESS_public)
    2030                            .dwattr $C$DW$179, DW_AT_decl_file("C:/TI_CodeComposer/TivaWare/sensorlib/i2cm_drv.h")
    2031                            .dwattr $C$DW$179, DW_AT_decl_line(0x87)
    2032                            .dwattr $C$DW$179, DW_AT_decl_column(0x0d)
    2033                    
    2034                    $C$DW$180       .dwtag  DW_TAG_member
    2035                            .dwattr $C$DW$180, DW_AT_type(*$C$DW$T$19)
    2036                            .dwattr $C$DW$180, DW_AT_name("ui8TxDMA")
    2037                            .dwattr $C$DW$180, DW_AT_TI_symbol_name("ui8TxDMA")
    2038                            .dwattr $C$DW$180, DW_AT_data_member_location[DW_OP_plus_uconst 0x5]
TI ARM Assembler PC v15.12.1 Tue Oct 18 10:42:46 2016

Tools Copyright (c) 1996-2015 Texas Instruments Incorporated
Task_I2C7_Handler.asm                                                PAGE   39

    2039                            .dwattr $C$DW$180, DW_AT_accessibility(DW_ACCESS_public)
    2040                            .dwattr $C$DW$180, DW_AT_decl_file("C:/TI_CodeComposer/TivaWare/sensorlib/i2cm_drv.h")
    2041                            .dwattr $C$DW$180, DW_AT_decl_line(0x8c)
    2042                            .dwattr $C$DW$180, DW_AT_decl_column(0x0d)
    2043                    
    2044                    $C$DW$181       .dwtag  DW_TAG_member
    2045                            .dwattr $C$DW$181, DW_AT_type(*$C$DW$T$19)
    2046                            .dwattr $C$DW$181, DW_AT_name("ui8RxDMA")
    2047                            .dwattr $C$DW$181, DW_AT_TI_symbol_name("ui8RxDMA")
    2048                            .dwattr $C$DW$181, DW_AT_data_member_location[DW_OP_plus_uconst 0x6]
    2049                            .dwattr $C$DW$181, DW_AT_accessibility(DW_ACCESS_public)
    2050                            .dwattr $C$DW$181, DW_AT_decl_file("C:/TI_CodeComposer/TivaWare/sensorlib/i2cm_drv.h")
    2051                            .dwattr $C$DW$181, DW_AT_decl_line(0x91)
    2052                            .dwattr $C$DW$181, DW_AT_decl_column(0x0d)
    2053                    
    2054                    $C$DW$182       .dwtag  DW_TAG_member
    2055                            .dwattr $C$DW$182, DW_AT_type(*$C$DW$T$19)
    2056                            .dwattr $C$DW$182, DW_AT_name("ui8State")
    2057                            .dwattr $C$DW$182, DW_AT_TI_symbol_name("ui8State")
    2058                            .dwattr $C$DW$182, DW_AT_data_member_location[DW_OP_plus_uconst 0x7]
    2059                            .dwattr $C$DW$182, DW_AT_accessibility(DW_ACCESS_public)
    2060                            .dwattr $C$DW$182, DW_AT_decl_file("C:/TI_CodeComposer/TivaWare/sensorlib/i2cm_drv.h")
    2061                            .dwattr $C$DW$182, DW_AT_decl_line(0x96)
    2062                            .dwattr $C$DW$182, DW_AT_decl_column(0x0d)
    2063                    
    2064                    $C$DW$183       .dwtag  DW_TAG_member
    2065                            .dwattr $C$DW$183, DW_AT_type(*$C$DW$T$19)
    2066                            .dwattr $C$DW$183, DW_AT_name("ui8ReadPtr")
    2067                            .dwattr $C$DW$183, DW_AT_TI_symbol_name("ui8ReadPtr")
    2068                            .dwattr $C$DW$183, DW_AT_data_member_location[DW_OP_plus_uconst 0x8]
    2069                            .dwattr $C$DW$183, DW_AT_accessibility(DW_ACCESS_public)
    2070                            .dwattr $C$DW$183, DW_AT_decl_file("C:/TI_CodeComposer/TivaWare/sensorlib/i2cm_drv.h")
    2071                            .dwattr $C$DW$183, DW_AT_decl_line(0x9c)
    2072                            .dwattr $C$DW$183, DW_AT_decl_column(0x0d)
    2073                    
    2074                    $C$DW$184       .dwtag  DW_TAG_member
    2075                            .dwattr $C$DW$184, DW_AT_type(*$C$DW$T$19)
    2076                            .dwattr $C$DW$184, DW_AT_name("ui8WritePtr")
    2077                            .dwattr $C$DW$184, DW_AT_TI_symbol_name("ui8WritePtr")
    2078                            .dwattr $C$DW$184, DW_AT_data_member_location[DW_OP_plus_uconst 0x9]
    2079                            .dwattr $C$DW$184, DW_AT_accessibility(DW_ACCESS_public)
    2080                            .dwattr $C$DW$184, DW_AT_decl_file("C:/TI_CodeComposer/TivaWare/sensorlib/i2cm_drv.h")
    2081                            .dwattr $C$DW$184, DW_AT_decl_line(0xa2)
    2082                            .dwattr $C$DW$184, DW_AT_decl_column(0x0d)
    2083                    
    2084                    $C$DW$185       .dwtag  DW_TAG_member
    2085                            .dwattr $C$DW$185, DW_AT_type(*$C$DW$T$22)
    2086                            .dwattr $C$DW$185, DW_AT_name("ui16Index")
    2087                            .dwattr $C$DW$185, DW_AT_TI_symbol_name("ui16Index")
    2088                            .dwattr $C$DW$185, DW_AT_data_member_location[DW_OP_plus_uconst 0xa]
    2089                            .dwattr $C$DW$185, DW_AT_accessibility(DW_ACCESS_public)
    2090                            .dwattr $C$DW$185, DW_AT_decl_file("C:/TI_CodeComposer/TivaWare/sensorlib/i2cm_drv.h")
    2091                            .dwattr $C$DW$185, DW_AT_decl_line(0xa7)
    2092                            .dwattr $C$DW$185, DW_AT_decl_column(0x0e)
    2093                    
TI ARM Assembler PC v15.12.1 Tue Oct 18 10:42:46 2016

Tools Copyright (c) 1996-2015 Texas Instruments Incorporated
Task_I2C7_Handler.asm                                                PAGE   40

    2094                    $C$DW$186       .dwtag  DW_TAG_member
    2095                            .dwattr $C$DW$186, DW_AT_type(*$C$DW$T$31)
    2096                            .dwattr $C$DW$186, DW_AT_name("pCommands")
    2097                            .dwattr $C$DW$186, DW_AT_TI_symbol_name("pCommands")
    2098                            .dwattr $C$DW$186, DW_AT_data_member_location[DW_OP_plus_uconst 0xc]
    2099                            .dwattr $C$DW$186, DW_AT_accessibility(DW_ACCESS_public)
    2100                            .dwattr $C$DW$186, DW_AT_decl_file("C:/TI_CodeComposer/TivaWare/sensorlib/i2cm_drv.h")
    2101                            .dwattr $C$DW$186, DW_AT_decl_line(0xac)
    2102                            .dwattr $C$DW$186, DW_AT_decl_column(0x12)
    2103                    
    2104                            .dwattr $C$DW$T$32, DW_AT_decl_file("C:/TI_CodeComposer/TivaWare/sensorlib/i2cm_drv.h")
    2105                            .dwattr $C$DW$T$32, DW_AT_decl_line(0x7e)
    2106                            .dwattr $C$DW$T$32, DW_AT_decl_column(0x01)
    2107                            .dwendtag $C$DW$T$32
    2108                    
    2109                    $C$DW$T$33      .dwtag  DW_TAG_typedef
    2110                            .dwattr $C$DW$T$33, DW_AT_name("tI2CMInstance")
    2111                            .dwattr $C$DW$T$33, DW_AT_type(*$C$DW$T$32)
    2112                            .dwattr $C$DW$T$33, DW_AT_language(DW_LANG_C)
    2113                            .dwattr $C$DW$T$33, DW_AT_decl_file("C:/TI_CodeComposer/TivaWare/sensorlib/i2cm_drv.h")
    2114                            .dwattr $C$DW$T$33, DW_AT_decl_line(0xae)
    2115                            .dwattr $C$DW$T$33, DW_AT_decl_column(0x01)
    2116                    
    2117                    $C$DW$T$34      .dwtag  DW_TAG_pointer_type
    2118                            .dwattr $C$DW$T$34, DW_AT_type(*$C$DW$T$33)
    2119                            .dwattr $C$DW$T$34, DW_AT_address_class(0x20)
    2120                    
    2121                    
    2122                    $C$DW$T$36      .dwtag  DW_TAG_structure_type
    2123                            .dwattr $C$DW$T$36, DW_AT_byte_size(0x18)
    2124                    $C$DW$187       .dwtag  DW_TAG_member
    2125                            .dwattr $C$DW$187, DW_AT_type(*$C$DW$T$34)
    2126                            .dwattr $C$DW$187, DW_AT_name("psI2CInst")
    2127                            .dwattr $C$DW$187, DW_AT_TI_symbol_name("psI2CInst")
    2128                            .dwattr $C$DW$187, DW_AT_data_member_location[DW_OP_plus_uconst 0x0]
    2129                            .dwattr $C$DW$187, DW_AT_accessibility(DW_ACCESS_public)
    2130                            .dwattr $C$DW$187, DW_AT_decl_file("C:/TI_CodeComposer/TivaWare/sensorlib/i2cm_drv.h")
    2131                            .dwattr $C$DW$187, DW_AT_decl_line(0xf0)
    2132                            .dwattr $C$DW$187, DW_AT_decl_column(0x14)
    2133                    
    2134                    $C$DW$188       .dwtag  DW_TAG_member
    2135                            .dwattr $C$DW$188, DW_AT_type(*$C$DW$T$35)
    2136                            .dwattr $C$DW$188, DW_AT_name("pui8Buffer")
    2137                            .dwattr $C$DW$188, DW_AT_TI_symbol_name("pui8Buffer")
    2138                            .dwattr $C$DW$188, DW_AT_data_member_location[DW_OP_plus_uconst 0x4]
    2139                            .dwattr $C$DW$188, DW_AT_accessibility(DW_ACCESS_public)
    2140                            .dwattr $C$DW$188, DW_AT_decl_file("C:/TI_CodeComposer/TivaWare/sensorlib/i2cm_drv.h")
    2141                            .dwattr $C$DW$188, DW_AT_decl_line(0xf5)
    2142                            .dwattr $C$DW$188, DW_AT_decl_column(0x0d)
    2143                    
    2144                    $C$DW$189       .dwtag  DW_TAG_member
    2145                            .dwattr $C$DW$189, DW_AT_type(*$C$DW$T$19)
    2146                            .dwattr $C$DW$189, DW_AT_name("ui8State")
    2147                            .dwattr $C$DW$189, DW_AT_TI_symbol_name("ui8State")
    2148                            .dwattr $C$DW$189, DW_AT_data_member_location[DW_OP_plus_uconst 0x8]
TI ARM Assembler PC v15.12.1 Tue Oct 18 10:42:46 2016

Tools Copyright (c) 1996-2015 Texas Instruments Incorporated
Task_I2C7_Handler.asm                                                PAGE   41

    2149                            .dwattr $C$DW$189, DW_AT_accessibility(DW_ACCESS_public)
    2150                            .dwattr $C$DW$189, DW_AT_decl_file("C:/TI_CodeComposer/TivaWare/sensorlib/i2cm_drv.h")
    2151                            .dwattr $C$DW$189, DW_AT_decl_line(0xfa)
    2152                            .dwattr $C$DW$189, DW_AT_decl_column(0x0d)
    2153                    
    2154                    $C$DW$190       .dwtag  DW_TAG_member
    2155                            .dwattr $C$DW$190, DW_AT_type(*$C$DW$T$19)
    2156                            .dwattr $C$DW$190, DW_AT_name("ui8Addr")
    2157                            .dwattr $C$DW$190, DW_AT_TI_symbol_name("ui8Addr")
    2158                            .dwattr $C$DW$190, DW_AT_data_member_location[DW_OP_plus_uconst 0x9]
    2159                            .dwattr $C$DW$190, DW_AT_accessibility(DW_ACCESS_public)
    2160                            .dwattr $C$DW$190, DW_AT_decl_file("C:/TI_CodeComposer/TivaWare/sensorlib/i2cm_drv.h")
    2161                            .dwattr $C$DW$190, DW_AT_decl_line(0xff)
    2162                            .dwattr $C$DW$190, DW_AT_decl_column(0x0d)
    2163                    
    2164                    $C$DW$191       .dwtag  DW_TAG_member
    2165                            .dwattr $C$DW$191, DW_AT_type(*$C$DW$T$22)
    2166                            .dwattr $C$DW$191, DW_AT_name("ui16Mask")
    2167                            .dwattr $C$DW$191, DW_AT_TI_symbol_name("ui16Mask")
    2168                            .dwattr $C$DW$191, DW_AT_data_member_location[DW_OP_plus_uconst 0xa]
    2169                            .dwattr $C$DW$191, DW_AT_accessibility(DW_ACCESS_public)
    2170                            .dwattr $C$DW$191, DW_AT_decl_file("C:/TI_CodeComposer/TivaWare/sensorlib/i2cm_drv.h")
    2171                            .dwattr $C$DW$191, DW_AT_decl_line(0x104)
    2172                            .dwattr $C$DW$191, DW_AT_decl_column(0x0e)
    2173                    
    2174                    $C$DW$192       .dwtag  DW_TAG_member
    2175                            .dwattr $C$DW$192, DW_AT_type(*$C$DW$T$22)
    2176                            .dwattr $C$DW$192, DW_AT_name("ui16Value")
    2177                            .dwattr $C$DW$192, DW_AT_TI_symbol_name("ui16Value")
    2178                            .dwattr $C$DW$192, DW_AT_data_member_location[DW_OP_plus_uconst 0xc]
    2179                            .dwattr $C$DW$192, DW_AT_accessibility(DW_ACCESS_public)
    2180                            .dwattr $C$DW$192, DW_AT_decl_file("C:/TI_CodeComposer/TivaWare/sensorlib/i2cm_drv.h")
    2181                            .dwattr $C$DW$192, DW_AT_decl_line(0x109)
    2182                            .dwattr $C$DW$192, DW_AT_decl_column(0x0e)
    2183                    
    2184                    $C$DW$193       .dwtag  DW_TAG_member
    2185                            .dwattr $C$DW$193, DW_AT_type(*$C$DW$T$28)
    2186                            .dwattr $C$DW$193, DW_AT_name("pfnCallback")
    2187                            .dwattr $C$DW$193, DW_AT_TI_symbol_name("pfnCallback")
    2188                            .dwattr $C$DW$193, DW_AT_data_member_location[DW_OP_plus_uconst 0x10]
    2189                            .dwattr $C$DW$193, DW_AT_accessibility(DW_ACCESS_public)
    2190                            .dwattr $C$DW$193, DW_AT_decl_file("C:/TI_CodeComposer/TivaWare/sensorlib/i2cm_drv.h")
    2191                            .dwattr $C$DW$193, DW_AT_decl_line(0x10f)
    2192                            .dwattr $C$DW$193, DW_AT_decl_column(0x16)
    2193                    
    2194                    $C$DW$194       .dwtag  DW_TAG_member
    2195                            .dwattr $C$DW$194, DW_AT_type(*$C$DW$T$3)
    2196                            .dwattr $C$DW$194, DW_AT_name("pvCallbackData")
    2197                            .dwattr $C$DW$194, DW_AT_TI_symbol_name("pvCallbackData")
    2198                            .dwattr $C$DW$194, DW_AT_data_member_location[DW_OP_plus_uconst 0x14]
    2199                            .dwattr $C$DW$194, DW_AT_accessibility(DW_ACCESS_public)
    2200                            .dwattr $C$DW$194, DW_AT_decl_file("C:/TI_CodeComposer/TivaWare/sensorlib/i2cm_drv.h")
    2201                            .dwattr $C$DW$194, DW_AT_decl_line(0x114)
    2202                            .dwattr $C$DW$194, DW_AT_decl_column(0x0b)
    2203                    
TI ARM Assembler PC v15.12.1 Tue Oct 18 10:42:46 2016

Tools Copyright (c) 1996-2015 Texas Instruments Incorporated
Task_I2C7_Handler.asm                                                PAGE   42

    2204                            .dwattr $C$DW$T$36, DW_AT_decl_file("C:/TI_CodeComposer/TivaWare/sensorlib/i2cm_drv.h")
    2205                            .dwattr $C$DW$T$36, DW_AT_decl_line(0xeb)
    2206                            .dwattr $C$DW$T$36, DW_AT_decl_column(0x01)
    2207                            .dwendtag $C$DW$T$36
    2208                    
    2209                    $C$DW$T$80      .dwtag  DW_TAG_typedef
    2210                            .dwattr $C$DW$T$80, DW_AT_name("tI2CMReadModifyWrite16")
    2211                            .dwattr $C$DW$T$80, DW_AT_type(*$C$DW$T$36)
    2212                            .dwattr $C$DW$T$80, DW_AT_language(DW_LANG_C)
    2213                            .dwattr $C$DW$T$80, DW_AT_decl_file("C:/TI_CodeComposer/TivaWare/sensorlib/i2cm_drv.h")
    2214                            .dwattr $C$DW$T$80, DW_AT_decl_line(0x116)
    2215                            .dwattr $C$DW$T$80, DW_AT_decl_column(0x01)
    2216                    
    2217                    $C$DW$T$81      .dwtag  DW_TAG_pointer_type
    2218                            .dwattr $C$DW$T$81, DW_AT_type(*$C$DW$T$80)
    2219                            .dwattr $C$DW$T$81, DW_AT_address_class(0x20)
    2220                    
    2221                    
    2222                    $C$DW$T$37      .dwtag  DW_TAG_structure_type
    2223                            .dwattr $C$DW$T$37, DW_AT_byte_size(0x14)
    2224                    $C$DW$195       .dwtag  DW_TAG_member
    2225                            .dwattr $C$DW$195, DW_AT_type(*$C$DW$T$34)
    2226                            .dwattr $C$DW$195, DW_AT_name("psI2CInst")
    2227                            .dwattr $C$DW$195, DW_AT_TI_symbol_name("psI2CInst")
    2228                            .dwattr $C$DW$195, DW_AT_data_member_location[DW_OP_plus_uconst 0x0]
    2229                            .dwattr $C$DW$195, DW_AT_accessibility(DW_ACCESS_public)
    2230                            .dwattr $C$DW$195, DW_AT_decl_file("C:/TI_CodeComposer/TivaWare/sensorlib/i2cm_drv.h")
    2231                            .dwattr $C$DW$195, DW_AT_decl_line(0xbc)
    2232                            .dwattr $C$DW$195, DW_AT_decl_column(0x14)
    2233                    
    2234                    $C$DW$196       .dwtag  DW_TAG_member
    2235                            .dwattr $C$DW$196, DW_AT_type(*$C$DW$T$35)
    2236                            .dwattr $C$DW$196, DW_AT_name("pui8Buffer")
    2237                            .dwattr $C$DW$196, DW_AT_TI_symbol_name("pui8Buffer")
    2238                            .dwattr $C$DW$196, DW_AT_data_member_location[DW_OP_plus_uconst 0x4]
    2239                            .dwattr $C$DW$196, DW_AT_accessibility(DW_ACCESS_public)
    2240                            .dwattr $C$DW$196, DW_AT_decl_file("C:/TI_CodeComposer/TivaWare/sensorlib/i2cm_drv.h")
    2241                            .dwattr $C$DW$196, DW_AT_decl_line(0xc1)
    2242                            .dwattr $C$DW$196, DW_AT_decl_column(0x0d)
    2243                    
    2244                    $C$DW$197       .dwtag  DW_TAG_member
    2245                            .dwattr $C$DW$197, DW_AT_type(*$C$DW$T$19)
    2246                            .dwattr $C$DW$197, DW_AT_name("ui8State")
    2247                            .dwattr $C$DW$197, DW_AT_TI_symbol_name("ui8State")
    2248                            .dwattr $C$DW$197, DW_AT_data_member_location[DW_OP_plus_uconst 0x8]
    2249                            .dwattr $C$DW$197, DW_AT_accessibility(DW_ACCESS_public)
    2250                            .dwattr $C$DW$197, DW_AT_decl_file("C:/TI_CodeComposer/TivaWare/sensorlib/i2cm_drv.h")
    2251                            .dwattr $C$DW$197, DW_AT_decl_line(0xc6)
    2252                            .dwattr $C$DW$197, DW_AT_decl_column(0x0d)
    2253                    
    2254                    $C$DW$198       .dwtag  DW_TAG_member
    2255                            .dwattr $C$DW$198, DW_AT_type(*$C$DW$T$19)
    2256                            .dwattr $C$DW$198, DW_AT_name("ui8Addr")
    2257                            .dwattr $C$DW$198, DW_AT_TI_symbol_name("ui8Addr")
    2258                            .dwattr $C$DW$198, DW_AT_data_member_location[DW_OP_plus_uconst 0x9]
TI ARM Assembler PC v15.12.1 Tue Oct 18 10:42:46 2016

Tools Copyright (c) 1996-2015 Texas Instruments Incorporated
Task_I2C7_Handler.asm                                                PAGE   43

    2259                            .dwattr $C$DW$198, DW_AT_accessibility(DW_ACCESS_public)
    2260                            .dwattr $C$DW$198, DW_AT_decl_file("C:/TI_CodeComposer/TivaWare/sensorlib/i2cm_drv.h")
    2261                            .dwattr $C$DW$198, DW_AT_decl_line(0xcb)
    2262                            .dwattr $C$DW$198, DW_AT_decl_column(0x0d)
    2263                    
    2264                    $C$DW$199       .dwtag  DW_TAG_member
    2265                            .dwattr $C$DW$199, DW_AT_type(*$C$DW$T$19)
    2266                            .dwattr $C$DW$199, DW_AT_name("ui8Mask")
    2267                            .dwattr $C$DW$199, DW_AT_TI_symbol_name("ui8Mask")
    2268                            .dwattr $C$DW$199, DW_AT_data_member_location[DW_OP_plus_uconst 0xa]
    2269                            .dwattr $C$DW$199, DW_AT_accessibility(DW_ACCESS_public)
    2270                            .dwattr $C$DW$199, DW_AT_decl_file("C:/TI_CodeComposer/TivaWare/sensorlib/i2cm_drv.h")
    2271                            .dwattr $C$DW$199, DW_AT_decl_line(0xd0)
    2272                            .dwattr $C$DW$199, DW_AT_decl_column(0x0d)
    2273                    
    2274                    $C$DW$200       .dwtag  DW_TAG_member
    2275                            .dwattr $C$DW$200, DW_AT_type(*$C$DW$T$19)
    2276                            .dwattr $C$DW$200, DW_AT_name("ui8Value")
    2277                            .dwattr $C$DW$200, DW_AT_TI_symbol_name("ui8Value")
    2278                            .dwattr $C$DW$200, DW_AT_data_member_location[DW_OP_plus_uconst 0xb]
    2279                            .dwattr $C$DW$200, DW_AT_accessibility(DW_ACCESS_public)
    2280                            .dwattr $C$DW$200, DW_AT_decl_file("C:/TI_CodeComposer/TivaWare/sensorlib/i2cm_drv.h")
    2281                            .dwattr $C$DW$200, DW_AT_decl_line(0xd5)
    2282                            .dwattr $C$DW$200, DW_AT_decl_column(0x0d)
    2283                    
    2284                    $C$DW$201       .dwtag  DW_TAG_member
    2285                            .dwattr $C$DW$201, DW_AT_type(*$C$DW$T$28)
    2286                            .dwattr $C$DW$201, DW_AT_name("pfnCallback")
    2287                            .dwattr $C$DW$201, DW_AT_TI_symbol_name("pfnCallback")
    2288                            .dwattr $C$DW$201, DW_AT_data_member_location[DW_OP_plus_uconst 0xc]
    2289                            .dwattr $C$DW$201, DW_AT_accessibility(DW_ACCESS_public)
    2290                            .dwattr $C$DW$201, DW_AT_decl_file("C:/TI_CodeComposer/TivaWare/sensorlib/i2cm_drv.h")
    2291                            .dwattr $C$DW$201, DW_AT_decl_line(0xdb)
    2292                            .dwattr $C$DW$201, DW_AT_decl_column(0x16)
    2293                    
    2294                    $C$DW$202       .dwtag  DW_TAG_member
    2295                            .dwattr $C$DW$202, DW_AT_type(*$C$DW$T$3)
    2296                            .dwattr $C$DW$202, DW_AT_name("pvCallbackData")
    2297                            .dwattr $C$DW$202, DW_AT_TI_symbol_name("pvCallbackData")
    2298                            .dwattr $C$DW$202, DW_AT_data_member_location[DW_OP_plus_uconst 0x10]
    2299                            .dwattr $C$DW$202, DW_AT_accessibility(DW_ACCESS_public)
    2300                            .dwattr $C$DW$202, DW_AT_decl_file("C:/TI_CodeComposer/TivaWare/sensorlib/i2cm_drv.h")
    2301                            .dwattr $C$DW$202, DW_AT_decl_line(0xe0)
    2302                            .dwattr $C$DW$202, DW_AT_decl_column(0x0b)
    2303                    
    2304                            .dwattr $C$DW$T$37, DW_AT_decl_file("C:/TI_CodeComposer/TivaWare/sensorlib/i2cm_drv.h")
    2305                            .dwattr $C$DW$T$37, DW_AT_decl_line(0xb7)
    2306                            .dwattr $C$DW$T$37, DW_AT_decl_column(0x01)
    2307                            .dwendtag $C$DW$T$37
    2308                    
    2309                    $C$DW$T$82      .dwtag  DW_TAG_typedef
    2310                            .dwattr $C$DW$T$82, DW_AT_name("tI2CMReadModifyWrite8")
    2311                            .dwattr $C$DW$T$82, DW_AT_type(*$C$DW$T$37)
    2312                            .dwattr $C$DW$T$82, DW_AT_language(DW_LANG_C)
    2313                            .dwattr $C$DW$T$82, DW_AT_decl_file("C:/TI_CodeComposer/TivaWare/sensorlib/i2cm_drv.h")
TI ARM Assembler PC v15.12.1 Tue Oct 18 10:42:46 2016

Tools Copyright (c) 1996-2015 Texas Instruments Incorporated
Task_I2C7_Handler.asm                                                PAGE   44

    2314                            .dwattr $C$DW$T$82, DW_AT_decl_line(0xe2)
    2315                            .dwattr $C$DW$T$82, DW_AT_decl_column(0x01)
    2316                    
    2317                    
    2318                    $C$DW$T$39      .dwtag  DW_TAG_structure_type
    2319                            .dwattr $C$DW$T$39, DW_AT_byte_size(0x14)
    2320                    $C$DW$203       .dwtag  DW_TAG_member
    2321                            .dwattr $C$DW$203, DW_AT_type(*$C$DW$T$34)
    2322                            .dwattr $C$DW$203, DW_AT_name("psI2CInst")
    2323                            .dwattr $C$DW$203, DW_AT_TI_symbol_name("psI2CInst")
    2324                            .dwattr $C$DW$203, DW_AT_data_member_location[DW_OP_plus_uconst 0x0]
    2325                            .dwattr $C$DW$203, DW_AT_accessibility(DW_ACCESS_public)
    2326                            .dwattr $C$DW$203, DW_AT_decl_file("C:/TI_CodeComposer/TivaWare/sensorlib/i2cm_drv.h")
    2327                            .dwattr $C$DW$203, DW_AT_decl_line(0x123)
    2328                            .dwattr $C$DW$203, DW_AT_decl_column(0x14)
    2329                    
    2330                    $C$DW$204       .dwtag  DW_TAG_member
    2331                            .dwattr $C$DW$204, DW_AT_type(*$C$DW$T$38)
    2332                            .dwattr $C$DW$204, DW_AT_name("pui8Buffer")
    2333                            .dwattr $C$DW$204, DW_AT_TI_symbol_name("pui8Buffer")
    2334                            .dwattr $C$DW$204, DW_AT_data_member_location[DW_OP_plus_uconst 0x4]
    2335                            .dwattr $C$DW$204, DW_AT_accessibility(DW_ACCESS_public)
    2336                            .dwattr $C$DW$204, DW_AT_decl_file("C:/TI_CodeComposer/TivaWare/sensorlib/i2cm_drv.h")
    2337                            .dwattr $C$DW$204, DW_AT_decl_line(0x128)
    2338                            .dwattr $C$DW$204, DW_AT_decl_column(0x0d)
    2339                    
    2340                    $C$DW$205       .dwtag  DW_TAG_member
    2341                            .dwattr $C$DW$205, DW_AT_type(*$C$DW$T$22)
    2342                            .dwattr $C$DW$205, DW_AT_name("ui16Count")
    2343                            .dwattr $C$DW$205, DW_AT_TI_symbol_name("ui16Count")
    2344                            .dwattr $C$DW$205, DW_AT_data_member_location[DW_OP_plus_uconst 0x6]
    2345                            .dwattr $C$DW$205, DW_AT_accessibility(DW_ACCESS_public)
    2346                            .dwattr $C$DW$205, DW_AT_decl_file("C:/TI_CodeComposer/TivaWare/sensorlib/i2cm_drv.h")
    2347                            .dwattr $C$DW$205, DW_AT_decl_line(0x12d)
    2348                            .dwattr $C$DW$205, DW_AT_decl_column(0x0e)
    2349                    
    2350                    $C$DW$206       .dwtag  DW_TAG_member
    2351                            .dwattr $C$DW$206, DW_AT_type(*$C$DW$T$21)
    2352                            .dwattr $C$DW$206, DW_AT_name("pui8Data")
    2353                            .dwattr $C$DW$206, DW_AT_TI_symbol_name("pui8Data")
    2354                            .dwattr $C$DW$206, DW_AT_data_member_location[DW_OP_plus_uconst 0x8]
    2355                            .dwattr $C$DW$206, DW_AT_accessibility(DW_ACCESS_public)
    2356                            .dwattr $C$DW$206, DW_AT_decl_file("C:/TI_CodeComposer/TivaWare/sensorlib/i2cm_drv.h")
    2357                            .dwattr $C$DW$206, DW_AT_decl_line(0x132)
    2358                            .dwattr $C$DW$206, DW_AT_decl_column(0x14)
    2359                    
    2360                    $C$DW$207       .dwtag  DW_TAG_member
    2361                            .dwattr $C$DW$207, DW_AT_type(*$C$DW$T$28)
    2362                            .dwattr $C$DW$207, DW_AT_name("pfnCallback")
    2363                            .dwattr $C$DW$207, DW_AT_TI_symbol_name("pfnCallback")
    2364                            .dwattr $C$DW$207, DW_AT_data_member_location[DW_OP_plus_uconst 0xc]
    2365                            .dwattr $C$DW$207, DW_AT_accessibility(DW_ACCESS_public)
    2366                            .dwattr $C$DW$207, DW_AT_decl_file("C:/TI_CodeComposer/TivaWare/sensorlib/i2cm_drv.h")
    2367                            .dwattr $C$DW$207, DW_AT_decl_line(0x137)
    2368                            .dwattr $C$DW$207, DW_AT_decl_column(0x16)
TI ARM Assembler PC v15.12.1 Tue Oct 18 10:42:46 2016

Tools Copyright (c) 1996-2015 Texas Instruments Incorporated
Task_I2C7_Handler.asm                                                PAGE   45

    2369                    
    2370                    $C$DW$208       .dwtag  DW_TAG_member
    2371                            .dwattr $C$DW$208, DW_AT_type(*$C$DW$T$3)
    2372                            .dwattr $C$DW$208, DW_AT_name("pvCallbackData")
    2373                            .dwattr $C$DW$208, DW_AT_TI_symbol_name("pvCallbackData")
    2374                            .dwattr $C$DW$208, DW_AT_data_member_location[DW_OP_plus_uconst 0x10]
    2375                            .dwattr $C$DW$208, DW_AT_accessibility(DW_ACCESS_public)
    2376                            .dwattr $C$DW$208, DW_AT_decl_file("C:/TI_CodeComposer/TivaWare/sensorlib/i2cm_drv.h")
    2377                            .dwattr $C$DW$208, DW_AT_decl_line(0x13c)
    2378                            .dwattr $C$DW$208, DW_AT_decl_column(0x0b)
    2379                    
    2380                            .dwattr $C$DW$T$39, DW_AT_decl_file("C:/TI_CodeComposer/TivaWare/sensorlib/i2cm_drv.h")
    2381                            .dwattr $C$DW$T$39, DW_AT_decl_line(0x11e)
    2382                            .dwattr $C$DW$T$39, DW_AT_decl_column(0x01)
    2383                            .dwendtag $C$DW$T$39
    2384                    
    2385                    $C$DW$T$83      .dwtag  DW_TAG_typedef
    2386                            .dwattr $C$DW$T$83, DW_AT_name("tI2CMWrite8")
    2387                            .dwattr $C$DW$T$83, DW_AT_type(*$C$DW$T$39)
    2388                            .dwattr $C$DW$T$83, DW_AT_language(DW_LANG_C)
    2389                            .dwattr $C$DW$T$83, DW_AT_decl_file("C:/TI_CodeComposer/TivaWare/sensorlib/i2cm_drv.h")
    2390                            .dwattr $C$DW$T$83, DW_AT_decl_line(0x13e)
    2391                            .dwattr $C$DW$T$83, DW_AT_decl_column(0x01)
    2392                    
    2393                    
    2394                    $C$DW$T$40      .dwtag  DW_TAG_structure_type
    2395                            .dwattr $C$DW$T$40, DW_AT_byte_size(0x14)
    2396                    $C$DW$209       .dwtag  DW_TAG_member
    2397                            .dwattr $C$DW$209, DW_AT_type(*$C$DW$T$34)
    2398                            .dwattr $C$DW$209, DW_AT_name("psI2CInst")
    2399                            .dwattr $C$DW$209, DW_AT_TI_symbol_name("psI2CInst")
    2400                            .dwattr $C$DW$209, DW_AT_data_member_location[DW_OP_plus_uconst 0x0]
    2401                            .dwattr $C$DW$209, DW_AT_accessibility(DW_ACCESS_public)
    2402                            .dwattr $C$DW$209, DW_AT_decl_file("C:/TI_CodeComposer/TivaWare/sensorlib/i2cm_drv.h")
    2403                            .dwattr $C$DW$209, DW_AT_decl_line(0x14c)
    2404                            .dwattr $C$DW$209, DW_AT_decl_column(0x14)
    2405                    
    2406                    $C$DW$210       .dwtag  DW_TAG_member
    2407                            .dwattr $C$DW$210, DW_AT_type(*$C$DW$T$23)
    2408                            .dwattr $C$DW$210, DW_AT_name("pui8Data")
    2409                            .dwattr $C$DW$210, DW_AT_TI_symbol_name("pui8Data")
    2410                            .dwattr $C$DW$210, DW_AT_data_member_location[DW_OP_plus_uconst 0x4]
    2411                            .dwattr $C$DW$210, DW_AT_accessibility(DW_ACCESS_public)
    2412                            .dwattr $C$DW$210, DW_AT_decl_file("C:/TI_CodeComposer/TivaWare/sensorlib/i2cm_drv.h")
    2413                            .dwattr $C$DW$210, DW_AT_decl_line(0x151)
    2414                            .dwattr $C$DW$210, DW_AT_decl_column(0x0e)
    2415                    
    2416                    $C$DW$211       .dwtag  DW_TAG_member
    2417                            .dwattr $C$DW$211, DW_AT_type(*$C$DW$T$22)
    2418                            .dwattr $C$DW$211, DW_AT_name("ui16Count")
    2419                            .dwattr $C$DW$211, DW_AT_TI_symbol_name("ui16Count")
    2420                            .dwattr $C$DW$211, DW_AT_data_member_location[DW_OP_plus_uconst 0x8]
    2421                            .dwattr $C$DW$211, DW_AT_accessibility(DW_ACCESS_public)
    2422                            .dwattr $C$DW$211, DW_AT_decl_file("C:/TI_CodeComposer/TivaWare/sensorlib/i2cm_drv.h")
    2423                            .dwattr $C$DW$211, DW_AT_decl_line(0x156)
TI ARM Assembler PC v15.12.1 Tue Oct 18 10:42:46 2016

Tools Copyright (c) 1996-2015 Texas Instruments Incorporated
Task_I2C7_Handler.asm                                                PAGE   46

    2424                            .dwattr $C$DW$211, DW_AT_decl_column(0x0e)
    2425                    
    2426                    $C$DW$212       .dwtag  DW_TAG_member
    2427                            .dwattr $C$DW$212, DW_AT_type(*$C$DW$T$28)
    2428                            .dwattr $C$DW$212, DW_AT_name("pfnCallback")
    2429                            .dwattr $C$DW$212, DW_AT_TI_symbol_name("pfnCallback")
    2430                            .dwattr $C$DW$212, DW_AT_data_member_location[DW_OP_plus_uconst 0xc]
    2431                            .dwattr $C$DW$212, DW_AT_accessibility(DW_ACCESS_public)
    2432                            .dwattr $C$DW$212, DW_AT_decl_file("C:/TI_CodeComposer/TivaWare/sensorlib/i2cm_drv.h")
    2433                            .dwattr $C$DW$212, DW_AT_decl_line(0x15b)
    2434                            .dwattr $C$DW$212, DW_AT_decl_column(0x16)
    2435                    
    2436                    $C$DW$213       .dwtag  DW_TAG_member
    2437                            .dwattr $C$DW$213, DW_AT_type(*$C$DW$T$3)
    2438                            .dwattr $C$DW$213, DW_AT_name("pvCallbackData")
    2439                            .dwattr $C$DW$213, DW_AT_TI_symbol_name("pvCallbackData")
    2440                            .dwattr $C$DW$213, DW_AT_data_member_location[DW_OP_plus_uconst 0x10]
    2441                            .dwattr $C$DW$213, DW_AT_accessibility(DW_ACCESS_public)
    2442                            .dwattr $C$DW$213, DW_AT_decl_file("C:/TI_CodeComposer/TivaWare/sensorlib/i2cm_drv.h")
    2443                            .dwattr $C$DW$213, DW_AT_decl_line(0x160)
    2444                            .dwattr $C$DW$213, DW_AT_decl_column(0x0b)
    2445                    
    2446                            .dwattr $C$DW$T$40, DW_AT_decl_file("C:/TI_CodeComposer/TivaWare/sensorlib/i2cm_drv.h")
    2447                            .dwattr $C$DW$T$40, DW_AT_decl_line(0x147)
    2448                            .dwattr $C$DW$T$40, DW_AT_decl_column(0x01)
    2449                            .dwendtag $C$DW$T$40
    2450                    
    2451                    $C$DW$T$84      .dwtag  DW_TAG_typedef
    2452                            .dwattr $C$DW$T$84, DW_AT_name("tI2CMRead16BE")
    2453                            .dwattr $C$DW$T$84, DW_AT_type(*$C$DW$T$40)
    2454                            .dwattr $C$DW$T$84, DW_AT_language(DW_LANG_C)
    2455                            .dwattr $C$DW$T$84, DW_AT_decl_file("C:/TI_CodeComposer/TivaWare/sensorlib/i2cm_drv.h")
    2456                            .dwattr $C$DW$T$84, DW_AT_decl_line(0x162)
    2457                            .dwattr $C$DW$T$84, DW_AT_decl_column(0x01)
    2458                    
    2459                    
    2460                    $C$DW$T$41      .dwtag  DW_TAG_structure_type
    2461                            .dwattr $C$DW$T$41, DW_AT_byte_size(0x14)
    2462                    $C$DW$214       .dwtag  DW_TAG_member
    2463                            .dwattr $C$DW$214, DW_AT_type(*$C$DW$T$34)
    2464                            .dwattr $C$DW$214, DW_AT_name("psI2CInst")
    2465                            .dwattr $C$DW$214, DW_AT_TI_symbol_name("psI2CInst")
    2466                            .dwattr $C$DW$214, DW_AT_data_member_location[DW_OP_plus_uconst 0x0]
    2467                            .dwattr $C$DW$214, DW_AT_accessibility(DW_ACCESS_public)
    2468                            .dwattr $C$DW$214, DW_AT_decl_file("C:/TI_CodeComposer/TivaWare/sensorlib/i2cm_drv.h")
    2469                            .dwattr $C$DW$214, DW_AT_decl_line(0x170)
    2470                            .dwattr $C$DW$214, DW_AT_decl_column(0x14)
    2471                    
    2472                    $C$DW$215       .dwtag  DW_TAG_member
    2473                            .dwattr $C$DW$215, DW_AT_type(*$C$DW$T$38)
    2474                            .dwattr $C$DW$215, DW_AT_name("pui8Buffer")
    2475                            .dwattr $C$DW$215, DW_AT_TI_symbol_name("pui8Buffer")
    2476                            .dwattr $C$DW$215, DW_AT_data_member_location[DW_OP_plus_uconst 0x4]
    2477                            .dwattr $C$DW$215, DW_AT_accessibility(DW_ACCESS_public)
    2478                            .dwattr $C$DW$215, DW_AT_decl_file("C:/TI_CodeComposer/TivaWare/sensorlib/i2cm_drv.h")
TI ARM Assembler PC v15.12.1 Tue Oct 18 10:42:46 2016

Tools Copyright (c) 1996-2015 Texas Instruments Incorporated
Task_I2C7_Handler.asm                                                PAGE   47

    2479                            .dwattr $C$DW$215, DW_AT_decl_line(0x175)
    2480                            .dwattr $C$DW$215, DW_AT_decl_column(0x0d)
    2481                    
    2482                    $C$DW$216       .dwtag  DW_TAG_member
    2483                            .dwattr $C$DW$216, DW_AT_type(*$C$DW$T$22)
    2484                            .dwattr $C$DW$216, DW_AT_name("ui16Count")
    2485                            .dwattr $C$DW$216, DW_AT_TI_symbol_name("ui16Count")
    2486                            .dwattr $C$DW$216, DW_AT_data_member_location[DW_OP_plus_uconst 0x6]
    2487                            .dwattr $C$DW$216, DW_AT_accessibility(DW_ACCESS_public)
    2488                            .dwattr $C$DW$216, DW_AT_decl_file("C:/TI_CodeComposer/TivaWare/sensorlib/i2cm_drv.h")
    2489                            .dwattr $C$DW$216, DW_AT_decl_line(0x17a)
    2490                            .dwattr $C$DW$216, DW_AT_decl_column(0x0e)
    2491                    
    2492                    $C$DW$217       .dwtag  DW_TAG_member
    2493                            .dwattr $C$DW$217, DW_AT_type(*$C$DW$T$21)
    2494                            .dwattr $C$DW$217, DW_AT_name("pui8Data")
    2495                            .dwattr $C$DW$217, DW_AT_TI_symbol_name("pui8Data")
    2496                            .dwattr $C$DW$217, DW_AT_data_member_location[DW_OP_plus_uconst 0x8]
    2497                            .dwattr $C$DW$217, DW_AT_accessibility(DW_ACCESS_public)
    2498                            .dwattr $C$DW$217, DW_AT_decl_file("C:/TI_CodeComposer/TivaWare/sensorlib/i2cm_drv.h")
    2499                            .dwattr $C$DW$217, DW_AT_decl_line(0x17f)
    2500                            .dwattr $C$DW$217, DW_AT_decl_column(0x14)
    2501                    
    2502                    $C$DW$218       .dwtag  DW_TAG_member
    2503                            .dwattr $C$DW$218, DW_AT_type(*$C$DW$T$28)
    2504                            .dwattr $C$DW$218, DW_AT_name("pfnCallback")
    2505                            .dwattr $C$DW$218, DW_AT_TI_symbol_name("pfnCallback")
    2506                            .dwattr $C$DW$218, DW_AT_data_member_location[DW_OP_plus_uconst 0xc]
    2507                            .dwattr $C$DW$218, DW_AT_accessibility(DW_ACCESS_public)
    2508                            .dwattr $C$DW$218, DW_AT_decl_file("C:/TI_CodeComposer/TivaWare/sensorlib/i2cm_drv.h")
    2509                            .dwattr $C$DW$218, DW_AT_decl_line(0x184)
    2510                            .dwattr $C$DW$218, DW_AT_decl_column(0x16)
    2511                    
    2512                    $C$DW$219       .dwtag  DW_TAG_member
    2513                            .dwattr $C$DW$219, DW_AT_type(*$C$DW$T$3)
    2514                            .dwattr $C$DW$219, DW_AT_name("pvCallbackData")
    2515                            .dwattr $C$DW$219, DW_AT_TI_symbol_name("pvCallbackData")
    2516                            .dwattr $C$DW$219, DW_AT_data_member_location[DW_OP_plus_uconst 0x10]
    2517                            .dwattr $C$DW$219, DW_AT_accessibility(DW_ACCESS_public)
    2518                            .dwattr $C$DW$219, DW_AT_decl_file("C:/TI_CodeComposer/TivaWare/sensorlib/i2cm_drv.h")
    2519                            .dwattr $C$DW$219, DW_AT_decl_line(0x189)
    2520                            .dwattr $C$DW$219, DW_AT_decl_column(0x0b)
    2521                    
    2522                            .dwattr $C$DW$T$41, DW_AT_decl_file("C:/TI_CodeComposer/TivaWare/sensorlib/i2cm_drv.h")
    2523                            .dwattr $C$DW$T$41, DW_AT_decl_line(0x16b)
    2524                            .dwattr $C$DW$T$41, DW_AT_decl_column(0x01)
    2525                            .dwendtag $C$DW$T$41
    2526                    
    2527                    $C$DW$T$85      .dwtag  DW_TAG_typedef
    2528                            .dwattr $C$DW$T$85, DW_AT_name("tI2CMWrite16BE")
    2529                            .dwattr $C$DW$T$85, DW_AT_type(*$C$DW$T$41)
    2530                            .dwattr $C$DW$T$85, DW_AT_language(DW_LANG_C)
    2531                            .dwattr $C$DW$T$85, DW_AT_decl_file("C:/TI_CodeComposer/TivaWare/sensorlib/i2cm_drv.h")
    2532                            .dwattr $C$DW$T$85, DW_AT_decl_line(0x18b)
    2533                            .dwattr $C$DW$T$85, DW_AT_decl_column(0x01)
TI ARM Assembler PC v15.12.1 Tue Oct 18 10:42:46 2016

Tools Copyright (c) 1996-2015 Texas Instruments Incorporated
Task_I2C7_Handler.asm                                                PAGE   48

    2534                    
    2535                    
    2536                    $C$DW$T$43      .dwtag  DW_TAG_structure_type
    2537                            .dwattr $C$DW$T$43, DW_AT_byte_size(0x18)
    2538                    $C$DW$220       .dwtag  DW_TAG_member
    2539                            .dwattr $C$DW$220, DW_AT_type(*$C$DW$T$10)
    2540                            .dwattr $C$DW$220, DW_AT_name("fd")
    2541                            .dwattr $C$DW$220, DW_AT_TI_symbol_name("fd")
    2542                            .dwattr $C$DW$220, DW_AT_data_member_location[DW_OP_plus_uconst 0x0]
    2543                            .dwattr $C$DW$220, DW_AT_accessibility(DW_ACCESS_public)
    2544                            .dwattr $C$DW$220, DW_AT_decl_file("C:/TI_CodeComposer/ccsv6/tools/compiler/ti-cgt-arm_15.12.1
    2545                            .dwattr $C$DW$220, DW_AT_decl_line(0x5c)
    2546                            .dwattr $C$DW$220, DW_AT_decl_column(0x0b)
    2547                    
    2548                    $C$DW$221       .dwtag  DW_TAG_member
    2549                            .dwattr $C$DW$221, DW_AT_type(*$C$DW$T$42)
    2550                            .dwattr $C$DW$221, DW_AT_name("buf")
    2551                            .dwattr $C$DW$221, DW_AT_TI_symbol_name("buf")
    2552                            .dwattr $C$DW$221, DW_AT_data_member_location[DW_OP_plus_uconst 0x4]
    2553                            .dwattr $C$DW$221, DW_AT_accessibility(DW_ACCESS_public)
    2554                            .dwattr $C$DW$221, DW_AT_decl_file("C:/TI_CodeComposer/ccsv6/tools/compiler/ti-cgt-arm_15.12.1
    2555                            .dwattr $C$DW$221, DW_AT_decl_line(0x5d)
    2556                            .dwattr $C$DW$221, DW_AT_decl_column(0x16)
    2557                    
    2558                    $C$DW$222       .dwtag  DW_TAG_member
    2559                            .dwattr $C$DW$222, DW_AT_type(*$C$DW$T$42)
    2560                            .dwattr $C$DW$222, DW_AT_name("pos")
    2561                            .dwattr $C$DW$222, DW_AT_TI_symbol_name("pos")
    2562                            .dwattr $C$DW$222, DW_AT_data_member_location[DW_OP_plus_uconst 0x8]
    2563                            .dwattr $C$DW$222, DW_AT_accessibility(DW_ACCESS_public)
    2564                            .dwattr $C$DW$222, DW_AT_decl_file("C:/TI_CodeComposer/ccsv6/tools/compiler/ti-cgt-arm_15.12.1
    2565                            .dwattr $C$DW$222, DW_AT_decl_line(0x5e)
    2566                            .dwattr $C$DW$222, DW_AT_decl_column(0x16)
    2567                    
    2568                    $C$DW$223       .dwtag  DW_TAG_member
    2569                            .dwattr $C$DW$223, DW_AT_type(*$C$DW$T$42)
    2570                            .dwattr $C$DW$223, DW_AT_name("bufend")
    2571                            .dwattr $C$DW$223, DW_AT_TI_symbol_name("bufend")
    2572                            .dwattr $C$DW$223, DW_AT_data_member_location[DW_OP_plus_uconst 0xc]
    2573                            .dwattr $C$DW$223, DW_AT_accessibility(DW_ACCESS_public)
    2574                            .dwattr $C$DW$223, DW_AT_decl_file("C:/TI_CodeComposer/ccsv6/tools/compiler/ti-cgt-arm_15.12.1
    2575                            .dwattr $C$DW$223, DW_AT_decl_line(0x5f)
    2576                            .dwattr $C$DW$223, DW_AT_decl_column(0x16)
    2577                    
    2578                    $C$DW$224       .dwtag  DW_TAG_member
    2579                            .dwattr $C$DW$224, DW_AT_type(*$C$DW$T$42)
    2580                            .dwattr $C$DW$224, DW_AT_name("buff_stop")
    2581                            .dwattr $C$DW$224, DW_AT_TI_symbol_name("buff_stop")
    2582                            .dwattr $C$DW$224, DW_AT_data_member_location[DW_OP_plus_uconst 0x10]
    2583                            .dwattr $C$DW$224, DW_AT_accessibility(DW_ACCESS_public)
    2584                            .dwattr $C$DW$224, DW_AT_decl_file("C:/TI_CodeComposer/ccsv6/tools/compiler/ti-cgt-arm_15.12.1
    2585                            .dwattr $C$DW$224, DW_AT_decl_line(0x60)
    2586                            .dwattr $C$DW$224, DW_AT_decl_column(0x16)
    2587                    
    2588                    $C$DW$225       .dwtag  DW_TAG_member
TI ARM Assembler PC v15.12.1 Tue Oct 18 10:42:46 2016

Tools Copyright (c) 1996-2015 Texas Instruments Incorporated
Task_I2C7_Handler.asm                                                PAGE   49

    2589                            .dwattr $C$DW$225, DW_AT_type(*$C$DW$T$11)
    2590                            .dwattr $C$DW$225, DW_AT_name("flags")
    2591                            .dwattr $C$DW$225, DW_AT_TI_symbol_name("flags")
    2592                            .dwattr $C$DW$225, DW_AT_data_member_location[DW_OP_plus_uconst 0x14]
    2593                            .dwattr $C$DW$225, DW_AT_accessibility(DW_ACCESS_public)
    2594                            .dwattr $C$DW$225, DW_AT_decl_file("C:/TI_CodeComposer/ccsv6/tools/compiler/ti-cgt-arm_15.12.1
    2595                            .dwattr $C$DW$225, DW_AT_decl_line(0x61)
    2596                            .dwattr $C$DW$225, DW_AT_decl_column(0x16)
    2597                    
    2598                            .dwattr $C$DW$T$43, DW_AT_decl_file("C:/TI_CodeComposer/ccsv6/tools/compiler/ti-cgt-arm_15.12.
    2599                            .dwattr $C$DW$T$43, DW_AT_decl_line(0x5b)
    2600                            .dwattr $C$DW$T$43, DW_AT_decl_column(0x10)
    2601                            .dwendtag $C$DW$T$43
    2602                    
    2603                    $C$DW$T$86      .dwtag  DW_TAG_typedef
    2604                            .dwattr $C$DW$T$86, DW_AT_name("FILE")
    2605                            .dwattr $C$DW$T$86, DW_AT_type(*$C$DW$T$43)
    2606                            .dwattr $C$DW$T$86, DW_AT_language(DW_LANG_C)
    2607                            .dwattr $C$DW$T$86, DW_AT_decl_file("C:/TI_CodeComposer/ccsv6/tools/compiler/ti-cgt-arm_15.12.
    2608                            .dwattr $C$DW$T$86, DW_AT_decl_line(0x62)
    2609                            .dwattr $C$DW$T$86, DW_AT_decl_column(0x03)
    2610                    
    2611                    
    2612                    $C$DW$T$45      .dwtag  DW_TAG_structure_type
    2613                            .dwattr $C$DW$T$45, DW_AT_name("HeapRegion")
    2614                            .dwattr $C$DW$T$45, DW_AT_byte_size(0x08)
    2615                    $C$DW$226       .dwtag  DW_TAG_member
    2616                            .dwattr $C$DW$226, DW_AT_type(*$C$DW$T$23)
    2617                            .dwattr $C$DW$226, DW_AT_name("pucStartAddress")
    2618                            .dwattr $C$DW$226, DW_AT_TI_symbol_name("pucStartAddress")
    2619                            .dwattr $C$DW$226, DW_AT_data_member_location[DW_OP_plus_uconst 0x0]
    2620                            .dwattr $C$DW$226, DW_AT_accessibility(DW_ACCESS_public)
    2621                            .dwattr $C$DW$226, DW_AT_decl_file("C:\TI_ARM_Tiva_Projects\Source\include\portable.h")
    2622                            .dwattr $C$DW$226, DW_AT_decl_line(0x96)
    2623                            .dwattr $C$DW$226, DW_AT_decl_column(0x0b)
    2624                    
    2625                    $C$DW$227       .dwtag  DW_TAG_member
    2626                            .dwattr $C$DW$227, DW_AT_type(*$C$DW$T$44)
    2627                            .dwattr $C$DW$227, DW_AT_name("xSizeInBytes")
    2628                            .dwattr $C$DW$227, DW_AT_TI_symbol_name("xSizeInBytes")
    2629                            .dwattr $C$DW$227, DW_AT_data_member_location[DW_OP_plus_uconst 0x4]
    2630                            .dwattr $C$DW$227, DW_AT_accessibility(DW_ACCESS_public)
    2631                            .dwattr $C$DW$227, DW_AT_decl_file("C:\TI_ARM_Tiva_Projects\Source\include\portable.h")
    2632                            .dwattr $C$DW$227, DW_AT_decl_line(0x97)
    2633                            .dwattr $C$DW$227, DW_AT_decl_column(0x09)
    2634                    
    2635                            .dwattr $C$DW$T$45, DW_AT_decl_file("C:\TI_ARM_Tiva_Projects\Source\include\portable.h")
    2636                            .dwattr $C$DW$T$45, DW_AT_decl_line(0x94)
    2637                            .dwattr $C$DW$T$45, DW_AT_decl_column(0x10)
    2638                            .dwendtag $C$DW$T$45
    2639                    
    2640                    $C$DW$T$87      .dwtag  DW_TAG_typedef
    2641                            .dwattr $C$DW$T$87, DW_AT_name("HeapRegion_t")
    2642                            .dwattr $C$DW$T$87, DW_AT_type(*$C$DW$T$45)
    2643                            .dwattr $C$DW$T$87, DW_AT_language(DW_LANG_C)
TI ARM Assembler PC v15.12.1 Tue Oct 18 10:42:46 2016

Tools Copyright (c) 1996-2015 Texas Instruments Incorporated
Task_I2C7_Handler.asm                                                PAGE   50

    2644                            .dwattr $C$DW$T$87, DW_AT_decl_file("C:\TI_ARM_Tiva_Projects\Source\include\portable.h")
    2645                            .dwattr $C$DW$T$87, DW_AT_decl_line(0x98)
    2646                            .dwattr $C$DW$T$87, DW_AT_decl_column(0x03)
    2647                    
    2648                    $C$DW$T$2       .dwtag  DW_TAG_unspecified_type
    2649                            .dwattr $C$DW$T$2, DW_AT_name("void")
    2650                    
    2651                    $C$DW$T$3       .dwtag  DW_TAG_pointer_type
    2652                            .dwattr $C$DW$T$3, DW_AT_type(*$C$DW$T$2)
    2653                            .dwattr $C$DW$T$3, DW_AT_address_class(0x20)
    2654                    
    2655                    $C$DW$T$88      .dwtag  DW_TAG_typedef
    2656                            .dwattr $C$DW$T$88, DW_AT_name("QueueHandle_t")
    2657                            .dwattr $C$DW$T$88, DW_AT_type(*$C$DW$T$3)
    2658                            .dwattr $C$DW$T$88, DW_AT_language(DW_LANG_C)
    2659                            .dwattr $C$DW$T$88, DW_AT_decl_file("C:\TI_ARM_Tiva_Projects\Source\include\queue.h")
    2660                            .dwattr $C$DW$T$88, DW_AT_decl_line(0x58)
    2661                            .dwattr $C$DW$T$88, DW_AT_decl_column(0x10)
    2662                    
    2663                    $C$DW$T$89      .dwtag  DW_TAG_typedef
    2664                            .dwattr $C$DW$T$89, DW_AT_name("SemaphoreHandle_t")
    2665                            .dwattr $C$DW$T$89, DW_AT_type(*$C$DW$T$88)
    2666                            .dwattr $C$DW$T$89, DW_AT_language(DW_LANG_C)
    2667                            .dwattr $C$DW$T$89, DW_AT_decl_file("C:/TI_ARM_Tiva_Projects/Source/include/semphr.h")
    2668                            .dwattr $C$DW$T$89, DW_AT_decl_line(0x4f)
    2669                            .dwattr $C$DW$T$89, DW_AT_decl_column(0x17)
    2670                    
    2671                    $C$DW$T$90      .dwtag  DW_TAG_typedef
    2672                            .dwattr $C$DW$T$90, DW_AT_name("QueueSetHandle_t")
    2673                            .dwattr $C$DW$T$90, DW_AT_type(*$C$DW$T$3)
    2674                            .dwattr $C$DW$T$90, DW_AT_language(DW_LANG_C)
    2675                            .dwattr $C$DW$T$90, DW_AT_decl_file("C:\TI_ARM_Tiva_Projects\Source\include\queue.h")
    2676                            .dwattr $C$DW$T$90, DW_AT_decl_line(0x5f)
    2677                            .dwattr $C$DW$T$90, DW_AT_decl_column(0x10)
    2678                    
    2679                    $C$DW$T$91      .dwtag  DW_TAG_typedef
    2680                            .dwattr $C$DW$T$91, DW_AT_name("QueueSetMemberHandle_t")
    2681                            .dwattr $C$DW$T$91, DW_AT_type(*$C$DW$T$3)
    2682                            .dwattr $C$DW$T$91, DW_AT_language(DW_LANG_C)
    2683                            .dwattr $C$DW$T$91, DW_AT_decl_file("C:\TI_ARM_Tiva_Projects\Source\include\queue.h")
    2684                            .dwattr $C$DW$T$91, DW_AT_decl_line(0x66)
    2685                            .dwattr $C$DW$T$91, DW_AT_decl_column(0x10)
    2686                    
    2687                    $C$DW$T$69      .dwtag  DW_TAG_typedef
    2688                            .dwattr $C$DW$T$69, DW_AT_name("TaskHandle_t")
    2689                            .dwattr $C$DW$T$69, DW_AT_type(*$C$DW$T$3)
    2690                            .dwattr $C$DW$T$69, DW_AT_language(DW_LANG_C)
    2691                            .dwattr $C$DW$T$69, DW_AT_decl_file("C:/TI_ARM_Tiva_Projects/Source/include/task.h")
    2692                            .dwattr $C$DW$T$69, DW_AT_decl_line(0x67)
    2693                            .dwattr $C$DW$T$69, DW_AT_decl_column(0x10)
    2694                    
    2695                    
    2696                    $C$DW$T$26      .dwtag  DW_TAG_subroutine_type
    2697                            .dwattr $C$DW$T$26, DW_AT_language(DW_LANG_C)
    2698                    $C$DW$228       .dwtag  DW_TAG_formal_parameter
TI ARM Assembler PC v15.12.1 Tue Oct 18 10:42:46 2016

Tools Copyright (c) 1996-2015 Texas Instruments Incorporated
Task_I2C7_Handler.asm                                                PAGE   51

    2699                            .dwattr $C$DW$228, DW_AT_type(*$C$DW$T$3)
    2700                    
    2701                    $C$DW$229       .dwtag  DW_TAG_formal_parameter
    2702                            .dwattr $C$DW$229, DW_AT_type(*$C$DW$T$25)
    2703                    
    2704                            .dwendtag $C$DW$T$26
    2705                    
    2706                    $C$DW$T$27      .dwtag  DW_TAG_typedef
    2707                            .dwattr $C$DW$T$27, DW_AT_name("tSensorCallback")
    2708                            .dwattr $C$DW$T$27, DW_AT_type(*$C$DW$T$26)
    2709                            .dwattr $C$DW$T$27, DW_AT_language(DW_LANG_C)
    2710                            .dwattr $C$DW$T$27, DW_AT_decl_file("C:/TI_CodeComposer/TivaWare/sensorlib/i2cm_drv.h")
    2711                            .dwattr $C$DW$T$27, DW_AT_decl_line(0x2c)
    2712                            .dwattr $C$DW$T$27, DW_AT_decl_column(0x0f)
    2713                    
    2714                    $C$DW$T$28      .dwtag  DW_TAG_pointer_type
    2715                            .dwattr $C$DW$T$28, DW_AT_type(*$C$DW$T$27)
    2716                            .dwattr $C$DW$T$28, DW_AT_address_class(0x20)
    2717                    
    2718                    
    2719                    $C$DW$T$57      .dwtag  DW_TAG_subroutine_type
    2720                            .dwattr $C$DW$T$57, DW_AT_language(DW_LANG_C)
    2721                    $C$DW$230       .dwtag  DW_TAG_formal_parameter
    2722                            .dwattr $C$DW$230, DW_AT_type(*$C$DW$T$3)
    2723                    
    2724                            .dwendtag $C$DW$T$57
    2725                    
    2726                    $C$DW$T$58      .dwtag  DW_TAG_pointer_type
    2727                            .dwattr $C$DW$T$58, DW_AT_type(*$C$DW$T$57)
    2728                            .dwattr $C$DW$T$58, DW_AT_address_class(0x20)
    2729                    
    2730                    $C$DW$T$59      .dwtag  DW_TAG_typedef
    2731                            .dwattr $C$DW$T$59, DW_AT_name("TaskFunction_t")
    2732                            .dwattr $C$DW$T$59, DW_AT_type(*$C$DW$T$58)
    2733                            .dwattr $C$DW$T$59, DW_AT_language(DW_LANG_C)
    2734                            .dwattr $C$DW$T$59, DW_AT_decl_file("C:\TI_ARM_Tiva_Projects\Source\include\projdefs.h")
    2735                            .dwattr $C$DW$T$59, DW_AT_decl_line(0x4d)
    2736                            .dwattr $C$DW$T$59, DW_AT_decl_column(0x10)
    2737                    
    2738                    $C$DW$T$4       .dwtag  DW_TAG_base_type
    2739                            .dwattr $C$DW$T$4, DW_AT_encoding(DW_ATE_boolean)
    2740                            .dwattr $C$DW$T$4, DW_AT_name("bool")
    2741                            .dwattr $C$DW$T$4, DW_AT_byte_size(0x01)
    2742                    
    2743                    $C$DW$T$5       .dwtag  DW_TAG_base_type
    2744                            .dwattr $C$DW$T$5, DW_AT_encoding(DW_ATE_signed_char)
    2745                            .dwattr $C$DW$T$5, DW_AT_name("signed char")
    2746                            .dwattr $C$DW$T$5, DW_AT_byte_size(0x01)
    2747                    
    2748                    $C$DW$T$108     .dwtag  DW_TAG_typedef
    2749                            .dwattr $C$DW$T$108, DW_AT_name("int8_t")
    2750                            .dwattr $C$DW$T$108, DW_AT_type(*$C$DW$T$5)
    2751                            .dwattr $C$DW$T$108, DW_AT_language(DW_LANG_C)
    2752                            .dwattr $C$DW$T$108, DW_AT_decl_file("C:/TI_CodeComposer/ccsv6/tools/compiler/ti-cgt-arm_15.12
    2753                            .dwattr $C$DW$T$108, DW_AT_decl_line(0x2a)
TI ARM Assembler PC v15.12.1 Tue Oct 18 10:42:46 2016

Tools Copyright (c) 1996-2015 Texas Instruments Incorporated
Task_I2C7_Handler.asm                                                PAGE   52

    2754                            .dwattr $C$DW$T$108, DW_AT_decl_column(0x1d)
    2755                    
    2756                    $C$DW$T$109     .dwtag  DW_TAG_typedef
    2757                            .dwattr $C$DW$T$109, DW_AT_name("int_least8_t")
    2758                            .dwattr $C$DW$T$109, DW_AT_type(*$C$DW$T$108)
    2759                            .dwattr $C$DW$T$109, DW_AT_language(DW_LANG_C)
    2760                            .dwattr $C$DW$T$109, DW_AT_decl_file("C:/TI_CodeComposer/ccsv6/tools/compiler/ti-cgt-arm_15.12
    2761                            .dwattr $C$DW$T$109, DW_AT_decl_line(0x37)
    2762                            .dwattr $C$DW$T$109, DW_AT_decl_column(0x17)
    2763                    
    2764                    $C$DW$T$6       .dwtag  DW_TAG_base_type
    2765                            .dwattr $C$DW$T$6, DW_AT_encoding(DW_ATE_unsigned_char)
    2766                            .dwattr $C$DW$T$6, DW_AT_name("unsigned char")
    2767                            .dwattr $C$DW$T$6, DW_AT_byte_size(0x01)
    2768                    
    2769                    $C$DW$T$42      .dwtag  DW_TAG_pointer_type
    2770                            .dwattr $C$DW$T$42, DW_AT_type(*$C$DW$T$6)
    2771                            .dwattr $C$DW$T$42, DW_AT_address_class(0x20)
    2772                    
    2773                    $C$DW$T$19      .dwtag  DW_TAG_typedef
    2774                            .dwattr $C$DW$T$19, DW_AT_name("uint8_t")
    2775                            .dwattr $C$DW$T$19, DW_AT_type(*$C$DW$T$6)
    2776                            .dwattr $C$DW$T$19, DW_AT_language(DW_LANG_C)
    2777                            .dwattr $C$DW$T$19, DW_AT_decl_file("C:/TI_CodeComposer/ccsv6/tools/compiler/ti-cgt-arm_15.12.
    2778                            .dwattr $C$DW$T$19, DW_AT_decl_line(0x2b)
    2779                            .dwattr $C$DW$T$19, DW_AT_decl_column(0x1c)
    2780                    
    2781                    $C$DW$T$23      .dwtag  DW_TAG_pointer_type
    2782                            .dwattr $C$DW$T$23, DW_AT_type(*$C$DW$T$19)
    2783                            .dwattr $C$DW$T$23, DW_AT_address_class(0x20)
    2784                    
    2785                    
    2786                    $C$DW$T$35      .dwtag  DW_TAG_array_type
    2787                            .dwattr $C$DW$T$35, DW_AT_type(*$C$DW$T$19)
    2788                            .dwattr $C$DW$T$35, DW_AT_language(DW_LANG_C)
    2789                            .dwattr $C$DW$T$35, DW_AT_byte_size(0x04)
    2790                    $C$DW$231       .dwtag  DW_TAG_subrange_type
    2791                            .dwattr $C$DW$231, DW_AT_upper_bound(0x03)
    2792                    
    2793                            .dwendtag $C$DW$T$35
    2794                    
    2795                    
    2796                    $C$DW$T$38      .dwtag  DW_TAG_array_type
    2797                            .dwattr $C$DW$T$38, DW_AT_type(*$C$DW$T$19)
    2798                            .dwattr $C$DW$T$38, DW_AT_language(DW_LANG_C)
    2799                            .dwattr $C$DW$T$38, DW_AT_byte_size(0x02)
    2800                    $C$DW$232       .dwtag  DW_TAG_subrange_type
    2801                            .dwattr $C$DW$232, DW_AT_upper_bound(0x01)
    2802                    
    2803                            .dwendtag $C$DW$T$38
    2804                    
    2805                    
    2806                    $C$DW$T$110     .dwtag  DW_TAG_array_type
    2807                            .dwattr $C$DW$T$110, DW_AT_type(*$C$DW$T$19)
    2808                            .dwattr $C$DW$T$110, DW_AT_language(DW_LANG_C)
TI ARM Assembler PC v15.12.1 Tue Oct 18 10:42:46 2016

Tools Copyright (c) 1996-2015 Texas Instruments Incorporated
Task_I2C7_Handler.asm                                                PAGE   53

    2809                            .dwattr $C$DW$T$110, DW_AT_byte_size(0x08)
    2810                    $C$DW$233       .dwtag  DW_TAG_subrange_type
    2811                            .dwattr $C$DW$233, DW_AT_upper_bound(0x07)
    2812                    
    2813                            .dwendtag $C$DW$T$110
    2814                    
    2815                    $C$DW$T$111     .dwtag  DW_TAG_typedef
    2816                            .dwattr $C$DW$T$111, DW_AT_name("portCHAR")
    2817                            .dwattr $C$DW$T$111, DW_AT_type(*$C$DW$T$19)
    2818                            .dwattr $C$DW$T$111, DW_AT_language(DW_LANG_C)
    2819                            .dwattr $C$DW$T$111, DW_AT_decl_file("C:/TI_ARM_Tiva_Projects/Source/portable/CCS/ARM_CM4F/por
    2820                            .dwattr $C$DW$T$111, DW_AT_decl_line(0x60)
    2821                            .dwattr $C$DW$T$111, DW_AT_decl_column(0x12)
    2822                    
    2823                    $C$DW$T$20      .dwtag  DW_TAG_const_type
    2824                            .dwattr $C$DW$T$20, DW_AT_type(*$C$DW$T$19)
    2825                    
    2826                    $C$DW$T$21      .dwtag  DW_TAG_pointer_type
    2827                            .dwattr $C$DW$T$21, DW_AT_type(*$C$DW$T$20)
    2828                            .dwattr $C$DW$T$21, DW_AT_address_class(0x20)
    2829                    
    2830                    $C$DW$T$112     .dwtag  DW_TAG_typedef
    2831                            .dwattr $C$DW$T$112, DW_AT_name("uint_least8_t")
    2832                            .dwattr $C$DW$T$112, DW_AT_type(*$C$DW$T$19)
    2833                            .dwattr $C$DW$T$112, DW_AT_language(DW_LANG_C)
    2834                            .dwattr $C$DW$T$112, DW_AT_decl_file("C:/TI_CodeComposer/ccsv6/tools/compiler/ti-cgt-arm_15.12
    2835                            .dwattr $C$DW$T$112, DW_AT_decl_line(0x38)
    2836                            .dwattr $C$DW$T$112, DW_AT_decl_column(0x16)
    2837                    
    2838                    $C$DW$T$7       .dwtag  DW_TAG_base_type
    2839                            .dwattr $C$DW$T$7, DW_AT_encoding(DW_ATE_signed_char)
    2840                            .dwattr $C$DW$T$7, DW_AT_name("wchar_t")
    2841                            .dwattr $C$DW$T$7, DW_AT_byte_size(0x02)
    2842                    
    2843                    $C$DW$T$8       .dwtag  DW_TAG_base_type
    2844                            .dwattr $C$DW$T$8, DW_AT_encoding(DW_ATE_signed)
    2845                            .dwattr $C$DW$T$8, DW_AT_name("short")
    2846                            .dwattr $C$DW$T$8, DW_AT_byte_size(0x02)
    2847                    
    2848                    $C$DW$T$113     .dwtag  DW_TAG_typedef
    2849                            .dwattr $C$DW$T$113, DW_AT_name("int16_t")
    2850                            .dwattr $C$DW$T$113, DW_AT_type(*$C$DW$T$8)
    2851                            .dwattr $C$DW$T$113, DW_AT_language(DW_LANG_C)
    2852                            .dwattr $C$DW$T$113, DW_AT_decl_file("C:/TI_CodeComposer/ccsv6/tools/compiler/ti-cgt-arm_15.12
    2853                            .dwattr $C$DW$T$113, DW_AT_decl_line(0x2c)
    2854                            .dwattr $C$DW$T$113, DW_AT_decl_column(0x1d)
    2855                    
    2856                    $C$DW$T$114     .dwtag  DW_TAG_typedef
    2857                            .dwattr $C$DW$T$114, DW_AT_name("int_least16_t")
    2858                            .dwattr $C$DW$T$114, DW_AT_type(*$C$DW$T$113)
    2859                            .dwattr $C$DW$T$114, DW_AT_language(DW_LANG_C)
    2860                            .dwattr $C$DW$T$114, DW_AT_decl_file("C:/TI_CodeComposer/ccsv6/tools/compiler/ti-cgt-arm_15.12
    2861                            .dwattr $C$DW$T$114, DW_AT_decl_line(0x3a)
    2862                            .dwattr $C$DW$T$114, DW_AT_decl_column(0x17)
    2863                    
TI ARM Assembler PC v15.12.1 Tue Oct 18 10:42:46 2016

Tools Copyright (c) 1996-2015 Texas Instruments Incorporated
Task_I2C7_Handler.asm                                                PAGE   54

    2864                    $C$DW$T$115     .dwtag  DW_TAG_typedef
    2865                            .dwattr $C$DW$T$115, DW_AT_name("portSHORT")
    2866                            .dwattr $C$DW$T$115, DW_AT_type(*$C$DW$T$113)
    2867                            .dwattr $C$DW$T$115, DW_AT_language(DW_LANG_C)
    2868                            .dwattr $C$DW$T$115, DW_AT_decl_file("C:/TI_ARM_Tiva_Projects/Source/portable/CCS/ARM_CM4F/por
    2869                            .dwattr $C$DW$T$115, DW_AT_decl_line(0x64)
    2870                            .dwattr $C$DW$T$115, DW_AT_decl_column(0x12)
    2871                    
    2872                    $C$DW$T$9       .dwtag  DW_TAG_base_type
    2873                            .dwattr $C$DW$T$9, DW_AT_encoding(DW_ATE_unsigned)
    2874                            .dwattr $C$DW$T$9, DW_AT_name("unsigned short")
    2875                            .dwattr $C$DW$T$9, DW_AT_byte_size(0x02)
    2876                    
    2877                    $C$DW$T$22      .dwtag  DW_TAG_typedef
    2878                            .dwattr $C$DW$T$22, DW_AT_name("uint16_t")
    2879                            .dwattr $C$DW$T$22, DW_AT_type(*$C$DW$T$9)
    2880                            .dwattr $C$DW$T$22, DW_AT_language(DW_LANG_C)
    2881                            .dwattr $C$DW$T$22, DW_AT_decl_file("C:/TI_CodeComposer/ccsv6/tools/compiler/ti-cgt-arm_15.12.
    2882                            .dwattr $C$DW$T$22, DW_AT_decl_line(0x2d)
    2883                            .dwattr $C$DW$T$22, DW_AT_decl_column(0x1c)
    2884                    
    2885                    $C$DW$T$116     .dwtag  DW_TAG_typedef
    2886                            .dwattr $C$DW$T$116, DW_AT_name("uint_least16_t")
    2887                            .dwattr $C$DW$T$116, DW_AT_type(*$C$DW$T$22)
    2888                            .dwattr $C$DW$T$116, DW_AT_language(DW_LANG_C)
    2889                            .dwattr $C$DW$T$116, DW_AT_decl_file("C:/TI_CodeComposer/ccsv6/tools/compiler/ti-cgt-arm_15.12
    2890                            .dwattr $C$DW$T$116, DW_AT_decl_line(0x3b)
    2891                            .dwattr $C$DW$T$116, DW_AT_decl_column(0x16)
    2892                    
    2893                    $C$DW$T$117     .dwtag  DW_TAG_typedef
    2894                            .dwattr $C$DW$T$117, DW_AT_name("wchar_t")
    2895                            .dwattr $C$DW$T$117, DW_AT_type(*$C$DW$T$9)
    2896                            .dwattr $C$DW$T$117, DW_AT_language(DW_LANG_C)
    2897                            .dwattr $C$DW$T$117, DW_AT_decl_file("C:/TI_CodeComposer/ccsv6/tools/compiler/ti-cgt-arm_15.12
    2898                            .dwattr $C$DW$T$117, DW_AT_decl_line(0x41)
    2899                            .dwattr $C$DW$T$117, DW_AT_decl_column(0x1a)
    2900                    
    2901                    $C$DW$T$10      .dwtag  DW_TAG_base_type
    2902                            .dwattr $C$DW$T$10, DW_AT_encoding(DW_ATE_signed)
    2903                            .dwattr $C$DW$T$10, DW_AT_name("int")
    2904                            .dwattr $C$DW$T$10, DW_AT_byte_size(0x04)
    2905                    
    2906                    $C$DW$T$73      .dwtag  DW_TAG_typedef
    2907                            .dwattr $C$DW$T$73, DW_AT_name("int32_t")
    2908                            .dwattr $C$DW$T$73, DW_AT_type(*$C$DW$T$10)
    2909                            .dwattr $C$DW$T$73, DW_AT_language(DW_LANG_C)
    2910                            .dwattr $C$DW$T$73, DW_AT_decl_file("C:/TI_CodeComposer/ccsv6/tools/compiler/ti-cgt-arm_15.12.
    2911                            .dwattr $C$DW$T$73, DW_AT_decl_line(0x2e)
    2912                            .dwattr $C$DW$T$73, DW_AT_decl_column(0x1d)
    2913                    
    2914                    $C$DW$T$74      .dwtag  DW_TAG_typedef
    2915                            .dwattr $C$DW$T$74, DW_AT_name("BaseType_t")
    2916                            .dwattr $C$DW$T$74, DW_AT_type(*$C$DW$T$73)
    2917                            .dwattr $C$DW$T$74, DW_AT_language(DW_LANG_C)
    2918                            .dwattr $C$DW$T$74, DW_AT_decl_file("C:/TI_ARM_Tiva_Projects/Source/portable/CCS/ARM_CM4F/port
TI ARM Assembler PC v15.12.1 Tue Oct 18 10:42:46 2016

Tools Copyright (c) 1996-2015 Texas Instruments Incorporated
Task_I2C7_Handler.asm                                                PAGE   55

    2919                            .dwattr $C$DW$T$74, DW_AT_decl_line(0x69)
    2920                            .dwattr $C$DW$T$74, DW_AT_decl_column(0x12)
    2921                    
    2922                    
    2923                    $C$DW$T$118     .dwtag  DW_TAG_subroutine_type
    2924                            .dwattr $C$DW$T$118, DW_AT_type(*$C$DW$T$74)
    2925                            .dwattr $C$DW$T$118, DW_AT_language(DW_LANG_C)
    2926                    $C$DW$234       .dwtag  DW_TAG_formal_parameter
    2927                            .dwattr $C$DW$234, DW_AT_type(*$C$DW$T$3)
    2928                    
    2929                            .dwendtag $C$DW$T$118
    2930                    
    2931                    $C$DW$T$119     .dwtag  DW_TAG_pointer_type
    2932                            .dwattr $C$DW$T$119, DW_AT_type(*$C$DW$T$118)
    2933                            .dwattr $C$DW$T$119, DW_AT_address_class(0x20)
    2934                    
    2935                    $C$DW$T$120     .dwtag  DW_TAG_typedef
    2936                            .dwattr $C$DW$T$120, DW_AT_name("TaskHookFunction_t")
    2937                            .dwattr $C$DW$T$120, DW_AT_type(*$C$DW$T$119)
    2938                            .dwattr $C$DW$T$120, DW_AT_language(DW_LANG_C)
    2939                            .dwattr $C$DW$T$120, DW_AT_decl_file("C:/TI_ARM_Tiva_Projects/Source/include/task.h")
    2940                            .dwattr $C$DW$T$120, DW_AT_decl_line(0x6d)
    2941                            .dwattr $C$DW$T$120, DW_AT_decl_column(0x16)
    2942                    
    2943                    $C$DW$T$121     .dwtag  DW_TAG_typedef
    2944                            .dwattr $C$DW$T$121, DW_AT_name("int_fast16_t")
    2945                            .dwattr $C$DW$T$121, DW_AT_type(*$C$DW$T$73)
    2946                            .dwattr $C$DW$T$121, DW_AT_language(DW_LANG_C)
    2947                            .dwattr $C$DW$T$121, DW_AT_decl_file("C:/TI_CodeComposer/ccsv6/tools/compiler/ti-cgt-arm_15.12
    2948                            .dwattr $C$DW$T$121, DW_AT_decl_line(0x47)
    2949                            .dwattr $C$DW$T$121, DW_AT_decl_column(0x17)
    2950                    
    2951                    $C$DW$T$122     .dwtag  DW_TAG_typedef
    2952                            .dwattr $C$DW$T$122, DW_AT_name("int_fast32_t")
    2953                            .dwattr $C$DW$T$122, DW_AT_type(*$C$DW$T$73)
    2954                            .dwattr $C$DW$T$122, DW_AT_language(DW_LANG_C)
    2955                            .dwattr $C$DW$T$122, DW_AT_decl_file("C:/TI_CodeComposer/ccsv6/tools/compiler/ti-cgt-arm_15.12
    2956                            .dwattr $C$DW$T$122, DW_AT_decl_line(0x4a)
    2957                            .dwattr $C$DW$T$122, DW_AT_decl_column(0x17)
    2958                    
    2959                    $C$DW$T$123     .dwtag  DW_TAG_typedef
    2960                            .dwattr $C$DW$T$123, DW_AT_name("int_fast8_t")
    2961                            .dwattr $C$DW$T$123, DW_AT_type(*$C$DW$T$73)
    2962                            .dwattr $C$DW$T$123, DW_AT_language(DW_LANG_C)
    2963                            .dwattr $C$DW$T$123, DW_AT_decl_file("C:/TI_CodeComposer/ccsv6/tools/compiler/ti-cgt-arm_15.12
    2964                            .dwattr $C$DW$T$123, DW_AT_decl_line(0x45)
    2965                            .dwattr $C$DW$T$123, DW_AT_decl_column(0x17)
    2966                    
    2967                    $C$DW$T$124     .dwtag  DW_TAG_typedef
    2968                            .dwattr $C$DW$T$124, DW_AT_name("int_least32_t")
    2969                            .dwattr $C$DW$T$124, DW_AT_type(*$C$DW$T$73)
    2970                            .dwattr $C$DW$T$124, DW_AT_language(DW_LANG_C)
    2971                            .dwattr $C$DW$T$124, DW_AT_decl_file("C:/TI_CodeComposer/ccsv6/tools/compiler/ti-cgt-arm_15.12
    2972                            .dwattr $C$DW$T$124, DW_AT_decl_line(0x3c)
    2973                            .dwattr $C$DW$T$124, DW_AT_decl_column(0x17)
TI ARM Assembler PC v15.12.1 Tue Oct 18 10:42:46 2016

Tools Copyright (c) 1996-2015 Texas Instruments Incorporated
Task_I2C7_Handler.asm                                                PAGE   56

    2974                    
    2975                    $C$DW$T$125     .dwtag  DW_TAG_typedef
    2976                            .dwattr $C$DW$T$125, DW_AT_name("portBASE_TYPE")
    2977                            .dwattr $C$DW$T$125, DW_AT_type(*$C$DW$T$73)
    2978                            .dwattr $C$DW$T$125, DW_AT_language(DW_LANG_C)
    2979                            .dwattr $C$DW$T$125, DW_AT_decl_file("C:/TI_ARM_Tiva_Projects/Source/portable/CCS/ARM_CM4F/por
    2980                            .dwattr $C$DW$T$125, DW_AT_decl_line(0x66)
    2981                            .dwattr $C$DW$T$125, DW_AT_decl_column(0x12)
    2982                    
    2983                    $C$DW$T$126     .dwtag  DW_TAG_typedef
    2984                            .dwattr $C$DW$T$126, DW_AT_name("portLONG")
    2985                            .dwattr $C$DW$T$126, DW_AT_type(*$C$DW$T$73)
    2986                            .dwattr $C$DW$T$126, DW_AT_language(DW_LANG_C)
    2987                            .dwattr $C$DW$T$126, DW_AT_decl_file("C:/TI_ARM_Tiva_Projects/Source/portable/CCS/ARM_CM4F/por
    2988                            .dwattr $C$DW$T$126, DW_AT_decl_line(0x63)
    2989                            .dwattr $C$DW$T$126, DW_AT_decl_column(0x12)
    2990                    
    2991                    $C$DW$T$127     .dwtag  DW_TAG_typedef
    2992                            .dwattr $C$DW$T$127, DW_AT_name("intptr_t")
    2993                            .dwattr $C$DW$T$127, DW_AT_type(*$C$DW$T$10)
    2994                            .dwattr $C$DW$T$127, DW_AT_language(DW_LANG_C)
    2995                            .dwattr $C$DW$T$127, DW_AT_decl_file("C:/TI_CodeComposer/ccsv6/tools/compiler/ti-cgt-arm_15.12
    2996                            .dwattr $C$DW$T$127, DW_AT_decl_line(0x52)
    2997                            .dwattr $C$DW$T$127, DW_AT_decl_column(0x1a)
    2998                    
    2999                    $C$DW$T$128     .dwtag  DW_TAG_typedef
    3000                            .dwattr $C$DW$T$128, DW_AT_name("ptrdiff_t")
    3001                            .dwattr $C$DW$T$128, DW_AT_type(*$C$DW$T$10)
    3002                            .dwattr $C$DW$T$128, DW_AT_language(DW_LANG_C)
    3003                            .dwattr $C$DW$T$128, DW_AT_decl_file("C:/TI_CodeComposer/ccsv6/tools/compiler/ti-cgt-arm_15.12
    3004                            .dwattr $C$DW$T$128, DW_AT_decl_line(0x36)
    3005                            .dwattr $C$DW$T$128, DW_AT_decl_column(0x1c)
    3006                    
    3007                    $C$DW$T$11      .dwtag  DW_TAG_base_type
    3008                            .dwattr $C$DW$T$11, DW_AT_encoding(DW_ATE_unsigned)
    3009                            .dwattr $C$DW$T$11, DW_AT_name("unsigned int")
    3010                            .dwattr $C$DW$T$11, DW_AT_byte_size(0x04)
    3011                    
    3012                    $C$DW$T$44      .dwtag  DW_TAG_typedef
    3013                            .dwattr $C$DW$T$44, DW_AT_name("size_t")
    3014                            .dwattr $C$DW$T$44, DW_AT_type(*$C$DW$T$11)
    3015                            .dwattr $C$DW$T$44, DW_AT_language(DW_LANG_C)
    3016                            .dwattr $C$DW$T$44, DW_AT_decl_file("C:/TI_CodeComposer/ccsv6/tools/compiler/ti-cgt-arm_15.12.
    3017                            .dwattr $C$DW$T$44, DW_AT_decl_line(0x3a)
    3018                            .dwattr $C$DW$T$44, DW_AT_decl_column(0x19)
    3019                    
    3020                    $C$DW$T$24      .dwtag  DW_TAG_typedef
    3021                            .dwattr $C$DW$T$24, DW_AT_name("uint32_t")
    3022                            .dwattr $C$DW$T$24, DW_AT_type(*$C$DW$T$11)
    3023                            .dwattr $C$DW$T$24, DW_AT_language(DW_LANG_C)
    3024                            .dwattr $C$DW$T$24, DW_AT_decl_file("C:/TI_CodeComposer/ccsv6/tools/compiler/ti-cgt-arm_15.12.
    3025                            .dwattr $C$DW$T$24, DW_AT_decl_line(0x2f)
    3026                            .dwattr $C$DW$T$24, DW_AT_decl_column(0x1c)
    3027                    
    3028                    $C$DW$T$64      .dwtag  DW_TAG_typedef
TI ARM Assembler PC v15.12.1 Tue Oct 18 10:42:46 2016

Tools Copyright (c) 1996-2015 Texas Instruments Incorporated
Task_I2C7_Handler.asm                                                PAGE   57

    3029                            .dwattr $C$DW$T$64, DW_AT_name("StackType_t")
    3030                            .dwattr $C$DW$T$64, DW_AT_type(*$C$DW$T$24)
    3031                            .dwattr $C$DW$T$64, DW_AT_language(DW_LANG_C)
    3032                            .dwattr $C$DW$T$64, DW_AT_decl_file("C:/TI_ARM_Tiva_Projects/Source/portable/CCS/ARM_CM4F/port
    3033                            .dwattr $C$DW$T$64, DW_AT_decl_line(0x68)
    3034                            .dwattr $C$DW$T$64, DW_AT_decl_column(0x12)
    3035                    
    3036                    $C$DW$T$65      .dwtag  DW_TAG_pointer_type
    3037                            .dwattr $C$DW$T$65, DW_AT_type(*$C$DW$T$64)
    3038                            .dwattr $C$DW$T$65, DW_AT_address_class(0x20)
    3039                    
    3040                    $C$DW$T$52      .dwtag  DW_TAG_typedef
    3041                            .dwattr $C$DW$T$52, DW_AT_name("TickType_t")
    3042                            .dwattr $C$DW$T$52, DW_AT_type(*$C$DW$T$24)
    3043                            .dwattr $C$DW$T$52, DW_AT_language(DW_LANG_C)
    3044                            .dwattr $C$DW$T$52, DW_AT_decl_file("C:/TI_ARM_Tiva_Projects/Source/portable/CCS/ARM_CM4F/port
    3045                            .dwattr $C$DW$T$52, DW_AT_decl_line(0x70)
