TI ARM Assembler PC v15.12.1 Tue Oct 18 10:42:39 2016

Tools Copyright (c) 1996-2015 Texas Instruments Incorporated
Processor_Initialization_TM4C1294.asm                                PAGE    1

       1                    ;******************************************************************************
       2                    ;* TI ARM C/C++ Codegen                                       PC v15.12.1.LTS *
       3                    ;* Date/Time created: Tue Oct 18 10:42:39 2016                                *
       4                    ;******************************************************************************
       5                            .compiler_opts --abi=eabi --arm_vmrs_si_workaround=off --code_state=16 --diag_wrap=off --disab
       6 00000000                   .thumb
       7                    
       8                    $C$DW$CU        .dwtag  DW_TAG_compile_unit
       9                            .dwattr $C$DW$CU, DW_AT_name("../Drivers/Processor_Initialization_TM4C1294.c")
      10                            .dwattr $C$DW$CU, DW_AT_producer("TI TI ARM C/C++ Codegen PC v15.12.1.LTS Copyright (c) 1996-2
      11                            .dwattr $C$DW$CU, DW_AT_TI_version(0x01)
      12                            .dwattr $C$DW$CU, DW_AT_comp_dir("C:\TI_ARM_Tiva_Projects\Proj2_Magnetometer\Debug")
      13                    
      14                    $C$DW$1 .dwtag  DW_TAG_subprogram
      15                            .dwattr $C$DW$1, DW_AT_name("GPIOPinConfigure")
      16                            .dwattr $C$DW$1, DW_AT_TI_symbol_name("GPIOPinConfigure")
      17                            .dwattr $C$DW$1, DW_AT_declaration
      18                            .dwattr $C$DW$1, DW_AT_external
      19                            .dwattr $C$DW$1, DW_AT_decl_file("C:/TI_CodeComposer/TivaWare/driverlib/gpio.h")
      20                            .dwattr $C$DW$1, DW_AT_decl_line(0x9f)
      21                            .dwattr $C$DW$1, DW_AT_decl_column(0x0d)
      22                    $C$DW$2 .dwtag  DW_TAG_formal_parameter
      23                            .dwattr $C$DW$2, DW_AT_type(*$C$DW$T$20)
      24                    
      25                            .dwendtag $C$DW$1
      26                    
      27                    
      28                    $C$DW$3 .dwtag  DW_TAG_subprogram
      29                            .dwattr $C$DW$3, DW_AT_name("GPIOPinTypeUART")
      30                            .dwattr $C$DW$3, DW_AT_TI_symbol_name("GPIOPinTypeUART")
      31                            .dwattr $C$DW$3, DW_AT_declaration
      32                            .dwattr $C$DW$3, DW_AT_external
      33                            .dwattr $C$DW$3, DW_AT_decl_file("C:/TI_CodeComposer/TivaWare/driverlib/gpio.h")
      34                            .dwattr $C$DW$3, DW_AT_decl_line(0xb5)
      35                            .dwattr $C$DW$3, DW_AT_decl_column(0x0d)
      36                    $C$DW$4 .dwtag  DW_TAG_formal_parameter
      37                            .dwattr $C$DW$4, DW_AT_type(*$C$DW$T$20)
      38                    
      39                    $C$DW$5 .dwtag  DW_TAG_formal_parameter
      40                            .dwattr $C$DW$5, DW_AT_type(*$C$DW$T$23)
      41                    
      42                            .dwendtag $C$DW$3
      43                    
      44                    
      45                    $C$DW$6 .dwtag  DW_TAG_subprogram
      46                            .dwattr $C$DW$6, DW_AT_name("SysCtlPeripheralEnable")
      47                            .dwattr $C$DW$6, DW_AT_TI_symbol_name("SysCtlPeripheralEnable")
      48                            .dwattr $C$DW$6, DW_AT_declaration
      49                            .dwattr $C$DW$6, DW_AT_external
      50                            .dwattr $C$DW$6, DW_AT_decl_file("C:/TI_CodeComposer/TivaWare/driverlib/sysctl.h")
      51                            .dwattr $C$DW$6, DW_AT_decl_line(0x24e)
      52                            .dwattr $C$DW$6, DW_AT_decl_column(0x0d)
      53                    $C$DW$7 .dwtag  DW_TAG_formal_parameter
      54                            .dwattr $C$DW$7, DW_AT_type(*$C$DW$T$20)
      55                    
TI ARM Assembler PC v15.12.1 Tue Oct 18 10:42:39 2016

Tools Copyright (c) 1996-2015 Texas Instruments Incorporated
Processor_Initialization_TM4C1294.asm                                PAGE    2

      56                            .dwendtag $C$DW$6
      57                    
      58                    
      59                    $C$DW$8 .dwtag  DW_TAG_subprogram
      60                            .dwattr $C$DW$8, DW_AT_name("SysCtlClockFreqSet")
      61                            .dwattr $C$DW$8, DW_AT_TI_symbol_name("SysCtlClockFreqSet")
      62                            .dwattr $C$DW$8, DW_AT_type(*$C$DW$T$20)
      63                            .dwattr $C$DW$8, DW_AT_declaration
      64                            .dwattr $C$DW$8, DW_AT_external
      65                            .dwattr $C$DW$8, DW_AT_decl_file("C:/TI_CodeComposer/TivaWare/driverlib/sysctl.h")
      66                            .dwattr $C$DW$8, DW_AT_decl_line(0x27a)
      67                            .dwattr $C$DW$8, DW_AT_decl_column(0x11)
      68                    $C$DW$9 .dwtag  DW_TAG_formal_parameter
      69                            .dwattr $C$DW$9, DW_AT_type(*$C$DW$T$20)
      70                    
      71                    $C$DW$10        .dwtag  DW_TAG_formal_parameter
      72                            .dwattr $C$DW$10, DW_AT_type(*$C$DW$T$20)
      73                    
      74                            .dwendtag $C$DW$8
      75                    
      76                    
      77                    $C$DW$11        .dwtag  DW_TAG_subprogram
      78                            .dwattr $C$DW$11, DW_AT_name("UARTClockSourceSet")
      79                            .dwattr $C$DW$11, DW_AT_TI_symbol_name("UARTClockSourceSet")
      80                            .dwattr $C$DW$11, DW_AT_declaration
      81                            .dwattr $C$DW$11, DW_AT_external
      82                            .dwattr $C$DW$11, DW_AT_decl_file("C:/TI_CodeComposer/TivaWare/driverlib/uart.h")
      83                            .dwattr $C$DW$11, DW_AT_decl_line(0xee)
      84                            .dwattr $C$DW$11, DW_AT_decl_column(0x0d)
      85                    $C$DW$12        .dwtag  DW_TAG_formal_parameter
      86                            .dwattr $C$DW$12, DW_AT_type(*$C$DW$T$20)
      87                    
      88                    $C$DW$13        .dwtag  DW_TAG_formal_parameter
      89                            .dwattr $C$DW$13, DW_AT_type(*$C$DW$T$20)
      90                    
      91                            .dwendtag $C$DW$11
      92                    
      93                    
      94                    $C$DW$14        .dwtag  DW_TAG_subprogram
      95                            .dwattr $C$DW$14, DW_AT_name("UARTStdioConfig")
      96                            .dwattr $C$DW$14, DW_AT_TI_symbol_name("UARTStdioConfig")
      97                            .dwattr $C$DW$14, DW_AT_declaration
      98                            .dwattr $C$DW$14, DW_AT_external
      99                            .dwattr $C$DW$14, DW_AT_decl_file("C:/TI_ARM_Tiva_Projects/Proj2_Magnetometer/Drivers/uartstdi
     100                            .dwattr $C$DW$14, DW_AT_decl_line(0x3d)
     101                            .dwattr $C$DW$14, DW_AT_decl_column(0x0d)
     102                    $C$DW$15        .dwtag  DW_TAG_formal_parameter
     103                            .dwattr $C$DW$15, DW_AT_type(*$C$DW$T$20)
     104                    
     105                    $C$DW$16        .dwtag  DW_TAG_formal_parameter
     106                            .dwattr $C$DW$16, DW_AT_type(*$C$DW$T$20)
     107                    
     108                    $C$DW$17        .dwtag  DW_TAG_formal_parameter
     109                            .dwattr $C$DW$17, DW_AT_type(*$C$DW$T$20)
     110                    
TI ARM Assembler PC v15.12.1 Tue Oct 18 10:42:39 2016

Tools Copyright (c) 1996-2015 Texas Instruments Incorporated
Processor_Initialization_TM4C1294.asm                                PAGE    3

     111                            .dwendtag $C$DW$14
     112                    
     113                            .global g_ulSystemClock
     114 00000000                   .data
     115                            .align  4
     116                            .elfsym g_ulSystemClock,SYM_SIZE(4)
     117 00000000           g_ulSystemClock:
     118 00000000 00000000          .bits   0,32                    ; g_ulSystemClock @ 0
     119                    
     120                    $C$DW$18        .dwtag  DW_TAG_variable
     121                            .dwattr $C$DW$18, DW_AT_name("g_ulSystemClock")
     122                            .dwattr $C$DW$18, DW_AT_TI_symbol_name("g_ulSystemClock")
     123                            .dwattr $C$DW$18, DW_AT_location[DW_OP_addr g_ulSystemClock]
     124                            .dwattr $C$DW$18, DW_AT_type(*$C$DW$T$20)
     125                            .dwattr $C$DW$18, DW_AT_external
     126                            .dwattr $C$DW$18, DW_AT_decl_file("../Drivers/Processor_Initialization_TM4C1294.c")
     127                            .dwattr $C$DW$18, DW_AT_decl_line(0x25)
     128                            .dwattr $C$DW$18, DW_AT_decl_column(0x13)
     129                    
     130                            .global ProcessorInitFlag
     131 00000004                   .data
     132                            .align  4
     133                            .elfsym ProcessorInitFlag,SYM_SIZE(4)
     134 00000004           ProcessorInitFlag:
     135 00000004 00000000          .bits   0,32                    ; ProcessorInitFlag @ 0
     136                    
     137                    $C$DW$19        .dwtag  DW_TAG_variable
     138                            .dwattr $C$DW$19, DW_AT_name("ProcessorInitFlag")
     139                            .dwattr $C$DW$19, DW_AT_TI_symbol_name("ProcessorInitFlag")
     140                            .dwattr $C$DW$19, DW_AT_location[DW_OP_addr ProcessorInitFlag]
     141                            .dwattr $C$DW$19, DW_AT_type(*$C$DW$T$20)
     142                            .dwattr $C$DW$19, DW_AT_external
     143                            .dwattr $C$DW$19, DW_AT_decl_file("../Drivers/Processor_Initialization_TM4C1294.c")
     144                            .dwattr $C$DW$19, DW_AT_decl_line(0x27)
     145                            .dwattr $C$DW$19, DW_AT_decl_column(0x0e)
     146                    
     147                            .global UARTStdioInitFlag
     148 00000008                   .data
     149                            .align  4
     150                            .elfsym UARTStdioInitFlag,SYM_SIZE(4)
     151 00000008           UARTStdioInitFlag:
     152 00000008 00000000          .bits   0,32                    ; UARTStdioInitFlag @ 0
     153                    
     154                    $C$DW$20        .dwtag  DW_TAG_variable
     155                            .dwattr $C$DW$20, DW_AT_name("UARTStdioInitFlag")
     156                            .dwattr $C$DW$20, DW_AT_TI_symbol_name("UARTStdioInitFlag")
     157                            .dwattr $C$DW$20, DW_AT_location[DW_OP_addr UARTStdioInitFlag]
     158                            .dwattr $C$DW$20, DW_AT_type(*$C$DW$T$20)
     159                            .dwattr $C$DW$20, DW_AT_external
     160                            .dwattr $C$DW$20, DW_AT_decl_file("../Drivers/Processor_Initialization_TM4C1294.c")
     161                            .dwattr $C$DW$20, DW_AT_decl_line(0x28)
     162                            .dwattr $C$DW$20, DW_AT_decl_column(0x0e)
     163                    
     164                            .global FPUInitFlag
     165 0000000c                   .data
TI ARM Assembler PC v15.12.1 Tue Oct 18 10:42:39 2016

Tools Copyright (c) 1996-2015 Texas Instruments Incorporated
Processor_Initialization_TM4C1294.asm                                PAGE    4

     166                            .align  4
     167                            .elfsym FPUInitFlag,SYM_SIZE(4)
     168 0000000c           FPUInitFlag:
     169 0000000c 00000000          .bits   0,32                    ; FPUInitFlag @ 0
     170                    
     171                    $C$DW$21        .dwtag  DW_TAG_variable
     172                            .dwattr $C$DW$21, DW_AT_name("FPUInitFlag")
     173                            .dwattr $C$DW$21, DW_AT_TI_symbol_name("FPUInitFlag")
     174                            .dwattr $C$DW$21, DW_AT_location[DW_OP_addr FPUInitFlag]
     175                            .dwattr $C$DW$21, DW_AT_type(*$C$DW$T$20)
     176                            .dwattr $C$DW$21, DW_AT_external
     177                            .dwattr $C$DW$21, DW_AT_decl_file("../Drivers/Processor_Initialization_TM4C1294.c")
     178                            .dwattr $C$DW$21, DW_AT_decl_line(0x29)
     179                            .dwattr $C$DW$21, DW_AT_decl_column(0x0e)
     180                    
     181                    ;       C:\TI_CodeComposer\ccsv6\tools\compiler\ti-cgt-arm_15.12.1.LTS\bin\armacpia.exe -@C:\\Users\\R
     182 00000000                   .sect   ".text"
     183                            .clink
     184                            .thumbfunc Processor_Initialization
     185 00000000                   .thumb
     186                            .global Processor_Initialization
     187                    
     188                    $C$DW$22        .dwtag  DW_TAG_subprogram
     189                            .dwattr $C$DW$22, DW_AT_name("Processor_Initialization")
     190                            .dwattr $C$DW$22, DW_AT_low_pc(Processor_Initialization)
     191                            .dwattr $C$DW$22, DW_AT_high_pc(0x00)
     192                            .dwattr $C$DW$22, DW_AT_TI_symbol_name("Processor_Initialization")
     193                            .dwattr $C$DW$22, DW_AT_external
     194                            .dwattr $C$DW$22, DW_AT_type(*$C$DW$T$20)
     195                            .dwattr $C$DW$22, DW_AT_TI_begin_file("../Drivers/Processor_Initialization_TM4C1294.c")
     196                            .dwattr $C$DW$22, DW_AT_TI_begin_line(0x2f)
     197                            .dwattr $C$DW$22, DW_AT_TI_begin_column(0x11)
     198                            .dwattr $C$DW$22, DW_AT_decl_file("../Drivers/Processor_Initialization_TM4C1294.c")
     199                            .dwattr $C$DW$22, DW_AT_decl_line(0x2f)
     200                            .dwattr $C$DW$22, DW_AT_decl_column(0x11)
     201                            .dwattr $C$DW$22, DW_AT_TI_max_frame_size(0x08)
     202                            .dwpsn  file "../Drivers/Processor_Initialization_TM4C1294.c",line 47,column 44,is_stmt,addres
     203                    
     204                            .dwfde $C$DW$CIE, Processor_Initialization
     205                    
     206                    ;*****************************************************************************
     207                    ;* FUNCTION NAME: Processor_Initialization                                   *
     208                    ;*                                                                           *
     209                    ;*   Regs Modified     : A1,A2,A3,A4,V9,SP,LR,SR,D0,D0_hi,D1,D1_hi,D2,D2_hi, *
     210                    ;*                           D3,D3_hi,D4,D4_hi,D5,D5_hi,D6,D6_hi,D7,D7_hi,   *
     211                    ;*                           FPEXC,FPSCR                                     *
     212                    ;*   Regs Used         : A1,A2,A3,A4,V9,SP,LR,SR,D0,D0_hi,D1,D1_hi,D2,D2_hi, *
     213                    ;*                           D3,D3_hi,D4,D4_hi,D5,D5_hi,D6,D6_hi,D7,D7_hi,   *
     214                    ;*                           FPEXC,FPSCR                                     *
     215                    ;*   Local Frame Size  : 0 Args + 0 Auto + 4 Save = 4 byte                   *
     216                    ;*****************************************************************************
     217 00000000           Processor_Initialization:
     218                    ;* --------------------------------------------------------------------------*
     219                            .dwcfi  cfa_offset, 0
     220 00000000 B508              PUSH      {A4, LR}              ; [DPU_3_PIPE]  ; [ORIG 16-BIT INS]
TI ARM Assembler PC v15.12.1 Tue Oct 18 10:42:39 2016

Tools Copyright (c) 1996-2015 Texas Instruments Incorporated
Processor_Initialization_TM4C1294.asm                                PAGE    5

     221                            .dwcfi  cfa_offset, 8
     222                            .dwcfi  save_reg_to_mem, 14, -4
     223                            .dwcfi  save_reg_to_mem, 3, -8
     224                            .dwpsn  file "../Drivers/Processor_Initialization_TM4C1294.c",line 49,column 2,is_stmt,isa 1
     225 00000002 481C              LDR       A1, $C$CON1           ; [DPU_3_PIPE] |49|  ; [ORIG 16-BIT INS]
     226 00000004 6800              LDR       A1, [A1, #0]          ; [DPU_3_PIPE] |49|  ; [ORIG 16-BIT INS]
     227 00000006 B958              CBNZ      A1, ||$C$L1||         ; []  ; [ORIG 16-BIT INS]
     228                            ; BRANCHCC OCCURS {||$C$L1||}    ; [] |49| 
     229                    ;* --------------------------------------------------------------------------*
     230                            .dwpsn  file "../Drivers/Processor_Initialization_TM4C1294.c",line 53,column 3,is_stmt,isa 1
     231 00000008 481C              LDR       A1, $C$CON3           ; [DPU_3_PIPE] |53|  ; [ORIG 16-BIT INS]
     232 0000000a 491D              LDR       A2, $C$CON4           ; [DPU_3_PIPE] |53|  ; [ORIG 16-BIT INS]
     233                    $C$DW$23        .dwtag  DW_TAG_TI_branch
     234                            .dwattr $C$DW$23, DW_AT_low_pc(0x00)
     235                            .dwattr $C$DW$23, DW_AT_name("SysCtlClockFreqSet")
     236                            .dwattr $C$DW$23, DW_AT_TI_call
     237                    
     238 0000000c FFFEF7FF!         BL        SysCtlClockFreqSet    ; [DPU_3_PIPE] |53|  ; [KEEP 32-BIT INS]
     239                            ; CALL OCCURS {SysCtlClockFreqSet }  ; [] |53| 
     240 00000010 4919              LDR       A2, $C$CON2           ; [DPU_3_PIPE] |53|  ; [ORIG 16-BIT INS]
     241 00000012 6008              STR       A1, [A2, #0]          ; [DPU_3_PIPE] |53|  ; [ORIG 16-BIT INS]
     242                            .dwpsn  file "../Drivers/Processor_Initialization_TM4C1294.c",line 76,column 3,is_stmt,isa 1
     243 00000014 4917              LDR       A2, $C$CON1           ; [DPU_3_PIPE] |76|  ; [ORIG 16-BIT INS]
     244 00000016 2001              MOVS      A1, #1                ; [DPU_3_PIPE] |76|  ; [ORIG 16-BIT INS]
     245 00000018 6008              STR       A1, [A2, #0]          ; [DPU_3_PIPE] |76|  ; [ORIG 16-BIT INS]
     246                            .dwpsn  file "../Drivers/Processor_Initialization_TM4C1294.c",line 77,column 3,is_stmt,isa 1
     247 0000001a 491A              LDR       A2, $C$CON5           ; [DPU_3_PIPE] |77|  ; [ORIG 16-BIT INS]
     248 0000001c 2000              MOVS      A1, #0                ; [DPU_3_PIPE] |77|  ; [ORIG 16-BIT INS]
     249 0000001e 6008              STR       A1, [A2, #0]          ; [DPU_3_PIPE] |77|  ; [ORIG 16-BIT INS]
     250                    ;* --------------------------------------------------------------------------*
     251 00000020           ||$C$L1||:    
     252                            .dwpsn  file "../Drivers/Processor_Initialization_TM4C1294.c",line 80,column 5,is_stmt,isa 1
     253 00000020 2001              MOVS      A1, #1                ; [DPU_3_PIPE] |80|  ; [ORIG 16-BIT INS]
     254                            .dwpsn  file "../Drivers/Processor_Initialization_TM4C1294.c",line 82,column 2,is_stmt,isa 1
     255                    $C$DW$24        .dwtag  DW_TAG_TI_branch
     256                            .dwattr $C$DW$24, DW_AT_low_pc(0x00)
     257                            .dwattr $C$DW$24, DW_AT_TI_return
     258                    
     259 00000022 BD08              POP       {A4, PC}              ; [DPU_3_PIPE]  ; [ORIG 16-BIT INS]
     260                            .dwcfi  cfa_offset, 0
     261                            ; BRANCH OCCURS                  ; [] 
     262                            .dwattr $C$DW$22, DW_AT_TI_end_file("../Drivers/Processor_Initialization_TM4C1294.c")
     263                            .dwattr $C$DW$22, DW_AT_TI_end_line(0x52)
     264                            .dwattr $C$DW$22, DW_AT_TI_end_column(0x02)
     265                            .dwendentry
     266                            .dwendtag $C$DW$22
     267                    
     268 00000024                   .sect   ".text"
     269                            .clink
     270                            .thumbfunc UART_Initialization
     271 00000024                   .thumb
     272                            .global UART_Initialization
     273                    
     274                    $C$DW$25        .dwtag  DW_TAG_subprogram
     275                            .dwattr $C$DW$25, DW_AT_name("UART_Initialization")
TI ARM Assembler PC v15.12.1 Tue Oct 18 10:42:39 2016

Tools Copyright (c) 1996-2015 Texas Instruments Incorporated
Processor_Initialization_TM4C1294.asm                                PAGE    6

     276                            .dwattr $C$DW$25, DW_AT_low_pc(UART_Initialization)
     277                            .dwattr $C$DW$25, DW_AT_high_pc(0x00)
     278                            .dwattr $C$DW$25, DW_AT_TI_symbol_name("UART_Initialization")
     279                            .dwattr $C$DW$25, DW_AT_external
     280                            .dwattr $C$DW$25, DW_AT_type(*$C$DW$T$20)
     281                            .dwattr $C$DW$25, DW_AT_TI_begin_file("../Drivers/Processor_Initialization_TM4C1294.c")
     282                            .dwattr $C$DW$25, DW_AT_TI_begin_line(0x5b)
     283                            .dwattr $C$DW$25, DW_AT_TI_begin_column(0x11)
     284                            .dwattr $C$DW$25, DW_AT_decl_file("../Drivers/Processor_Initialization_TM4C1294.c")
     285                            .dwattr $C$DW$25, DW_AT_decl_line(0x5b)
     286                            .dwattr $C$DW$25, DW_AT_decl_column(0x11)
     287                            .dwattr $C$DW$25, DW_AT_TI_max_frame_size(0x08)
     288                            .dwpsn  file "../Drivers/Processor_Initialization_TM4C1294.c",line 91,column 39,is_stmt,addres
     289                    
     290                            .dwfde $C$DW$CIE, UART_Initialization
     291                    
     292                    ;*****************************************************************************
     293                    ;* FUNCTION NAME: UART_Initialization                                        *
     294                    ;*                                                                           *
     295                    ;*   Regs Modified     : A1,A2,A3,A4,V9,SP,LR,SR,D0,D0_hi,D1,D1_hi,D2,D2_hi, *
     296                    ;*                           D3,D3_hi,D4,D4_hi,D5,D5_hi,D6,D6_hi,D7,D7_hi,   *
     297                    ;*                           FPEXC,FPSCR                                     *
     298                    ;*   Regs Used         : A1,A2,A3,A4,V9,SP,LR,SR,D0,D0_hi,D1,D1_hi,D2,D2_hi, *
     299                    ;*                           D3,D3_hi,D4,D4_hi,D5,D5_hi,D6,D6_hi,D7,D7_hi,   *
     300                    ;*                           FPEXC,FPSCR                                     *
     301                    ;*   Local Frame Size  : 0 Args + 0 Auto + 4 Save = 4 byte                   *
     302                    ;*****************************************************************************
     303 00000024           UART_Initialization:
     304                    ;* --------------------------------------------------------------------------*
     305                            .dwcfi  cfa_offset, 0
     306 00000024 B508              PUSH      {A4, LR}              ; [DPU_3_PIPE]  ; [ORIG 16-BIT INS]
     307                            .dwcfi  cfa_offset, 8
     308                            .dwcfi  save_reg_to_mem, 14, -4
     309                            .dwcfi  save_reg_to_mem, 3, -8
     310                            .dwpsn  file "../Drivers/Processor_Initialization_TM4C1294.c",line 93,column 2,is_stmt,isa 1
     311 00000026 4818              LDR       A1, $C$CON6           ; [DPU_3_PIPE] |93|  ; [ORIG 16-BIT INS]
     312 00000028 6800              LDR       A1, [A1, #0]          ; [DPU_3_PIPE] |93|  ; [ORIG 16-BIT INS]
     313 0000002a BB08              CBNZ      A1, ||$C$L2||         ; []  ; [ORIG 16-BIT INS]
     314                            ; BRANCHCC OCCURS {||$C$L2||}    ; [] |93| 
     315                    ;* --------------------------------------------------------------------------*
     316                            .dwpsn  file "../Drivers/Processor_Initialization_TM4C1294.c",line 98,column 3,is_stmt,isa 1
     317                    $C$DW$26        .dwtag  DW_TAG_TI_branch
     318                            .dwattr $C$DW$26, DW_AT_low_pc(0x00)
     319                            .dwattr $C$DW$26, DW_AT_name("Processor_Initialization")
     320                            .dwattr $C$DW$26, DW_AT_TI_call
     321                    
     322 0000002c FFE8F7FF          BL        Processor_Initialization ; [DPU_3_PIPE] |98|  ; [KEEP 32-BIT INS]
     323                            ; CALL OCCURS {Processor_Initialization }  ; [] |98| 
     324                            .dwpsn  file "../Drivers/Processor_Initialization_TM4C1294.c",line 103,column 6,is_stmt,isa 1
     325 00000030 4816              LDR       A1, $C$CON7           ; [DPU_3_PIPE] |103|  ; [ORIG 16-BIT INS]
     326                    $C$DW$27        .dwtag  DW_TAG_TI_branch
     327                            .dwattr $C$DW$27, DW_AT_low_pc(0x00)
     328                            .dwattr $C$DW$27, DW_AT_name("SysCtlPeripheralEnable")
     329                            .dwattr $C$DW$27, DW_AT_TI_call
     330                    
TI ARM Assembler PC v15.12.1 Tue Oct 18 10:42:39 2016

Tools Copyright (c) 1996-2015 Texas Instruments Incorporated
Processor_Initialization_TM4C1294.asm                                PAGE    7

     331 00000032 FFFEF7FF!         BL        SysCtlPeripheralEnable ; [DPU_3_PIPE] |103|  ; [KEEP 32-BIT INS]
     332                            ; CALL OCCURS {SysCtlPeripheralEnable }  ; [] |103| 
     333                            .dwpsn  file "../Drivers/Processor_Initialization_TM4C1294.c",line 104,column 6,is_stmt,isa 1
     334 00000036 4816              LDR       A1, $C$CON8           ; [DPU_3_PIPE] |104|  ; [ORIG 16-BIT INS]
     335                    $C$DW$28        .dwtag  DW_TAG_TI_branch
     336                            .dwattr $C$DW$28, DW_AT_low_pc(0x00)
     337                            .dwattr $C$DW$28, DW_AT_name("SysCtlPeripheralEnable")
     338                            .dwattr $C$DW$28, DW_AT_TI_call
     339                    
     340 00000038 FFFEF7FF!         BL        SysCtlPeripheralEnable ; [DPU_3_PIPE] |104|  ; [KEEP 32-BIT INS]
     341                            ; CALL OCCURS {SysCtlPeripheralEnable }  ; [] |104| 
     342                            .dwpsn  file "../Drivers/Processor_Initialization_TM4C1294.c",line 106,column 6,is_stmt,isa 1
     343 0000003c 2001              MOVS      A1, #1                ; [DPU_3_PIPE] |106|  ; [ORIG 16-BIT INS]
     344                    $C$DW$29        .dwtag  DW_TAG_TI_branch
     345                            .dwattr $C$DW$29, DW_AT_low_pc(0x00)
     346                            .dwattr $C$DW$29, DW_AT_name("GPIOPinConfigure")
     347                            .dwattr $C$DW$29, DW_AT_TI_call
     348                    
     349 0000003e FFFEF7FF!         BL        GPIOPinConfigure      ; [DPU_3_PIPE] |106|  ; [KEEP 32-BIT INS]
     350                            ; CALL OCCURS {GPIOPinConfigure }  ; [] |106| 
     351                            .dwpsn  file "../Drivers/Processor_Initialization_TM4C1294.c",line 107,column 6,is_stmt,isa 1
     352 00000042 4001F240          MOV       A1, #1025             ; [DPU_3_PIPE] |107|  ; [KEEP 32-BIT INS]
     353                    $C$DW$30        .dwtag  DW_TAG_TI_branch
     354                            .dwattr $C$DW$30, DW_AT_low_pc(0x00)
     355                            .dwattr $C$DW$30, DW_AT_name("GPIOPinConfigure")
     356                            .dwattr $C$DW$30, DW_AT_TI_call
     357                    
     358 00000046 FFFEF7FF!         BL        GPIOPinConfigure      ; [DPU_3_PIPE] |107|  ; [KEEP 32-BIT INS]
     359                            ; CALL OCCURS {GPIOPinConfigure }  ; [] |107| 
     360                            .dwpsn  file "../Drivers/Processor_Initialization_TM4C1294.c",line 108,column 6,is_stmt,isa 1
     361 0000004a 2040F04F          MOV       A1, #1073758208       ; [DPU_3_PIPE] |108|  ; [KEEP 32-BIT INS]
     362 0000004e 2103              MOVS      A2, #3                ; [DPU_3_PIPE] |108|  ; [ORIG 16-BIT INS]
     363                    $C$DW$31        .dwtag  DW_TAG_TI_branch
     364                            .dwattr $C$DW$31, DW_AT_low_pc(0x00)
     365                            .dwattr $C$DW$31, DW_AT_name("GPIOPinTypeUART")
     366                            .dwattr $C$DW$31, DW_AT_TI_call
     367                    
     368 00000050 FFFEF7FF!         BL        GPIOPinTypeUART       ; [DPU_3_PIPE] |108|  ; [KEEP 32-BIT INS]
     369                            ; CALL OCCURS {GPIOPinTypeUART }  ; [] |108| 
     370                            .dwpsn  file "../Drivers/Processor_Initialization_TM4C1294.c",line 110,column 6,is_stmt,isa 1
     371 00000054 480F              LDR       A1, $C$CON9           ; [DPU_3_PIPE] |110|  ; [ORIG 16-BIT INS]
     372 00000056 2100              MOVS      A2, #0                ; [DPU_3_PIPE] |110|  ; [ORIG 16-BIT INS]
     373                    $C$DW$32        .dwtag  DW_TAG_TI_branch
     374                            .dwattr $C$DW$32, DW_AT_low_pc(0x00)
     375                            .dwattr $C$DW$32, DW_AT_name("UARTClockSourceSet")
     376                            .dwattr $C$DW$32, DW_AT_TI_call
     377                    
     378 00000058 FFFEF7FF!         BL        UARTClockSourceSet    ; [DPU_3_PIPE] |110|  ; [KEEP 32-BIT INS]
     379                            ; CALL OCCURS {UARTClockSourceSet }  ; [] |110| 
     380                            .dwpsn  file "../Drivers/Processor_Initialization_TM4C1294.c",line 115,column 6,is_stmt,isa 1
     381 0000005c 4806              LDR       A1, $C$CON2           ; [DPU_3_PIPE] |115|  ; [ORIG 16-BIT INS]
     382 0000005e 6802              LDR       A3, [A1, #0]          ; [DPU_3_PIPE] |115|  ; [ORIG 16-BIT INS]
     383 00000060 31E1F44F          MOV       A2, #115200           ; [DPU_3_PIPE] |115|  ; [KEEP 32-BIT INS]
     384 00000064 2000              MOVS      A1, #0                ; [DPU_3_PIPE] |115|  ; [ORIG 16-BIT INS]
     385                    $C$DW$33        .dwtag  DW_TAG_TI_branch
TI ARM Assembler PC v15.12.1 Tue Oct 18 10:42:39 2016

Tools Copyright (c) 1996-2015 Texas Instruments Incorporated
Processor_Initialization_TM4C1294.asm                                PAGE    8

     386                            .dwattr $C$DW$33, DW_AT_low_pc(0x00)
     387                            .dwattr $C$DW$33, DW_AT_name("UARTStdioConfig")
     388                            .dwattr $C$DW$33, DW_AT_TI_call
     389                    
     390 00000066 FFFEF7FF!         BL        UARTStdioConfig       ; [DPU_3_PIPE] |115|  ; [KEEP 32-BIT INS]
     391                            ; CALL OCCURS {UARTStdioConfig }  ; [] |115| 
     392                            .dwpsn  file "../Drivers/Processor_Initialization_TM4C1294.c",line 117,column 3,is_stmt,isa 1
     393 0000006a 4907              LDR       A2, $C$CON6           ; [DPU_3_PIPE] |117|  ; [ORIG 16-BIT INS]
     394 0000006c 2001              MOVS      A1, #1                ; [DPU_3_PIPE] |117|  ; [ORIG 16-BIT INS]
     395 0000006e 6008              STR       A1, [A2, #0]          ; [DPU_3_PIPE] |117|  ; [ORIG 16-BIT INS]
     396                    ;* --------------------------------------------------------------------------*
     397 00000070           ||$C$L2||:    
     398                            .dwpsn  file "../Drivers/Processor_Initialization_TM4C1294.c",line 120,column 5,is_stmt,isa 1
     399 00000070 2001              MOVS      A1, #1                ; [DPU_3_PIPE] |120|  ; [ORIG 16-BIT INS]
     400                            .dwpsn  file "../Drivers/Processor_Initialization_TM4C1294.c",line 122,column 2,is_stmt,isa 1
     401                    $C$DW$34        .dwtag  DW_TAG_TI_branch
     402                            .dwattr $C$DW$34, DW_AT_low_pc(0x00)
     403                            .dwattr $C$DW$34, DW_AT_TI_return
     404                    
     405 00000072 BD08              POP       {A4, PC}              ; [DPU_3_PIPE]  ; [ORIG 16-BIT INS]
     406                            .dwcfi  cfa_offset, 0
     407                            ; BRANCH OCCURS                  ; [] 
     408                            .dwattr $C$DW$25, DW_AT_TI_end_file("../Drivers/Processor_Initialization_TM4C1294.c")
     409                            .dwattr $C$DW$25, DW_AT_TI_end_line(0x7a)
     410                            .dwattr $C$DW$25, DW_AT_TI_end_column(0x02)
     411                            .dwendentry
     412                            .dwendtag $C$DW$25
     413                    
     414                    ;******************************************************************************
     415                    ;* CONSTANT TABLE                                                             *
     416                    ;******************************************************************************
     417 00000074                   .sect   ".text"
     418                            .align  4
     419 00000074 00000000! ||$C$CON1||:    .bits   ProcessorInitFlag,32
     420                            .align  4
     421 00000078 00000000! ||$C$CON2||:    .bits   g_ulSystemClock,32
     422                            .align  4
     423 0000007c F1000680  ||$C$CON3||:    .bits   -251656576,32
     424                            .align  4
     425 00000080 07270E00  ||$C$CON4||:    .bits   120000000,32
     426                            .align  4
     427 00000084 00000000! ||$C$CON5||:    .bits   FPUInitFlag,32
     428                            .align  4
     429 00000088 00000000! ||$C$CON6||:    .bits   UARTStdioInitFlag,32
     430                            .align  4
     431 0000008c F0000800  ||$C$CON7||:    .bits   -268433408,32
     432                            .align  4
     433 00000090 F0001800  ||$C$CON8||:    .bits   -268429312,32
     434                            .align  4
     435 00000094 4000C000  ||$C$CON9||:    .bits   1073790976,32
     436                    ;*****************************************************************************
     437                    ;* UNDEFINED EXTERNAL REFERENCES                                             *
     438                    ;*****************************************************************************
     439                            .global GPIOPinConfigure
     440                            .global GPIOPinTypeUART
TI ARM Assembler PC v15.12.1 Tue Oct 18 10:42:39 2016

Tools Copyright (c) 1996-2015 Texas Instruments Incorporated
Processor_Initialization_TM4C1294.asm                                PAGE    9

     441                            .global SysCtlPeripheralEnable
     442                            .global SysCtlClockFreqSet
     443                            .global UARTClockSourceSet
     444                            .global UARTStdioConfig
     445                    
     446                    ;******************************************************************************
     447                    ;* BUILD ATTRIBUTES                                                           *
     448                    ;******************************************************************************
     449                            .battr "aeabi", Tag_File, 1, Tag_ABI_PCS_wchar_t(2)
     450                            .battr "aeabi", Tag_File, 1, Tag_ABI_FP_rounding(0)
     451                            .battr "aeabi", Tag_File, 1, Tag_ABI_FP_denormal(0)
     452                            .battr "aeabi", Tag_File, 1, Tag_ABI_FP_exceptions(0)
     453                            .battr "aeabi", Tag_File, 1, Tag_ABI_FP_number_model(1)
     454                            .battr "aeabi", Tag_File, 1, Tag_ABI_enum_size(0)
     455                            .battr "aeabi", Tag_File, 1, Tag_ABI_optimization_goals(5)
     456                            .battr "aeabi", Tag_File, 1, Tag_ABI_FP_optimization_goals(0)
     457                            .battr "TI", Tag_File, 1, Tag_Bitfield_layout(2)
     458                            .battr "TI", Tag_File, 1, Tag_FP_interface(1)
     459                    
     460                    ;******************************************************************************
     461                    ;* TYPE INFORMATION                                                           *
     462                    ;******************************************************************************
     463                    $C$DW$T$2       .dwtag  DW_TAG_unspecified_type
     464                            .dwattr $C$DW$T$2, DW_AT_name("void")
     465                    
     466                    $C$DW$T$3       .dwtag  DW_TAG_pointer_type
     467                            .dwattr $C$DW$T$3, DW_AT_type(*$C$DW$T$2)
     468                            .dwattr $C$DW$T$3, DW_AT_address_class(0x20)
     469                    
     470                    $C$DW$T$4       .dwtag  DW_TAG_base_type
     471                            .dwattr $C$DW$T$4, DW_AT_encoding(DW_ATE_boolean)
     472                            .dwattr $C$DW$T$4, DW_AT_name("bool")
     473                            .dwattr $C$DW$T$4, DW_AT_byte_size(0x01)
     474                    
     475                    $C$DW$T$5       .dwtag  DW_TAG_base_type
     476                            .dwattr $C$DW$T$5, DW_AT_encoding(DW_ATE_signed_char)
     477                            .dwattr $C$DW$T$5, DW_AT_name("signed char")
     478                            .dwattr $C$DW$T$5, DW_AT_byte_size(0x01)
     479                    
     480                    $C$DW$T$30      .dwtag  DW_TAG_typedef
     481                            .dwattr $C$DW$T$30, DW_AT_name("int8_t")
     482                            .dwattr $C$DW$T$30, DW_AT_type(*$C$DW$T$5)
     483                            .dwattr $C$DW$T$30, DW_AT_language(DW_LANG_C)
     484                            .dwattr $C$DW$T$30, DW_AT_decl_file("C:/TI_CodeComposer/ccsv6/tools/compiler/ti-cgt-arm_15.12.
     485                            .dwattr $C$DW$T$30, DW_AT_decl_line(0x2a)
     486                            .dwattr $C$DW$T$30, DW_AT_decl_column(0x1d)
     487                    
     488                    $C$DW$T$31      .dwtag  DW_TAG_typedef
     489                            .dwattr $C$DW$T$31, DW_AT_name("int_least8_t")
     490                            .dwattr $C$DW$T$31, DW_AT_type(*$C$DW$T$30)
     491                            .dwattr $C$DW$T$31, DW_AT_language(DW_LANG_C)
     492                            .dwattr $C$DW$T$31, DW_AT_decl_file("C:/TI_CodeComposer/ccsv6/tools/compiler/ti-cgt-arm_15.12.
     493                            .dwattr $C$DW$T$31, DW_AT_decl_line(0x37)
     494                            .dwattr $C$DW$T$31, DW_AT_decl_column(0x17)
     495                    
TI ARM Assembler PC v15.12.1 Tue Oct 18 10:42:39 2016

Tools Copyright (c) 1996-2015 Texas Instruments Incorporated
Processor_Initialization_TM4C1294.asm                                PAGE   10

     496                    $C$DW$T$6       .dwtag  DW_TAG_base_type
     497                            .dwattr $C$DW$T$6, DW_AT_encoding(DW_ATE_unsigned_char)
     498                            .dwattr $C$DW$T$6, DW_AT_name("unsigned char")
     499                            .dwattr $C$DW$T$6, DW_AT_byte_size(0x01)
     500                    
     501                    $C$DW$T$23      .dwtag  DW_TAG_typedef
     502                            .dwattr $C$DW$T$23, DW_AT_name("uint8_t")
     503                            .dwattr $C$DW$T$23, DW_AT_type(*$C$DW$T$6)
     504                            .dwattr $C$DW$T$23, DW_AT_language(DW_LANG_C)
     505                            .dwattr $C$DW$T$23, DW_AT_decl_file("C:/TI_CodeComposer/ccsv6/tools/compiler/ti-cgt-arm_15.12.
     506                            .dwattr $C$DW$T$23, DW_AT_decl_line(0x2b)
     507                            .dwattr $C$DW$T$23, DW_AT_decl_column(0x1c)
     508                    
     509                    $C$DW$T$32      .dwtag  DW_TAG_typedef
     510                            .dwattr $C$DW$T$32, DW_AT_name("uint_least8_t")
     511                            .dwattr $C$DW$T$32, DW_AT_type(*$C$DW$T$23)
     512                            .dwattr $C$DW$T$32, DW_AT_language(DW_LANG_C)
     513                            .dwattr $C$DW$T$32, DW_AT_decl_file("C:/TI_CodeComposer/ccsv6/tools/compiler/ti-cgt-arm_15.12.
     514                            .dwattr $C$DW$T$32, DW_AT_decl_line(0x38)
     515                            .dwattr $C$DW$T$32, DW_AT_decl_column(0x16)
     516                    
     517                    $C$DW$T$7       .dwtag  DW_TAG_base_type
     518                            .dwattr $C$DW$T$7, DW_AT_encoding(DW_ATE_signed_char)
     519                            .dwattr $C$DW$T$7, DW_AT_name("wchar_t")
     520                            .dwattr $C$DW$T$7, DW_AT_byte_size(0x02)
     521                    
     522                    $C$DW$T$8       .dwtag  DW_TAG_base_type
     523                            .dwattr $C$DW$T$8, DW_AT_encoding(DW_ATE_signed)
     524                            .dwattr $C$DW$T$8, DW_AT_name("short")
     525                            .dwattr $C$DW$T$8, DW_AT_byte_size(0x02)
     526                    
     527                    $C$DW$T$33      .dwtag  DW_TAG_typedef
     528                            .dwattr $C$DW$T$33, DW_AT_name("int16_t")
     529                            .dwattr $C$DW$T$33, DW_AT_type(*$C$DW$T$8)
     530                            .dwattr $C$DW$T$33, DW_AT_language(DW_LANG_C)
     531                            .dwattr $C$DW$T$33, DW_AT_decl_file("C:/TI_CodeComposer/ccsv6/tools/compiler/ti-cgt-arm_15.12.
     532                            .dwattr $C$DW$T$33, DW_AT_decl_line(0x2c)
     533                            .dwattr $C$DW$T$33, DW_AT_decl_column(0x1d)
     534                    
     535                    $C$DW$T$34      .dwtag  DW_TAG_typedef
     536                            .dwattr $C$DW$T$34, DW_AT_name("int_least16_t")
     537                            .dwattr $C$DW$T$34, DW_AT_type(*$C$DW$T$33)
     538                            .dwattr $C$DW$T$34, DW_AT_language(DW_LANG_C)
     539                            .dwattr $C$DW$T$34, DW_AT_decl_file("C:/TI_CodeComposer/ccsv6/tools/compiler/ti-cgt-arm_15.12.
     540                            .dwattr $C$DW$T$34, DW_AT_decl_line(0x3a)
     541                            .dwattr $C$DW$T$34, DW_AT_decl_column(0x17)
     542                    
     543                    $C$DW$T$9       .dwtag  DW_TAG_base_type
     544                            .dwattr $C$DW$T$9, DW_AT_encoding(DW_ATE_unsigned)
     545                            .dwattr $C$DW$T$9, DW_AT_name("unsigned short")
     546                            .dwattr $C$DW$T$9, DW_AT_byte_size(0x02)
     547                    
     548                    $C$DW$T$35      .dwtag  DW_TAG_typedef
     549                            .dwattr $C$DW$T$35, DW_AT_name("uint16_t")
     550                            .dwattr $C$DW$T$35, DW_AT_type(*$C$DW$T$9)
TI ARM Assembler PC v15.12.1 Tue Oct 18 10:42:39 2016

Tools Copyright (c) 1996-2015 Texas Instruments Incorporated
Processor_Initialization_TM4C1294.asm                                PAGE   11

     551                            .dwattr $C$DW$T$35, DW_AT_language(DW_LANG_C)
     552                            .dwattr $C$DW$T$35, DW_AT_decl_file("C:/TI_CodeComposer/ccsv6/tools/compiler/ti-cgt-arm_15.12.
     553                            .dwattr $C$DW$T$35, DW_AT_decl_line(0x2d)
     554                            .dwattr $C$DW$T$35, DW_AT_decl_column(0x1c)
     555                    
     556                    $C$DW$T$36      .dwtag  DW_TAG_typedef
     557                            .dwattr $C$DW$T$36, DW_AT_name("uint_least16_t")
     558                            .dwattr $C$DW$T$36, DW_AT_type(*$C$DW$T$35)
     559                            .dwattr $C$DW$T$36, DW_AT_language(DW_LANG_C)
     560                            .dwattr $C$DW$T$36, DW_AT_decl_file("C:/TI_CodeComposer/ccsv6/tools/compiler/ti-cgt-arm_15.12.
     561                            .dwattr $C$DW$T$36, DW_AT_decl_line(0x3b)
     562                            .dwattr $C$DW$T$36, DW_AT_decl_column(0x16)
     563                    
     564                    $C$DW$T$37      .dwtag  DW_TAG_typedef
     565                            .dwattr $C$DW$T$37, DW_AT_name("wchar_t")
     566                            .dwattr $C$DW$T$37, DW_AT_type(*$C$DW$T$9)
     567                            .dwattr $C$DW$T$37, DW_AT_language(DW_LANG_C)
     568                            .dwattr $C$DW$T$37, DW_AT_decl_file("C:/TI_CodeComposer/ccsv6/tools/compiler/ti-cgt-arm_15.12.
     569                            .dwattr $C$DW$T$37, DW_AT_decl_line(0x41)
     570                            .dwattr $C$DW$T$37, DW_AT_decl_column(0x1a)
     571                    
     572                    $C$DW$T$10      .dwtag  DW_TAG_base_type
     573                            .dwattr $C$DW$T$10, DW_AT_encoding(DW_ATE_signed)
     574                            .dwattr $C$DW$T$10, DW_AT_name("int")
     575                            .dwattr $C$DW$T$10, DW_AT_byte_size(0x04)
     576                    
     577                    $C$DW$T$38      .dwtag  DW_TAG_typedef
     578                            .dwattr $C$DW$T$38, DW_AT_name("int32_t")
     579                            .dwattr $C$DW$T$38, DW_AT_type(*$C$DW$T$10)
     580                            .dwattr $C$DW$T$38, DW_AT_language(DW_LANG_C)
     581                            .dwattr $C$DW$T$38, DW_AT_decl_file("C:/TI_CodeComposer/ccsv6/tools/compiler/ti-cgt-arm_15.12.
     582                            .dwattr $C$DW$T$38, DW_AT_decl_line(0x2e)
     583                            .dwattr $C$DW$T$38, DW_AT_decl_column(0x1d)
     584                    
     585                    $C$DW$T$39      .dwtag  DW_TAG_typedef
     586                            .dwattr $C$DW$T$39, DW_AT_name("int_fast16_t")
     587                            .dwattr $C$DW$T$39, DW_AT_type(*$C$DW$T$38)
     588                            .dwattr $C$DW$T$39, DW_AT_language(DW_LANG_C)
     589                            .dwattr $C$DW$T$39, DW_AT_decl_file("C:/TI_CodeComposer/ccsv6/tools/compiler/ti-cgt-arm_15.12.
     590                            .dwattr $C$DW$T$39, DW_AT_decl_line(0x47)
     591                            .dwattr $C$DW$T$39, DW_AT_decl_column(0x17)
     592                    
     593                    $C$DW$T$40      .dwtag  DW_TAG_typedef
     594                            .dwattr $C$DW$T$40, DW_AT_name("int_fast32_t")
     595                            .dwattr $C$DW$T$40, DW_AT_type(*$C$DW$T$38)
     596                            .dwattr $C$DW$T$40, DW_AT_language(DW_LANG_C)
     597                            .dwattr $C$DW$T$40, DW_AT_decl_file("C:/TI_CodeComposer/ccsv6/tools/compiler/ti-cgt-arm_15.12.
     598                            .dwattr $C$DW$T$40, DW_AT_decl_line(0x4a)
     599                            .dwattr $C$DW$T$40, DW_AT_decl_column(0x17)
     600                    
     601                    $C$DW$T$41      .dwtag  DW_TAG_typedef
     602                            .dwattr $C$DW$T$41, DW_AT_name("int_fast8_t")
     603                            .dwattr $C$DW$T$41, DW_AT_type(*$C$DW$T$38)
     604                            .dwattr $C$DW$T$41, DW_AT_language(DW_LANG_C)
     605                            .dwattr $C$DW$T$41, DW_AT_decl_file("C:/TI_CodeComposer/ccsv6/tools/compiler/ti-cgt-arm_15.12.
TI ARM Assembler PC v15.12.1 Tue Oct 18 10:42:39 2016

Tools Copyright (c) 1996-2015 Texas Instruments Incorporated
Processor_Initialization_TM4C1294.asm                                PAGE   12

     606                            .dwattr $C$DW$T$41, DW_AT_decl_line(0x45)
     607                            .dwattr $C$DW$T$41, DW_AT_decl_column(0x17)
     608                    
     609                    $C$DW$T$42      .dwtag  DW_TAG_typedef
     610                            .dwattr $C$DW$T$42, DW_AT_name("int_least32_t")
     611                            .dwattr $C$DW$T$42, DW_AT_type(*$C$DW$T$38)
     612                            .dwattr $C$DW$T$42, DW_AT_language(DW_LANG_C)
     613                            .dwattr $C$DW$T$42, DW_AT_decl_file("C:/TI_CodeComposer/ccsv6/tools/compiler/ti-cgt-arm_15.12.
     614                            .dwattr $C$DW$T$42, DW_AT_decl_line(0x3c)
     615                            .dwattr $C$DW$T$42, DW_AT_decl_column(0x17)
     616                    
     617                    $C$DW$T$43      .dwtag  DW_TAG_typedef
     618                            .dwattr $C$DW$T$43, DW_AT_name("intptr_t")
     619                            .dwattr $C$DW$T$43, DW_AT_type(*$C$DW$T$10)
     620                            .dwattr $C$DW$T$43, DW_AT_language(DW_LANG_C)
     621                            .dwattr $C$DW$T$43, DW_AT_decl_file("C:/TI_CodeComposer/ccsv6/tools/compiler/ti-cgt-arm_15.12.
     622                            .dwattr $C$DW$T$43, DW_AT_decl_line(0x52)
     623                            .dwattr $C$DW$T$43, DW_AT_decl_column(0x1a)
     624                    
     625                    $C$DW$T$44      .dwtag  DW_TAG_typedef
     626                            .dwattr $C$DW$T$44, DW_AT_name("ptrdiff_t")
     627                            .dwattr $C$DW$T$44, DW_AT_type(*$C$DW$T$10)
     628                            .dwattr $C$DW$T$44, DW_AT_language(DW_LANG_C)
     629                            .dwattr $C$DW$T$44, DW_AT_decl_file("C:/TI_CodeComposer/ccsv6/tools/compiler/ti-cgt-arm_15.12.
     630                            .dwattr $C$DW$T$44, DW_AT_decl_line(0x36)
     631                            .dwattr $C$DW$T$44, DW_AT_decl_column(0x1c)
     632                    
     633                    $C$DW$T$11      .dwtag  DW_TAG_base_type
     634                            .dwattr $C$DW$T$11, DW_AT_encoding(DW_ATE_unsigned)
     635                            .dwattr $C$DW$T$11, DW_AT_name("unsigned int")
     636                            .dwattr $C$DW$T$11, DW_AT_byte_size(0x04)
     637                    
     638                    $C$DW$T$45      .dwtag  DW_TAG_typedef
     639                            .dwattr $C$DW$T$45, DW_AT_name("size_t")
     640                            .dwattr $C$DW$T$45, DW_AT_type(*$C$DW$T$11)
     641                            .dwattr $C$DW$T$45, DW_AT_language(DW_LANG_C)
     642                            .dwattr $C$DW$T$45, DW_AT_decl_file("C:/TI_CodeComposer/ccsv6/tools/compiler/ti-cgt-arm_15.12.
     643                            .dwattr $C$DW$T$45, DW_AT_decl_line(0x3a)
     644                            .dwattr $C$DW$T$45, DW_AT_decl_column(0x19)
     645                    
     646                    $C$DW$T$20      .dwtag  DW_TAG_typedef
     647                            .dwattr $C$DW$T$20, DW_AT_name("uint32_t")
     648                            .dwattr $C$DW$T$20, DW_AT_type(*$C$DW$T$11)
     649                            .dwattr $C$DW$T$20, DW_AT_language(DW_LANG_C)
     650                            .dwattr $C$DW$T$20, DW_AT_decl_file("C:/TI_CodeComposer/ccsv6/tools/compiler/ti-cgt-arm_15.12.
     651                            .dwattr $C$DW$T$20, DW_AT_decl_line(0x2f)
     652                            .dwattr $C$DW$T$20, DW_AT_decl_column(0x1c)
     653                    
     654                    $C$DW$T$50      .dwtag  DW_TAG_typedef
     655                            .dwattr $C$DW$T$50, DW_AT_name("uint_fast16_t")
     656                            .dwattr $C$DW$T$50, DW_AT_type(*$C$DW$T$20)
     657                            .dwattr $C$DW$T$50, DW_AT_language(DW_LANG_C)
     658                            .dwattr $C$DW$T$50, DW_AT_decl_file("C:/TI_CodeComposer/ccsv6/tools/compiler/ti-cgt-arm_15.12.
     659                            .dwattr $C$DW$T$50, DW_AT_decl_line(0x48)
     660                            .dwattr $C$DW$T$50, DW_AT_decl_column(0x16)
TI ARM Assembler PC v15.12.1 Tue Oct 18 10:42:39 2016

Tools Copyright (c) 1996-2015 Texas Instruments Incorporated
Processor_Initialization_TM4C1294.asm                                PAGE   13

     661                    
     662                    $C$DW$T$51      .dwtag  DW_TAG_typedef
     663                            .dwattr $C$DW$T$51, DW_AT_name("uint_fast32_t")
     664                            .dwattr $C$DW$T$51, DW_AT_type(*$C$DW$T$20)
     665                            .dwattr $C$DW$T$51, DW_AT_language(DW_LANG_C)
     666                            .dwattr $C$DW$T$51, DW_AT_decl_file("C:/TI_CodeComposer/ccsv6/tools/compiler/ti-cgt-arm_15.12.
     667                            .dwattr $C$DW$T$51, DW_AT_decl_line(0x4b)
     668                            .dwattr $C$DW$T$51, DW_AT_decl_column(0x16)
     669                    
     670                    $C$DW$T$52      .dwtag  DW_TAG_typedef
     671                            .dwattr $C$DW$T$52, DW_AT_name("uint_fast8_t")
     672                            .dwattr $C$DW$T$52, DW_AT_type(*$C$DW$T$20)
     673                            .dwattr $C$DW$T$52, DW_AT_language(DW_LANG_C)
     674                            .dwattr $C$DW$T$52, DW_AT_decl_file("C:/TI_CodeComposer/ccsv6/tools/compiler/ti-cgt-arm_15.12.
     675                            .dwattr $C$DW$T$52, DW_AT_decl_line(0x46)
     676                            .dwattr $C$DW$T$52, DW_AT_decl_column(0x16)
     677                    
     678                    $C$DW$T$53      .dwtag  DW_TAG_typedef
     679                            .dwattr $C$DW$T$53, DW_AT_name("uint_least32_t")
     680                            .dwattr $C$DW$T$53, DW_AT_type(*$C$DW$T$20)
     681                            .dwattr $C$DW$T$53, DW_AT_language(DW_LANG_C)
     682                            .dwattr $C$DW$T$53, DW_AT_decl_file("C:/TI_CodeComposer/ccsv6/tools/compiler/ti-cgt-arm_15.12.
     683                            .dwattr $C$DW$T$53, DW_AT_decl_line(0x3d)
     684                            .dwattr $C$DW$T$53, DW_AT_decl_column(0x16)
     685                    
     686                    $C$DW$T$54      .dwtag  DW_TAG_typedef
     687                            .dwattr $C$DW$T$54, DW_AT_name("uintptr_t")
     688                            .dwattr $C$DW$T$54, DW_AT_type(*$C$DW$T$11)
     689                            .dwattr $C$DW$T$54, DW_AT_language(DW_LANG_C)
     690                            .dwattr $C$DW$T$54, DW_AT_decl_file("C:/TI_CodeComposer/ccsv6/tools/compiler/ti-cgt-arm_15.12.
     691                            .dwattr $C$DW$T$54, DW_AT_decl_line(0x53)
     692                            .dwattr $C$DW$T$54, DW_AT_decl_column(0x1a)
     693                    
     694                    $C$DW$T$12      .dwtag  DW_TAG_base_type
     695                            .dwattr $C$DW$T$12, DW_AT_encoding(DW_ATE_signed)
     696                            .dwattr $C$DW$T$12, DW_AT_name("long")
     697                            .dwattr $C$DW$T$12, DW_AT_byte_size(0x04)
     698                    
     699                    $C$DW$T$13      .dwtag  DW_TAG_base_type
     700                            .dwattr $C$DW$T$13, DW_AT_encoding(DW_ATE_unsigned)
     701                            .dwattr $C$DW$T$13, DW_AT_name("unsigned long")
     702                            .dwattr $C$DW$T$13, DW_AT_byte_size(0x04)
     703                    
     704                    $C$DW$T$14      .dwtag  DW_TAG_base_type
     705                            .dwattr $C$DW$T$14, DW_AT_encoding(DW_ATE_signed)
     706                            .dwattr $C$DW$T$14, DW_AT_name("long long")
     707                            .dwattr $C$DW$T$14, DW_AT_byte_size(0x08)
     708                    
     709                    $C$DW$T$55      .dwtag  DW_TAG_typedef
     710                            .dwattr $C$DW$T$55, DW_AT_name("int64_t")
     711                            .dwattr $C$DW$T$55, DW_AT_type(*$C$DW$T$14)
     712                            .dwattr $C$DW$T$55, DW_AT_language(DW_LANG_C)
     713                            .dwattr $C$DW$T$55, DW_AT_decl_file("C:/TI_CodeComposer/ccsv6/tools/compiler/ti-cgt-arm_15.12.
     714                            .dwattr $C$DW$T$55, DW_AT_decl_line(0x32)
     715                            .dwattr $C$DW$T$55, DW_AT_decl_column(0x21)
TI ARM Assembler PC v15.12.1 Tue Oct 18 10:42:39 2016

Tools Copyright (c) 1996-2015 Texas Instruments Incorporated
Processor_Initialization_TM4C1294.asm                                PAGE   14

     716                    
     717                    $C$DW$T$56      .dwtag  DW_TAG_typedef
     718                            .dwattr $C$DW$T$56, DW_AT_name("int_fast64_t")
     719                            .dwattr $C$DW$T$56, DW_AT_type(*$C$DW$T$55)
     720                            .dwattr $C$DW$T$56, DW_AT_language(DW_LANG_C)
     721                            .dwattr $C$DW$T$56, DW_AT_decl_file("C:/TI_CodeComposer/ccsv6/tools/compiler/ti-cgt-arm_15.12.
     722                            .dwattr $C$DW$T$56, DW_AT_decl_line(0x4e)
     723                            .dwattr $C$DW$T$56, DW_AT_decl_column(0x17)
     724                    
     725                    $C$DW$T$57      .dwtag  DW_TAG_typedef
     726                            .dwattr $C$DW$T$57, DW_AT_name("int_least64_t")
     727                            .dwattr $C$DW$T$57, DW_AT_type(*$C$DW$T$55)
     728                            .dwattr $C$DW$T$57, DW_AT_language(DW_LANG_C)
     729                            .dwattr $C$DW$T$57, DW_AT_decl_file("C:/TI_CodeComposer/ccsv6/tools/compiler/ti-cgt-arm_15.12.
     730                            .dwattr $C$DW$T$57, DW_AT_decl_line(0x40)
     731                            .dwattr $C$DW$T$57, DW_AT_decl_column(0x17)
     732                    
     733                    $C$DW$T$58      .dwtag  DW_TAG_typedef
     734                            .dwattr $C$DW$T$58, DW_AT_name("intmax_t")
     735                            .dwattr $C$DW$T$58, DW_AT_type(*$C$DW$T$14)
     736                            .dwattr $C$DW$T$58, DW_AT_language(DW_LANG_C)
     737                            .dwattr $C$DW$T$58, DW_AT_decl_file("C:/TI_CodeComposer/ccsv6/tools/compiler/ti-cgt-arm_15.12.
     738                            .dwattr $C$DW$T$58, DW_AT_decl_line(0x56)
     739                            .dwattr $C$DW$T$58, DW_AT_decl_column(0x20)
     740                    
     741                    $C$DW$T$15      .dwtag  DW_TAG_base_type
     742                            .dwattr $C$DW$T$15, DW_AT_encoding(DW_ATE_unsigned)
     743                            .dwattr $C$DW$T$15, DW_AT_name("unsigned long long")
     744                            .dwattr $C$DW$T$15, DW_AT_byte_size(0x08)
     745                    
     746                    $C$DW$T$59      .dwtag  DW_TAG_typedef
     747                            .dwattr $C$DW$T$59, DW_AT_name("uint64_t")
     748                            .dwattr $C$DW$T$59, DW_AT_type(*$C$DW$T$15)
     749                            .dwattr $C$DW$T$59, DW_AT_language(DW_LANG_C)
     750                            .dwattr $C$DW$T$59, DW_AT_decl_file("C:/TI_CodeComposer/ccsv6/tools/compiler/ti-cgt-arm_15.12.
     751                            .dwattr $C$DW$T$59, DW_AT_decl_line(0x33)
     752                            .dwattr $C$DW$T$59, DW_AT_decl_column(0x20)
     753                    
     754                    $C$DW$T$60      .dwtag  DW_TAG_typedef
     755                            .dwattr $C$DW$T$60, DW_AT_name("uint_fast64_t")
     756                            .dwattr $C$DW$T$60, DW_AT_type(*$C$DW$T$59)
     757                            .dwattr $C$DW$T$60, DW_AT_language(DW_LANG_C)
     758                            .dwattr $C$DW$T$60, DW_AT_decl_file("C:/TI_CodeComposer/ccsv6/tools/compiler/ti-cgt-arm_15.12.
     759                            .dwattr $C$DW$T$60, DW_AT_decl_line(0x4f)
     760                            .dwattr $C$DW$T$60, DW_AT_decl_column(0x16)
     761                    
     762                    $C$DW$T$61      .dwtag  DW_TAG_typedef
     763                            .dwattr $C$DW$T$61, DW_AT_name("uint_least64_t")
     764                            .dwattr $C$DW$T$61, DW_AT_type(*$C$DW$T$59)
     765                            .dwattr $C$DW$T$61, DW_AT_language(DW_LANG_C)
     766                            .dwattr $C$DW$T$61, DW_AT_decl_file("C:/TI_CodeComposer/ccsv6/tools/compiler/ti-cgt-arm_15.12.
     767                            .dwattr $C$DW$T$61, DW_AT_decl_line(0x41)
     768                            .dwattr $C$DW$T$61, DW_AT_decl_column(0x16)
     769                    
     770                    $C$DW$T$62      .dwtag  DW_TAG_typedef
TI ARM Assembler PC v15.12.1 Tue Oct 18 10:42:39 2016

Tools Copyright (c) 1996-2015 Texas Instruments Incorporated
Processor_Initialization_TM4C1294.asm                                PAGE   15

     771                            .dwattr $C$DW$T$62, DW_AT_name("uintmax_t")
     772                            .dwattr $C$DW$T$62, DW_AT_type(*$C$DW$T$15)
     773                            .dwattr $C$DW$T$62, DW_AT_language(DW_LANG_C)
     774                            .dwattr $C$DW$T$62, DW_AT_decl_file("C:/TI_CodeComposer/ccsv6/tools/compiler/ti-cgt-arm_15.12.
     775                            .dwattr $C$DW$T$62, DW_AT_decl_line(0x57)
     776                            .dwattr $C$DW$T$62, DW_AT_decl_column(0x20)
     777                    
     778                    $C$DW$T$16      .dwtag  DW_TAG_base_type
     779                            .dwattr $C$DW$T$16, DW_AT_encoding(DW_ATE_float)
     780                            .dwattr $C$DW$T$16, DW_AT_name("float")
     781                            .dwattr $C$DW$T$16, DW_AT_byte_size(0x04)
     782                    
     783                    $C$DW$T$17      .dwtag  DW_TAG_base_type
     784                            .dwattr $C$DW$T$17, DW_AT_encoding(DW_ATE_float)
     785                            .dwattr $C$DW$T$17, DW_AT_name("double")
     786                            .dwattr $C$DW$T$17, DW_AT_byte_size(0x08)
     787                    
     788                    $C$DW$T$18      .dwtag  DW_TAG_base_type
     789                            .dwattr $C$DW$T$18, DW_AT_encoding(DW_ATE_float)
     790                            .dwattr $C$DW$T$18, DW_AT_name("long double")
     791                            .dwattr $C$DW$T$18, DW_AT_byte_size(0x08)
     792                    
     793                    
     794                    $C$DW$T$19      .dwtag  DW_TAG_structure_type
     795                            .dwattr $C$DW$T$19, DW_AT_name("__va_list")
     796                            .dwattr $C$DW$T$19, DW_AT_byte_size(0x04)
     797                    $C$DW$35        .dwtag  DW_TAG_member
     798                            .dwattr $C$DW$35, DW_AT_type(*$C$DW$T$3)
     799                            .dwattr $C$DW$35, DW_AT_name("__ap")
     800                            .dwattr $C$DW$35, DW_AT_TI_symbol_name("__ap")
     801                            .dwattr $C$DW$35, DW_AT_data_member_location[DW_OP_plus_uconst 0x0]
     802                            .dwattr $C$DW$35, DW_AT_accessibility(DW_ACCESS_public)
     803                            .dwattr $C$DW$35, DW_AT_decl_file("C:/TI_CodeComposer/ccsv6/tools/compiler/ti-cgt-arm_15.12.1.
     804                            .dwattr $C$DW$35, DW_AT_decl_line(0x38)
     805                            .dwattr $C$DW$35, DW_AT_decl_column(0x0c)
     806                    
     807                            .dwattr $C$DW$T$19, DW_AT_decl_file("C:/TI_CodeComposer/ccsv6/tools/compiler/ti-cgt-arm_15.12.
     808                            .dwattr $C$DW$T$19, DW_AT_decl_line(0x37)
     809                            .dwattr $C$DW$T$19, DW_AT_decl_column(0x10)
     810                            .dwendtag $C$DW$T$19
     811                    
     812                    $C$DW$T$63      .dwtag  DW_TAG_typedef
     813                            .dwattr $C$DW$T$63, DW_AT_name("va_list")
     814                            .dwattr $C$DW$T$63, DW_AT_type(*$C$DW$T$19)
     815                            .dwattr $C$DW$T$63, DW_AT_language(DW_LANG_C)
     816                            .dwattr $C$DW$T$63, DW_AT_decl_file("C:/TI_CodeComposer/ccsv6/tools/compiler/ti-cgt-arm_15.12.
     817                            .dwattr $C$DW$T$63, DW_AT_decl_line(0x39)
     818                            .dwattr $C$DW$T$63, DW_AT_decl_column(0x03)
     819                    
     820                            .dwattr $C$DW$CU, DW_AT_language(DW_LANG_C)
     821                    
     822                    ;***************************************************************
     823                    ;* DWARF CIE ENTRIES                                           *
     824                    ;***************************************************************
     825                    
TI ARM Assembler PC v15.12.1 Tue Oct 18 10:42:39 2016

Tools Copyright (c) 1996-2015 Texas Instruments Incorporated
Processor_Initialization_TM4C1294.asm                                PAGE   16

     826                    $C$DW$CIE       .dwcie 14
     827                            .dwcfi  cfa_register, 13
     828                            .dwcfi  cfa_offset, 0
     829                            .dwcfi  undefined, 0
     830                            .dwcfi  undefined, 1
     831                            .dwcfi  undefined, 2
     832                            .dwcfi  undefined, 3
     833                            .dwcfi  same_value, 4
     834                            .dwcfi  same_value, 5
     835                            .dwcfi  same_value, 6
     836                            .dwcfi  same_value, 7
     837                            .dwcfi  same_value, 8
     838                            .dwcfi  same_value, 9
     839                            .dwcfi  same_value, 10
     840                            .dwcfi  same_value, 11
     841                            .dwcfi  undefined, 12
     842                            .dwcfi  undefined, 13
     843                            .dwcfi  undefined, 14
     844                            .dwcfi  undefined, 14
     845                            .dwcfi  undefined, 7
     846                            .dwcfi  undefined, 64
     847                            .dwcfi  undefined, 65
     848                            .dwcfi  undefined, 66
     849                            .dwcfi  undefined, 67
     850                            .dwcfi  undefined, 68
     851                            .dwcfi  undefined, 69
     852                            .dwcfi  undefined, 70
     853                            .dwcfi  undefined, 71
     854                            .dwcfi  undefined, 72
     855                            .dwcfi  undefined, 73
     856                            .dwcfi  undefined, 74
     857                            .dwcfi  undefined, 75
     858                            .dwcfi  undefined, 76
     859                            .dwcfi  undefined, 77
     860                            .dwcfi  undefined, 78
     861                            .dwcfi  undefined, 79
     862                            .dwcfi  same_value, 80
     863                            .dwcfi  same_value, 81
     864                            .dwcfi  same_value, 82
     865                            .dwcfi  same_value, 83
     866                            .dwcfi  same_value, 84
     867                            .dwcfi  same_value, 85
     868                            .dwcfi  same_value, 86
     869                            .dwcfi  same_value, 87
     870                            .dwcfi  same_value, 88
     871                            .dwcfi  same_value, 89
     872                            .dwcfi  same_value, 90
     873                            .dwcfi  same_value, 91
     874                            .dwcfi  same_value, 92
     875                            .dwcfi  same_value, 93
     876                            .dwcfi  same_value, 94
     877                            .dwcfi  same_value, 95
     878                            .dwendentry
     879                            .dwendtag $C$DW$CU
     880                    

--------------------------
Thumb2 Statistics
--------------------------
Number of Thumb2 ins converted to Thumb = 0 (0%)
Number of Thumb ins in input = 34 (73%)
Number of Thumb2 ins encoded as Thumb2 = 12 (100%)
Number of Thumb2 ins converted to 2 OPND Thumb = 0

TI ARM Assembler PC v15.12.1 Tue Oct 18 10:42:39 2016

Tools Copyright (c) 1996-2015 Texas Instruments Incorporated
Processor_Initialization_TM4C1294.asm                                PAGE   17


No Assembly Errors, No Assembly Warnings
