TI ARM Assembler PC v15.12.1 Tue Oct 18 10:42:29 2016

Tools Copyright (c) 1996-2015 Texas Instruments Incorporated
FreeRTOS_TM4C1294_Base_Startup.asm                                   PAGE    1

       1                    ;******************************************************************************
       2                    ;* TI ARM C/C++ Codegen                                       PC v15.12.1.LTS *
       3                    ;* Date/Time created: Tue Oct 18 10:42:29 2016                                *
       4                    ;******************************************************************************
       5                            .compiler_opts --abi=eabi --arm_vmrs_si_workaround=off --code_state=16 --diag_wrap=off --disab
       6 00000000                   .thumb
       7                    
       8                    $C$DW$CU        .dwtag  DW_TAG_compile_unit
       9                            .dwattr $C$DW$CU, DW_AT_name("../FreeRTOS_TM4C1294_Base_Startup.c")
      10                            .dwattr $C$DW$CU, DW_AT_producer("TI TI ARM C/C++ Codegen PC v15.12.1.LTS Copyright (c) 1996-2
      11                            .dwattr $C$DW$CU, DW_AT_TI_version(0x01)
      12                            .dwattr $C$DW$CU, DW_AT_comp_dir("C:\TI_ARM_Tiva_Projects\FreeRTOS82_TM4C1294_Base\Debug")
      13                    
      14                    $C$DW$1 .dwtag  DW_TAG_subprogram
      15                            .dwattr $C$DW$1, DW_AT_name("xPortPendSVHandler")
      16                            .dwattr $C$DW$1, DW_AT_TI_symbol_name("xPortPendSVHandler")
      17                            .dwattr $C$DW$1, DW_AT_declaration
      18                            .dwattr $C$DW$1, DW_AT_external
      19                            .dwattr $C$DW$1, DW_AT_decl_file("../FreeRTOS_TM4C1294_Base_Startup.c")
      20                            .dwattr $C$DW$1, DW_AT_decl_line(0x3a)
      21                            .dwattr $C$DW$1, DW_AT_decl_column(0x0d)
      22                            .dwendtag $C$DW$1
      23                    
      24                    
      25                    $C$DW$2 .dwtag  DW_TAG_subprogram
      26                            .dwattr $C$DW$2, DW_AT_name("vPortSVCHandler")
      27                            .dwattr $C$DW$2, DW_AT_TI_symbol_name("vPortSVCHandler")
      28                            .dwattr $C$DW$2, DW_AT_declaration
      29                            .dwattr $C$DW$2, DW_AT_external
      30                            .dwattr $C$DW$2, DW_AT_decl_file("../FreeRTOS_TM4C1294_Base_Startup.c")
      31                            .dwattr $C$DW$2, DW_AT_decl_line(0x3b)
      32                            .dwattr $C$DW$2, DW_AT_decl_column(0x0d)
      33                            .dwendtag $C$DW$2
      34                    
      35                    
      36                    $C$DW$3 .dwtag  DW_TAG_subprogram
      37                            .dwattr $C$DW$3, DW_AT_name("xPortSysTickHandler")
      38                            .dwattr $C$DW$3, DW_AT_TI_symbol_name("xPortSysTickHandler")
      39                            .dwattr $C$DW$3, DW_AT_declaration
      40                            .dwattr $C$DW$3, DW_AT_external
      41                            .dwattr $C$DW$3, DW_AT_decl_file("../FreeRTOS_TM4C1294_Base_Startup.c")
      42                            .dwattr $C$DW$3, DW_AT_decl_line(0x3c)
      43                            .dwattr $C$DW$3, DW_AT_decl_column(0x0d)
      44                            .dwendtag $C$DW$3
      45                    
      46                    
      47                    $C$DW$4 .dwtag  DW_TAG_subprogram
      48                            .dwattr $C$DW$4, DW_AT_name("Timer_0_A_ISR_Handler")
      49                            .dwattr $C$DW$4, DW_AT_TI_symbol_name("Timer_0_A_ISR_Handler")
      50                            .dwattr $C$DW$4, DW_AT_declaration
      51                            .dwattr $C$DW$4, DW_AT_external
      52                            .dwattr $C$DW$4, DW_AT_decl_file("../FreeRTOS_TM4C1294_Base_Startup.c")
      53                            .dwattr $C$DW$4, DW_AT_decl_line(0x42)
      54                            .dwattr $C$DW$4, DW_AT_decl_column(0x0d)
      55                            .dwendtag $C$DW$4
TI ARM Assembler PC v15.12.1 Tue Oct 18 10:42:29 2016

Tools Copyright (c) 1996-2015 Texas Instruments Incorporated
FreeRTOS_TM4C1294_Base_Startup.asm                                   PAGE    2

      56                    
      57 00000000           pulStack:       .usect  ".bss:pulStack",256,4
      58                            .clink ".bss:pulStack"
      59                    $C$DW$5 .dwtag  DW_TAG_variable
      60                            .dwattr $C$DW$5, DW_AT_name("pulStack")
      61                            .dwattr $C$DW$5, DW_AT_TI_symbol_name("pulStack")
      62                            .dwattr $C$DW$5, DW_AT_type(*$C$DW$T$47)
      63                            .dwattr $C$DW$5, DW_AT_location[DW_OP_addr pulStack]
      64                            .dwattr $C$DW$5, DW_AT_decl_file("../FreeRTOS_TM4C1294_Base_Startup.c")
      65                            .dwattr $C$DW$5, DW_AT_decl_line(0x4f)
      66                            .dwattr $C$DW$5, DW_AT_decl_column(0x16)
      67                    
      68                            .global g_pfnVectors
      69 00000000                   .sect   ".intvecs"
      70                            .align  4
      71                            .elfsym g_pfnVectors,SYM_SIZE(512)
      72 00000000           g_pfnVectors:
      73 00000000 00000100!         .bits   pulStack + 256,32               ; g_pfnVectors[0] @ 0
      74 00000004 00000000!         .bits   ResetISR,32             ; g_pfnVectors[1] @ 32
      75 00000008 00000000!         .bits   NmiSR,32                ; g_pfnVectors[2] @ 64
      76 0000000c 00000000!         .bits   FaultISR,32             ; g_pfnVectors[3] @ 96
      77 00000010 00000000!         .bits   IntDefaultHandler,32            ; g_pfnVectors[4] @ 128
      78 00000014 00000000!         .bits   IntDefaultHandler,32            ; g_pfnVectors[5] @ 160
      79 00000018 00000000!         .bits   IntDefaultHandler,32            ; g_pfnVectors[6] @ 192
      80 0000001c 00000000          .bits   0,32                    ; g_pfnVectors[7] @ 224
      81 00000020 00000000          .bits   0,32                    ; g_pfnVectors[8] @ 256
      82 00000024 00000000          .bits   0,32                    ; g_pfnVectors[9] @ 288
      83 00000028 00000000          .bits   0,32                    ; g_pfnVectors[10] @ 320
      84 0000002c 00000000!         .bits   vPortSVCHandler,32              ; g_pfnVectors[11] @ 352
      85 00000030 00000000!         .bits   IntDefaultHandler,32            ; g_pfnVectors[12] @ 384
      86 00000034 00000000          .bits   0,32                    ; g_pfnVectors[13] @ 416
      87 00000038 00000000!         .bits   xPortPendSVHandler,32           ; g_pfnVectors[14] @ 448
      88 0000003c 00000000!         .bits   xPortSysTickHandler,32          ; g_pfnVectors[15] @ 480
      89 00000040 00000000!         .bits   IntDefaultHandler,32            ; g_pfnVectors[16] @ 512
      90 00000044 00000000!         .bits   IntDefaultHandler,32            ; g_pfnVectors[17] @ 544
      91 00000048 00000000!         .bits   IntDefaultHandler,32            ; g_pfnVectors[18] @ 576
      92 0000004c 00000000!         .bits   IntDefaultHandler,32            ; g_pfnVectors[19] @ 608
      93 00000050 00000000!         .bits   IntDefaultHandler,32            ; g_pfnVectors[20] @ 640
      94 00000054 00000000!         .bits   IntDefaultHandler,32            ; g_pfnVectors[21] @ 672
      95 00000058 00000000!         .bits   IntDefaultHandler,32            ; g_pfnVectors[22] @ 704
      96 0000005c 00000000!         .bits   IntDefaultHandler,32            ; g_pfnVectors[23] @ 736
      97 00000060 00000000!         .bits   IntDefaultHandler,32            ; g_pfnVectors[24] @ 768
      98 00000064 00000000!         .bits   IntDefaultHandler,32            ; g_pfnVectors[25] @ 800
      99 00000068 00000000!         .bits   IntDefaultHandler,32            ; g_pfnVectors[26] @ 832
     100 0000006c 00000000!         .bits   IntDefaultHandler,32            ; g_pfnVectors[27] @ 864
     101 00000070 00000000!         .bits   IntDefaultHandler,32            ; g_pfnVectors[28] @ 896
     102 00000074 00000000!         .bits   IntDefaultHandler,32            ; g_pfnVectors[29] @ 928
     103 00000078 00000000!         .bits   IntDefaultHandler,32            ; g_pfnVectors[30] @ 960
     104 0000007c 00000000!         .bits   IntDefaultHandler,32            ; g_pfnVectors[31] @ 992
     105 00000080 00000000!         .bits   IntDefaultHandler,32            ; g_pfnVectors[32] @ 1024
     106 00000084 00000000!         .bits   IntDefaultHandler,32            ; g_pfnVectors[33] @ 1056
     107 00000088 00000000!         .bits   IntDefaultHandler,32            ; g_pfnVectors[34] @ 1088
     108 0000008c 00000000!         .bits   Timer_0_A_ISR_Handler,32                ; g_pfnVectors[35] @ 1120
     109 00000090 00000000!         .bits   IntDefaultHandler,32            ; g_pfnVectors[36] @ 1152
     110 00000094 00000000!         .bits   IntDefaultHandler,32            ; g_pfnVectors[37] @ 1184
TI ARM Assembler PC v15.12.1 Tue Oct 18 10:42:29 2016

Tools Copyright (c) 1996-2015 Texas Instruments Incorporated
FreeRTOS_TM4C1294_Base_Startup.asm                                   PAGE    3

     111 00000098 00000000!         .bits   IntDefaultHandler,32            ; g_pfnVectors[38] @ 1216
     112 0000009c 00000000!         .bits   IntDefaultHandler,32            ; g_pfnVectors[39] @ 1248
     113 000000a0 00000000!         .bits   IntDefaultHandler,32            ; g_pfnVectors[40] @ 1280
     114 000000a4 00000000!         .bits   IntDefaultHandler,32            ; g_pfnVectors[41] @ 1312
     115 000000a8 00000000!         .bits   IntDefaultHandler,32            ; g_pfnVectors[42] @ 1344
     116 000000ac 00000000!         .bits   IntDefaultHandler,32            ; g_pfnVectors[43] @ 1376
     117 000000b0 00000000!         .bits   IntDefaultHandler,32            ; g_pfnVectors[44] @ 1408
     118 000000b4 00000000!         .bits   IntDefaultHandler,32            ; g_pfnVectors[45] @ 1440
     119 000000b8 00000000!         .bits   IntDefaultHandler,32            ; g_pfnVectors[46] @ 1472
     120 000000bc 00000000!         .bits   IntDefaultHandler,32            ; g_pfnVectors[47] @ 1504
     121 000000c0 00000000!         .bits   IntDefaultHandler,32            ; g_pfnVectors[48] @ 1536
     122 000000c4 00000000!         .bits   IntDefaultHandler,32            ; g_pfnVectors[49] @ 1568
     123 000000c8 00000000!         .bits   IntDefaultHandler,32            ; g_pfnVectors[50] @ 1600
     124 000000cc 00000000!         .bits   IntDefaultHandler,32            ; g_pfnVectors[51] @ 1632
     125 000000d0 00000000!         .bits   IntDefaultHandler,32            ; g_pfnVectors[52] @ 1664
     126 000000d4 00000000!         .bits   IntDefaultHandler,32            ; g_pfnVectors[53] @ 1696
     127 000000d8 00000000!         .bits   IntDefaultHandler,32            ; g_pfnVectors[54] @ 1728
     128 000000dc 00000000!         .bits   IntDefaultHandler,32            ; g_pfnVectors[55] @ 1760
     129 000000e0 00000000!         .bits   IntDefaultHandler,32            ; g_pfnVectors[56] @ 1792
     130 000000e4 00000000!         .bits   IntDefaultHandler,32            ; g_pfnVectors[57] @ 1824
     131 000000e8 00000000!         .bits   IntDefaultHandler,32            ; g_pfnVectors[58] @ 1856
     132 000000ec 00000000!         .bits   IntDefaultHandler,32            ; g_pfnVectors[59] @ 1888
     133 000000f0 00000000!         .bits   IntDefaultHandler,32            ; g_pfnVectors[60] @ 1920
     134 000000f4 00000000!         .bits   IntDefaultHandler,32            ; g_pfnVectors[61] @ 1952
     135 000000f8 00000000!         .bits   IntDefaultHandler,32            ; g_pfnVectors[62] @ 1984
     136 000000fc 00000000!         .bits   IntDefaultHandler,32            ; g_pfnVectors[63] @ 2016
     137 00000100 00000000!         .bits   IntDefaultHandler,32            ; g_pfnVectors[64] @ 2048
     138 00000104 00000000!         .bits   IntDefaultHandler,32            ; g_pfnVectors[65] @ 2080
     139 00000108 00000000!         .bits   IntDefaultHandler,32            ; g_pfnVectors[66] @ 2112
     140 0000010c 00000000!         .bits   IntDefaultHandler,32            ; g_pfnVectors[67] @ 2144
     141 00000110 00000000!         .bits   IntDefaultHandler,32            ; g_pfnVectors[68] @ 2176
     142 00000114 00000000!         .bits   IntDefaultHandler,32            ; g_pfnVectors[69] @ 2208
     143 00000118 00000000!         .bits   IntDefaultHandler,32            ; g_pfnVectors[70] @ 2240
     144 0000011c 00000000!         .bits   IntDefaultHandler,32            ; g_pfnVectors[71] @ 2272
     145 00000120 00000000!         .bits   IntDefaultHandler,32            ; g_pfnVectors[72] @ 2304
     146 00000124 00000000!         .bits   IntDefaultHandler,32            ; g_pfnVectors[73] @ 2336
     147 00000128 00000000!         .bits   IntDefaultHandler,32            ; g_pfnVectors[74] @ 2368
     148 0000012c 00000000!         .bits   IntDefaultHandler,32            ; g_pfnVectors[75] @ 2400
     149 00000130 00000000!         .bits   IntDefaultHandler,32            ; g_pfnVectors[76] @ 2432
     150 00000134 00000000!         .bits   IntDefaultHandler,32            ; g_pfnVectors[77] @ 2464
     151 00000138 00000000!         .bits   IntDefaultHandler,32            ; g_pfnVectors[78] @ 2496
     152 0000013c 00000000!         .bits   IntDefaultHandler,32            ; g_pfnVectors[79] @ 2528
     153 00000140 00000000!         .bits   IntDefaultHandler,32            ; g_pfnVectors[80] @ 2560
     154 00000144 00000000!         .bits   IntDefaultHandler,32            ; g_pfnVectors[81] @ 2592
     155 00000148 00000000!         .bits   IntDefaultHandler,32            ; g_pfnVectors[82] @ 2624
     156 0000014c 00000000!         .bits   IntDefaultHandler,32            ; g_pfnVectors[83] @ 2656
     157 00000150 00000000          .bits   0,32                    ; g_pfnVectors[84] @ 2688
     158 00000154 00000000          .bits   0,32                    ; g_pfnVectors[85] @ 2720
     159 00000158 00000000!         .bits   IntDefaultHandler,32            ; g_pfnVectors[86] @ 2752
     160 0000015c 00000000!         .bits   IntDefaultHandler,32            ; g_pfnVectors[87] @ 2784
     161 00000160 00000000!         .bits   IntDefaultHandler,32            ; g_pfnVectors[88] @ 2816
     162 00000164 00000000!         .bits   IntDefaultHandler,32            ; g_pfnVectors[89] @ 2848
     163 00000168 00000000          .bits   0,32                    ; g_pfnVectors[90] @ 2880
     164 0000016c 00000000!         .bits   IntDefaultHandler,32            ; g_pfnVectors[91] @ 2912
     165 00000170 00000000!         .bits   IntDefaultHandler,32            ; g_pfnVectors[92] @ 2944
TI ARM Assembler PC v15.12.1 Tue Oct 18 10:42:29 2016

Tools Copyright (c) 1996-2015 Texas Instruments Incorporated
FreeRTOS_TM4C1294_Base_Startup.asm                                   PAGE    4

     166 00000174 00000000!         .bits   IntDefaultHandler,32            ; g_pfnVectors[93] @ 2976
     167 00000178 00000000!         .bits   IntDefaultHandler,32            ; g_pfnVectors[94] @ 3008
     168 0000017c 00000000!         .bits   IntDefaultHandler,32            ; g_pfnVectors[95] @ 3040
     169 00000180 00000000!         .bits   IntDefaultHandler,32            ; g_pfnVectors[96] @ 3072
     170 00000184 00000000!         .bits   IntDefaultHandler,32            ; g_pfnVectors[97] @ 3104
     171 00000188 00000000!         .bits   IntDefaultHandler,32            ; g_pfnVectors[98] @ 3136
     172 0000018c 00000000!         .bits   IntDefaultHandler,32            ; g_pfnVectors[99] @ 3168
     173 00000190 00000000!         .bits   IntDefaultHandler,32            ; g_pfnVectors[100] @ 3200
     174 00000194 00000000!         .bits   IntDefaultHandler,32            ; g_pfnVectors[101] @ 3232
     175 00000198 00000000!         .bits   IntDefaultHandler,32            ; g_pfnVectors[102] @ 3264
     176 0000019c 00000000!         .bits   IntDefaultHandler,32            ; g_pfnVectors[103] @ 3296
     177 000001a0 00000000!         .bits   IntDefaultHandler,32            ; g_pfnVectors[104] @ 3328
     178 000001a4 00000000!         .bits   IntDefaultHandler,32            ; g_pfnVectors[105] @ 3360
     179 000001a8 00000000!         .bits   IntDefaultHandler,32            ; g_pfnVectors[106] @ 3392
     180 000001ac 00000000!         .bits   IntDefaultHandler,32            ; g_pfnVectors[107] @ 3424
     181 000001b0 00000000!         .bits   IntDefaultHandler,32            ; g_pfnVectors[108] @ 3456
     182 000001b4 00000000!         .bits   IntDefaultHandler,32            ; g_pfnVectors[109] @ 3488
     183 000001b8 00000000!         .bits   IntDefaultHandler,32            ; g_pfnVectors[110] @ 3520
     184 000001bc 00000000!         .bits   IntDefaultHandler,32            ; g_pfnVectors[111] @ 3552
     185 000001c0 00000000!         .bits   IntDefaultHandler,32            ; g_pfnVectors[112] @ 3584
     186 000001c4 00000000!         .bits   IntDefaultHandler,32            ; g_pfnVectors[113] @ 3616
     187 000001c8 00000000!         .bits   IntDefaultHandler,32            ; g_pfnVectors[114] @ 3648
     188 000001cc 00000000!         .bits   IntDefaultHandler,32            ; g_pfnVectors[115] @ 3680
     189 000001d0 00000000!         .bits   IntDefaultHandler,32            ; g_pfnVectors[116] @ 3712
     190 000001d4 00000000!         .bits   IntDefaultHandler,32            ; g_pfnVectors[117] @ 3744
     191 000001d8 00000000!         .bits   IntDefaultHandler,32            ; g_pfnVectors[118] @ 3776
     192 000001dc 00000000!         .bits   IntDefaultHandler,32            ; g_pfnVectors[119] @ 3808
     193 000001e0 00000000!         .bits   IntDefaultHandler,32            ; g_pfnVectors[120] @ 3840
     194 000001e4 00000000!         .bits   IntDefaultHandler,32            ; g_pfnVectors[121] @ 3872
     195 000001e8 00000000!         .bits   IntDefaultHandler,32            ; g_pfnVectors[122] @ 3904
     196 000001ec 00000000!         .bits   IntDefaultHandler,32            ; g_pfnVectors[123] @ 3936
     197 000001f0 00000000!         .bits   IntDefaultHandler,32            ; g_pfnVectors[124] @ 3968
     198 000001f4 00000000!         .bits   IntDefaultHandler,32            ; g_pfnVectors[125] @ 4000
     199 000001f8 00000000!         .bits   IntDefaultHandler,32            ; g_pfnVectors[126] @ 4032
     200 000001fc 00000000!         .bits   IntDefaultHandler,32            ; g_pfnVectors[127] @ 4064
     201                    
     202                    $C$DW$6 .dwtag  DW_TAG_variable
     203                            .dwattr $C$DW$6, DW_AT_name("g_pfnVectors")
     204                            .dwattr $C$DW$6, DW_AT_TI_symbol_name("g_pfnVectors")
     205                            .dwattr $C$DW$6, DW_AT_location[DW_OP_addr g_pfnVectors]
     206                            .dwattr $C$DW$6, DW_AT_type(*$C$DW$T$23)
     207                            .dwattr $C$DW$6, DW_AT_external
     208                            .dwattr $C$DW$6, DW_AT_decl_file("../FreeRTOS_TM4C1294_Base_Startup.c")
     209                            .dwattr $C$DW$6, DW_AT_decl_line(0x66)
     210                            .dwattr $C$DW$6, DW_AT_decl_column(0x0f)
     211                    
     212                    ;       C:\TI_CodeComposer\ccsv6\tools\compiler\ti-cgt-arm_15.12.1.LTS\bin\armacpia.exe -@C:\\Users\\R
     213 00000000                   .sect   ".text"
     214                            .clink
     215                            .thumbfunc ResetISR
     216 00000000                   .thumb
     217                            .global ResetISR
     218                    
     219                    $C$DW$7 .dwtag  DW_TAG_subprogram
     220                            .dwattr $C$DW$7, DW_AT_name("ResetISR")
TI ARM Assembler PC v15.12.1 Tue Oct 18 10:42:29 2016

Tools Copyright (c) 1996-2015 Texas Instruments Incorporated
FreeRTOS_TM4C1294_Base_Startup.asm                                   PAGE    5

     221                            .dwattr $C$DW$7, DW_AT_low_pc(ResetISR)
     222                            .dwattr $C$DW$7, DW_AT_high_pc(0x00)
     223                            .dwattr $C$DW$7, DW_AT_TI_symbol_name("ResetISR")
     224                            .dwattr $C$DW$7, DW_AT_external
     225                            .dwattr $C$DW$7, DW_AT_TI_begin_file("../FreeRTOS_TM4C1294_Base_Startup.c")
     226                            .dwattr $C$DW$7, DW_AT_TI_begin_line(0xf5)
     227                            .dwattr $C$DW$7, DW_AT_TI_begin_column(0x06)
     228                            .dwattr $C$DW$7, DW_AT_decl_file("../FreeRTOS_TM4C1294_Base_Startup.c")
     229                            .dwattr $C$DW$7, DW_AT_decl_line(0xf5)
     230                            .dwattr $C$DW$7, DW_AT_decl_column(0x06)
     231                            .dwattr $C$DW$7, DW_AT_TI_max_frame_size(0x00)
     232                            .dwpsn  file "../FreeRTOS_TM4C1294_Base_Startup.c",line 245,column 21,is_stmt,address ResetISR
     233                    
     234                            .dwfde $C$DW$CIE, ResetISR
     235                    
     236                    ;*****************************************************************************
     237                    ;* FUNCTION NAME: ResetISR                                                   *
     238                    ;*                                                                           *
     239                    ;*   Regs Modified     :                                                     *
     240                    ;*   Regs Used         : LR                                                  *
     241                    ;*   Local Frame Size  : 0 Args + 0 Auto + 0 Save = 0 byte                   *
     242                    ;*****************************************************************************
     243 00000000           ResetISR:
     244                    ;* --------------------------------------------------------------------------*
     245                            .dwcfi  cfa_offset, 0
     246                            .dwpsn  file "../FreeRTOS_TM4C1294_Base_Startup.c",line 249,column 2,is_stmt,isa 1
     247                        .global _c_int00
     248 00000000 BFFEF7FF!     b.w     _c_int00 ; [KEEP 32-BIT INS]
     249                            .dwpsn  file "../FreeRTOS_TM4C1294_Base_Startup.c",line 251,column 1,is_stmt,isa 1
     250                    $C$DW$8 .dwtag  DW_TAG_TI_branch
     251                            .dwattr $C$DW$8, DW_AT_low_pc(0x00)
     252                            .dwattr $C$DW$8, DW_AT_TI_return
     253                    
     254 00000004 4770              BX        LR                    ; [DPU_3_PIPE]  ; [ORIG 16-BIT INS]
     255                            ; BRANCH OCCURS                  ; [] 
     256                            .dwattr $C$DW$7, DW_AT_TI_end_file("../FreeRTOS_TM4C1294_Base_Startup.c")
     257                            .dwattr $C$DW$7, DW_AT_TI_end_line(0xfb)
     258                            .dwattr $C$DW$7, DW_AT_TI_end_column(0x01)
     259                            .dwendentry
     260                            .dwendtag $C$DW$7
     261                    
     262 00000006                   .sect   ".text"
     263                            .clink
     264                            .thumbfunc NmiSR
     265 00000006                   .thumb
     266                    
     267                    $C$DW$9 .dwtag  DW_TAG_subprogram
     268                            .dwattr $C$DW$9, DW_AT_name("NmiSR")
     269                            .dwattr $C$DW$9, DW_AT_low_pc(NmiSR)
     270                            .dwattr $C$DW$9, DW_AT_high_pc(0x00)
     271                            .dwattr $C$DW$9, DW_AT_TI_symbol_name("NmiSR")
     272                            .dwattr $C$DW$9, DW_AT_TI_begin_file("../FreeRTOS_TM4C1294_Base_Startup.c")
     273                            .dwattr $C$DW$9, DW_AT_TI_begin_line(0x104)
     274                            .dwattr $C$DW$9, DW_AT_TI_begin_column(0x0d)
     275                            .dwattr $C$DW$9, DW_AT_decl_file("../FreeRTOS_TM4C1294_Base_Startup.c")
TI ARM Assembler PC v15.12.1 Tue Oct 18 10:42:29 2016

Tools Copyright (c) 1996-2015 Texas Instruments Incorporated
FreeRTOS_TM4C1294_Base_Startup.asm                                   PAGE    6

     276                            .dwattr $C$DW$9, DW_AT_decl_line(0x104)
     277                            .dwattr $C$DW$9, DW_AT_decl_column(0x0d)
     278                            .dwattr $C$DW$9, DW_AT_TI_max_frame_size(0x00)
     279                            .dwpsn  file "../FreeRTOS_TM4C1294_Base_Startup.c",line 260,column 25,is_stmt,address NmiSR,is
     280                    
     281                            .dwfde $C$DW$CIE, NmiSR
     282                    
     283                    ;*****************************************************************************
     284                    ;* FUNCTION NAME: NmiSR                                                      *
     285                    ;*                                                                           *
     286                    ;*   Regs Modified     :                                                     *
     287                    ;*   Regs Used         : LR                                                  *
     288                    ;*   Local Frame Size  : 0 Args + 0 Auto + 0 Save = 0 byte                   *
     289                    ;*****************************************************************************
     290 00000006           NmiSR:
     291                    ;* --------------------------------------------------------------------------*
     292                            .dwcfi  cfa_offset, 0
     293                            .dwpsn  file "../FreeRTOS_TM4C1294_Base_Startup.c",line 264,column 9,is_stmt,isa 1
     294                    ;* --------------------------------------------------------------------------*
     295                    ;*   BEGIN LOOP ||$C$L1||
     296                    ;*
     297                    ;*   Loop source line                : 264
     298                    ;*   Loop closing brace source line  : 265
     299                    ;*   Known Minimum Trip Count        : 1
     300                    ;*   Known Maximum Trip Count        : 4294967295
     301                    ;*   Known Max Trip Count Factor     : 1
     302                    ;* --------------------------------------------------------------------------*
     303 00000006           ||$C$L1||:    
     304 00000006 E7FE              B         ||$C$L1||             ; [DPU_3_PIPE] |264|  ; [ORIG 16-BIT INS]
     305                            ; BRANCH OCCURS {||$C$L1||}      ; [] |264| 
     306                    ;* --------------------------------------------------------------------------*
     307                            .dwattr $C$DW$9, DW_AT_TI_end_file("../FreeRTOS_TM4C1294_Base_Startup.c")
     308                            .dwattr $C$DW$9, DW_AT_TI_end_line(0x10a)
     309                            .dwattr $C$DW$9, DW_AT_TI_end_column(0x01)
     310                            .dwendentry
     311                            .dwendtag $C$DW$9
     312                    
     313 00000008                   .sect   ".text"
     314                            .clink
     315                            .thumbfunc FaultISR
     316 00000008                   .thumb
     317                    
     318                    $C$DW$10        .dwtag  DW_TAG_subprogram
     319                            .dwattr $C$DW$10, DW_AT_name("FaultISR")
     320                            .dwattr $C$DW$10, DW_AT_low_pc(FaultISR)
     321                            .dwattr $C$DW$10, DW_AT_high_pc(0x00)
     322                            .dwattr $C$DW$10, DW_AT_TI_symbol_name("FaultISR")
     323                            .dwattr $C$DW$10, DW_AT_TI_begin_file("../FreeRTOS_TM4C1294_Base_Startup.c")
     324                            .dwattr $C$DW$10, DW_AT_TI_begin_line(0x113)
     325                            .dwattr $C$DW$10, DW_AT_TI_begin_column(0x0d)
     326                            .dwattr $C$DW$10, DW_AT_decl_file("../FreeRTOS_TM4C1294_Base_Startup.c")
     327                            .dwattr $C$DW$10, DW_AT_decl_line(0x113)
     328                            .dwattr $C$DW$10, DW_AT_decl_column(0x0d)
     329                            .dwattr $C$DW$10, DW_AT_TI_max_frame_size(0x00)
     330                            .dwpsn  file "../FreeRTOS_TM4C1294_Base_Startup.c",line 275,column 28,is_stmt,address FaultISR
TI ARM Assembler PC v15.12.1 Tue Oct 18 10:42:29 2016

Tools Copyright (c) 1996-2015 Texas Instruments Incorporated
FreeRTOS_TM4C1294_Base_Startup.asm                                   PAGE    7

     331                    
     332                            .dwfde $C$DW$CIE, FaultISR
     333                    
     334                    ;*****************************************************************************
     335                    ;* FUNCTION NAME: FaultISR                                                   *
     336                    ;*                                                                           *
     337                    ;*   Regs Modified     :                                                     *
     338                    ;*   Regs Used         : LR                                                  *
     339                    ;*   Local Frame Size  : 0 Args + 0 Auto + 0 Save = 0 byte                   *
     340                    ;*****************************************************************************
     341 00000008           FaultISR:
     342                    ;* --------------------------------------------------------------------------*
     343                            .dwcfi  cfa_offset, 0
     344                            .dwpsn  file "../FreeRTOS_TM4C1294_Base_Startup.c",line 284,column 9,is_stmt,isa 1
     345                    ;* --------------------------------------------------------------------------*
     346                    ;*   BEGIN LOOP ||$C$L2||
     347                    ;*
     348                    ;*   Loop source line                : 284
     349                    ;*   Loop closing brace source line  : 285
     350                    ;*   Known Minimum Trip Count        : 1
     351                    ;*   Known Maximum Trip Count        : 4294967295
     352                    ;*   Known Max Trip Count Factor     : 1
     353                    ;* --------------------------------------------------------------------------*
     354 00000008           ||$C$L2||:    
     355 00000008 E7FE              B         ||$C$L2||             ; [DPU_3_PIPE] |284|  ; [ORIG 16-BIT INS]
     356                            ; BRANCH OCCURS {||$C$L2||}      ; [] |284| 
     357                    ;* --------------------------------------------------------------------------*
     358                            .dwattr $C$DW$10, DW_AT_TI_end_file("../FreeRTOS_TM4C1294_Base_Startup.c")
     359                            .dwattr $C$DW$10, DW_AT_TI_end_line(0x11e)
     360                            .dwattr $C$DW$10, DW_AT_TI_end_column(0x01)
     361                            .dwendentry
     362                            .dwendtag $C$DW$10
     363                    
     364 0000000a                   .sect   ".text"
     365                            .clink
     366                            .thumbfunc IntDefaultHandler
     367 0000000a                   .thumb
     368                    
     369                    $C$DW$11        .dwtag  DW_TAG_subprogram
     370                            .dwattr $C$DW$11, DW_AT_name("IntDefaultHandler")
     371                            .dwattr $C$DW$11, DW_AT_low_pc(IntDefaultHandler)
     372                            .dwattr $C$DW$11, DW_AT_high_pc(0x00)
     373                            .dwattr $C$DW$11, DW_AT_TI_symbol_name("IntDefaultHandler")
     374                            .dwattr $C$DW$11, DW_AT_TI_begin_file("../FreeRTOS_TM4C1294_Base_Startup.c")
     375                            .dwattr $C$DW$11, DW_AT_TI_begin_line(0x127)
     376                            .dwattr $C$DW$11, DW_AT_TI_begin_column(0x0d)
     377                            .dwattr $C$DW$11, DW_AT_decl_file("../FreeRTOS_TM4C1294_Base_Startup.c")
     378                            .dwattr $C$DW$11, DW_AT_decl_line(0x127)
     379                            .dwattr $C$DW$11, DW_AT_decl_column(0x0d)
     380                            .dwattr $C$DW$11, DW_AT_TI_max_frame_size(0x00)
     381                            .dwpsn  file "../FreeRTOS_TM4C1294_Base_Startup.c",line 295,column 37,is_stmt,address IntDefau
     382                    
     383                            .dwfde $C$DW$CIE, IntDefaultHandler
     384                    
     385                    ;*****************************************************************************
TI ARM Assembler PC v15.12.1 Tue Oct 18 10:42:29 2016

Tools Copyright (c) 1996-2015 Texas Instruments Incorporated
FreeRTOS_TM4C1294_Base_Startup.asm                                   PAGE    8

     386                    ;* FUNCTION NAME: IntDefaultHandler                                          *
     387                    ;*                                                                           *
     388                    ;*   Regs Modified     :                                                     *
     389                    ;*   Regs Used         : LR                                                  *
     390                    ;*   Local Frame Size  : 0 Args + 0 Auto + 0 Save = 0 byte                   *
     391                    ;*****************************************************************************
     392 0000000a           IntDefaultHandler:
     393                    ;* --------------------------------------------------------------------------*
     394                            .dwcfi  cfa_offset, 0
     395                            .dwpsn  file "../FreeRTOS_TM4C1294_Base_Startup.c",line 299,column 9,is_stmt,isa 1
     396                    ;* --------------------------------------------------------------------------*
     397                    ;*   BEGIN LOOP ||$C$L3||
     398                    ;*
     399                    ;*   Loop source line                : 299
     400                    ;*   Loop closing brace source line  : 300
     401                    ;*   Known Minimum Trip Count        : 1
     402                    ;*   Known Maximum Trip Count        : 4294967295
     403                    ;*   Known Max Trip Count Factor     : 1
     404                    ;* --------------------------------------------------------------------------*
     405 0000000a           ||$C$L3||:    
     406 0000000a E7FE              B         ||$C$L3||             ; [DPU_3_PIPE] |299|  ; [ORIG 16-BIT INS]
     407                            ; BRANCH OCCURS {||$C$L3||}      ; [] |299| 
     408                    ;* --------------------------------------------------------------------------*
     409                            .dwattr $C$DW$11, DW_AT_TI_end_file("../FreeRTOS_TM4C1294_Base_Startup.c")
     410                            .dwattr $C$DW$11, DW_AT_TI_end_line(0x12d)
     411                            .dwattr $C$DW$11, DW_AT_TI_end_column(0x01)
     412                            .dwendentry
     413                            .dwendtag $C$DW$11
     414                    
     415                    ;*****************************************************************************
     416                    ;* UNDEFINED EXTERNAL REFERENCES                                             *
     417                    ;*****************************************************************************
     418                            .global xPortPendSVHandler
     419                            .global vPortSVCHandler
     420                            .global xPortSysTickHandler
     421                            .global Timer_0_A_ISR_Handler
     422                    
     423                    ;******************************************************************************
     424                    ;* BUILD ATTRIBUTES                                                           *
     425                    ;******************************************************************************
     426                            .battr "aeabi", Tag_File, 1, Tag_ABI_PCS_wchar_t(2)
     427                            .battr "aeabi", Tag_File, 1, Tag_ABI_FP_rounding(0)
     428                            .battr "aeabi", Tag_File, 1, Tag_ABI_FP_denormal(0)
     429                            .battr "aeabi", Tag_File, 1, Tag_ABI_FP_exceptions(0)
     430                            .battr "aeabi", Tag_File, 1, Tag_ABI_FP_number_model(1)
     431                            .battr "aeabi", Tag_File, 1, Tag_ABI_enum_size(0)
     432                            .battr "aeabi", Tag_File, 1, Tag_ABI_optimization_goals(5)
     433                            .battr "aeabi", Tag_File, 1, Tag_ABI_FP_optimization_goals(0)
     434                            .battr "TI", Tag_File, 1, Tag_Bitfield_layout(2)
     435                            .battr "TI", Tag_File, 1, Tag_FP_interface(1)
     436                    
     437                    ;******************************************************************************
     438                    ;* TYPE INFORMATION                                                           *
     439                    ;******************************************************************************
     440                    $C$DW$T$2       .dwtag  DW_TAG_unspecified_type
TI ARM Assembler PC v15.12.1 Tue Oct 18 10:42:29 2016

Tools Copyright (c) 1996-2015 Texas Instruments Incorporated
FreeRTOS_TM4C1294_Base_Startup.asm                                   PAGE    9

     441                            .dwattr $C$DW$T$2, DW_AT_name("void")
     442                    
     443                    $C$DW$T$3       .dwtag  DW_TAG_pointer_type
     444                            .dwattr $C$DW$T$3, DW_AT_type(*$C$DW$T$2)
     445                            .dwattr $C$DW$T$3, DW_AT_address_class(0x20)
     446                    
     447                    
     448                    $C$DW$T$20      .dwtag  DW_TAG_subroutine_type
     449                            .dwattr $C$DW$T$20, DW_AT_language(DW_LANG_C)
     450                            .dwendtag $C$DW$T$20
     451                    
     452                    $C$DW$T$21      .dwtag  DW_TAG_pointer_type
     453                            .dwattr $C$DW$T$21, DW_AT_type(*$C$DW$T$20)
     454                            .dwattr $C$DW$T$21, DW_AT_address_class(0x20)
     455                    
     456                    $C$DW$T$22      .dwtag  DW_TAG_const_type
     457                            .dwattr $C$DW$T$22, DW_AT_type(*$C$DW$T$21)
     458                    
     459                    
     460                    $C$DW$T$23      .dwtag  DW_TAG_array_type
     461                            .dwattr $C$DW$T$23, DW_AT_type(*$C$DW$T$22)
     462                            .dwattr $C$DW$T$23, DW_AT_language(DW_LANG_C)
     463                            .dwattr $C$DW$T$23, DW_AT_byte_size(0x200)
     464                    $C$DW$12        .dwtag  DW_TAG_subrange_type
     465                            .dwattr $C$DW$12, DW_AT_upper_bound(0x7f)
     466                    
     467                            .dwendtag $C$DW$T$23
     468                    
     469                    $C$DW$T$4       .dwtag  DW_TAG_base_type
     470                            .dwattr $C$DW$T$4, DW_AT_encoding(DW_ATE_boolean)
     471                            .dwattr $C$DW$T$4, DW_AT_name("bool")
     472                            .dwattr $C$DW$T$4, DW_AT_byte_size(0x01)
     473                    
     474                    $C$DW$T$5       .dwtag  DW_TAG_base_type
     475                            .dwattr $C$DW$T$5, DW_AT_encoding(DW_ATE_signed_char)
     476                            .dwattr $C$DW$T$5, DW_AT_name("signed char")
     477                            .dwattr $C$DW$T$5, DW_AT_byte_size(0x01)
     478                    
     479                    $C$DW$T$24      .dwtag  DW_TAG_typedef
     480                            .dwattr $C$DW$T$24, DW_AT_name("int8_t")
     481                            .dwattr $C$DW$T$24, DW_AT_type(*$C$DW$T$5)
     482                            .dwattr $C$DW$T$24, DW_AT_language(DW_LANG_C)
     483                            .dwattr $C$DW$T$24, DW_AT_decl_file("C:/TI_CodeComposer/ccsv6/tools/compiler/ti-cgt-arm_15.12.
     484                            .dwattr $C$DW$T$24, DW_AT_decl_line(0x2a)
     485                            .dwattr $C$DW$T$24, DW_AT_decl_column(0x1d)
     486                    
     487                    $C$DW$T$25      .dwtag  DW_TAG_typedef
     488                            .dwattr $C$DW$T$25, DW_AT_name("int_least8_t")
     489                            .dwattr $C$DW$T$25, DW_AT_type(*$C$DW$T$24)
     490                            .dwattr $C$DW$T$25, DW_AT_language(DW_LANG_C)
     491                            .dwattr $C$DW$T$25, DW_AT_decl_file("C:/TI_CodeComposer/ccsv6/tools/compiler/ti-cgt-arm_15.12.
     492                            .dwattr $C$DW$T$25, DW_AT_decl_line(0x37)
     493                            .dwattr $C$DW$T$25, DW_AT_decl_column(0x17)
     494                    
     495                    $C$DW$T$6       .dwtag  DW_TAG_base_type
TI ARM Assembler PC v15.12.1 Tue Oct 18 10:42:29 2016

Tools Copyright (c) 1996-2015 Texas Instruments Incorporated
FreeRTOS_TM4C1294_Base_Startup.asm                                   PAGE   10

     496                            .dwattr $C$DW$T$6, DW_AT_encoding(DW_ATE_unsigned_char)
     497                            .dwattr $C$DW$T$6, DW_AT_name("unsigned char")
     498                            .dwattr $C$DW$T$6, DW_AT_byte_size(0x01)
     499                    
     500                    $C$DW$T$26      .dwtag  DW_TAG_typedef
     501                            .dwattr $C$DW$T$26, DW_AT_name("uint8_t")
     502                            .dwattr $C$DW$T$26, DW_AT_type(*$C$DW$T$6)
     503                            .dwattr $C$DW$T$26, DW_AT_language(DW_LANG_C)
     504                            .dwattr $C$DW$T$26, DW_AT_decl_file("C:/TI_CodeComposer/ccsv6/tools/compiler/ti-cgt-arm_15.12.
     505                            .dwattr $C$DW$T$26, DW_AT_decl_line(0x2b)
     506                            .dwattr $C$DW$T$26, DW_AT_decl_column(0x1c)
     507                    
     508                    $C$DW$T$27      .dwtag  DW_TAG_typedef
     509                            .dwattr $C$DW$T$27, DW_AT_name("uint_least8_t")
     510                            .dwattr $C$DW$T$27, DW_AT_type(*$C$DW$T$26)
     511                            .dwattr $C$DW$T$27, DW_AT_language(DW_LANG_C)
     512                            .dwattr $C$DW$T$27, DW_AT_decl_file("C:/TI_CodeComposer/ccsv6/tools/compiler/ti-cgt-arm_15.12.
     513                            .dwattr $C$DW$T$27, DW_AT_decl_line(0x38)
     514                            .dwattr $C$DW$T$27, DW_AT_decl_column(0x16)
     515                    
     516                    $C$DW$T$7       .dwtag  DW_TAG_base_type
     517                            .dwattr $C$DW$T$7, DW_AT_encoding(DW_ATE_signed_char)
     518                            .dwattr $C$DW$T$7, DW_AT_name("wchar_t")
     519                            .dwattr $C$DW$T$7, DW_AT_byte_size(0x02)
     520                    
     521                    $C$DW$T$8       .dwtag  DW_TAG_base_type
     522                            .dwattr $C$DW$T$8, DW_AT_encoding(DW_ATE_signed)
     523                            .dwattr $C$DW$T$8, DW_AT_name("short")
     524                            .dwattr $C$DW$T$8, DW_AT_byte_size(0x02)
     525                    
     526                    $C$DW$T$28      .dwtag  DW_TAG_typedef
     527                            .dwattr $C$DW$T$28, DW_AT_name("int16_t")
     528                            .dwattr $C$DW$T$28, DW_AT_type(*$C$DW$T$8)
     529                            .dwattr $C$DW$T$28, DW_AT_language(DW_LANG_C)
     530                            .dwattr $C$DW$T$28, DW_AT_decl_file("C:/TI_CodeComposer/ccsv6/tools/compiler/ti-cgt-arm_15.12.
     531                            .dwattr $C$DW$T$28, DW_AT_decl_line(0x2c)
     532                            .dwattr $C$DW$T$28, DW_AT_decl_column(0x1d)
     533                    
     534                    $C$DW$T$29      .dwtag  DW_TAG_typedef
     535                            .dwattr $C$DW$T$29, DW_AT_name("int_least16_t")
     536                            .dwattr $C$DW$T$29, DW_AT_type(*$C$DW$T$28)
     537                            .dwattr $C$DW$T$29, DW_AT_language(DW_LANG_C)
     538                            .dwattr $C$DW$T$29, DW_AT_decl_file("C:/TI_CodeComposer/ccsv6/tools/compiler/ti-cgt-arm_15.12.
     539                            .dwattr $C$DW$T$29, DW_AT_decl_line(0x3a)
     540                            .dwattr $C$DW$T$29, DW_AT_decl_column(0x17)
     541                    
     542                    $C$DW$T$9       .dwtag  DW_TAG_base_type
     543                            .dwattr $C$DW$T$9, DW_AT_encoding(DW_ATE_unsigned)
     544                            .dwattr $C$DW$T$9, DW_AT_name("unsigned short")
     545                            .dwattr $C$DW$T$9, DW_AT_byte_size(0x02)
     546                    
     547                    $C$DW$T$30      .dwtag  DW_TAG_typedef
     548                            .dwattr $C$DW$T$30, DW_AT_name("uint16_t")
     549                            .dwattr $C$DW$T$30, DW_AT_type(*$C$DW$T$9)
     550                            .dwattr $C$DW$T$30, DW_AT_language(DW_LANG_C)
TI ARM Assembler PC v15.12.1 Tue Oct 18 10:42:29 2016

Tools Copyright (c) 1996-2015 Texas Instruments Incorporated
FreeRTOS_TM4C1294_Base_Startup.asm                                   PAGE   11

     551                            .dwattr $C$DW$T$30, DW_AT_decl_file("C:/TI_CodeComposer/ccsv6/tools/compiler/ti-cgt-arm_15.12.
     552                            .dwattr $C$DW$T$30, DW_AT_decl_line(0x2d)
     553                            .dwattr $C$DW$T$30, DW_AT_decl_column(0x1c)
     554                    
     555                    $C$DW$T$31      .dwtag  DW_TAG_typedef
     556                            .dwattr $C$DW$T$31, DW_AT_name("uint_least16_t")
     557                            .dwattr $C$DW$T$31, DW_AT_type(*$C$DW$T$30)
     558                            .dwattr $C$DW$T$31, DW_AT_language(DW_LANG_C)
     559                            .dwattr $C$DW$T$31, DW_AT_decl_file("C:/TI_CodeComposer/ccsv6/tools/compiler/ti-cgt-arm_15.12.
     560                            .dwattr $C$DW$T$31, DW_AT_decl_line(0x3b)
     561                            .dwattr $C$DW$T$31, DW_AT_decl_column(0x16)
     562                    
     563                    $C$DW$T$32      .dwtag  DW_TAG_typedef
     564                            .dwattr $C$DW$T$32, DW_AT_name("wchar_t")
     565                            .dwattr $C$DW$T$32, DW_AT_type(*$C$DW$T$9)
     566                            .dwattr $C$DW$T$32, DW_AT_language(DW_LANG_C)
     567                            .dwattr $C$DW$T$32, DW_AT_decl_file("C:/TI_CodeComposer/ccsv6/tools/compiler/ti-cgt-arm_15.12.
     568                            .dwattr $C$DW$T$32, DW_AT_decl_line(0x41)
     569                            .dwattr $C$DW$T$32, DW_AT_decl_column(0x1a)
     570                    
     571                    $C$DW$T$10      .dwtag  DW_TAG_base_type
     572                            .dwattr $C$DW$T$10, DW_AT_encoding(DW_ATE_signed)
     573                            .dwattr $C$DW$T$10, DW_AT_name("int")
     574                            .dwattr $C$DW$T$10, DW_AT_byte_size(0x04)
     575                    
     576                    $C$DW$T$33      .dwtag  DW_TAG_typedef
     577                            .dwattr $C$DW$T$33, DW_AT_name("int32_t")
     578                            .dwattr $C$DW$T$33, DW_AT_type(*$C$DW$T$10)
     579                            .dwattr $C$DW$T$33, DW_AT_language(DW_LANG_C)
     580                            .dwattr $C$DW$T$33, DW_AT_decl_file("C:/TI_CodeComposer/ccsv6/tools/compiler/ti-cgt-arm_15.12.
     581                            .dwattr $C$DW$T$33, DW_AT_decl_line(0x2e)
     582                            .dwattr $C$DW$T$33, DW_AT_decl_column(0x1d)
     583                    
     584                    $C$DW$T$34      .dwtag  DW_TAG_typedef
     585                            .dwattr $C$DW$T$34, DW_AT_name("int_fast16_t")
     586                            .dwattr $C$DW$T$34, DW_AT_type(*$C$DW$T$33)
     587                            .dwattr $C$DW$T$34, DW_AT_language(DW_LANG_C)
     588                            .dwattr $C$DW$T$34, DW_AT_decl_file("C:/TI_CodeComposer/ccsv6/tools/compiler/ti-cgt-arm_15.12.
     589                            .dwattr $C$DW$T$34, DW_AT_decl_line(0x47)
     590                            .dwattr $C$DW$T$34, DW_AT_decl_column(0x17)
     591                    
     592                    $C$DW$T$35      .dwtag  DW_TAG_typedef
     593                            .dwattr $C$DW$T$35, DW_AT_name("int_fast32_t")
     594                            .dwattr $C$DW$T$35, DW_AT_type(*$C$DW$T$33)
     595                            .dwattr $C$DW$T$35, DW_AT_language(DW_LANG_C)
     596                            .dwattr $C$DW$T$35, DW_AT_decl_file("C:/TI_CodeComposer/ccsv6/tools/compiler/ti-cgt-arm_15.12.
     597                            .dwattr $C$DW$T$35, DW_AT_decl_line(0x4a)
     598                            .dwattr $C$DW$T$35, DW_AT_decl_column(0x17)
     599                    
     600                    $C$DW$T$36      .dwtag  DW_TAG_typedef
     601                            .dwattr $C$DW$T$36, DW_AT_name("int_fast8_t")
     602                            .dwattr $C$DW$T$36, DW_AT_type(*$C$DW$T$33)
     603                            .dwattr $C$DW$T$36, DW_AT_language(DW_LANG_C)
     604                            .dwattr $C$DW$T$36, DW_AT_decl_file("C:/TI_CodeComposer/ccsv6/tools/compiler/ti-cgt-arm_15.12.
     605                            .dwattr $C$DW$T$36, DW_AT_decl_line(0x45)
TI ARM Assembler PC v15.12.1 Tue Oct 18 10:42:29 2016

Tools Copyright (c) 1996-2015 Texas Instruments Incorporated
FreeRTOS_TM4C1294_Base_Startup.asm                                   PAGE   12

     606                            .dwattr $C$DW$T$36, DW_AT_decl_column(0x17)
     607                    
     608                    $C$DW$T$37      .dwtag  DW_TAG_typedef
     609                            .dwattr $C$DW$T$37, DW_AT_name("int_least32_t")
     610                            .dwattr $C$DW$T$37, DW_AT_type(*$C$DW$T$33)
     611                            .dwattr $C$DW$T$37, DW_AT_language(DW_LANG_C)
     612                            .dwattr $C$DW$T$37, DW_AT_decl_file("C:/TI_CodeComposer/ccsv6/tools/compiler/ti-cgt-arm_15.12.
     613                            .dwattr $C$DW$T$37, DW_AT_decl_line(0x3c)
     614                            .dwattr $C$DW$T$37, DW_AT_decl_column(0x17)
     615                    
     616                    $C$DW$T$38      .dwtag  DW_TAG_typedef
     617                            .dwattr $C$DW$T$38, DW_AT_name("intptr_t")
     618                            .dwattr $C$DW$T$38, DW_AT_type(*$C$DW$T$10)
     619                            .dwattr $C$DW$T$38, DW_AT_language(DW_LANG_C)
     620                            .dwattr $C$DW$T$38, DW_AT_decl_file("C:/TI_CodeComposer/ccsv6/tools/compiler/ti-cgt-arm_15.12.
     621                            .dwattr $C$DW$T$38, DW_AT_decl_line(0x52)
     622                            .dwattr $C$DW$T$38, DW_AT_decl_column(0x1a)
     623                    
     624                    $C$DW$T$39      .dwtag  DW_TAG_typedef
     625                            .dwattr $C$DW$T$39, DW_AT_name("ptrdiff_t")
     626                            .dwattr $C$DW$T$39, DW_AT_type(*$C$DW$T$10)
     627                            .dwattr $C$DW$T$39, DW_AT_language(DW_LANG_C)
     628                            .dwattr $C$DW$T$39, DW_AT_decl_file("C:/TI_CodeComposer/ccsv6/tools/compiler/ti-cgt-arm_15.12.
     629                            .dwattr $C$DW$T$39, DW_AT_decl_line(0x36)
     630                            .dwattr $C$DW$T$39, DW_AT_decl_column(0x1c)
     631                    
     632                    $C$DW$T$11      .dwtag  DW_TAG_base_type
     633                            .dwattr $C$DW$T$11, DW_AT_encoding(DW_ATE_unsigned)
     634                            .dwattr $C$DW$T$11, DW_AT_name("unsigned int")
     635                            .dwattr $C$DW$T$11, DW_AT_byte_size(0x04)
     636                    
     637                    $C$DW$T$40      .dwtag  DW_TAG_typedef
     638                            .dwattr $C$DW$T$40, DW_AT_name("size_t")
     639                            .dwattr $C$DW$T$40, DW_AT_type(*$C$DW$T$11)
     640                            .dwattr $C$DW$T$40, DW_AT_language(DW_LANG_C)
     641                            .dwattr $C$DW$T$40, DW_AT_decl_file("C:/TI_CodeComposer/ccsv6/tools/compiler/ti-cgt-arm_15.12.
     642                            .dwattr $C$DW$T$40, DW_AT_decl_line(0x3a)
     643                            .dwattr $C$DW$T$40, DW_AT_decl_column(0x19)
     644                    
     645                    $C$DW$T$41      .dwtag  DW_TAG_typedef
     646                            .dwattr $C$DW$T$41, DW_AT_name("uint32_t")
     647                            .dwattr $C$DW$T$41, DW_AT_type(*$C$DW$T$11)
     648                            .dwattr $C$DW$T$41, DW_AT_language(DW_LANG_C)
     649                            .dwattr $C$DW$T$41, DW_AT_decl_file("C:/TI_CodeComposer/ccsv6/tools/compiler/ti-cgt-arm_15.12.
     650                            .dwattr $C$DW$T$41, DW_AT_decl_line(0x2f)
     651                            .dwattr $C$DW$T$41, DW_AT_decl_column(0x1c)
     652                    
     653                    $C$DW$T$42      .dwtag  DW_TAG_typedef
     654                            .dwattr $C$DW$T$42, DW_AT_name("uint_fast16_t")
     655                            .dwattr $C$DW$T$42, DW_AT_type(*$C$DW$T$41)
     656                            .dwattr $C$DW$T$42, DW_AT_language(DW_LANG_C)
     657                            .dwattr $C$DW$T$42, DW_AT_decl_file("C:/TI_CodeComposer/ccsv6/tools/compiler/ti-cgt-arm_15.12.
     658                            .dwattr $C$DW$T$42, DW_AT_decl_line(0x48)
     659                            .dwattr $C$DW$T$42, DW_AT_decl_column(0x16)
     660                    
TI ARM Assembler PC v15.12.1 Tue Oct 18 10:42:29 2016

Tools Copyright (c) 1996-2015 Texas Instruments Incorporated
FreeRTOS_TM4C1294_Base_Startup.asm                                   PAGE   13

     661                    $C$DW$T$43      .dwtag  DW_TAG_typedef
     662                            .dwattr $C$DW$T$43, DW_AT_name("uint_fast32_t")
     663                            .dwattr $C$DW$T$43, DW_AT_type(*$C$DW$T$41)
     664                            .dwattr $C$DW$T$43, DW_AT_language(DW_LANG_C)
     665                            .dwattr $C$DW$T$43, DW_AT_decl_file("C:/TI_CodeComposer/ccsv6/tools/compiler/ti-cgt-arm_15.12.
     666                            .dwattr $C$DW$T$43, DW_AT_decl_line(0x4b)
     667                            .dwattr $C$DW$T$43, DW_AT_decl_column(0x16)
     668                    
     669                    $C$DW$T$44      .dwtag  DW_TAG_typedef
     670                            .dwattr $C$DW$T$44, DW_AT_name("uint_fast8_t")
     671                            .dwattr $C$DW$T$44, DW_AT_type(*$C$DW$T$41)
     672                            .dwattr $C$DW$T$44, DW_AT_language(DW_LANG_C)
     673                            .dwattr $C$DW$T$44, DW_AT_decl_file("C:/TI_CodeComposer/ccsv6/tools/compiler/ti-cgt-arm_15.12.
     674                            .dwattr $C$DW$T$44, DW_AT_decl_line(0x46)
     675                            .dwattr $C$DW$T$44, DW_AT_decl_column(0x16)
     676                    
     677                    $C$DW$T$45      .dwtag  DW_TAG_typedef
     678                            .dwattr $C$DW$T$45, DW_AT_name("uint_least32_t")
     679                            .dwattr $C$DW$T$45, DW_AT_type(*$C$DW$T$41)
     680                            .dwattr $C$DW$T$45, DW_AT_language(DW_LANG_C)
     681                            .dwattr $C$DW$T$45, DW_AT_decl_file("C:/TI_CodeComposer/ccsv6/tools/compiler/ti-cgt-arm_15.12.
     682                            .dwattr $C$DW$T$45, DW_AT_decl_line(0x3d)
     683                            .dwattr $C$DW$T$45, DW_AT_decl_column(0x16)
     684                    
     685                    $C$DW$T$46      .dwtag  DW_TAG_typedef
     686                            .dwattr $C$DW$T$46, DW_AT_name("uintptr_t")
     687                            .dwattr $C$DW$T$46, DW_AT_type(*$C$DW$T$11)
     688                            .dwattr $C$DW$T$46, DW_AT_language(DW_LANG_C)
     689                            .dwattr $C$DW$T$46, DW_AT_decl_file("C:/TI_CodeComposer/ccsv6/tools/compiler/ti-cgt-arm_15.12.
     690                            .dwattr $C$DW$T$46, DW_AT_decl_line(0x53)
     691                            .dwattr $C$DW$T$46, DW_AT_decl_column(0x1a)
     692                    
     693                    $C$DW$T$12      .dwtag  DW_TAG_base_type
     694                            .dwattr $C$DW$T$12, DW_AT_encoding(DW_ATE_signed)
     695                            .dwattr $C$DW$T$12, DW_AT_name("long")
     696                            .dwattr $C$DW$T$12, DW_AT_byte_size(0x04)
     697                    
     698                    $C$DW$T$13      .dwtag  DW_TAG_base_type
     699                            .dwattr $C$DW$T$13, DW_AT_encoding(DW_ATE_unsigned)
     700                            .dwattr $C$DW$T$13, DW_AT_name("unsigned long")
     701                            .dwattr $C$DW$T$13, DW_AT_byte_size(0x04)
     702                    
     703                    
     704                    $C$DW$T$47      .dwtag  DW_TAG_array_type
     705                            .dwattr $C$DW$T$47, DW_AT_type(*$C$DW$T$13)
     706                            .dwattr $C$DW$T$47, DW_AT_language(DW_LANG_C)
     707                            .dwattr $C$DW$T$47, DW_AT_byte_size(0x100)
     708                    $C$DW$13        .dwtag  DW_TAG_subrange_type
     709                            .dwattr $C$DW$13, DW_AT_upper_bound(0x3f)
     710                    
     711                            .dwendtag $C$DW$T$47
     712                    
     713                    $C$DW$T$14      .dwtag  DW_TAG_base_type
     714                            .dwattr $C$DW$T$14, DW_AT_encoding(DW_ATE_signed)
     715                            .dwattr $C$DW$T$14, DW_AT_name("long long")
TI ARM Assembler PC v15.12.1 Tue Oct 18 10:42:29 2016

Tools Copyright (c) 1996-2015 Texas Instruments Incorporated
FreeRTOS_TM4C1294_Base_Startup.asm                                   PAGE   14

     716                            .dwattr $C$DW$T$14, DW_AT_byte_size(0x08)
     717                    
     718                    $C$DW$T$49      .dwtag  DW_TAG_typedef
     719                            .dwattr $C$DW$T$49, DW_AT_name("int64_t")
     720                            .dwattr $C$DW$T$49, DW_AT_type(*$C$DW$T$14)
     721                            .dwattr $C$DW$T$49, DW_AT_language(DW_LANG_C)
     722                            .dwattr $C$DW$T$49, DW_AT_decl_file("C:/TI_CodeComposer/ccsv6/tools/compiler/ti-cgt-arm_15.12.
     723                            .dwattr $C$DW$T$49, DW_AT_decl_line(0x32)
     724                            .dwattr $C$DW$T$49, DW_AT_decl_column(0x21)
     725                    
     726                    $C$DW$T$50      .dwtag  DW_TAG_typedef
     727                            .dwattr $C$DW$T$50, DW_AT_name("int_fast64_t")
     728                            .dwattr $C$DW$T$50, DW_AT_type(*$C$DW$T$49)
     729                            .dwattr $C$DW$T$50, DW_AT_language(DW_LANG_C)
     730                            .dwattr $C$DW$T$50, DW_AT_decl_file("C:/TI_CodeComposer/ccsv6/tools/compiler/ti-cgt-arm_15.12.
     731                            .dwattr $C$DW$T$50, DW_AT_decl_line(0x4e)
     732                            .dwattr $C$DW$T$50, DW_AT_decl_column(0x17)
     733                    
     734                    $C$DW$T$51      .dwtag  DW_TAG_typedef
     735                            .dwattr $C$DW$T$51, DW_AT_name("int_least64_t")
     736                            .dwattr $C$DW$T$51, DW_AT_type(*$C$DW$T$49)
     737                            .dwattr $C$DW$T$51, DW_AT_language(DW_LANG_C)
     738                            .dwattr $C$DW$T$51, DW_AT_decl_file("C:/TI_CodeComposer/ccsv6/tools/compiler/ti-cgt-arm_15.12.
     739                            .dwattr $C$DW$T$51, DW_AT_decl_line(0x40)
     740                            .dwattr $C$DW$T$51, DW_AT_decl_column(0x17)
     741                    
     742                    $C$DW$T$52      .dwtag  DW_TAG_typedef
     743                            .dwattr $C$DW$T$52, DW_AT_name("intmax_t")
     744                            .dwattr $C$DW$T$52, DW_AT_type(*$C$DW$T$14)
     745                            .dwattr $C$DW$T$52, DW_AT_language(DW_LANG_C)
     746                            .dwattr $C$DW$T$52, DW_AT_decl_file("C:/TI_CodeComposer/ccsv6/tools/compiler/ti-cgt-arm_15.12.
     747                            .dwattr $C$DW$T$52, DW_AT_decl_line(0x56)
     748                            .dwattr $C$DW$T$52, DW_AT_decl_column(0x20)
     749                    
     750                    $C$DW$T$15      .dwtag  DW_TAG_base_type
     751                            .dwattr $C$DW$T$15, DW_AT_encoding(DW_ATE_unsigned)
     752                            .dwattr $C$DW$T$15, DW_AT_name("unsigned long long")
     753                            .dwattr $C$DW$T$15, DW_AT_byte_size(0x08)
     754                    
     755                    $C$DW$T$53      .dwtag  DW_TAG_typedef
     756                            .dwattr $C$DW$T$53, DW_AT_name("uint64_t")
     757                            .dwattr $C$DW$T$53, DW_AT_type(*$C$DW$T$15)
     758                            .dwattr $C$DW$T$53, DW_AT_language(DW_LANG_C)
     759                            .dwattr $C$DW$T$53, DW_AT_decl_file("C:/TI_CodeComposer/ccsv6/tools/compiler/ti-cgt-arm_15.12.
     760                            .dwattr $C$DW$T$53, DW_AT_decl_line(0x33)
     761                            .dwattr $C$DW$T$53, DW_AT_decl_column(0x20)
     762                    
     763                    $C$DW$T$54      .dwtag  DW_TAG_typedef
     764                            .dwattr $C$DW$T$54, DW_AT_name("uint_fast64_t")
     765                            .dwattr $C$DW$T$54, DW_AT_type(*$C$DW$T$53)
     766                            .dwattr $C$DW$T$54, DW_AT_language(DW_LANG_C)
     767                            .dwattr $C$DW$T$54, DW_AT_decl_file("C:/TI_CodeComposer/ccsv6/tools/compiler/ti-cgt-arm_15.12.
     768                            .dwattr $C$DW$T$54, DW_AT_decl_line(0x4f)
     769                            .dwattr $C$DW$T$54, DW_AT_decl_column(0x16)
     770                    
TI ARM Assembler PC v15.12.1 Tue Oct 18 10:42:29 2016

Tools Copyright (c) 1996-2015 Texas Instruments Incorporated
FreeRTOS_TM4C1294_Base_Startup.asm                                   PAGE   15

     771                    $C$DW$T$55      .dwtag  DW_TAG_typedef
     772                            .dwattr $C$DW$T$55, DW_AT_name("uint_least64_t")
     773                            .dwattr $C$DW$T$55, DW_AT_type(*$C$DW$T$53)
     774                            .dwattr $C$DW$T$55, DW_AT_language(DW_LANG_C)
     775                            .dwattr $C$DW$T$55, DW_AT_decl_file("C:/TI_CodeComposer/ccsv6/tools/compiler/ti-cgt-arm_15.12.
     776                            .dwattr $C$DW$T$55, DW_AT_decl_line(0x41)
     777                            .dwattr $C$DW$T$55, DW_AT_decl_column(0x16)
     778                    
     779                    $C$DW$T$56      .dwtag  DW_TAG_typedef
     780                            .dwattr $C$DW$T$56, DW_AT_name("uintmax_t")
     781                            .dwattr $C$DW$T$56, DW_AT_type(*$C$DW$T$15)
     782                            .dwattr $C$DW$T$56, DW_AT_language(DW_LANG_C)
     783                            .dwattr $C$DW$T$56, DW_AT_decl_file("C:/TI_CodeComposer/ccsv6/tools/compiler/ti-cgt-arm_15.12.
     784                            .dwattr $C$DW$T$56, DW_AT_decl_line(0x57)
     785                            .dwattr $C$DW$T$56, DW_AT_decl_column(0x20)
     786                    
     787                    $C$DW$T$16      .dwtag  DW_TAG_base_type
     788                            .dwattr $C$DW$T$16, DW_AT_encoding(DW_ATE_float)
     789                            .dwattr $C$DW$T$16, DW_AT_name("float")
     790                            .dwattr $C$DW$T$16, DW_AT_byte_size(0x04)
     791                    
     792                    $C$DW$T$17      .dwtag  DW_TAG_base_type
     793                            .dwattr $C$DW$T$17, DW_AT_encoding(DW_ATE_float)
     794                            .dwattr $C$DW$T$17, DW_AT_name("double")
     795                            .dwattr $C$DW$T$17, DW_AT_byte_size(0x08)
     796                    
     797                    $C$DW$T$18      .dwtag  DW_TAG_base_type
     798                            .dwattr $C$DW$T$18, DW_AT_encoding(DW_ATE_float)
     799                            .dwattr $C$DW$T$18, DW_AT_name("long double")
     800                            .dwattr $C$DW$T$18, DW_AT_byte_size(0x08)
     801                    
     802                    
     803                    $C$DW$T$19      .dwtag  DW_TAG_structure_type
     804                            .dwattr $C$DW$T$19, DW_AT_name("__va_list")
     805                            .dwattr $C$DW$T$19, DW_AT_byte_size(0x04)
     806                    $C$DW$14        .dwtag  DW_TAG_member
     807                            .dwattr $C$DW$14, DW_AT_type(*$C$DW$T$3)
     808                            .dwattr $C$DW$14, DW_AT_name("__ap")
     809                            .dwattr $C$DW$14, DW_AT_TI_symbol_name("__ap")
     810                            .dwattr $C$DW$14, DW_AT_data_member_location[DW_OP_plus_uconst 0x0]
     811                            .dwattr $C$DW$14, DW_AT_accessibility(DW_ACCESS_public)
     812                            .dwattr $C$DW$14, DW_AT_decl_file("C:/TI_CodeComposer/ccsv6/tools/compiler/ti-cgt-arm_15.12.1.
     813                            .dwattr $C$DW$14, DW_AT_decl_line(0x38)
     814                            .dwattr $C$DW$14, DW_AT_decl_column(0x0c)
     815                    
     816                            .dwattr $C$DW$T$19, DW_AT_decl_file("C:/TI_CodeComposer/ccsv6/tools/compiler/ti-cgt-arm_15.12.
     817                            .dwattr $C$DW$T$19, DW_AT_decl_line(0x37)
     818                            .dwattr $C$DW$T$19, DW_AT_decl_column(0x10)
     819                            .dwendtag $C$DW$T$19
     820                    
     821                    $C$DW$T$57      .dwtag  DW_TAG_typedef
     822                            .dwattr $C$DW$T$57, DW_AT_name("va_list")
     823                            .dwattr $C$DW$T$57, DW_AT_type(*$C$DW$T$19)
     824                            .dwattr $C$DW$T$57, DW_AT_language(DW_LANG_C)
     825                            .dwattr $C$DW$T$57, DW_AT_decl_file("C:/TI_CodeComposer/ccsv6/tools/compiler/ti-cgt-arm_15.12.
TI ARM Assembler PC v15.12.1 Tue Oct 18 10:42:29 2016

Tools Copyright (c) 1996-2015 Texas Instruments Incorporated
FreeRTOS_TM4C1294_Base_Startup.asm                                   PAGE   16

     826                            .dwattr $C$DW$T$57, DW_AT_decl_line(0x39)
     827                            .dwattr $C$DW$T$57, DW_AT_decl_column(0x03)
     828                    
     829                            .dwattr $C$DW$CU, DW_AT_language(DW_LANG_C)
     830                    
     831                    ;***************************************************************
     832                    ;* DWARF CIE ENTRIES                                           *
     833                    ;***************************************************************
     834                    
     835                    $C$DW$CIE       .dwcie 14
     836                            .dwcfi  cfa_register, 13
     837                            .dwcfi  cfa_offset, 0
     838                            .dwcfi  undefined, 0
     839                            .dwcfi  undefined, 1
     840                            .dwcfi  undefined, 2
     841                            .dwcfi  undefined, 3
     842                            .dwcfi  same_value, 4
     843                            .dwcfi  same_value, 5
     844                            .dwcfi  same_value, 6
     845                            .dwcfi  same_value, 7
     846                            .dwcfi  same_value, 8
     847                            .dwcfi  same_value, 9
     848                            .dwcfi  same_value, 10
     849                            .dwcfi  same_value, 11
     850                            .dwcfi  undefined, 12
     851                            .dwcfi  undefined, 13
     852                            .dwcfi  undefined, 14
     853                            .dwcfi  undefined, 14
     854                            .dwcfi  undefined, 7
     855                            .dwcfi  undefined, 64
     856                            .dwcfi  undefined, 65
     857                            .dwcfi  undefined, 66
     858                            .dwcfi  undefined, 67
     859                            .dwcfi  undefined, 68
     860                            .dwcfi  undefined, 69
     861                            .dwcfi  undefined, 70
     862                            .dwcfi  undefined, 71
     863                            .dwcfi  undefined, 72
     864                            .dwcfi  undefined, 73
     865                            .dwcfi  undefined, 74
     866                            .dwcfi  undefined, 75
     867                            .dwcfi  undefined, 76
     868                            .dwcfi  undefined, 77
     869                            .dwcfi  undefined, 78
     870                            .dwcfi  undefined, 79
     871                            .dwcfi  same_value, 80
     872                            .dwcfi  same_value, 81
     873                            .dwcfi  same_value, 82
     874                            .dwcfi  same_value, 83
     875                            .dwcfi  same_value, 84
     876                            .dwcfi  same_value, 85
     877                            .dwcfi  same_value, 86
     878                            .dwcfi  same_value, 87
     879                            .dwcfi  same_value, 88
     880                            .dwcfi  same_value, 89
TI ARM Assembler PC v15.12.1 Tue Oct 18 10:42:29 2016

Tools Copyright (c) 1996-2015 Texas Instruments Incorporated
FreeRTOS_TM4C1294_Base_Startup.asm                                   PAGE   17

     881                            .dwcfi  same_value, 90
     882                            .dwcfi  same_value, 91
     883                            .dwcfi  same_value, 92
     884                            .dwcfi  same_value, 93
     885                            .dwcfi  same_value, 94
     886                            .dwcfi  same_value, 95
     887                            .dwendentry
     888                            .dwendtag $C$DW$CU
     889                    

--------------------------
Thumb2 Statistics
--------------------------
Number of Thumb2 ins converted to Thumb = 0 (0%)
Number of Thumb ins in input = 4 (80%)
Number of Thumb2 ins encoded as Thumb2 = 1 (100%)
Number of Thumb2 ins converted to 2 OPND Thumb = 0


No Assembly Errors, No Assembly Warnings
