TI ARM Assembler PC v15.12.1 Tue Oct 18 10:42:33 2016

Tools Copyright (c) 1996-2015 Texas Instruments Incorporated
queue.asm                                                            PAGE    1

       1                    ;******************************************************************************
       2                    ;* TI ARM C/C++ Codegen                                       PC v15.12.1.LTS *
       3                    ;* Date/Time created: Tue Oct 18 10:42:32 2016                                *
       4                    ;******************************************************************************
       5                            .compiler_opts --abi=eabi --arm_vmrs_si_workaround=off --code_state=16 --diag_wrap=off --disab
       6 00000000                   .thumb
       7                    
       8                    $C$DW$CU        .dwtag  DW_TAG_compile_unit
       9                            .dwattr $C$DW$CU, DW_AT_name("C:/TI_ARM_Tiva_Projects/Source/queue.c")
      10                            .dwattr $C$DW$CU, DW_AT_producer("TI TI ARM C/C++ Codegen PC v15.12.1.LTS Copyright (c) 1996-2
      11                            .dwattr $C$DW$CU, DW_AT_TI_version(0x01)
      12                            .dwattr $C$DW$CU, DW_AT_comp_dir("C:\TI_ARM_Tiva_Projects\FreeRTOS82_TM4C1294_Base\Debug")
      13                    
      14                    $C$DW$1 .dwtag  DW_TAG_subprogram
      15                            .dwattr $C$DW$1, DW_AT_name("memcpy")
      16                            .dwattr $C$DW$1, DW_AT_TI_symbol_name("memcpy")
      17                            .dwattr $C$DW$1, DW_AT_type(*$C$DW$T$3)
      18                            .dwattr $C$DW$1, DW_AT_declaration
      19                            .dwattr $C$DW$1, DW_AT_external
      20                            .dwattr $C$DW$1, DW_AT_decl_file("C:/TI_CodeComposer/ccsv6/tools/compiler/ti-cgt-arm_15.12.1.L
      21                            .dwattr $C$DW$1, DW_AT_decl_line(0x6b)
      22                            .dwattr $C$DW$1, DW_AT_decl_column(0x16)
      23                    $C$DW$2 .dwtag  DW_TAG_formal_parameter
      24                            .dwattr $C$DW$2, DW_AT_type(*$C$DW$T$3)
      25                    
      26                    $C$DW$3 .dwtag  DW_TAG_formal_parameter
      27                            .dwattr $C$DW$3, DW_AT_type(*$C$DW$T$98)
      28                    
      29                    $C$DW$4 .dwtag  DW_TAG_formal_parameter
      30                            .dwattr $C$DW$4, DW_AT_type(*$C$DW$T$29)
      31                    
      32                            .dwendtag $C$DW$1
      33                    
      34                    
      35                    $C$DW$5 .dwtag  DW_TAG_subprogram
      36                            .dwattr $C$DW$5, DW_AT_name("_set_interrupt_priority")
      37                            .dwattr $C$DW$5, DW_AT_TI_symbol_name("_set_interrupt_priority")
      38                            .dwattr $C$DW$5, DW_AT_type(*$C$DW$T$11)
      39                            .dwattr $C$DW$5, DW_AT_declaration
      40                            .dwattr $C$DW$5, DW_AT_external
      41                    $C$DW$6 .dwtag  DW_TAG_formal_parameter
      42                            .dwattr $C$DW$6, DW_AT_type(*$C$DW$T$11)
      43                    
      44                            .dwendtag $C$DW$5
      45                    
      46                    
      47                    $C$DW$7 .dwtag  DW_TAG_subprogram
      48                            .dwattr $C$DW$7, DW_AT_name("vPortEnterCritical")
      49                            .dwattr $C$DW$7, DW_AT_TI_symbol_name("vPortEnterCritical")
      50                            .dwattr $C$DW$7, DW_AT_declaration
      51                            .dwattr $C$DW$7, DW_AT_external
      52                            .dwattr $C$DW$7, DW_AT_decl_file("C:/TI_ARM_Tiva_Projects/Source/portable/CCS/ARM_CM4F/portmac
      53                            .dwattr $C$DW$7, DW_AT_decl_line(0xa7)
      54                            .dwattr $C$DW$7, DW_AT_decl_column(0x0d)
      55                            .dwendtag $C$DW$7
TI ARM Assembler PC v15.12.1 Tue Oct 18 10:42:33 2016

Tools Copyright (c) 1996-2015 Texas Instruments Incorporated
queue.asm                                                            PAGE    2

      56                    
      57                    
      58                    $C$DW$8 .dwtag  DW_TAG_subprogram
      59                            .dwattr $C$DW$8, DW_AT_name("vPortExitCritical")
      60                            .dwattr $C$DW$8, DW_AT_TI_symbol_name("vPortExitCritical")
      61                            .dwattr $C$DW$8, DW_AT_declaration
      62                            .dwattr $C$DW$8, DW_AT_external
      63                            .dwattr $C$DW$8, DW_AT_decl_file("C:/TI_ARM_Tiva_Projects/Source/portable/CCS/ARM_CM4F/portmac
      64                            .dwattr $C$DW$8, DW_AT_decl_line(0xa8)
      65                            .dwattr $C$DW$8, DW_AT_decl_column(0x0d)
      66                            .dwendtag $C$DW$8
      67                    
      68                    
      69                    $C$DW$9 .dwtag  DW_TAG_subprogram
      70                            .dwattr $C$DW$9, DW_AT_name("pvPortMalloc")
      71                            .dwattr $C$DW$9, DW_AT_TI_symbol_name("pvPortMalloc")
      72                            .dwattr $C$DW$9, DW_AT_type(*$C$DW$T$3)
      73                            .dwattr $C$DW$9, DW_AT_declaration
      74                            .dwattr $C$DW$9, DW_AT_external
      75                            .dwattr $C$DW$9, DW_AT_decl_file("C:\TI_ARM_Tiva_Projects\Source\include\portable.h")
      76                            .dwattr $C$DW$9, DW_AT_decl_line(0xab)
      77                            .dwattr $C$DW$9, DW_AT_decl_column(0x07)
      78                    $C$DW$10        .dwtag  DW_TAG_formal_parameter
      79                            .dwattr $C$DW$10, DW_AT_type(*$C$DW$T$29)
      80                    
      81                            .dwendtag $C$DW$9
      82                    
      83                    
      84                    $C$DW$11        .dwtag  DW_TAG_subprogram
      85                            .dwattr $C$DW$11, DW_AT_name("vPortFree")
      86                            .dwattr $C$DW$11, DW_AT_TI_symbol_name("vPortFree")
      87                            .dwattr $C$DW$11, DW_AT_declaration
      88                            .dwattr $C$DW$11, DW_AT_external
      89                            .dwattr $C$DW$11, DW_AT_decl_file("C:\TI_ARM_Tiva_Projects\Source\include\portable.h")
      90                            .dwattr $C$DW$11, DW_AT_decl_line(0xac)
      91                            .dwattr $C$DW$11, DW_AT_decl_column(0x06)
      92                    $C$DW$12        .dwtag  DW_TAG_formal_parameter
      93                            .dwattr $C$DW$12, DW_AT_type(*$C$DW$T$3)
      94                    
      95                            .dwendtag $C$DW$11
      96                    
      97                    
      98                    $C$DW$13        .dwtag  DW_TAG_subprogram
      99                            .dwattr $C$DW$13, DW_AT_name("vListInitialise")
     100                            .dwattr $C$DW$13, DW_AT_TI_symbol_name("vListInitialise")
     101                            .dwattr $C$DW$13, DW_AT_declaration
     102                            .dwattr $C$DW$13, DW_AT_external
     103                            .dwattr $C$DW$13, DW_AT_decl_file("C:\TI_ARM_Tiva_Projects\Source\include\list.h")
     104                            .dwattr $C$DW$13, DW_AT_decl_line(0x182)
     105                            .dwattr $C$DW$13, DW_AT_decl_column(0x06)
     106                    $C$DW$14        .dwtag  DW_TAG_formal_parameter
     107                            .dwattr $C$DW$14, DW_AT_type(*$C$DW$T$110)
     108                    
     109                            .dwendtag $C$DW$13
     110                    
TI ARM Assembler PC v15.12.1 Tue Oct 18 10:42:33 2016

Tools Copyright (c) 1996-2015 Texas Instruments Incorporated
queue.asm                                                            PAGE    3

     111                    
     112                    $C$DW$15        .dwtag  DW_TAG_subprogram
     113                            .dwattr $C$DW$15, DW_AT_name("vTaskSuspendAll")
     114                            .dwattr $C$DW$15, DW_AT_TI_symbol_name("vTaskSuspendAll")
     115                            .dwattr $C$DW$15, DW_AT_declaration
     116                            .dwattr $C$DW$15, DW_AT_external
     117                            .dwattr $C$DW$15, DW_AT_decl_file("C:/TI_ARM_Tiva_Projects/Source/include/task.h")
     118                            .dwattr $C$DW$15, DW_AT_decl_line(0x3e6)
     119                            .dwattr $C$DW$15, DW_AT_decl_column(0x06)
     120                            .dwendtag $C$DW$15
     121                    
     122                    
     123                    $C$DW$16        .dwtag  DW_TAG_subprogram
     124                            .dwattr $C$DW$16, DW_AT_name("xTaskResumeAll")
     125                            .dwattr $C$DW$16, DW_AT_TI_symbol_name("xTaskResumeAll")
     126                            .dwattr $C$DW$16, DW_AT_type(*$C$DW$T$39)
     127                            .dwattr $C$DW$16, DW_AT_declaration
     128                            .dwattr $C$DW$16, DW_AT_external
     129                            .dwattr $C$DW$16, DW_AT_decl_file("C:/TI_ARM_Tiva_Projects/Source/include/task.h")
     130                            .dwattr $C$DW$16, DW_AT_decl_line(0x41c)
     131                            .dwattr $C$DW$16, DW_AT_decl_column(0x0c)
     132                            .dwendtag $C$DW$16
     133                    
     134                    
     135                    $C$DW$17        .dwtag  DW_TAG_subprogram
     136                            .dwattr $C$DW$17, DW_AT_name("vTaskPlaceOnEventList")
     137                            .dwattr $C$DW$17, DW_AT_TI_symbol_name("vTaskPlaceOnEventList")
     138                            .dwattr $C$DW$17, DW_AT_declaration
     139                            .dwattr $C$DW$17, DW_AT_external
     140                            .dwattr $C$DW$17, DW_AT_decl_file("C:/TI_ARM_Tiva_Projects/Source/include/task.h")
     141                            .dwattr $C$DW$17, DW_AT_decl_line(0x75b)
     142                            .dwattr $C$DW$17, DW_AT_decl_column(0x06)
     143                    $C$DW$18        .dwtag  DW_TAG_formal_parameter
     144                            .dwattr $C$DW$18, DW_AT_type(*$C$DW$T$110)
     145                    
     146                    $C$DW$19        .dwtag  DW_TAG_formal_parameter
     147                            .dwattr $C$DW$19, DW_AT_type(*$C$DW$T$113)
     148                    
     149                            .dwendtag $C$DW$17
     150                    
     151                    
     152                    $C$DW$20        .dwtag  DW_TAG_subprogram
     153                            .dwattr $C$DW$20, DW_AT_name("vTaskPlaceOnEventListRestricted")
     154                            .dwattr $C$DW$20, DW_AT_TI_symbol_name("vTaskPlaceOnEventListRestricted")
     155                            .dwattr $C$DW$20, DW_AT_declaration
     156                            .dwattr $C$DW$20, DW_AT_external
     157                            .dwattr $C$DW$20, DW_AT_decl_file("C:/TI_ARM_Tiva_Projects/Source/include/task.h")
     158                            .dwattr $C$DW$20, DW_AT_decl_line(0x769)
     159                            .dwattr $C$DW$20, DW_AT_decl_column(0x06)
     160                    $C$DW$21        .dwtag  DW_TAG_formal_parameter
     161                            .dwattr $C$DW$21, DW_AT_type(*$C$DW$T$110)
     162                    
     163                    $C$DW$22        .dwtag  DW_TAG_formal_parameter
     164                            .dwattr $C$DW$22, DW_AT_type(*$C$DW$T$113)
     165                    
TI ARM Assembler PC v15.12.1 Tue Oct 18 10:42:33 2016

Tools Copyright (c) 1996-2015 Texas Instruments Incorporated
queue.asm                                                            PAGE    4

     166                    $C$DW$23        .dwtag  DW_TAG_formal_parameter
     167                            .dwattr $C$DW$23, DW_AT_type(*$C$DW$T$116)
     168                    
     169                            .dwendtag $C$DW$20
     170                    
     171                    
     172                    $C$DW$24        .dwtag  DW_TAG_subprogram
     173                            .dwattr $C$DW$24, DW_AT_name("xTaskRemoveFromEventList")
     174                            .dwattr $C$DW$24, DW_AT_TI_symbol_name("xTaskRemoveFromEventList")
     175                            .dwattr $C$DW$24, DW_AT_type(*$C$DW$T$39)
     176                            .dwattr $C$DW$24, DW_AT_declaration
     177                            .dwattr $C$DW$24, DW_AT_external
     178                            .dwattr $C$DW$24, DW_AT_decl_file("C:/TI_ARM_Tiva_Projects/Source/include/task.h")
     179                            .dwattr $C$DW$24, DW_AT_decl_line(0x783)
     180                            .dwattr $C$DW$24, DW_AT_decl_column(0x0c)
     181                    $C$DW$25        .dwtag  DW_TAG_formal_parameter
     182                            .dwattr $C$DW$25, DW_AT_type(*$C$DW$T$151)
     183                    
     184                            .dwendtag $C$DW$24
     185                    
     186                    
     187                    $C$DW$26        .dwtag  DW_TAG_subprogram
     188                            .dwattr $C$DW$26, DW_AT_name("xTaskGetCurrentTaskHandle")
     189                            .dwattr $C$DW$26, DW_AT_TI_symbol_name("xTaskGetCurrentTaskHandle")
     190                            .dwattr $C$DW$26, DW_AT_type(*$C$DW$T$62)
     191                            .dwattr $C$DW$26, DW_AT_declaration
     192                            .dwattr $C$DW$26, DW_AT_external
     193                            .dwattr $C$DW$26, DW_AT_decl_file("C:/TI_ARM_Tiva_Projects/Source/include/task.h")
     194                            .dwattr $C$DW$26, DW_AT_decl_line(0x799)
     195                            .dwattr $C$DW$26, DW_AT_decl_column(0x0e)
     196                            .dwendtag $C$DW$26
     197                    
     198                    
     199                    $C$DW$27        .dwtag  DW_TAG_subprogram
     200                            .dwattr $C$DW$27, DW_AT_name("vTaskSetTimeOutState")
     201                            .dwattr $C$DW$27, DW_AT_TI_symbol_name("vTaskSetTimeOutState")
     202                            .dwattr $C$DW$27, DW_AT_declaration
     203                            .dwattr $C$DW$27, DW_AT_external
     204                            .dwattr $C$DW$27, DW_AT_decl_file("C:/TI_ARM_Tiva_Projects/Source/include/task.h")
     205                            .dwattr $C$DW$27, DW_AT_decl_line(0x79e)
     206                            .dwattr $C$DW$27, DW_AT_decl_column(0x06)
     207                    $C$DW$28        .dwtag  DW_TAG_formal_parameter
     208                            .dwattr $C$DW$28, DW_AT_type(*$C$DW$T$121)
     209                    
     210                            .dwendtag $C$DW$27
     211                    
     212                    
     213                    $C$DW$29        .dwtag  DW_TAG_subprogram
     214                            .dwattr $C$DW$29, DW_AT_name("xTaskCheckForTimeOut")
     215                            .dwattr $C$DW$29, DW_AT_TI_symbol_name("xTaskCheckForTimeOut")
     216                            .dwattr $C$DW$29, DW_AT_type(*$C$DW$T$39)
     217                            .dwattr $C$DW$29, DW_AT_declaration
     218                            .dwattr $C$DW$29, DW_AT_external
     219                            .dwattr $C$DW$29, DW_AT_decl_file("C:/TI_ARM_Tiva_Projects/Source/include/task.h")
     220                            .dwattr $C$DW$29, DW_AT_decl_line(0x7a4)
TI ARM Assembler PC v15.12.1 Tue Oct 18 10:42:33 2016

Tools Copyright (c) 1996-2015 Texas Instruments Incorporated
queue.asm                                                            PAGE    5

     221                            .dwattr $C$DW$29, DW_AT_decl_column(0x0c)
     222                    $C$DW$30        .dwtag  DW_TAG_formal_parameter
     223                            .dwattr $C$DW$30, DW_AT_type(*$C$DW$T$121)
     224                    
     225                    $C$DW$31        .dwtag  DW_TAG_formal_parameter
     226                            .dwattr $C$DW$31, DW_AT_type(*$C$DW$T$155)
     227                    
     228                            .dwendtag $C$DW$29
     229                    
     230                    
     231                    $C$DW$32        .dwtag  DW_TAG_subprogram
     232                            .dwattr $C$DW$32, DW_AT_name("vTaskMissedYield")
     233                            .dwattr $C$DW$32, DW_AT_TI_symbol_name("vTaskMissedYield")
     234                            .dwattr $C$DW$32, DW_AT_declaration
     235                            .dwattr $C$DW$32, DW_AT_external
     236                            .dwattr $C$DW$32, DW_AT_decl_file("C:/TI_ARM_Tiva_Projects/Source/include/task.h")
     237                            .dwattr $C$DW$32, DW_AT_decl_line(0x7aa)
     238                            .dwattr $C$DW$32, DW_AT_decl_column(0x06)
     239                            .dwendtag $C$DW$32
     240                    
     241                    
     242                    $C$DW$33        .dwtag  DW_TAG_subprogram
     243                            .dwattr $C$DW$33, DW_AT_name("vTaskPriorityInherit")
     244                            .dwattr $C$DW$33, DW_AT_TI_symbol_name("vTaskPriorityInherit")
     245                            .dwattr $C$DW$33, DW_AT_declaration
     246                            .dwattr $C$DW$33, DW_AT_external
     247                            .dwattr $C$DW$33, DW_AT_decl_file("C:/TI_ARM_Tiva_Projects/Source/include/task.h")
     248                            .dwattr $C$DW$33, DW_AT_decl_line(0x7b6)
     249                            .dwattr $C$DW$33, DW_AT_decl_column(0x06)
     250                    $C$DW$34        .dwtag  DW_TAG_formal_parameter
     251                            .dwattr $C$DW$34, DW_AT_type(*$C$DW$T$94)
     252                    
     253                            .dwendtag $C$DW$33
     254                    
     255                    
     256                    $C$DW$35        .dwtag  DW_TAG_subprogram
     257                            .dwattr $C$DW$35, DW_AT_name("xTaskPriorityDisinherit")
     258                            .dwattr $C$DW$35, DW_AT_TI_symbol_name("xTaskPriorityDisinherit")
     259                            .dwattr $C$DW$35, DW_AT_type(*$C$DW$T$39)
     260                            .dwattr $C$DW$35, DW_AT_declaration
     261                            .dwattr $C$DW$35, DW_AT_external
     262                            .dwattr $C$DW$35, DW_AT_decl_file("C:/TI_ARM_Tiva_Projects/Source/include/task.h")
     263                            .dwattr $C$DW$35, DW_AT_decl_line(0x7bc)
     264                            .dwattr $C$DW$35, DW_AT_decl_column(0x0c)
     265                    $C$DW$36        .dwtag  DW_TAG_formal_parameter
     266                            .dwattr $C$DW$36, DW_AT_type(*$C$DW$T$94)
     267                    
     268                            .dwendtag $C$DW$35
     269                    
     270                    
     271                    $C$DW$37        .dwtag  DW_TAG_subprogram
     272                            .dwattr $C$DW$37, DW_AT_name("pvTaskIncrementMutexHeldCount")
     273                            .dwattr $C$DW$37, DW_AT_TI_symbol_name("pvTaskIncrementMutexHeldCount")
     274                            .dwattr $C$DW$37, DW_AT_type(*$C$DW$T$3)
     275                            .dwattr $C$DW$37, DW_AT_declaration
TI ARM Assembler PC v15.12.1 Tue Oct 18 10:42:33 2016

Tools Copyright (c) 1996-2015 Texas Instruments Incorporated
queue.asm                                                            PAGE    6

     276                            .dwattr $C$DW$37, DW_AT_external
     277                            .dwattr $C$DW$37, DW_AT_decl_file("C:/TI_ARM_Tiva_Projects/Source/include/task.h")
     278                            .dwattr $C$DW$37, DW_AT_decl_line(0x7ed)
     279                            .dwattr $C$DW$37, DW_AT_decl_column(0x07)
     280                            .dwendtag $C$DW$37
     281                    
     282                            .global xQueueRegistry
     283                            .common xQueueRegistry,64,4
     284                    $C$DW$38        .dwtag  DW_TAG_variable
     285                            .dwattr $C$DW$38, DW_AT_name("xQueueRegistry")
     286                            .dwattr $C$DW$38, DW_AT_TI_symbol_name("xQueueRegistry")
     287                            .dwattr $C$DW$38, DW_AT_location[DW_OP_addr xQueueRegistry]
     288                            .dwattr $C$DW$38, DW_AT_type(*$C$DW$T$77)
     289                            .dwattr $C$DW$38, DW_AT_external
     290                            .dwattr $C$DW$38, DW_AT_decl_file("C:/TI_ARM_Tiva_Projects/Source/queue.c")
     291                            .dwattr $C$DW$38, DW_AT_decl_line(0xc0)
     292                            .dwattr $C$DW$38, DW_AT_decl_column(0x26)
     293                    
     294                    ;       C:\TI_CodeComposer\ccsv6\tools\compiler\ti-cgt-arm_15.12.1.LTS\bin\armacpia.exe -@C:\\Users\\R
     295 00000000                   .sect   ".text"
     296                            .clink
     297                            .thumbfunc xQueueGenericReset
     298 00000000                   .thumb
     299                            .global xQueueGenericReset
     300                    
     301                    $C$DW$39        .dwtag  DW_TAG_subprogram
     302                            .dwattr $C$DW$39, DW_AT_name("xQueueGenericReset")
     303                            .dwattr $C$DW$39, DW_AT_low_pc(xQueueGenericReset)
     304                            .dwattr $C$DW$39, DW_AT_high_pc(0x00)
     305                            .dwattr $C$DW$39, DW_AT_TI_symbol_name("xQueueGenericReset")
     306                            .dwattr $C$DW$39, DW_AT_external
     307                            .dwattr $C$DW$39, DW_AT_type(*$C$DW$T$39)
     308                            .dwattr $C$DW$39, DW_AT_TI_begin_file("C:/TI_ARM_Tiva_Projects/Source/queue.c")
     309                            .dwattr $C$DW$39, DW_AT_TI_begin_line(0x104)
     310                            .dwattr $C$DW$39, DW_AT_TI_begin_column(0x0c)
     311                            .dwattr $C$DW$39, DW_AT_decl_file("C:/TI_ARM_Tiva_Projects/Source/queue.c")
     312                            .dwattr $C$DW$39, DW_AT_decl_line(0x104)
     313                            .dwattr $C$DW$39, DW_AT_decl_column(0x0c)
     314                            .dwattr $C$DW$39, DW_AT_TI_max_frame_size(0x10)
     315                            .dwpsn  file "C:/TI_ARM_Tiva_Projects/Source/queue.c",line 261,column 1,is_stmt,address xQueue
     316                    
     317                            .dwfde $C$DW$CIE, xQueueGenericReset
     318                    $C$DW$40        .dwtag  DW_TAG_formal_parameter
     319                            .dwattr $C$DW$40, DW_AT_name("xQueue")
     320                            .dwattr $C$DW$40, DW_AT_TI_symbol_name("xQueue")
     321                            .dwattr $C$DW$40, DW_AT_type(*$C$DW$T$34)
     322                            .dwattr $C$DW$40, DW_AT_location[DW_OP_reg0]
     323                    
     324                    $C$DW$41        .dwtag  DW_TAG_formal_parameter
     325                            .dwattr $C$DW$41, DW_AT_name("xNewQueue")
     326                            .dwattr $C$DW$41, DW_AT_TI_symbol_name("xNewQueue")
     327                            .dwattr $C$DW$41, DW_AT_type(*$C$DW$T$39)
     328                            .dwattr $C$DW$41, DW_AT_location[DW_OP_reg1]
     329                    
     330                    
TI ARM Assembler PC v15.12.1 Tue Oct 18 10:42:33 2016

Tools Copyright (c) 1996-2015 Texas Instruments Incorporated
queue.asm                                                            PAGE    7

     331                    ;*****************************************************************************
     332                    ;* FUNCTION NAME: xQueueGenericReset                                         *
     333                    ;*                                                                           *
     334                    ;*   Regs Modified     : A1,A2,A3,A4,V9,SP,LR,SR,D0,D0_hi,D1,D1_hi,D2,D2_hi, *
     335                    ;*                           D3,D3_hi,D4,D4_hi,D5,D5_hi,D6,D6_hi,D7,D7_hi,   *
     336                    ;*                           FPEXC,FPSCR                                     *
     337                    ;*   Regs Used         : A1,A2,A3,A4,V9,SP,LR,SR,D0,D0_hi,D1,D1_hi,D2,D2_hi, *
     338                    ;*                           D3,D3_hi,D4,D4_hi,D5,D5_hi,D6,D6_hi,D7,D7_hi,   *
     339                    ;*                           FPEXC,FPSCR                                     *
     340                    ;*   Local Frame Size  : 0 Args + 12 Auto + 4 Save = 16 byte                 *
     341                    ;*****************************************************************************
     342 00000000           xQueueGenericReset:
     343                    ;* --------------------------------------------------------------------------*
     344                            .dwcfi  cfa_offset, 0
     345 00000000 B50E              PUSH      {A2, A3, A4, LR}      ; [DPU_3_PIPE]  ; [ORIG 16-BIT INS]
     346                            .dwcfi  cfa_offset, 16
     347                            .dwcfi  save_reg_to_mem, 14, -4
     348                            .dwcfi  save_reg_to_mem, 3, -8
     349                            .dwcfi  save_reg_to_mem, 2, -12
     350                            .dwcfi  save_reg_to_mem, 1, -16
     351                    $C$DW$42        .dwtag  DW_TAG_variable
     352                            .dwattr $C$DW$42, DW_AT_name("xQueue")
     353                            .dwattr $C$DW$42, DW_AT_TI_symbol_name("xQueue")
     354                            .dwattr $C$DW$42, DW_AT_type(*$C$DW$T$34)
     355                            .dwattr $C$DW$42, DW_AT_location[DW_OP_breg13 0]
     356                    
     357                    $C$DW$43        .dwtag  DW_TAG_variable
     358                            .dwattr $C$DW$43, DW_AT_name("xNewQueue")
     359                            .dwattr $C$DW$43, DW_AT_TI_symbol_name("xNewQueue")
     360                            .dwattr $C$DW$43, DW_AT_type(*$C$DW$T$39)
     361                            .dwattr $C$DW$43, DW_AT_location[DW_OP_breg13 4]
     362                    
     363                    $C$DW$44        .dwtag  DW_TAG_variable
     364                            .dwattr $C$DW$44, DW_AT_name("pxQueue")
     365                            .dwattr $C$DW$44, DW_AT_TI_symbol_name("pxQueue")
     366                            .dwattr $C$DW$44, DW_AT_type(*$C$DW$T$84)
     367                            .dwattr $C$DW$44, DW_AT_location[DW_OP_breg13 8]
     368                    
     369 00000002 9101              STR       A2, [SP, #4]          ; [DPU_3_PIPE] |261|  ; [ORIG 16-BIT INS]
     370 00000004 9000              STR       A1, [SP, #0]          ; [DPU_3_PIPE] |261|  ; [ORIG 16-BIT INS]
     371                            .dwpsn  file "C:/TI_ARM_Tiva_Projects/Source/queue.c",line 262,column 25,is_stmt,isa 1
     372 00000006 9800              LDR       A1, [SP, #0]          ; [DPU_3_PIPE] |262|  ; [ORIG 16-BIT INS]
     373 00000008 9002              STR       A1, [SP, #8]          ; [DPU_3_PIPE] |262|  ; [ORIG 16-BIT INS]
     374                            .dwpsn  file "C:/TI_ARM_Tiva_Projects/Source/queue.c",line 266,column 2,is_stmt,isa 1
     375                    $C$DW$45        .dwtag  DW_TAG_TI_branch
     376                            .dwattr $C$DW$45, DW_AT_low_pc(0x00)
     377                            .dwattr $C$DW$45, DW_AT_name("vPortEnterCritical")
     378                            .dwattr $C$DW$45, DW_AT_TI_call
     379                    
     380 0000000a FFFEF7FF!         BL        vPortEnterCritical    ; [DPU_3_PIPE] |266|  ; [KEEP 32-BIT INS]
     381                            ; CALL OCCURS {vPortEnterCritical }  ; [] |266| 
     382                            .dwpsn  file "C:/TI_ARM_Tiva_Projects/Source/queue.c",line 268,column 3,is_stmt,isa 1
     383 0000000e 9902              LDR       A2, [SP, #8]          ; [DPU_3_PIPE] |268|  ; [ORIG 16-BIT INS]
     384 00000010 9A02              LDR       A3, [SP, #8]          ; [DPU_3_PIPE] |268|  ; [ORIG 16-BIT INS]
     385 00000012 9802              LDR       A1, [SP, #8]          ; [DPU_3_PIPE] |268|  ; [ORIG 16-BIT INS]
TI ARM Assembler PC v15.12.1 Tue Oct 18 10:42:33 2016

Tools Copyright (c) 1996-2015 Texas Instruments Incorporated
queue.asm                                                            PAGE    8

     386 00000014 9B02              LDR       A4, [SP, #8]          ; [DPU_3_PIPE] |268|  ; [ORIG 16-BIT INS]
     387 00000016 6BC9              LDR       A2, [A2, #60]         ; [DPU_3_PIPE] |268|  ; [ORIG 16-BIT INS]
     388 00000018 6C12              LDR       A3, [A3, #64]         ; [DPU_3_PIPE] |268|  ; [ORIG 16-BIT INS]
     389 0000001a 6800              LDR       A1, [A1, #0]          ; [DPU_3_PIPE] |268|  ; [ORIG 16-BIT INS]
     390 0000001c 0001FB02          MLA       A1, A3, A2, A1        ; [DPU_3_PIPE] |268|  ; [KEEP 32-BIT INS]
     391 00000020 6058              STR       A1, [A4, #4]          ; [DPU_3_PIPE] |268|  ; [ORIG 16-BIT INS]
     392                            .dwpsn  file "C:/TI_ARM_Tiva_Projects/Source/queue.c",line 269,column 3,is_stmt,isa 1
     393 00000022 9802              LDR       A1, [SP, #8]          ; [DPU_3_PIPE] |269|  ; [ORIG 16-BIT INS]
     394 00000024 2100              MOVS      A2, #0                ; [DPU_3_PIPE] |269|  ; [ORIG 16-BIT INS]
     395 00000026 6381              STR       A2, [A1, #56]         ; [DPU_3_PIPE] |269|  ; [ORIG 16-BIT INS]
     396                            .dwpsn  file "C:/TI_ARM_Tiva_Projects/Source/queue.c",line 270,column 3,is_stmt,isa 1
     397 00000028 9802              LDR       A1, [SP, #8]          ; [DPU_3_PIPE] |270|  ; [ORIG 16-BIT INS]
     398 0000002a 9902              LDR       A2, [SP, #8]          ; [DPU_3_PIPE] |270|  ; [ORIG 16-BIT INS]
     399 0000002c 6800              LDR       A1, [A1, #0]          ; [DPU_3_PIPE] |270|  ; [ORIG 16-BIT INS]
     400 0000002e 6088              STR       A1, [A2, #8]          ; [DPU_3_PIPE] |270|  ; [ORIG 16-BIT INS]
     401                            .dwpsn  file "C:/TI_ARM_Tiva_Projects/Source/queue.c",line 271,column 3,is_stmt,isa 1
     402 00000030 9802              LDR       A1, [SP, #8]          ; [DPU_3_PIPE] |271|  ; [ORIG 16-BIT INS]
     403 00000032 9A02              LDR       A3, [SP, #8]          ; [DPU_3_PIPE] |271|  ; [ORIG 16-BIT INS]
     404 00000034 9902              LDR       A2, [SP, #8]          ; [DPU_3_PIPE] |271|  ; [ORIG 16-BIT INS]
     405 00000036 9B02              LDR       A4, [SP, #8]          ; [DPU_3_PIPE] |271|  ; [ORIG 16-BIT INS]
     406 00000038 6BC0              LDR       A1, [A1, #60]         ; [DPU_3_PIPE] |271|  ; [ORIG 16-BIT INS]
     407 0000003a 6C12              LDR       A3, [A3, #64]         ; [DPU_3_PIPE] |271|  ; [ORIG 16-BIT INS]
     408 0000003c 6809              LDR       A2, [A2, #0]          ; [DPU_3_PIPE] |271|  ; [ORIG 16-BIT INS]
     409 0000003e 1E40              SUBS      A1, A1, #1            ; [DPU_3_PIPE] |271|  ; [ORIG 16-BIT INS]
     410 00000040 1000FB02          MLA       A1, A3, A1, A2        ; [DPU_3_PIPE] |271|  ; [KEEP 32-BIT INS]
     411 00000044 60D8              STR       A1, [A4, #12]         ; [DPU_3_PIPE] |271|  ; [ORIG 16-BIT INS]
     412                            .dwpsn  file "C:/TI_ARM_Tiva_Projects/Source/queue.c",line 272,column 3,is_stmt,isa 1
     413 00000046 9802              LDR       A1, [SP, #8]          ; [DPU_3_PIPE] |272|  ; [ORIG 16-BIT INS]
     414 00000048 31FFF04F          MOV       A2, #-1               ; [DPU_3_PIPE] |272|  ; [KEEP 32-BIT INS]
     415 0000004c 6441              STR       A2, [A1, #68]         ; [DPU_3_PIPE] |272|  ; [ORIG 16-BIT INS]
     416                            .dwpsn  file "C:/TI_ARM_Tiva_Projects/Source/queue.c",line 273,column 3,is_stmt,isa 1
     417 0000004e 9802              LDR       A1, [SP, #8]          ; [DPU_3_PIPE] |273|  ; [ORIG 16-BIT INS]
     418 00000050 31FFF04F          MOV       A2, #-1               ; [DPU_3_PIPE] |273|  ; [KEEP 32-BIT INS]
     419 00000054 6481              STR       A2, [A1, #72]         ; [DPU_3_PIPE] |273|  ; [ORIG 16-BIT INS]
     420                            .dwpsn  file "C:/TI_ARM_Tiva_Projects/Source/queue.c",line 275,column 3,is_stmt,isa 1
     421 00000056 9801              LDR       A1, [SP, #4]          ; [DPU_3_PIPE] |275|  ; [ORIG 16-BIT INS]
     422 00000058 B960              CBNZ      A1, ||$C$L2||         ; []  ; [ORIG 16-BIT INS]
     423                            ; BRANCHCC OCCURS {||$C$L2||}    ; [] |275| 
     424                    ;* --------------------------------------------------------------------------*
     425                            .dwpsn  file "C:/TI_ARM_Tiva_Projects/Source/queue.c",line 282,column 4,is_stmt,isa 1
     426 0000005a 9802              LDR       A1, [SP, #8]          ; [DPU_3_PIPE] |282|  ; [ORIG 16-BIT INS]
     427 0000005c 6901              LDR       A2, [A1, #16]         ; [DPU_3_PIPE] |282|  ; [ORIG 16-BIT INS]
     428 0000005e 2000              MOVS      A1, #0                ; [DPU_3_PIPE] |282|  ; [ORIG 16-BIT INS]
     429 00000060 B901              CBNZ      A2, ||$C$L1||         ; []  ; [ORIG 16-BIT INS]
     430                            ; BRANCHCC OCCURS {||$C$L1||}    ; [] |282| 
     431                    ;* --------------------------------------------------------------------------*
     432 00000062 2001              MOVS      A1, #1                ; [DPU_3_PIPE] |282|  ; [ORIG 16-BIT INS]
     433                    ;* --------------------------------------------------------------------------*
     434 00000064           ||$C$L1||:    
     435 00000064 B970              CBNZ      A1, ||$C$L3||         ; []  ; [ORIG 16-BIT INS]
     436                            ; BRANCHCC OCCURS {||$C$L3||}    ; [] |282| 
     437                    ;* --------------------------------------------------------------------------*
     438                            .dwpsn  file "C:/TI_ARM_Tiva_Projects/Source/queue.c",line 284,column 5,is_stmt,isa 1
     439 00000066 9802              LDR       A1, [SP, #8]          ; [DPU_3_PIPE] |284|  ; [ORIG 16-BIT INS]
     440 00000068 3010              ADDS      A1, A1, #16           ; [DPU_3_PIPE] |284|  ; [ORIG 16-BIT INS]
TI ARM Assembler PC v15.12.1 Tue Oct 18 10:42:33 2016

Tools Copyright (c) 1996-2015 Texas Instruments Incorporated
queue.asm                                                            PAGE    9

     441                    $C$DW$46        .dwtag  DW_TAG_TI_branch
     442                            .dwattr $C$DW$46, DW_AT_low_pc(0x00)
     443                            .dwattr $C$DW$46, DW_AT_name("xTaskRemoveFromEventList")
     444                            .dwattr $C$DW$46, DW_AT_TI_call
     445                    
     446 0000006a FFFEF7FF!         BL        xTaskRemoveFromEventList ; [DPU_3_PIPE] |284|  ; [KEEP 32-BIT INS]
     447                            ; CALL OCCURS {xTaskRemoveFromEventList }  ; [] |284| 
     448 0000006e 2801              CMP       A1, #1                ; [DPU_3_PIPE] |284|  ; [ORIG 16-BIT INS]
     449 00000070 D008              BEQ       ||$C$L3||             ; [DPU_3_PIPE] |284|  ; [ORIG 16-BIT INS]
     450                            ; BRANCHCC OCCURS {||$C$L3||}    ; [] |284| 
     451                    ;* --------------------------------------------------------------------------*
     452                            .dwpsn  file "C:/TI_ARM_Tiva_Projects/Source/queue.c",line 287,column 5,is_stmt,isa 1
     453                            .dwpsn  file "C:/TI_ARM_Tiva_Projects/Source/queue.c",line 292,column 4,is_stmt,isa 1
     454 00000072 E007              B         ||$C$L3||             ; [DPU_3_PIPE] |292|  ; [ORIG 16-BIT INS]
     455                            ; BRANCH OCCURS {||$C$L3||}      ; [] |292| 
     456                    ;* --------------------------------------------------------------------------*
     457                    ;* --------------------------------------------------------------------------*
     458 00000074           ||$C$L2||:    
     459                            .dwpsn  file "C:/TI_ARM_Tiva_Projects/Source/queue.c",line 301,column 4,is_stmt,isa 1
     460 00000074 9802              LDR       A1, [SP, #8]          ; [DPU_3_PIPE] |301|  ; [ORIG 16-BIT INS]
     461 00000076 3010              ADDS      A1, A1, #16           ; [DPU_3_PIPE] |301|  ; [ORIG 16-BIT INS]
     462                    $C$DW$47        .dwtag  DW_TAG_TI_branch
     463                            .dwattr $C$DW$47, DW_AT_low_pc(0x00)
     464                            .dwattr $C$DW$47, DW_AT_name("vListInitialise")
     465                            .dwattr $C$DW$47, DW_AT_TI_call
     466                    
     467 00000078 FFFEF7FF!         BL        vListInitialise       ; [DPU_3_PIPE] |301|  ; [KEEP 32-BIT INS]
     468                            ; CALL OCCURS {vListInitialise }  ; [] |301| 
     469                            .dwpsn  file "C:/TI_ARM_Tiva_Projects/Source/queue.c",line 302,column 4,is_stmt,isa 1
     470 0000007c 9802              LDR       A1, [SP, #8]          ; [DPU_3_PIPE] |302|  ; [ORIG 16-BIT INS]
     471 0000007e 3024              ADDS      A1, A1, #36           ; [DPU_3_PIPE] |302|  ; [ORIG 16-BIT INS]
     472                    $C$DW$48        .dwtag  DW_TAG_TI_branch
     473                            .dwattr $C$DW$48, DW_AT_low_pc(0x00)
     474                            .dwattr $C$DW$48, DW_AT_name("vListInitialise")
     475                            .dwattr $C$DW$48, DW_AT_TI_call
     476                    
     477 00000080 FFFEF7FF!         BL        vListInitialise       ; [DPU_3_PIPE] |302|  ; [KEEP 32-BIT INS]
     478                            ; CALL OCCURS {vListInitialise }  ; [] |302| 
     479                    ;* --------------------------------------------------------------------------*
     480 00000084           ||$C$L3||:    
     481                            .dwpsn  file "C:/TI_ARM_Tiva_Projects/Source/queue.c",line 305,column 2,is_stmt,isa 1
     482                    $C$DW$49        .dwtag  DW_TAG_TI_branch
     483                            .dwattr $C$DW$49, DW_AT_low_pc(0x00)
     484                            .dwattr $C$DW$49, DW_AT_name("vPortExitCritical")
     485                            .dwattr $C$DW$49, DW_AT_TI_call
     486                    
     487 00000084 FFFEF7FF!         BL        vPortExitCritical     ; [DPU_3_PIPE] |305|  ; [KEEP 32-BIT INS]
     488                            ; CALL OCCURS {vPortExitCritical }  ; [] |305| 
     489                            .dwpsn  file "C:/TI_ARM_Tiva_Projects/Source/queue.c",line 309,column 2,is_stmt,isa 1
     490 00000088 2001              MOVS      A1, #1                ; [DPU_3_PIPE] |309|  ; [ORIG 16-BIT INS]
     491                            .dwpsn  file "C:/TI_ARM_Tiva_Projects/Source/queue.c",line 310,column 1,is_stmt,isa 1
     492                    $C$DW$50        .dwtag  DW_TAG_TI_branch
     493                            .dwattr $C$DW$50, DW_AT_low_pc(0x00)
     494                            .dwattr $C$DW$50, DW_AT_TI_return
     495                    
TI ARM Assembler PC v15.12.1 Tue Oct 18 10:42:33 2016

Tools Copyright (c) 1996-2015 Texas Instruments Incorporated
queue.asm                                                            PAGE   10

     496 0000008a BD0E              POP       {A2, A3, A4, PC}      ; [DPU_3_PIPE]  ; [ORIG 16-BIT INS]
     497                            .dwcfi  cfa_offset, 0
     498                            ; BRANCH OCCURS                  ; [] 
     499                            .dwattr $C$DW$39, DW_AT_TI_end_file("C:/TI_ARM_Tiva_Projects/Source/queue.c")
     500                            .dwattr $C$DW$39, DW_AT_TI_end_line(0x136)
     501                            .dwattr $C$DW$39, DW_AT_TI_end_column(0x01)
     502                            .dwendentry
     503                            .dwendtag $C$DW$39
     504                    
     505 0000008c                   .sect   ".text"
     506                            .clink
     507                            .thumbfunc xQueueGenericCreate
     508 0000008c                   .thumb
     509                            .global xQueueGenericCreate
     510                    
     511                    $C$DW$51        .dwtag  DW_TAG_subprogram
     512                            .dwattr $C$DW$51, DW_AT_name("xQueueGenericCreate")
     513                            .dwattr $C$DW$51, DW_AT_low_pc(xQueueGenericCreate)
     514                            .dwattr $C$DW$51, DW_AT_high_pc(0x00)
     515                            .dwattr $C$DW$51, DW_AT_TI_symbol_name("xQueueGenericCreate")
     516                            .dwattr $C$DW$51, DW_AT_external
     517                            .dwattr $C$DW$51, DW_AT_type(*$C$DW$T$34)
     518                            .dwattr $C$DW$51, DW_AT_TI_begin_file("C:/TI_ARM_Tiva_Projects/Source/queue.c")
     519                            .dwattr $C$DW$51, DW_AT_TI_begin_line(0x139)
     520                            .dwattr $C$DW$51, DW_AT_TI_begin_column(0x0f)
     521                            .dwattr $C$DW$51, DW_AT_decl_file("C:/TI_ARM_Tiva_Projects/Source/queue.c")
     522                            .dwattr $C$DW$51, DW_AT_decl_line(0x139)
     523                            .dwattr $C$DW$51, DW_AT_decl_column(0x0f)
     524                            .dwattr $C$DW$51, DW_AT_TI_max_frame_size(0x20)
     525                            .dwpsn  file "C:/TI_ARM_Tiva_Projects/Source/queue.c",line 314,column 1,is_stmt,address xQueue
     526                    
     527                            .dwfde $C$DW$CIE, xQueueGenericCreate
     528                    $C$DW$52        .dwtag  DW_TAG_formal_parameter
     529                            .dwattr $C$DW$52, DW_AT_name("uxQueueLength")
     530                            .dwattr $C$DW$52, DW_AT_TI_symbol_name("uxQueueLength")
     531                            .dwattr $C$DW$52, DW_AT_type(*$C$DW$T$86)
     532                            .dwattr $C$DW$52, DW_AT_location[DW_OP_reg0]
     533                    
     534                    $C$DW$53        .dwtag  DW_TAG_formal_parameter
     535                            .dwattr $C$DW$53, DW_AT_name("uxItemSize")
     536                            .dwattr $C$DW$53, DW_AT_TI_symbol_name("uxItemSize")
     537                            .dwattr $C$DW$53, DW_AT_type(*$C$DW$T$86)
     538                            .dwattr $C$DW$53, DW_AT_location[DW_OP_reg1]
     539                    
     540                    $C$DW$54        .dwtag  DW_TAG_formal_parameter
     541                            .dwattr $C$DW$54, DW_AT_name("ucQueueType")
     542                            .dwattr $C$DW$54, DW_AT_TI_symbol_name("ucQueueType")
     543                            .dwattr $C$DW$54, DW_AT_type(*$C$DW$T$87)
     544                            .dwattr $C$DW$54, DW_AT_location[DW_OP_reg2]
     545                    
     546                    
     547                    ;*****************************************************************************
     548                    ;* FUNCTION NAME: xQueueGenericCreate                                        *
     549                    ;*                                                                           *
     550                    ;*   Regs Modified     : A1,A2,A3,A4,V9,SP,LR,SR,D0,D0_hi,D1,D1_hi,D2,D2_hi, *
TI ARM Assembler PC v15.12.1 Tue Oct 18 10:42:33 2016

Tools Copyright (c) 1996-2015 Texas Instruments Incorporated
queue.asm                                                            PAGE   11

     551                    ;*                           D3,D3_hi,D4,D4_hi,D5,D5_hi,D6,D6_hi,D7,D7_hi,   *
     552                    ;*                           FPEXC,FPSCR                                     *
     553                    ;*   Regs Used         : A1,A2,A3,A4,V9,SP,LR,SR,D0,D0_hi,D1,D1_hi,D2,D2_hi, *
     554                    ;*                           D3,D3_hi,D4,D4_hi,D5,D5_hi,D6,D6_hi,D7,D7_hi,   *
     555                    ;*                           FPEXC,FPSCR                                     *
     556                    ;*   Local Frame Size  : 0 Args + 24 Auto + 4 Save = 28 byte                 *
     557                    ;*****************************************************************************
     558 0000008c           xQueueGenericCreate:
     559                    ;* --------------------------------------------------------------------------*
     560                            .dwcfi  cfa_offset, 0
     561 0000008c B500              PUSH      {LR}                  ; [DPU_3_PIPE]  ; [ORIG 16-BIT INS]
     562                            .dwcfi  cfa_offset, 4
     563                            .dwcfi  save_reg_to_mem, 14, -4
     564 0000008e 0D1CF1AD          SUB       SP, SP, #28           ; [DPU_3_PIPE]  ; [KEEP 32-BIT INS]
     565                            .dwcfi  cfa_offset, 32
     566                    $C$DW$55        .dwtag  DW_TAG_variable
     567                            .dwattr $C$DW$55, DW_AT_name("uxQueueLength")
     568                            .dwattr $C$DW$55, DW_AT_TI_symbol_name("uxQueueLength")
     569                            .dwattr $C$DW$55, DW_AT_type(*$C$DW$T$86)
     570                            .dwattr $C$DW$55, DW_AT_location[DW_OP_breg13 0]
     571                    
     572                    $C$DW$56        .dwtag  DW_TAG_variable
     573                            .dwattr $C$DW$56, DW_AT_name("uxItemSize")
     574                            .dwattr $C$DW$56, DW_AT_TI_symbol_name("uxItemSize")
     575                            .dwattr $C$DW$56, DW_AT_type(*$C$DW$T$86)
     576                            .dwattr $C$DW$56, DW_AT_location[DW_OP_breg13 4]
     577                    
     578                    $C$DW$57        .dwtag  DW_TAG_variable
     579                            .dwattr $C$DW$57, DW_AT_name("ucQueueType")
     580                            .dwattr $C$DW$57, DW_AT_TI_symbol_name("ucQueueType")
     581                            .dwattr $C$DW$57, DW_AT_type(*$C$DW$T$87)
     582                            .dwattr $C$DW$57, DW_AT_location[DW_OP_breg13 8]
     583                    
     584                    $C$DW$58        .dwtag  DW_TAG_variable
     585                            .dwattr $C$DW$58, DW_AT_name("pxNewQueue")
     586                            .dwattr $C$DW$58, DW_AT_TI_symbol_name("pxNewQueue")
     587                            .dwattr $C$DW$58, DW_AT_type(*$C$DW$T$83)
     588                            .dwattr $C$DW$58, DW_AT_location[DW_OP_breg13 12]
     589                    
     590                    $C$DW$59        .dwtag  DW_TAG_variable
     591                            .dwattr $C$DW$59, DW_AT_name("xQueueSizeInBytes")
     592                            .dwattr $C$DW$59, DW_AT_TI_symbol_name("xQueueSizeInBytes")
     593                            .dwattr $C$DW$59, DW_AT_type(*$C$DW$T$29)
     594                            .dwattr $C$DW$59, DW_AT_location[DW_OP_breg13 16]
     595                    
     596                    $C$DW$60        .dwtag  DW_TAG_variable
     597                            .dwattr $C$DW$60, DW_AT_name("xReturn")
     598                            .dwattr $C$DW$60, DW_AT_TI_symbol_name("xReturn")
     599                            .dwattr $C$DW$60, DW_AT_type(*$C$DW$T$34)
     600                            .dwattr $C$DW$60, DW_AT_location[DW_OP_breg13 20]
     601                    
     602 00000092 2008F88D          STRB      A3, [SP, #8]          ; [DPU_3_PIPE] |314|  ; [KEEP 32-BIT INS]
     603 00000096 9101              STR       A2, [SP, #4]          ; [DPU_3_PIPE] |314|  ; [ORIG 16-BIT INS]
     604 00000098 9000              STR       A1, [SP, #0]          ; [DPU_3_PIPE] |314|  ; [ORIG 16-BIT INS]
     605                            .dwpsn  file "C:/TI_ARM_Tiva_Projects/Source/queue.c",line 317,column 23,is_stmt,isa 1
TI ARM Assembler PC v15.12.1 Tue Oct 18 10:42:33 2016

Tools Copyright (c) 1996-2015 Texas Instruments Incorporated
queue.asm                                                            PAGE   12

     606 0000009a 2000              MOVS      A1, #0                ; [DPU_3_PIPE] |317|  ; [ORIG 16-BIT INS]
     607 0000009c 9005              STR       A1, [SP, #20]         ; [DPU_3_PIPE] |317|  ; [ORIG 16-BIT INS]
     608                            .dwpsn  file "C:/TI_ARM_Tiva_Projects/Source/queue.c",line 321,column 2,is_stmt,isa 1
     609                            .dwpsn  file "C:/TI_ARM_Tiva_Projects/Source/queue.c",line 325,column 2,is_stmt,isa 1
     610 0000009e 9801              LDR       A1, [SP, #4]          ; [DPU_3_PIPE] |325|  ; [ORIG 16-BIT INS]
     611 000000a0 B910              CBNZ      A1, ||$C$L4||         ; []  ; [ORIG 16-BIT INS]
     612                            ; BRANCHCC OCCURS {||$C$L4||}    ; [] |325| 
     613                    ;* --------------------------------------------------------------------------*
     614                            .dwpsn  file "C:/TI_ARM_Tiva_Projects/Source/queue.c",line 328,column 3,is_stmt,isa 1
     615 000000a2 2000              MOVS      A1, #0                ; [DPU_3_PIPE] |328|  ; [ORIG 16-BIT INS]
     616 000000a4 9004              STR       A1, [SP, #16]         ; [DPU_3_PIPE] |328|  ; [ORIG 16-BIT INS]
     617                            .dwpsn  file "C:/TI_ARM_Tiva_Projects/Source/queue.c",line 329,column 2,is_stmt,isa 1
     618 000000a6 E004              B         ||$C$L5||             ; [DPU_3_PIPE] |329|  ; [ORIG 16-BIT INS]
     619                            ; BRANCH OCCURS {||$C$L5||}      ; [] |329| 
     620                    ;* --------------------------------------------------------------------------*
     621 000000a8           ||$C$L4||:    
     622                            .dwpsn  file "C:/TI_ARM_Tiva_Projects/Source/queue.c",line 334,column 3,is_stmt,isa 1
     623 000000a8 9900              LDR       A2, [SP, #0]          ; [DPU_3_PIPE] |334|  ; [ORIG 16-BIT INS]
     624 000000aa 9801              LDR       A1, [SP, #4]          ; [DPU_3_PIPE] |334|  ; [ORIG 16-BIT INS]
     625 000000ac 4348              MULS      A1, A1, A2            ; [DPU_3_PIPE] |334|  ; [ORIG 16-BIT INS]
     626 000000ae 1C40              ADDS      A1, A1, #1            ; [DPU_3_PIPE] |334|  ; [ORIG 16-BIT INS]
     627 000000b0 9004              STR       A1, [SP, #16]         ; [DPU_3_PIPE] |334|  ; [ORIG 16-BIT INS]
     628                    ;* --------------------------------------------------------------------------*
     629 000000b2           ||$C$L5||:    
     630                            .dwpsn  file "C:/TI_ARM_Tiva_Projects/Source/queue.c",line 338,column 2,is_stmt,isa 1
     631 000000b2 9804              LDR       A1, [SP, #16]         ; [DPU_3_PIPE] |338|  ; [ORIG 16-BIT INS]
     632 000000b4 3054              ADDS      A1, A1, #84           ; [DPU_3_PIPE] |338|  ; [ORIG 16-BIT INS]
     633                    $C$DW$61        .dwtag  DW_TAG_TI_branch
     634                            .dwattr $C$DW$61, DW_AT_low_pc(0x00)
     635                            .dwattr $C$DW$61, DW_AT_name("pvPortMalloc")
     636                            .dwattr $C$DW$61, DW_AT_TI_call
     637                    
     638 000000b6 FFFEF7FF!         BL        pvPortMalloc          ; [DPU_3_PIPE] |338|  ; [KEEP 32-BIT INS]
     639                            ; CALL OCCURS {pvPortMalloc }    ; [] |338| 
     640 000000ba 9003              STR       A1, [SP, #12]         ; [DPU_3_PIPE] |338|  ; [ORIG 16-BIT INS]
     641                            .dwpsn  file "C:/TI_ARM_Tiva_Projects/Source/queue.c",line 340,column 2,is_stmt,isa 1
     642 000000bc 9803              LDR       A1, [SP, #12]         ; [DPU_3_PIPE] |340|  ; [ORIG 16-BIT INS]
     643 000000be B1D0              CBZ       A1, ||$C$L8||         ; []  ; [ORIG 16-BIT INS]
     644                            ; BRANCHCC OCCURS {||$C$L8||}    ; [] |340| 
     645                    ;* --------------------------------------------------------------------------*
     646                            .dwpsn  file "C:/TI_ARM_Tiva_Projects/Source/queue.c",line 342,column 3,is_stmt,isa 1
     647 000000c0 9801              LDR       A1, [SP, #4]          ; [DPU_3_PIPE] |342|  ; [ORIG 16-BIT INS]
     648 000000c2 B918              CBNZ      A1, ||$C$L6||         ; []  ; [ORIG 16-BIT INS]
     649                            ; BRANCHCC OCCURS {||$C$L6||}    ; [] |342| 
     650                    ;* --------------------------------------------------------------------------*
     651                            .dwpsn  file "C:/TI_ARM_Tiva_Projects/Source/queue.c",line 348,column 4,is_stmt,isa 1
     652 000000c4 9803              LDR       A1, [SP, #12]         ; [DPU_3_PIPE] |348|  ; [ORIG 16-BIT INS]
     653 000000c6 9903              LDR       A2, [SP, #12]         ; [DPU_3_PIPE] |348|  ; [ORIG 16-BIT INS]
     654 000000c8 6008              STR       A1, [A2, #0]          ; [DPU_3_PIPE] |348|  ; [ORIG 16-BIT INS]
     655                            .dwpsn  file "C:/TI_ARM_Tiva_Projects/Source/queue.c",line 349,column 3,is_stmt,isa 1
     656 000000ca E003              B         ||$C$L7||             ; [DPU_3_PIPE] |349|  ; [ORIG 16-BIT INS]
     657                            ; BRANCH OCCURS {||$C$L7||}      ; [] |349| 
     658                    ;* --------------------------------------------------------------------------*
     659 000000cc           ||$C$L6||:    
     660                            .dwpsn  file "C:/TI_ARM_Tiva_Projects/Source/queue.c",line 354,column 4,is_stmt,isa 1
TI ARM Assembler PC v15.12.1 Tue Oct 18 10:42:33 2016

Tools Copyright (c) 1996-2015 Texas Instruments Incorporated
queue.asm                                                            PAGE   13

     661 000000cc 9803              LDR       A1, [SP, #12]         ; [DPU_3_PIPE] |354|  ; [ORIG 16-BIT INS]
     662 000000ce 9903              LDR       A2, [SP, #12]         ; [DPU_3_PIPE] |354|  ; [ORIG 16-BIT INS]
     663 000000d0 3054              ADDS      A1, A1, #84           ; [DPU_3_PIPE] |354|  ; [ORIG 16-BIT INS]
     664 000000d2 6008              STR       A1, [A2, #0]          ; [DPU_3_PIPE] |354|  ; [ORIG 16-BIT INS]
     665                    ;* --------------------------------------------------------------------------*
     666 000000d4           ||$C$L7||:    
     667                            .dwpsn  file "C:/TI_ARM_Tiva_Projects/Source/queue.c",line 359,column 3,is_stmt,isa 1
     668 000000d4 9800              LDR       A1, [SP, #0]          ; [DPU_3_PIPE] |359|  ; [ORIG 16-BIT INS]
     669 000000d6 9903              LDR       A2, [SP, #12]         ; [DPU_3_PIPE] |359|  ; [ORIG 16-BIT INS]
     670 000000d8 63C8              STR       A1, [A2, #60]         ; [DPU_3_PIPE] |359|  ; [ORIG 16-BIT INS]
     671                            .dwpsn  file "C:/TI_ARM_Tiva_Projects/Source/queue.c",line 360,column 3,is_stmt,isa 1
     672 000000da 9801              LDR       A1, [SP, #4]          ; [DPU_3_PIPE] |360|  ; [ORIG 16-BIT INS]
     673 000000dc 9903              LDR       A2, [SP, #12]         ; [DPU_3_PIPE] |360|  ; [ORIG 16-BIT INS]
     674 000000de 6408              STR       A1, [A2, #64]         ; [DPU_3_PIPE] |360|  ; [ORIG 16-BIT INS]
     675                            .dwpsn  file "C:/TI_ARM_Tiva_Projects/Source/queue.c",line 361,column 3,is_stmt,isa 1
     676 000000e0 9803              LDR       A1, [SP, #12]         ; [DPU_3_PIPE] |361|  ; [ORIG 16-BIT INS]
     677 000000e2 2101              MOVS      A2, #1                ; [DPU_3_PIPE] |361|  ; [ORIG 16-BIT INS]
     678                    $C$DW$62        .dwtag  DW_TAG_TI_branch
     679                            .dwattr $C$DW$62, DW_AT_low_pc(0x00)
     680                            .dwattr $C$DW$62, DW_AT_name("xQueueGenericReset")
     681                            .dwattr $C$DW$62, DW_AT_TI_call
     682                    
     683 000000e4 FF8CF7FF          BL        xQueueGenericReset    ; [DPU_3_PIPE] |361|  ; [KEEP 32-BIT INS]
     684                            ; CALL OCCURS {xQueueGenericReset }  ; [] |361| 
     685                            .dwpsn  file "C:/TI_ARM_Tiva_Projects/Source/queue.c",line 365,column 4,is_stmt,isa 1
     686 000000e8 0008F89D          LDRB      A1, [SP, #8]          ; [DPU_3_PIPE] |365|  ; [KEEP 32-BIT INS]
     687 000000ec 9903              LDR       A2, [SP, #12]         ; [DPU_3_PIPE] |365|  ; [ORIG 16-BIT INS]
     688 000000ee 0050F881          STRB      A1, [A2, #80]         ; [DPU_3_PIPE] |365|  ; [KEEP 32-BIT INS]
     689                            .dwpsn  file "C:/TI_ARM_Tiva_Projects/Source/queue.c",line 376,column 3,is_stmt,isa 1
     690 000000f2 9803              LDR       A1, [SP, #12]         ; [DPU_3_PIPE] |376|  ; [ORIG 16-BIT INS]
     691 000000f4 9005              STR       A1, [SP, #20]         ; [DPU_3_PIPE] |376|  ; [ORIG 16-BIT INS]
     692                            .dwpsn  file "C:/TI_ARM_Tiva_Projects/Source/queue.c",line 377,column 2,is_stmt,isa 1
     693                    ;* --------------------------------------------------------------------------*
     694 000000f6           ||$C$L8||:    
     695                            .dwpsn  file "C:/TI_ARM_Tiva_Projects/Source/queue.c",line 385,column 2,is_stmt,isa 1
     696 000000f6 9805              LDR       A1, [SP, #20]         ; [DPU_3_PIPE] |385|  ; [ORIG 16-BIT INS]
     697                            .dwpsn  file "C:/TI_ARM_Tiva_Projects/Source/queue.c",line 386,column 1,is_stmt,isa 1
     698 000000f8 B007              ADD       SP, SP, #28           ; [DPU_3_PIPE]  ; [ORIG 16-BIT INS]
     699                            .dwcfi  cfa_offset, 4
     700                    $C$DW$63        .dwtag  DW_TAG_TI_branch
     701                            .dwattr $C$DW$63, DW_AT_low_pc(0x00)
     702                            .dwattr $C$DW$63, DW_AT_TI_return
     703                    
     704 000000fa BD00              POP       {PC}                  ; [DPU_3_PIPE]  ; [ORIG 16-BIT INS]
     705                            .dwcfi  cfa_offset, 0
     706                            ; BRANCH OCCURS                  ; [] 
     707                            .dwattr $C$DW$51, DW_AT_TI_end_file("C:/TI_ARM_Tiva_Projects/Source/queue.c")
     708                            .dwattr $C$DW$51, DW_AT_TI_end_line(0x182)
     709                            .dwattr $C$DW$51, DW_AT_TI_end_column(0x01)
     710                            .dwendentry
     711                            .dwendtag $C$DW$51
     712                    
     713 000000fc                   .sect   ".text"
     714                            .clink
     715                            .thumbfunc xQueueCreateMutex
TI ARM Assembler PC v15.12.1 Tue Oct 18 10:42:33 2016

Tools Copyright (c) 1996-2015 Texas Instruments Incorporated
queue.asm                                                            PAGE   14

     716 000000fc                   .thumb
     717                            .global xQueueCreateMutex
     718                    
     719                    $C$DW$64        .dwtag  DW_TAG_subprogram
     720                            .dwattr $C$DW$64, DW_AT_name("xQueueCreateMutex")
     721                            .dwattr $C$DW$64, DW_AT_low_pc(xQueueCreateMutex)
     722                            .dwattr $C$DW$64, DW_AT_high_pc(0x00)
     723                            .dwattr $C$DW$64, DW_AT_TI_symbol_name("xQueueCreateMutex")
     724                            .dwattr $C$DW$64, DW_AT_external
     725                            .dwattr $C$DW$64, DW_AT_type(*$C$DW$T$34)
     726                            .dwattr $C$DW$64, DW_AT_TI_begin_file("C:/TI_ARM_Tiva_Projects/Source/queue.c")
     727                            .dwattr $C$DW$64, DW_AT_TI_begin_line(0x187)
     728                            .dwattr $C$DW$64, DW_AT_TI_begin_column(0x10)
     729                            .dwattr $C$DW$64, DW_AT_decl_file("C:/TI_ARM_Tiva_Projects/Source/queue.c")
     730                            .dwattr $C$DW$64, DW_AT_decl_line(0x187)
     731                            .dwattr $C$DW$64, DW_AT_decl_column(0x10)
     732                            .dwattr $C$DW$64, DW_AT_TI_max_frame_size(0x10)
     733                            .dwpsn  file "C:/TI_ARM_Tiva_Projects/Source/queue.c",line 392,column 2,is_stmt,address xQueue
     734                    
     735                            .dwfde $C$DW$CIE, xQueueCreateMutex
     736                    $C$DW$65        .dwtag  DW_TAG_formal_parameter
     737                            .dwattr $C$DW$65, DW_AT_name("ucQueueType")
     738                            .dwattr $C$DW$65, DW_AT_TI_symbol_name("ucQueueType")
     739                            .dwattr $C$DW$65, DW_AT_type(*$C$DW$T$87)
     740                            .dwattr $C$DW$65, DW_AT_location[DW_OP_reg0]
     741                    
     742                    
     743                    ;*****************************************************************************
     744                    ;* FUNCTION NAME: xQueueCreateMutex                                          *
     745                    ;*                                                                           *
     746                    ;*   Regs Modified     : A1,A2,A3,A4,V9,SP,LR,SR,D0,D0_hi,D1,D1_hi,D2,D2_hi, *
     747                    ;*                           D3,D3_hi,D4,D4_hi,D5,D5_hi,D6,D6_hi,D7,D7_hi,   *
     748                    ;*                           FPEXC,FPSCR                                     *
     749                    ;*   Regs Used         : A1,A2,A3,A4,V9,SP,LR,SR,D0,D0_hi,D1,D1_hi,D2,D2_hi, *
     750                    ;*                           D3,D3_hi,D4,D4_hi,D5,D5_hi,D6,D6_hi,D7,D7_hi,   *
     751                    ;*                           FPEXC,FPSCR                                     *
     752                    ;*   Local Frame Size  : 0 Args + 8 Auto + 4 Save = 12 byte                  *
     753                    ;*****************************************************************************
     754 000000fc           xQueueCreateMutex:
     755                    ;* --------------------------------------------------------------------------*
     756                            .dwcfi  cfa_offset, 0
     757 000000fc B50E              PUSH      {A2, A3, A4, LR}      ; [DPU_3_PIPE]  ; [ORIG 16-BIT INS]
     758                            .dwcfi  cfa_offset, 16
     759                            .dwcfi  save_reg_to_mem, 14, -4
     760                            .dwcfi  save_reg_to_mem, 3, -8
     761                            .dwcfi  save_reg_to_mem, 2, -12
     762                            .dwcfi  save_reg_to_mem, 1, -16
     763                    $C$DW$66        .dwtag  DW_TAG_variable
     764                            .dwattr $C$DW$66, DW_AT_name("ucQueueType")
     765                            .dwattr $C$DW$66, DW_AT_TI_symbol_name("ucQueueType")
     766                            .dwattr $C$DW$66, DW_AT_type(*$C$DW$T$87)
     767                            .dwattr $C$DW$66, DW_AT_location[DW_OP_breg13 0]
     768                    
     769                    $C$DW$67        .dwtag  DW_TAG_variable
     770                            .dwattr $C$DW$67, DW_AT_name("pxNewQueue")
TI ARM Assembler PC v15.12.1 Tue Oct 18 10:42:33 2016

Tools Copyright (c) 1996-2015 Texas Instruments Incorporated
queue.asm                                                            PAGE   15

     771                            .dwattr $C$DW$67, DW_AT_TI_symbol_name("pxNewQueue")
     772                            .dwattr $C$DW$67, DW_AT_type(*$C$DW$T$83)
     773                            .dwattr $C$DW$67, DW_AT_location[DW_OP_breg13 4]
     774                    
     775 000000fe 0000F88D          STRB      A1, [SP, #0]          ; [DPU_3_PIPE] |392|  ; [KEEP 32-BIT INS]
     776                            .dwpsn  file "C:/TI_ARM_Tiva_Projects/Source/queue.c",line 397,column 3,is_stmt,isa 1
     777                            .dwpsn  file "C:/TI_ARM_Tiva_Projects/Source/queue.c",line 400,column 3,is_stmt,isa 1
     778 00000102 2054              MOVS      A1, #84               ; [DPU_3_PIPE] |400|  ; [ORIG 16-BIT INS]
     779                    $C$DW$68        .dwtag  DW_TAG_TI_branch
     780                            .dwattr $C$DW$68, DW_AT_low_pc(0x00)
     781                            .dwattr $C$DW$68, DW_AT_name("pvPortMalloc")
     782                            .dwattr $C$DW$68, DW_AT_TI_call
     783                    
     784 00000104 FFFEF7FF!         BL        pvPortMalloc          ; [DPU_3_PIPE] |400|  ; [KEEP 32-BIT INS]
     785                            ; CALL OCCURS {pvPortMalloc }    ; [] |400| 
     786 00000108 9001              STR       A1, [SP, #4]          ; [DPU_3_PIPE] |400|  ; [ORIG 16-BIT INS]
     787                            .dwpsn  file "C:/TI_ARM_Tiva_Projects/Source/queue.c",line 401,column 3,is_stmt,isa 1
     788 0000010a 9801              LDR       A1, [SP, #4]          ; [DPU_3_PIPE] |401|  ; [ORIG 16-BIT INS]
     789 0000010c B378              CBZ       A1, ||$C$L9||         ; []  ; [ORIG 16-BIT INS]
     790                            ; BRANCHCC OCCURS {||$C$L9||}    ; [] |401| 
     791                    ;* --------------------------------------------------------------------------*
     792                            .dwpsn  file "C:/TI_ARM_Tiva_Projects/Source/queue.c",line 404,column 4,is_stmt,isa 1
     793 0000010e 9801              LDR       A1, [SP, #4]          ; [DPU_3_PIPE] |404|  ; [ORIG 16-BIT INS]
     794 00000110 2100              MOVS      A2, #0                ; [DPU_3_PIPE] |404|  ; [ORIG 16-BIT INS]
     795 00000112 6041              STR       A2, [A1, #4]          ; [DPU_3_PIPE] |404|  ; [ORIG 16-BIT INS]
     796                            .dwpsn  file "C:/TI_ARM_Tiva_Projects/Source/queue.c",line 405,column 4,is_stmt,isa 1
     797 00000114 9801              LDR       A1, [SP, #4]          ; [DPU_3_PIPE] |405|  ; [ORIG 16-BIT INS]
     798 00000116 2100              MOVS      A2, #0                ; [DPU_3_PIPE] |405|  ; [ORIG 16-BIT INS]
     799 00000118 6001              STR       A2, [A1, #0]          ; [DPU_3_PIPE] |405|  ; [ORIG 16-BIT INS]
     800                            .dwpsn  file "C:/TI_ARM_Tiva_Projects/Source/queue.c",line 409,column 4,is_stmt,isa 1
     801 0000011a 9801              LDR       A1, [SP, #4]          ; [DPU_3_PIPE] |409|  ; [ORIG 16-BIT INS]
     802 0000011c 2100              MOVS      A2, #0                ; [DPU_3_PIPE] |409|  ; [ORIG 16-BIT INS]
     803 0000011e 6081              STR       A2, [A1, #8]          ; [DPU_3_PIPE] |409|  ; [ORIG 16-BIT INS]
     804                            .dwpsn  file "C:/TI_ARM_Tiva_Projects/Source/queue.c",line 410,column 4,is_stmt,isa 1
     805 00000120 9801              LDR       A1, [SP, #4]          ; [DPU_3_PIPE] |410|  ; [ORIG 16-BIT INS]
     806 00000122 2100              MOVS      A2, #0                ; [DPU_3_PIPE] |410|  ; [ORIG 16-BIT INS]
     807 00000124 60C1              STR       A2, [A1, #12]         ; [DPU_3_PIPE] |410|  ; [ORIG 16-BIT INS]
     808                            .dwpsn  file "C:/TI_ARM_Tiva_Projects/Source/queue.c",line 415,column 4,is_stmt,isa 1
     809 00000126 9801              LDR       A1, [SP, #4]          ; [DPU_3_PIPE] |415|  ; [ORIG 16-BIT INS]
     810 00000128 2100              MOVS      A2, #0                ; [DPU_3_PIPE] |415|  ; [ORIG 16-BIT INS]
     811 0000012a 6381              STR       A2, [A1, #56]         ; [DPU_3_PIPE] |415|  ; [ORIG 16-BIT INS]
     812                            .dwpsn  file "C:/TI_ARM_Tiva_Projects/Source/queue.c",line 416,column 4,is_stmt,isa 1
     813 0000012c 9801              LDR       A1, [SP, #4]          ; [DPU_3_PIPE] |416|  ; [ORIG 16-BIT INS]
     814 0000012e 2101              MOVS      A2, #1                ; [DPU_3_PIPE] |416|  ; [ORIG 16-BIT INS]
     815 00000130 63C1              STR       A2, [A1, #60]         ; [DPU_3_PIPE] |416|  ; [ORIG 16-BIT INS]
     816                            .dwpsn  file "C:/TI_ARM_Tiva_Projects/Source/queue.c",line 417,column 4,is_stmt,isa 1
     817 00000132 9801              LDR       A1, [SP, #4]          ; [DPU_3_PIPE] |417|  ; [ORIG 16-BIT INS]
     818 00000134 2100              MOVS      A2, #0                ; [DPU_3_PIPE] |417|  ; [ORIG 16-BIT INS]
     819 00000136 6401              STR       A2, [A1, #64]         ; [DPU_3_PIPE] |417|  ; [ORIG 16-BIT INS]
     820                            .dwpsn  file "C:/TI_ARM_Tiva_Projects/Source/queue.c",line 418,column 4,is_stmt,isa 1
     821 00000138 9801              LDR       A1, [SP, #4]          ; [DPU_3_PIPE] |418|  ; [ORIG 16-BIT INS]
     822 0000013a 31FFF04F          MOV       A2, #-1               ; [DPU_3_PIPE] |418|  ; [KEEP 32-BIT INS]
     823 0000013e 6441              STR       A2, [A1, #68]         ; [DPU_3_PIPE] |418|  ; [ORIG 16-BIT INS]
     824                            .dwpsn  file "C:/TI_ARM_Tiva_Projects/Source/queue.c",line 419,column 4,is_stmt,isa 1
     825 00000140 9801              LDR       A1, [SP, #4]          ; [DPU_3_PIPE] |419|  ; [ORIG 16-BIT INS]
TI ARM Assembler PC v15.12.1 Tue Oct 18 10:42:33 2016

Tools Copyright (c) 1996-2015 Texas Instruments Incorporated
queue.asm                                                            PAGE   16

     826 00000142 31FFF04F          MOV       A2, #-1               ; [DPU_3_PIPE] |419|  ; [KEEP 32-BIT INS]
     827 00000146 6481              STR       A2, [A1, #72]         ; [DPU_3_PIPE] |419|  ; [ORIG 16-BIT INS]
     828                            .dwpsn  file "C:/TI_ARM_Tiva_Projects/Source/queue.c",line 423,column 5,is_stmt,isa 1
     829 00000148 9901              LDR       A2, [SP, #4]          ; [DPU_3_PIPE] |423|  ; [ORIG 16-BIT INS]
     830 0000014a 0000F89D          LDRB      A1, [SP, #0]          ; [DPU_3_PIPE] |423|  ; [KEEP 32-BIT INS]
     831 0000014e 0050F881          STRB      A1, [A2, #80]         ; [DPU_3_PIPE] |423|  ; [KEEP 32-BIT INS]
     832                            .dwpsn  file "C:/TI_ARM_Tiva_Projects/Source/queue.c",line 434,column 4,is_stmt,isa 1
     833 00000152 9801              LDR       A1, [SP, #4]          ; [DPU_3_PIPE] |434|  ; [ORIG 16-BIT INS]
     834 00000154 3010              ADDS      A1, A1, #16           ; [DPU_3_PIPE] |434|  ; [ORIG 16-BIT INS]
     835                    $C$DW$69        .dwtag  DW_TAG_TI_branch
     836                            .dwattr $C$DW$69, DW_AT_low_pc(0x00)
     837                            .dwattr $C$DW$69, DW_AT_name("vListInitialise")
     838                            .dwattr $C$DW$69, DW_AT_TI_call
     839                    
     840 00000156 FFFEF7FF!         BL        vListInitialise       ; [DPU_3_PIPE] |434|  ; [KEEP 32-BIT INS]
     841                            ; CALL OCCURS {vListInitialise }  ; [] |434| 
     842                            .dwpsn  file "C:/TI_ARM_Tiva_Projects/Source/queue.c",line 435,column 4,is_stmt,isa 1
     843 0000015a 9801              LDR       A1, [SP, #4]          ; [DPU_3_PIPE] |435|  ; [ORIG 16-BIT INS]
     844 0000015c 3024              ADDS      A1, A1, #36           ; [DPU_3_PIPE] |435|  ; [ORIG 16-BIT INS]
     845                    $C$DW$70        .dwtag  DW_TAG_TI_branch
     846                            .dwattr $C$DW$70, DW_AT_low_pc(0x00)
     847                            .dwattr $C$DW$70, DW_AT_name("vListInitialise")
     848                            .dwattr $C$DW$70, DW_AT_TI_call
     849                    
     850 0000015e FFFEF7FF!         BL        vListInitialise       ; [DPU_3_PIPE] |435|  ; [KEEP 32-BIT INS]
     851                            ; CALL OCCURS {vListInitialise }  ; [] |435| 
     852                            .dwpsn  file "C:/TI_ARM_Tiva_Projects/Source/queue.c",line 440,column 4,is_stmt,isa 1
     853 00000162 9801              LDR       A1, [SP, #4]          ; [DPU_3_PIPE] |440|  ; [ORIG 16-BIT INS]
     854 00000164 2100              MOVS      A2, #0                ; [DPU_3_PIPE] |440|  ; [ORIG 16-BIT INS]
     855 00000166 2200              MOVS      A3, #0                ; [DPU_3_PIPE] |440|  ; [ORIG 16-BIT INS]
     856 00000168 2300              MOVS      A4, #0                ; [DPU_3_PIPE] |440|  ; [ORIG 16-BIT INS]
     857                    $C$DW$71        .dwtag  DW_TAG_TI_branch
     858                            .dwattr $C$DW$71, DW_AT_low_pc(0x00)
     859                            .dwattr $C$DW$71, DW_AT_name("xQueueGenericSend")
     860                            .dwattr $C$DW$71, DW_AT_TI_call
     861                    
     862 0000016a F855F000          BL        xQueueGenericSend     ; [DPU_3_PIPE] |440|  ; [KEEP 32-BIT INS]
     863                            ; CALL OCCURS {xQueueGenericSend }  ; [] |440| 
     864                            .dwpsn  file "C:/TI_ARM_Tiva_Projects/Source/queue.c",line 441,column 3,is_stmt,isa 1
     865                    ;* --------------------------------------------------------------------------*
     866 0000016e           ||$C$L9||:    
     867                            .dwpsn  file "C:/TI_ARM_Tiva_Projects/Source/queue.c",line 447,column 3,is_stmt,isa 1
     868 0000016e 9801              LDR       A1, [SP, #4]          ; [DPU_3_PIPE] |447|  ; [ORIG 16-BIT INS]
     869                            .dwpsn  file "C:/TI_ARM_Tiva_Projects/Source/queue.c",line 448,column 2,is_stmt,isa 1
     870                    $C$DW$72        .dwtag  DW_TAG_TI_branch
     871                            .dwattr $C$DW$72, DW_AT_low_pc(0x00)
     872                            .dwattr $C$DW$72, DW_AT_TI_return
     873                    
     874 00000170 BD0E              POP       {A2, A3, A4, PC}      ; [DPU_3_PIPE]  ; [ORIG 16-BIT INS]
     875                            .dwcfi  cfa_offset, 0
     876                            ; BRANCH OCCURS                  ; [] 
     877                            .dwattr $C$DW$64, DW_AT_TI_end_file("C:/TI_ARM_Tiva_Projects/Source/queue.c")
     878                            .dwattr $C$DW$64, DW_AT_TI_end_line(0x1c0)
     879                            .dwattr $C$DW$64, DW_AT_TI_end_column(0x02)
     880                            .dwendentry
TI ARM Assembler PC v15.12.1 Tue Oct 18 10:42:33 2016

Tools Copyright (c) 1996-2015 Texas Instruments Incorporated
queue.asm                                                            PAGE   17

     881                            .dwendtag $C$DW$64
     882                    
     883 00000172                   .sect   ".text"
     884                            .clink
     885                            .thumbfunc xQueueGiveMutexRecursive
     886 00000172                   .thumb
     887                            .global xQueueGiveMutexRecursive
     888                    
     889                    $C$DW$73        .dwtag  DW_TAG_subprogram
     890                            .dwattr $C$DW$73, DW_AT_name("xQueueGiveMutexRecursive")
     891                            .dwattr $C$DW$73, DW_AT_low_pc(xQueueGiveMutexRecursive)
     892                            .dwattr $C$DW$73, DW_AT_high_pc(0x00)
     893                            .dwattr $C$DW$73, DW_AT_TI_symbol_name("xQueueGiveMutexRecursive")
     894                            .dwattr $C$DW$73, DW_AT_external
     895                            .dwattr $C$DW$73, DW_AT_type(*$C$DW$T$39)
     896                            .dwattr $C$DW$73, DW_AT_TI_begin_file("C:/TI_ARM_Tiva_Projects/Source/queue.c")
     897                            .dwattr $C$DW$73, DW_AT_TI_begin_line(0x1e5)
     898                            .dwattr $C$DW$73, DW_AT_TI_begin_column(0x0d)
     899                            .dwattr $C$DW$73, DW_AT_decl_file("C:/TI_ARM_Tiva_Projects/Source/queue.c")
     900                            .dwattr $C$DW$73, DW_AT_decl_line(0x1e5)
     901                            .dwattr $C$DW$73, DW_AT_decl_column(0x0d)
     902                            .dwattr $C$DW$73, DW_AT_TI_max_frame_size(0x10)
     903                            .dwpsn  file "C:/TI_ARM_Tiva_Projects/Source/queue.c",line 486,column 2,is_stmt,address xQueue
     904                    
     905                            .dwfde $C$DW$CIE, xQueueGiveMutexRecursive
     906                    $C$DW$74        .dwtag  DW_TAG_formal_parameter
     907                            .dwattr $C$DW$74, DW_AT_name("xMutex")
     908                            .dwattr $C$DW$74, DW_AT_TI_symbol_name("xMutex")
     909                            .dwattr $C$DW$74, DW_AT_type(*$C$DW$T$34)
     910                            .dwattr $C$DW$74, DW_AT_location[DW_OP_reg0]
     911                    
     912                    
     913                    ;*****************************************************************************
     914                    ;* FUNCTION NAME: xQueueGiveMutexRecursive                                   *
     915                    ;*                                                                           *
     916                    ;*   Regs Modified     : A1,A2,A3,A4,V9,SP,LR,SR,D0,D0_hi,D1,D1_hi,D2,D2_hi, *
     917                    ;*                           D3,D3_hi,D4,D4_hi,D5,D5_hi,D6,D6_hi,D7,D7_hi,   *
     918                    ;*                           FPEXC,FPSCR                                     *
     919                    ;*   Regs Used         : A1,A2,A3,A4,V9,SP,LR,SR,D0,D0_hi,D1,D1_hi,D2,D2_hi, *
     920                    ;*                           D3,D3_hi,D4,D4_hi,D5,D5_hi,D6,D6_hi,D7,D7_hi,   *
     921                    ;*                           FPEXC,FPSCR                                     *
     922                    ;*   Local Frame Size  : 0 Args + 12 Auto + 4 Save = 16 byte                 *
     923                    ;*****************************************************************************
     924 00000172           xQueueGiveMutexRecursive:
     925                    ;* --------------------------------------------------------------------------*
     926                            .dwcfi  cfa_offset, 0
     927 00000172 B50E              PUSH      {A2, A3, A4, LR}      ; [DPU_3_PIPE]  ; [ORIG 16-BIT INS]
     928                            .dwcfi  cfa_offset, 16
     929                            .dwcfi  save_reg_to_mem, 14, -4
     930                            .dwcfi  save_reg_to_mem, 3, -8
     931                            .dwcfi  save_reg_to_mem, 2, -12
     932                            .dwcfi  save_reg_to_mem, 1, -16
     933                    $C$DW$75        .dwtag  DW_TAG_variable
     934                            .dwattr $C$DW$75, DW_AT_name("xMutex")
     935                            .dwattr $C$DW$75, DW_AT_TI_symbol_name("xMutex")
TI ARM Assembler PC v15.12.1 Tue Oct 18 10:42:33 2016

Tools Copyright (c) 1996-2015 Texas Instruments Incorporated
queue.asm                                                            PAGE   18

     936                            .dwattr $C$DW$75, DW_AT_type(*$C$DW$T$34)
     937                            .dwattr $C$DW$75, DW_AT_location[DW_OP_breg13 0]
     938                    
     939                    $C$DW$76        .dwtag  DW_TAG_variable
     940                            .dwattr $C$DW$76, DW_AT_name("xReturn")
     941                            .dwattr $C$DW$76, DW_AT_TI_symbol_name("xReturn")
     942                            .dwattr $C$DW$76, DW_AT_type(*$C$DW$T$39)
     943                            .dwattr $C$DW$76, DW_AT_location[DW_OP_breg13 4]
     944                    
     945                    $C$DW$77        .dwtag  DW_TAG_variable
     946                            .dwattr $C$DW$77, DW_AT_name("pxMutex")
     947                            .dwattr $C$DW$77, DW_AT_TI_symbol_name("pxMutex")
     948                            .dwattr $C$DW$77, DW_AT_type(*$C$DW$T$84)
     949                            .dwattr $C$DW$77, DW_AT_location[DW_OP_breg13 8]
     950                    
     951 00000174 9000              STR       A1, [SP, #0]          ; [DPU_3_PIPE] |486|  ; [ORIG 16-BIT INS]
     952                            .dwpsn  file "C:/TI_ARM_Tiva_Projects/Source/queue.c",line 488,column 26,is_stmt,isa 1
     953 00000176 9800              LDR       A1, [SP, #0]          ; [DPU_3_PIPE] |488|  ; [ORIG 16-BIT INS]
     954 00000178 9002              STR       A1, [SP, #8]          ; [DPU_3_PIPE] |488|  ; [ORIG 16-BIT INS]
     955                            .dwpsn  file "C:/TI_ARM_Tiva_Projects/Source/queue.c",line 498,column 3,is_stmt,isa 1
     956                    $C$DW$78        .dwtag  DW_TAG_TI_branch
     957                            .dwattr $C$DW$78, DW_AT_low_pc(0x00)
     958                            .dwattr $C$DW$78, DW_AT_name("xTaskGetCurrentTaskHandle")
     959                            .dwattr $C$DW$78, DW_AT_TI_call
     960                    
     961 0000017a FFFEF7FF!         BL        xTaskGetCurrentTaskHandle ; [DPU_3_PIPE] |498|  ; [KEEP 32-BIT INS]
     962                            ; CALL OCCURS {xTaskGetCurrentTaskHandle }  ; [] |498| 
     963 0000017e 9902              LDR       A2, [SP, #8]          ; [DPU_3_PIPE] |498|  ; [ORIG 16-BIT INS]
     964 00000180 6849              LDR       A2, [A2, #4]          ; [DPU_3_PIPE] |498|  ; [ORIG 16-BIT INS]
     965 00000182 4288              CMP       A1, A2                ; [DPU_3_PIPE] |498|  ; [ORIG 16-BIT INS]
     966 00000184 D10F              BNE       ||$C$L11||            ; [DPU_3_PIPE] |498|  ; [ORIG 16-BIT INS]
     967                            ; BRANCHCC OCCURS {||$C$L11||}   ; [] |498| 
     968                    ;* --------------------------------------------------------------------------*
     969                            .dwpsn  file "C:/TI_ARM_Tiva_Projects/Source/queue.c",line 507,column 4,is_stmt,isa 1
     970 00000186 9902              LDR       A2, [SP, #8]          ; [DPU_3_PIPE] |507|  ; [ORIG 16-BIT INS]
     971 00000188 68C8              LDR       A1, [A2, #12]         ; [DPU_3_PIPE] |507|  ; [ORIG 16-BIT INS]
     972 0000018a 1E40              SUBS      A1, A1, #1            ; [DPU_3_PIPE] |507|  ; [ORIG 16-BIT INS]
     973 0000018c 60C8              STR       A1, [A2, #12]         ; [DPU_3_PIPE] |507|  ; [ORIG 16-BIT INS]
     974                            .dwpsn  file "C:/TI_ARM_Tiva_Projects/Source/queue.c",line 510,column 4,is_stmt,isa 1
     975 0000018e 9802              LDR       A1, [SP, #8]          ; [DPU_3_PIPE] |510|  ; [ORIG 16-BIT INS]
     976 00000190 68C0              LDR       A1, [A1, #12]         ; [DPU_3_PIPE] |510|  ; [ORIG 16-BIT INS]
     977 00000192 B928              CBNZ      A1, ||$C$L10||        ; []  ; [ORIG 16-BIT INS]
     978                            ; BRANCHCC OCCURS {||$C$L10||}   ; [] |510| 
     979                    ;* --------------------------------------------------------------------------*
     980                            .dwpsn  file "C:/TI_ARM_Tiva_Projects/Source/queue.c",line 514,column 5,is_stmt,isa 1
     981 00000194 9802              LDR       A1, [SP, #8]          ; [DPU_3_PIPE] |514|  ; [ORIG 16-BIT INS]
     982 00000196 2100              MOVS      A2, #0                ; [DPU_3_PIPE] |514|  ; [ORIG 16-BIT INS]
     983 00000198 2200              MOVS      A3, #0                ; [DPU_3_PIPE] |514|  ; [ORIG 16-BIT INS]
     984 0000019a 2300              MOVS      A4, #0                ; [DPU_3_PIPE] |514|  ; [ORIG 16-BIT INS]
     985                    $C$DW$79        .dwtag  DW_TAG_TI_branch
     986                            .dwattr $C$DW$79, DW_AT_low_pc(0x00)
     987                            .dwattr $C$DW$79, DW_AT_name("xQueueGenericSend")
     988                            .dwattr $C$DW$79, DW_AT_TI_call
     989                    
     990 0000019c F83CF000          BL        xQueueGenericSend     ; [DPU_3_PIPE] |514|  ; [KEEP 32-BIT INS]
TI ARM Assembler PC v15.12.1 Tue Oct 18 10:42:33 2016

Tools Copyright (c) 1996-2015 Texas Instruments Incorporated
queue.asm                                                            PAGE   19

     991                            ; CALL OCCURS {xQueueGenericSend }  ; [] |514| 
     992                            .dwpsn  file "C:/TI_ARM_Tiva_Projects/Source/queue.c",line 515,column 4,is_stmt,isa 1
     993                    ;* --------------------------------------------------------------------------*
     994 000001a0           ||$C$L10||:    
     995                            .dwpsn  file "C:/TI_ARM_Tiva_Projects/Source/queue.c",line 521,column 4,is_stmt,isa 1
     996 000001a0 2001              MOVS      A1, #1                ; [DPU_3_PIPE] |521|  ; [ORIG 16-BIT INS]
     997 000001a2 9001              STR       A1, [SP, #4]          ; [DPU_3_PIPE] |521|  ; [ORIG 16-BIT INS]
     998                            .dwpsn  file "C:/TI_ARM_Tiva_Projects/Source/queue.c",line 522,column 3,is_stmt,isa 1
     999 000001a4 E001              B         ||$C$L12||            ; [DPU_3_PIPE] |522|  ; [ORIG 16-BIT INS]
    1000                            ; BRANCH OCCURS {||$C$L12||}     ; [] |522| 
    1001                    ;* --------------------------------------------------------------------------*
    1002 000001a6           ||$C$L11||:    
    1003                            .dwpsn  file "C:/TI_ARM_Tiva_Projects/Source/queue.c",line 527,column 4,is_stmt,isa 1
    1004 000001a6 2000              MOVS      A1, #0                ; [DPU_3_PIPE] |527|  ; [ORIG 16-BIT INS]
    1005 000001a8 9001              STR       A1, [SP, #4]          ; [DPU_3_PIPE] |527|  ; [ORIG 16-BIT INS]
    1006                    ;* --------------------------------------------------------------------------*
    1007 000001aa           ||$C$L12||:    
    1008                            .dwpsn  file "C:/TI_ARM_Tiva_Projects/Source/queue.c",line 532,column 3,is_stmt,isa 1
    1009 000001aa 9801              LDR       A1, [SP, #4]          ; [DPU_3_PIPE] |532|  ; [ORIG 16-BIT INS]
    1010                            .dwpsn  file "C:/TI_ARM_Tiva_Projects/Source/queue.c",line 533,column 2,is_stmt,isa 1
    1011                    $C$DW$80        .dwtag  DW_TAG_TI_branch
    1012                            .dwattr $C$DW$80, DW_AT_low_pc(0x00)
    1013                            .dwattr $C$DW$80, DW_AT_TI_return
    1014                    
    1015 000001ac BD0E              POP       {A2, A3, A4, PC}      ; [DPU_3_PIPE]  ; [ORIG 16-BIT INS]
    1016                            .dwcfi  cfa_offset, 0
    1017                            ; BRANCH OCCURS                  ; [] 
    1018                            .dwattr $C$DW$73, DW_AT_TI_end_file("C:/TI_ARM_Tiva_Projects/Source/queue.c")
    1019                            .dwattr $C$DW$73, DW_AT_TI_end_line(0x215)
    1020                            .dwattr $C$DW$73, DW_AT_TI_end_column(0x02)
    1021                            .dwendentry
    1022                            .dwendtag $C$DW$73
    1023                    
    1024 000001ae                   .sect   ".text"
    1025                            .clink
    1026                            .thumbfunc xQueueTakeMutexRecursive
    1027 000001ae                   .thumb
    1028                            .global xQueueTakeMutexRecursive
    1029                    
    1030                    $C$DW$81        .dwtag  DW_TAG_subprogram
    1031                            .dwattr $C$DW$81, DW_AT_name("xQueueTakeMutexRecursive")
    1032                            .dwattr $C$DW$81, DW_AT_low_pc(xQueueTakeMutexRecursive)
    1033                            .dwattr $C$DW$81, DW_AT_high_pc(0x00)
    1034                            .dwattr $C$DW$81, DW_AT_TI_symbol_name("xQueueTakeMutexRecursive")
    1035                            .dwattr $C$DW$81, DW_AT_external
    1036                            .dwattr $C$DW$81, DW_AT_type(*$C$DW$T$39)
    1037                            .dwattr $C$DW$81, DW_AT_TI_begin_file("C:/TI_ARM_Tiva_Projects/Source/queue.c")
    1038                            .dwattr $C$DW$81, DW_AT_TI_begin_line(0x21c)
    1039                            .dwattr $C$DW$81, DW_AT_TI_begin_column(0x0d)
    1040                            .dwattr $C$DW$81, DW_AT_decl_file("C:/TI_ARM_Tiva_Projects/Source/queue.c")
    1041                            .dwattr $C$DW$81, DW_AT_decl_line(0x21c)
    1042                            .dwattr $C$DW$81, DW_AT_decl_column(0x0d)
    1043                            .dwattr $C$DW$81, DW_AT_TI_max_frame_size(0x18)
    1044                            .dwpsn  file "C:/TI_ARM_Tiva_Projects/Source/queue.c",line 541,column 2,is_stmt,address xQueue
    1045                    
TI ARM Assembler PC v15.12.1 Tue Oct 18 10:42:33 2016

Tools Copyright (c) 1996-2015 Texas Instruments Incorporated
queue.asm                                                            PAGE   20

    1046                            .dwfde $C$DW$CIE, xQueueTakeMutexRecursive
    1047                    $C$DW$82        .dwtag  DW_TAG_formal_parameter
    1048                            .dwattr $C$DW$82, DW_AT_name("xMutex")
    1049                            .dwattr $C$DW$82, DW_AT_TI_symbol_name("xMutex")
    1050                            .dwattr $C$DW$82, DW_AT_type(*$C$DW$T$34)
    1051                            .dwattr $C$DW$82, DW_AT_location[DW_OP_reg0]
    1052                    
    1053                    $C$DW$83        .dwtag  DW_TAG_formal_parameter
    1054                            .dwattr $C$DW$83, DW_AT_name("xTicksToWait")
    1055                            .dwattr $C$DW$83, DW_AT_TI_symbol_name("xTicksToWait")
    1056                            .dwattr $C$DW$83, DW_AT_type(*$C$DW$T$47)
    1057                            .dwattr $C$DW$83, DW_AT_location[DW_OP_reg1]
    1058                    
    1059                    
    1060                    ;*****************************************************************************
    1061                    ;* FUNCTION NAME: xQueueTakeMutexRecursive                                   *
    1062                    ;*                                                                           *
    1063                    ;*   Regs Modified     : A1,A2,A3,A4,V9,SP,LR,SR,D0,D0_hi,D1,D1_hi,D2,D2_hi, *
    1064                    ;*                           D3,D3_hi,D4,D4_hi,D5,D5_hi,D6,D6_hi,D7,D7_hi,   *
    1065                    ;*                           FPEXC,FPSCR                                     *
    1066                    ;*   Regs Used         : A1,A2,A3,A4,V9,SP,LR,SR,D0,D0_hi,D1,D1_hi,D2,D2_hi, *
    1067                    ;*                           D3,D3_hi,D4,D4_hi,D5,D5_hi,D6,D6_hi,D7,D7_hi,   *
    1068                    ;*                           FPEXC,FPSCR                                     *
    1069                    ;*   Local Frame Size  : 0 Args + 16 Auto + 4 Save = 20 byte                 *
    1070                    ;*****************************************************************************
    1071 000001ae           xQueueTakeMutexRecursive:
    1072                    ;* --------------------------------------------------------------------------*
    1073                            .dwcfi  cfa_offset, 0
    1074 000001ae B500              PUSH      {LR}                  ; [DPU_3_PIPE]  ; [ORIG 16-BIT INS]
    1075                            .dwcfi  cfa_offset, 4
    1076                            .dwcfi  save_reg_to_mem, 14, -4
    1077 000001b0 0D14F1AD          SUB       SP, SP, #20           ; [DPU_3_PIPE]  ; [KEEP 32-BIT INS]
    1078                            .dwcfi  cfa_offset, 24
    1079                    $C$DW$84        .dwtag  DW_TAG_variable
    1080                            .dwattr $C$DW$84, DW_AT_name("xMutex")
    1081                            .dwattr $C$DW$84, DW_AT_TI_symbol_name("xMutex")
    1082                            .dwattr $C$DW$84, DW_AT_type(*$C$DW$T$34)
    1083                            .dwattr $C$DW$84, DW_AT_location[DW_OP_breg13 0]
    1084                    
    1085                    $C$DW$85        .dwtag  DW_TAG_variable
    1086                            .dwattr $C$DW$85, DW_AT_name("xTicksToWait")
    1087                            .dwattr $C$DW$85, DW_AT_TI_symbol_name("xTicksToWait")
    1088                            .dwattr $C$DW$85, DW_AT_type(*$C$DW$T$47)
    1089                            .dwattr $C$DW$85, DW_AT_location[DW_OP_breg13 4]
    1090                    
    1091                    $C$DW$86        .dwtag  DW_TAG_variable
    1092                            .dwattr $C$DW$86, DW_AT_name("xReturn")
    1093                            .dwattr $C$DW$86, DW_AT_TI_symbol_name("xReturn")
    1094                            .dwattr $C$DW$86, DW_AT_type(*$C$DW$T$39)
    1095                            .dwattr $C$DW$86, DW_AT_location[DW_OP_breg13 8]
    1096                    
    1097                    $C$DW$87        .dwtag  DW_TAG_variable
    1098                            .dwattr $C$DW$87, DW_AT_name("pxMutex")
    1099                            .dwattr $C$DW$87, DW_AT_TI_symbol_name("pxMutex")
    1100                            .dwattr $C$DW$87, DW_AT_type(*$C$DW$T$84)
TI ARM Assembler PC v15.12.1 Tue Oct 18 10:42:33 2016

Tools Copyright (c) 1996-2015 Texas Instruments Incorporated
queue.asm                                                            PAGE   21

    1101                            .dwattr $C$DW$87, DW_AT_location[DW_OP_breg13 12]
    1102                    
    1103 000001b4 9101              STR       A2, [SP, #4]          ; [DPU_3_PIPE] |541|  ; [ORIG 16-BIT INS]
    1104 000001b6 9000              STR       A1, [SP, #0]          ; [DPU_3_PIPE] |541|  ; [ORIG 16-BIT INS]
    1105                            .dwpsn  file "C:/TI_ARM_Tiva_Projects/Source/queue.c",line 543,column 26,is_stmt,isa 1
    1106 000001b8 9800              LDR       A1, [SP, #0]          ; [DPU_3_PIPE] |543|  ; [ORIG 16-BIT INS]
    1107 000001ba 9003              STR       A1, [SP, #12]         ; [DPU_3_PIPE] |543|  ; [ORIG 16-BIT INS]
    1108                            .dwpsn  file "C:/TI_ARM_Tiva_Projects/Source/queue.c",line 552,column 3,is_stmt,isa 1
    1109                    $C$DW$88        .dwtag  DW_TAG_TI_branch
    1110                            .dwattr $C$DW$88, DW_AT_low_pc(0x00)
    1111                            .dwattr $C$DW$88, DW_AT_name("xTaskGetCurrentTaskHandle")
    1112                            .dwattr $C$DW$88, DW_AT_TI_call
    1113                    
    1114 000001bc FFFEF7FF!         BL        xTaskGetCurrentTaskHandle ; [DPU_3_PIPE] |552|  ; [KEEP 32-BIT INS]
    1115                            ; CALL OCCURS {xTaskGetCurrentTaskHandle }  ; [] |552| 
    1116 000001c0 9903              LDR       A2, [SP, #12]         ; [DPU_3_PIPE] |552|  ; [ORIG 16-BIT INS]
    1117 000001c2 6849              LDR       A2, [A2, #4]          ; [DPU_3_PIPE] |552|  ; [ORIG 16-BIT INS]
    1118 000001c4 4288              CMP       A1, A2                ; [DPU_3_PIPE] |552|  ; [ORIG 16-BIT INS]
    1119 000001c6 D106              BNE       ||$C$L13||            ; [DPU_3_PIPE] |552|  ; [ORIG 16-BIT INS]
    1120                            ; BRANCHCC OCCURS {||$C$L13||}   ; [] |552| 
    1121                    ;* --------------------------------------------------------------------------*
    1122                            .dwpsn  file "C:/TI_ARM_Tiva_Projects/Source/queue.c",line 554,column 4,is_stmt,isa 1
    1123 000001c8 9903              LDR       A2, [SP, #12]         ; [DPU_3_PIPE] |554|  ; [ORIG 16-BIT INS]
    1124 000001ca 68C8              LDR       A1, [A2, #12]         ; [DPU_3_PIPE] |554|  ; [ORIG 16-BIT INS]
    1125 000001cc 1C40              ADDS      A1, A1, #1            ; [DPU_3_PIPE] |554|  ; [ORIG 16-BIT INS]
    1126 000001ce 60C8              STR       A1, [A2, #12]         ; [DPU_3_PIPE] |554|  ; [ORIG 16-BIT INS]
    1127                            .dwpsn  file "C:/TI_ARM_Tiva_Projects/Source/queue.c",line 555,column 4,is_stmt,isa 1
    1128 000001d0 2001              MOVS      A1, #1                ; [DPU_3_PIPE] |555|  ; [ORIG 16-BIT INS]
    1129 000001d2 9002              STR       A1, [SP, #8]          ; [DPU_3_PIPE] |555|  ; [ORIG 16-BIT INS]
    1130                            .dwpsn  file "C:/TI_ARM_Tiva_Projects/Source/queue.c",line 556,column 3,is_stmt,isa 1
    1131 000001d4 E00D              B         ||$C$L14||            ; [DPU_3_PIPE] |556|  ; [ORIG 16-BIT INS]
    1132                            ; BRANCH OCCURS {||$C$L14||}     ; [] |556| 
    1133                    ;* --------------------------------------------------------------------------*
    1134 000001d6           ||$C$L13||:    
    1135                            .dwpsn  file "C:/TI_ARM_Tiva_Projects/Source/queue.c",line 559,column 4,is_stmt,isa 1
    1136 000001d6 9803              LDR       A1, [SP, #12]         ; [DPU_3_PIPE] |559|  ; [ORIG 16-BIT INS]
    1137 000001d8 9A01              LDR       A3, [SP, #4]          ; [DPU_3_PIPE] |559|  ; [ORIG 16-BIT INS]
    1138 000001da 2100              MOVS      A2, #0                ; [DPU_3_PIPE] |559|  ; [ORIG 16-BIT INS]
    1139 000001dc 2300              MOVS      A4, #0                ; [DPU_3_PIPE] |559|  ; [ORIG 16-BIT INS]
    1140                    $C$DW$89        .dwtag  DW_TAG_TI_branch
    1141                            .dwattr $C$DW$89, DW_AT_low_pc(0x00)
    1142                            .dwattr $C$DW$89, DW_AT_name("xQueueGenericReceive")
    1143                            .dwattr $C$DW$89, DW_AT_TI_call
    1144                    
    1145 000001de F923F000          BL        xQueueGenericReceive  ; [DPU_3_PIPE] |559|  ; [KEEP 32-BIT INS]
    1146                            ; CALL OCCURS {xQueueGenericReceive }  ; [] |559| 
    1147 000001e2 9002              STR       A1, [SP, #8]          ; [DPU_3_PIPE] |559|  ; [ORIG 16-BIT INS]
    1148                            .dwpsn  file "C:/TI_ARM_Tiva_Projects/Source/queue.c",line 564,column 4,is_stmt,isa 1
    1149 000001e4 9802              LDR       A1, [SP, #8]          ; [DPU_3_PIPE] |564|  ; [ORIG 16-BIT INS]
    1150 000001e6 2801              CMP       A1, #1                ; [DPU_3_PIPE] |564|  ; [ORIG 16-BIT INS]
    1151 000001e8 D103              BNE       ||$C$L14||            ; [DPU_3_PIPE] |564|  ; [ORIG 16-BIT INS]
    1152                            ; BRANCHCC OCCURS {||$C$L14||}   ; [] |564| 
    1153                    ;* --------------------------------------------------------------------------*
    1154                            .dwpsn  file "C:/TI_ARM_Tiva_Projects/Source/queue.c",line 566,column 5,is_stmt,isa 1
    1155 000001ea 9903              LDR       A2, [SP, #12]         ; [DPU_3_PIPE] |566|  ; [ORIG 16-BIT INS]
TI ARM Assembler PC v15.12.1 Tue Oct 18 10:42:33 2016

Tools Copyright (c) 1996-2015 Texas Instruments Incorporated
queue.asm                                                            PAGE   22

    1156 000001ec 68C8              LDR       A1, [A2, #12]         ; [DPU_3_PIPE] |566|  ; [ORIG 16-BIT INS]
    1157 000001ee 1C40              ADDS      A1, A1, #1            ; [DPU_3_PIPE] |566|  ; [ORIG 16-BIT INS]
    1158 000001f0 60C8              STR       A1, [A2, #12]         ; [DPU_3_PIPE] |566|  ; [ORIG 16-BIT INS]
    1159                            .dwpsn  file "C:/TI_ARM_Tiva_Projects/Source/queue.c",line 567,column 4,is_stmt,isa 1
    1160                    ;* --------------------------------------------------------------------------*
    1161 000001f2           ||$C$L14||:    
    1162                            .dwpsn  file "C:/TI_ARM_Tiva_Projects/Source/queue.c",line 574,column 3,is_stmt,isa 1
    1163 000001f2 9802              LDR       A1, [SP, #8]          ; [DPU_3_PIPE] |574|  ; [ORIG 16-BIT INS]
    1164                            .dwpsn  file "C:/TI_ARM_Tiva_Projects/Source/queue.c",line 575,column 2,is_stmt,isa 1
    1165 000001f4 B005              ADD       SP, SP, #20           ; [DPU_3_PIPE]  ; [ORIG 16-BIT INS]
    1166                            .dwcfi  cfa_offset, 4
    1167                    $C$DW$90        .dwtag  DW_TAG_TI_branch
    1168                            .dwattr $C$DW$90, DW_AT_low_pc(0x00)
    1169                            .dwattr $C$DW$90, DW_AT_TI_return
    1170                    
    1171 000001f6 BD00              POP       {PC}                  ; [DPU_3_PIPE]  ; [ORIG 16-BIT INS]
    1172                            .dwcfi  cfa_offset, 0
    1173                            ; BRANCH OCCURS                  ; [] 
    1174                            .dwattr $C$DW$81, DW_AT_TI_end_file("C:/TI_ARM_Tiva_Projects/Source/queue.c")
    1175                            .dwattr $C$DW$81, DW_AT_TI_end_line(0x23f)
    1176                            .dwattr $C$DW$81, DW_AT_TI_end_column(0x02)
    1177                            .dwendentry
    1178                            .dwendtag $C$DW$81
    1179                    
    1180 000001f8                   .sect   ".text"
    1181                            .clink
    1182                            .thumbfunc xQueueCreateCountingSemaphore
    1183 000001f8                   .thumb
    1184                            .global xQueueCreateCountingSemaphore
    1185                    
    1186                    $C$DW$91        .dwtag  DW_TAG_subprogram
    1187                            .dwattr $C$DW$91, DW_AT_name("xQueueCreateCountingSemaphore")
    1188                            .dwattr $C$DW$91, DW_AT_low_pc(xQueueCreateCountingSemaphore)
    1189                            .dwattr $C$DW$91, DW_AT_high_pc(0x00)
    1190                            .dwattr $C$DW$91, DW_AT_TI_symbol_name("xQueueCreateCountingSemaphore")
    1191                            .dwattr $C$DW$91, DW_AT_external
    1192                            .dwattr $C$DW$91, DW_AT_type(*$C$DW$T$34)
    1193                            .dwattr $C$DW$91, DW_AT_TI_begin_file("C:/TI_ARM_Tiva_Projects/Source/queue.c")
    1194                            .dwattr $C$DW$91, DW_AT_TI_begin_line(0x246)
    1195                            .dwattr $C$DW$91, DW_AT_TI_begin_column(0x10)
    1196                            .dwattr $C$DW$91, DW_AT_decl_file("C:/TI_ARM_Tiva_Projects/Source/queue.c")
    1197                            .dwattr $C$DW$91, DW_AT_decl_line(0x246)
    1198                            .dwattr $C$DW$91, DW_AT_decl_column(0x10)
    1199                            .dwattr $C$DW$91, DW_AT_TI_max_frame_size(0x10)
    1200                            .dwpsn  file "C:/TI_ARM_Tiva_Projects/Source/queue.c",line 583,column 2,is_stmt,address xQueue
    1201                    
    1202                            .dwfde $C$DW$CIE, xQueueCreateCountingSemaphore
    1203                    $C$DW$92        .dwtag  DW_TAG_formal_parameter
    1204                            .dwattr $C$DW$92, DW_AT_name("uxMaxCount")
    1205                            .dwattr $C$DW$92, DW_AT_TI_symbol_name("uxMaxCount")
    1206                            .dwattr $C$DW$92, DW_AT_type(*$C$DW$T$86)
    1207                            .dwattr $C$DW$92, DW_AT_location[DW_OP_reg0]
    1208                    
    1209                    $C$DW$93        .dwtag  DW_TAG_formal_parameter
    1210                            .dwattr $C$DW$93, DW_AT_name("uxInitialCount")
TI ARM Assembler PC v15.12.1 Tue Oct 18 10:42:33 2016

Tools Copyright (c) 1996-2015 Texas Instruments Incorporated
queue.asm                                                            PAGE   23

    1211                            .dwattr $C$DW$93, DW_AT_TI_symbol_name("uxInitialCount")
    1212                            .dwattr $C$DW$93, DW_AT_type(*$C$DW$T$86)
    1213                            .dwattr $C$DW$93, DW_AT_location[DW_OP_reg1]
    1214                    
    1215                    
    1216                    ;*****************************************************************************
    1217                    ;* FUNCTION NAME: xQueueCreateCountingSemaphore                              *
    1218                    ;*                                                                           *
    1219                    ;*   Regs Modified     : A1,A2,A3,A4,V9,SP,LR,SR,D0,D0_hi,D1,D1_hi,D2,D2_hi, *
    1220                    ;*                           D3,D3_hi,D4,D4_hi,D5,D5_hi,D6,D6_hi,D7,D7_hi,   *
    1221                    ;*                           FPEXC,FPSCR                                     *
    1222                    ;*   Regs Used         : A1,A2,A3,A4,V9,SP,LR,SR,D0,D0_hi,D1,D1_hi,D2,D2_hi, *
    1223                    ;*                           D3,D3_hi,D4,D4_hi,D5,D5_hi,D6,D6_hi,D7,D7_hi,   *
    1224                    ;*                           FPEXC,FPSCR                                     *
    1225                    ;*   Local Frame Size  : 0 Args + 12 Auto + 4 Save = 16 byte                 *
    1226                    ;*****************************************************************************
    1227 000001f8           xQueueCreateCountingSemaphore:
    1228                    ;* --------------------------------------------------------------------------*
    1229                            .dwcfi  cfa_offset, 0
    1230 000001f8 B50E              PUSH      {A2, A3, A4, LR}      ; [DPU_3_PIPE]  ; [ORIG 16-BIT INS]
    1231                            .dwcfi  cfa_offset, 16
    1232                            .dwcfi  save_reg_to_mem, 14, -4
    1233                            .dwcfi  save_reg_to_mem, 3, -8
    1234                            .dwcfi  save_reg_to_mem, 2, -12
    1235                            .dwcfi  save_reg_to_mem, 1, -16
    1236                    $C$DW$94        .dwtag  DW_TAG_variable
    1237                            .dwattr $C$DW$94, DW_AT_name("uxMaxCount")
    1238                            .dwattr $C$DW$94, DW_AT_TI_symbol_name("uxMaxCount")
    1239                            .dwattr $C$DW$94, DW_AT_type(*$C$DW$T$86)
    1240                            .dwattr $C$DW$94, DW_AT_location[DW_OP_breg13 0]
    1241                    
    1242                    $C$DW$95        .dwtag  DW_TAG_variable
    1243                            .dwattr $C$DW$95, DW_AT_name("uxInitialCount")
    1244                            .dwattr $C$DW$95, DW_AT_TI_symbol_name("uxInitialCount")
    1245                            .dwattr $C$DW$95, DW_AT_type(*$C$DW$T$86)
    1246                            .dwattr $C$DW$95, DW_AT_location[DW_OP_breg13 4]
    1247                    
    1248                    $C$DW$96        .dwtag  DW_TAG_variable
    1249                            .dwattr $C$DW$96, DW_AT_name("xHandle")
    1250                            .dwattr $C$DW$96, DW_AT_TI_symbol_name("xHandle")
    1251                            .dwattr $C$DW$96, DW_AT_type(*$C$DW$T$34)
    1252                            .dwattr $C$DW$96, DW_AT_location[DW_OP_breg13 8]
    1253                    
    1254 000001fa 9101              STR       A2, [SP, #4]          ; [DPU_3_PIPE] |583|  ; [ORIG 16-BIT INS]
    1255 000001fc 9000              STR       A1, [SP, #0]          ; [DPU_3_PIPE] |583|  ; [ORIG 16-BIT INS]
    1256                            .dwpsn  file "C:/TI_ARM_Tiva_Projects/Source/queue.c",line 589,column 3,is_stmt,isa 1
    1257 000001fe 9800              LDR       A1, [SP, #0]          ; [DPU_3_PIPE] |589|  ; [ORIG 16-BIT INS]
    1258 00000200 2202              MOVS      A3, #2                ; [DPU_3_PIPE] |589|  ; [ORIG 16-BIT INS]
    1259 00000202 2100              MOVS      A2, #0                ; [DPU_3_PIPE] |589|  ; [ORIG 16-BIT INS]
    1260                    $C$DW$97        .dwtag  DW_TAG_TI_branch
    1261                            .dwattr $C$DW$97, DW_AT_low_pc(0x00)
    1262                            .dwattr $C$DW$97, DW_AT_name("xQueueGenericCreate")
    1263                            .dwattr $C$DW$97, DW_AT_TI_call
    1264                    
    1265 00000204 FF42F7FF          BL        xQueueGenericCreate   ; [DPU_3_PIPE] |589|  ; [KEEP 32-BIT INS]
TI ARM Assembler PC v15.12.1 Tue Oct 18 10:42:33 2016

Tools Copyright (c) 1996-2015 Texas Instruments Incorporated
queue.asm                                                            PAGE   24

    1266                            ; CALL OCCURS {xQueueGenericCreate }  ; [] |589| 
    1267 00000208 9002              STR       A1, [SP, #8]          ; [DPU_3_PIPE] |589|  ; [ORIG 16-BIT INS]
    1268                            .dwpsn  file "C:/TI_ARM_Tiva_Projects/Source/queue.c",line 591,column 3,is_stmt,isa 1
    1269 0000020a 9802              LDR       A1, [SP, #8]          ; [DPU_3_PIPE] |591|  ; [ORIG 16-BIT INS]
    1270 0000020c B110              CBZ       A1, ||$C$L15||        ; []  ; [ORIG 16-BIT INS]
    1271                            ; BRANCHCC OCCURS {||$C$L15||}   ; [] |591| 
    1272                    ;* --------------------------------------------------------------------------*
    1273                            .dwpsn  file "C:/TI_ARM_Tiva_Projects/Source/queue.c",line 593,column 4,is_stmt,isa 1
    1274 0000020e 9801              LDR       A1, [SP, #4]          ; [DPU_3_PIPE] |593|  ; [ORIG 16-BIT INS]
    1275 00000210 9902              LDR       A2, [SP, #8]          ; [DPU_3_PIPE] |593|  ; [ORIG 16-BIT INS]
    1276 00000212 6388              STR       A1, [A2, #56]         ; [DPU_3_PIPE] |593|  ; [ORIG 16-BIT INS]
    1277                            .dwpsn  file "C:/TI_ARM_Tiva_Projects/Source/queue.c",line 596,column 3,is_stmt,isa 1
    1278                    ;* --------------------------------------------------------------------------*
    1279 00000214           ||$C$L15||:    
    1280                            .dwpsn  file "C:/TI_ARM_Tiva_Projects/Source/queue.c",line 603,column 3,is_stmt,isa 1
    1281 00000214 9802              LDR       A1, [SP, #8]          ; [DPU_3_PIPE] |603|  ; [ORIG 16-BIT INS]
    1282                            .dwpsn  file "C:/TI_ARM_Tiva_Projects/Source/queue.c",line 604,column 2,is_stmt,isa 1
    1283                    $C$DW$98        .dwtag  DW_TAG_TI_branch
    1284                            .dwattr $C$DW$98, DW_AT_low_pc(0x00)
    1285                            .dwattr $C$DW$98, DW_AT_TI_return
    1286                    
    1287 00000216 BD0E              POP       {A2, A3, A4, PC}      ; [DPU_3_PIPE]  ; [ORIG 16-BIT INS]
    1288                            .dwcfi  cfa_offset, 0
    1289                            ; BRANCH OCCURS                  ; [] 
    1290                            .dwattr $C$DW$91, DW_AT_TI_end_file("C:/TI_ARM_Tiva_Projects/Source/queue.c")
    1291                            .dwattr $C$DW$91, DW_AT_TI_end_line(0x25c)
    1292                            .dwattr $C$DW$91, DW_AT_TI_end_column(0x02)
    1293                            .dwendentry
    1294                            .dwendtag $C$DW$91
    1295                    
    1296 00000218                   .sect   ".text"
    1297                            .clink
    1298                            .thumbfunc xQueueGenericSend
    1299 00000218                   .thumb
    1300                            .global xQueueGenericSend
    1301                    
    1302                    $C$DW$99        .dwtag  DW_TAG_subprogram
    1303                            .dwattr $C$DW$99, DW_AT_name("xQueueGenericSend")
    1304                            .dwattr $C$DW$99, DW_AT_low_pc(xQueueGenericSend)
    1305                            .dwattr $C$DW$99, DW_AT_high_pc(0x00)
    1306                            .dwattr $C$DW$99, DW_AT_TI_symbol_name("xQueueGenericSend")
    1307                            .dwattr $C$DW$99, DW_AT_external
    1308                            .dwattr $C$DW$99, DW_AT_type(*$C$DW$T$39)
    1309                            .dwattr $C$DW$99, DW_AT_TI_begin_file("C:/TI_ARM_Tiva_Projects/Source/queue.c")
    1310                            .dwattr $C$DW$99, DW_AT_TI_begin_line(0x261)
    1311                            .dwattr $C$DW$99, DW_AT_TI_begin_column(0x0c)
    1312                            .dwattr $C$DW$99, DW_AT_decl_file("C:/TI_ARM_Tiva_Projects/Source/queue.c")
    1313                            .dwattr $C$DW$99, DW_AT_decl_line(0x261)
    1314                            .dwattr $C$DW$99, DW_AT_decl_column(0x0c)
    1315                            .dwattr $C$DW$99, DW_AT_TI_max_frame_size(0x28)
    1316                            .dwpsn  file "C:/TI_ARM_Tiva_Projects/Source/queue.c",line 610,column 1,is_stmt,address xQueue
    1317                    
    1318                            .dwfde $C$DW$CIE, xQueueGenericSend
    1319                    $C$DW$100       .dwtag  DW_TAG_formal_parameter
    1320                            .dwattr $C$DW$100, DW_AT_name("xQueue")
TI ARM Assembler PC v15.12.1 Tue Oct 18 10:42:33 2016

Tools Copyright (c) 1996-2015 Texas Instruments Incorporated
queue.asm                                                            PAGE   25

    1321                            .dwattr $C$DW$100, DW_AT_TI_symbol_name("xQueue")
    1322                            .dwattr $C$DW$100, DW_AT_type(*$C$DW$T$34)
    1323                            .dwattr $C$DW$100, DW_AT_location[DW_OP_reg0]
    1324                    
    1325                    $C$DW$101       .dwtag  DW_TAG_formal_parameter
    1326                            .dwattr $C$DW$101, DW_AT_name("pvItemToQueue")
    1327                            .dwattr $C$DW$101, DW_AT_TI_symbol_name("pvItemToQueue")
    1328                            .dwattr $C$DW$101, DW_AT_type(*$C$DW$T$105)
    1329                            .dwattr $C$DW$101, DW_AT_location[DW_OP_reg1]
    1330                    
    1331                    $C$DW$102       .dwtag  DW_TAG_formal_parameter
    1332                            .dwattr $C$DW$102, DW_AT_name("xTicksToWait")
    1333                            .dwattr $C$DW$102, DW_AT_TI_symbol_name("xTicksToWait")
    1334                            .dwattr $C$DW$102, DW_AT_type(*$C$DW$T$47)
    1335                            .dwattr $C$DW$102, DW_AT_location[DW_OP_reg2]
    1336                    
    1337                    $C$DW$103       .dwtag  DW_TAG_formal_parameter
    1338                            .dwattr $C$DW$103, DW_AT_name("xCopyPosition")
    1339                            .dwattr $C$DW$103, DW_AT_TI_symbol_name("xCopyPosition")
    1340                            .dwattr $C$DW$103, DW_AT_type(*$C$DW$T$116)
    1341                            .dwattr $C$DW$103, DW_AT_location[DW_OP_reg3]
    1342                    
    1343                    
    1344                    ;*****************************************************************************
    1345                    ;* FUNCTION NAME: xQueueGenericSend                                          *
    1346                    ;*                                                                           *
    1347                    ;*   Regs Modified     : A1,A2,A3,A4,V9,SP,LR,SR,D0,D0_hi,D1,D1_hi,D2,D2_hi, *
    1348                    ;*                           D3,D3_hi,D4,D4_hi,D5,D5_hi,D6,D6_hi,D7,D7_hi,   *
    1349                    ;*                           FPEXC,FPSCR                                     *
    1350                    ;*   Regs Used         : A1,A2,A3,A4,V9,SP,LR,SR,D0,D0_hi,D1,D1_hi,D2,D2_hi, *
    1351                    ;*                           D3,D3_hi,D4,D4_hi,D5,D5_hi,D6,D6_hi,D7,D7_hi,   *
    1352                    ;*                           FPEXC,FPSCR                                     *
    1353                    ;*   Local Frame Size  : 0 Args + 36 Auto + 4 Save = 40 byte                 *
    1354                    ;*****************************************************************************
    1355 00000218           xQueueGenericSend:
    1356                    ;* --------------------------------------------------------------------------*
    1357                            .dwcfi  cfa_offset, 0
    1358 00000218 B500              PUSH      {LR}                  ; [DPU_3_PIPE]  ; [ORIG 16-BIT INS]
    1359                            .dwcfi  cfa_offset, 4
    1360                            .dwcfi  save_reg_to_mem, 14, -4
    1361 0000021a 0D24F1AD          SUB       SP, SP, #36           ; [DPU_3_PIPE]  ; [KEEP 32-BIT INS]
    1362                            .dwcfi  cfa_offset, 40
    1363                    $C$DW$104       .dwtag  DW_TAG_variable
    1364                            .dwattr $C$DW$104, DW_AT_name("xQueue")
    1365                            .dwattr $C$DW$104, DW_AT_TI_symbol_name("xQueue")
    1366                            .dwattr $C$DW$104, DW_AT_type(*$C$DW$T$34)
    1367                            .dwattr $C$DW$104, DW_AT_location[DW_OP_breg13 0]
    1368                    
    1369                    $C$DW$105       .dwtag  DW_TAG_variable
    1370                            .dwattr $C$DW$105, DW_AT_name("pvItemToQueue")
    1371                            .dwattr $C$DW$105, DW_AT_TI_symbol_name("pvItemToQueue")
    1372                            .dwattr $C$DW$105, DW_AT_type(*$C$DW$T$105)
    1373                            .dwattr $C$DW$105, DW_AT_location[DW_OP_breg13 4]
    1374                    
    1375                    $C$DW$106       .dwtag  DW_TAG_variable
TI ARM Assembler PC v15.12.1 Tue Oct 18 10:42:33 2016

Tools Copyright (c) 1996-2015 Texas Instruments Incorporated
queue.asm                                                            PAGE   26

    1376                            .dwattr $C$DW$106, DW_AT_name("xTicksToWait")
    1377                            .dwattr $C$DW$106, DW_AT_TI_symbol_name("xTicksToWait")
    1378                            .dwattr $C$DW$106, DW_AT_type(*$C$DW$T$47)
    1379                            .dwattr $C$DW$106, DW_AT_location[DW_OP_breg13 8]
    1380                    
    1381                    $C$DW$107       .dwtag  DW_TAG_variable
    1382                            .dwattr $C$DW$107, DW_AT_name("xCopyPosition")
    1383                            .dwattr $C$DW$107, DW_AT_TI_symbol_name("xCopyPosition")
    1384                            .dwattr $C$DW$107, DW_AT_type(*$C$DW$T$116)
    1385                            .dwattr $C$DW$107, DW_AT_location[DW_OP_breg13 12]
    1386                    
    1387                    $C$DW$108       .dwtag  DW_TAG_variable
    1388                            .dwattr $C$DW$108, DW_AT_name("xEntryTimeSet")
    1389                            .dwattr $C$DW$108, DW_AT_TI_symbol_name("xEntryTimeSet")
    1390                            .dwattr $C$DW$108, DW_AT_type(*$C$DW$T$39)
    1391                            .dwattr $C$DW$108, DW_AT_location[DW_OP_breg13 16]
    1392                    
    1393                    $C$DW$109       .dwtag  DW_TAG_variable
    1394                            .dwattr $C$DW$109, DW_AT_name("xYieldRequired")
    1395                            .dwattr $C$DW$109, DW_AT_TI_symbol_name("xYieldRequired")
    1396                            .dwattr $C$DW$109, DW_AT_type(*$C$DW$T$39)
    1397                            .dwattr $C$DW$109, DW_AT_location[DW_OP_breg13 20]
    1398                    
    1399                    $C$DW$110       .dwtag  DW_TAG_variable
    1400                            .dwattr $C$DW$110, DW_AT_name("xTimeOut")
    1401                            .dwattr $C$DW$110, DW_AT_TI_symbol_name("xTimeOut")
    1402                            .dwattr $C$DW$110, DW_AT_type(*$C$DW$T$119)
    1403                            .dwattr $C$DW$110, DW_AT_location[DW_OP_breg13 24]
    1404                    
    1405                    $C$DW$111       .dwtag  DW_TAG_variable
    1406                            .dwattr $C$DW$111, DW_AT_name("pxQueue")
    1407                            .dwattr $C$DW$111, DW_AT_TI_symbol_name("pxQueue")
    1408                            .dwattr $C$DW$111, DW_AT_type(*$C$DW$T$84)
    1409                            .dwattr $C$DW$111, DW_AT_location[DW_OP_breg13 32]
    1410                    
    1411 0000021e 9303              STR       A4, [SP, #12]         ; [DPU_3_PIPE] |610|  ; [ORIG 16-BIT INS]
    1412 00000220 9202              STR       A3, [SP, #8]          ; [DPU_3_PIPE] |610|  ; [ORIG 16-BIT INS]
    1413 00000222 9101              STR       A2, [SP, #4]          ; [DPU_3_PIPE] |610|  ; [ORIG 16-BIT INS]
    1414 00000224 9000              STR       A1, [SP, #0]          ; [DPU_3_PIPE] |610|  ; [ORIG 16-BIT INS]
    1415                            .dwpsn  file "C:/TI_ARM_Tiva_Projects/Source/queue.c",line 611,column 26,is_stmt,isa 1
    1416 00000226 2000              MOVS      A1, #0                ; [DPU_3_PIPE] |611|  ; [ORIG 16-BIT INS]
    1417 00000228 9004              STR       A1, [SP, #16]         ; [DPU_3_PIPE] |611|  ; [ORIG 16-BIT INS]
    1418                            .dwpsn  file "C:/TI_ARM_Tiva_Projects/Source/queue.c",line 613,column 25,is_stmt,isa 1
    1419 0000022a 9800              LDR       A1, [SP, #0]          ; [DPU_3_PIPE] |613|  ; [ORIG 16-BIT INS]
    1420 0000022c 9008              STR       A1, [SP, #32]         ; [DPU_3_PIPE] |613|  ; [ORIG 16-BIT INS]
    1421                    ;* --------------------------------------------------------------------------*
    1422                    ;*   BEGIN LOOP ||$C$L16||
    1423                    ;*
    1424                    ;*   Loop source line                : 628
    1425                    ;*   Loop closing brace source line  : 805
    1426                    ;*   Known Minimum Trip Count        : 1
    1427                    ;*   Known Maximum Trip Count        : 4294967295
    1428                    ;*   Known Max Trip Count Factor     : 1
    1429                    ;* --------------------------------------------------------------------------*
    1430 0000022e           ||$C$L16||:    
TI ARM Assembler PC v15.12.1 Tue Oct 18 10:42:33 2016

Tools Copyright (c) 1996-2015 Texas Instruments Incorporated
queue.asm                                                            PAGE   27

    1431                            .dwpsn  file "C:/TI_ARM_Tiva_Projects/Source/queue.c",line 630,column 3,is_stmt,isa 1
    1432                    $C$DW$112       .dwtag  DW_TAG_TI_branch
    1433                            .dwattr $C$DW$112, DW_AT_low_pc(0x00)
    1434                            .dwattr $C$DW$112, DW_AT_name("vPortEnterCritical")
    1435                            .dwattr $C$DW$112, DW_AT_TI_call
    1436                    
    1437 0000022e FFFEF7FF!         BL        vPortEnterCritical    ; [DPU_3_PIPE] |630|  ; [KEEP 32-BIT INS]
    1438                            ; CALL OCCURS {vPortEnterCritical }  ; [] |630| 
    1439                            .dwpsn  file "C:/TI_ARM_Tiva_Projects/Source/queue.c",line 636,column 4,is_stmt,isa 1
    1440 00000232 9808              LDR       A1, [SP, #32]         ; [DPU_3_PIPE] |636|  ; [ORIG 16-BIT INS]
    1441 00000234 9908              LDR       A2, [SP, #32]         ; [DPU_3_PIPE] |636|  ; [ORIG 16-BIT INS]
    1442 00000236 6BC0              LDR       A1, [A1, #60]         ; [DPU_3_PIPE] |636|  ; [ORIG 16-BIT INS]
    1443 00000238 6B89              LDR       A2, [A2, #56]         ; [DPU_3_PIPE] |636|  ; [ORIG 16-BIT INS]
    1444 0000023a 4288              CMP       A1, A2                ; [DPU_3_PIPE] |636|  ; [ORIG 16-BIT INS]
    1445 0000023c D802              BHI       ||$C$L17||            ; [DPU_3_PIPE] |636|  ; [ORIG 16-BIT INS]
    1446                            ; BRANCHCC OCCURS {||$C$L17||}   ; [] |636| 
    1447                    ;* --------------------------------------------------------------------------*
    1448 0000023e 9803              LDR       A1, [SP, #12]         ; [DPU_3_PIPE] |636|  ; [ORIG 16-BIT INS]
    1449 00000240 2802              CMP       A1, #2                ; [DPU_3_PIPE] |636|  ; [ORIG 16-BIT INS]
    1450 00000242 D119              BNE       ||$C$L21||            ; [DPU_3_PIPE] |636|  ; [ORIG 16-BIT INS]
    1451                            ; BRANCHCC OCCURS {||$C$L21||}   ; [] |636| 
    1452                    ;* --------------------------------------------------------------------------*
    1453 00000244           ||$C$L17||:    
    1454                            .dwpsn  file "C:/TI_ARM_Tiva_Projects/Source/queue.c",line 639,column 5,is_stmt,isa 1
    1455 00000244 9808              LDR       A1, [SP, #32]         ; [DPU_3_PIPE] |639|  ; [ORIG 16-BIT INS]
    1456 00000246 9901              LDR       A2, [SP, #4]          ; [DPU_3_PIPE] |639|  ; [ORIG 16-BIT INS]
    1457 00000248 9A03              LDR       A3, [SP, #12]         ; [DPU_3_PIPE] |639|  ; [ORIG 16-BIT INS]
    1458                    $C$DW$113       .dwtag  DW_TAG_TI_branch
    1459                            .dwattr $C$DW$113, DW_AT_low_pc(0x00)
    1460                            .dwattr $C$DW$113, DW_AT_name("prvCopyDataToQueue")
    1461                            .dwattr $C$DW$113, DW_AT_TI_call
    1462                    
    1463 0000024a FA44F000          BL        prvCopyDataToQueue    ; [DPU_3_PIPE] |639|  ; [KEEP 32-BIT INS]
    1464                            ; CALL OCCURS {prvCopyDataToQueue }  ; [] |639| 
    1465 0000024e 9005              STR       A1, [SP, #20]         ; [DPU_3_PIPE] |639|  ; [ORIG 16-BIT INS]
    1466                            .dwpsn  file "C:/TI_ARM_Tiva_Projects/Source/queue.c",line 694,column 6,is_stmt,isa 1
    1467 00000250 9808              LDR       A1, [SP, #32]         ; [DPU_3_PIPE] |694|  ; [ORIG 16-BIT INS]
    1468 00000252 6A41              LDR       A2, [A1, #36]         ; [DPU_3_PIPE] |694|  ; [ORIG 16-BIT INS]
    1469 00000254 2000              MOVS      A1, #0                ; [DPU_3_PIPE] |694|  ; [ORIG 16-BIT INS]
    1470 00000256 B901              CBNZ      A2, ||$C$L18||        ; []  ; [ORIG 16-BIT INS]
    1471                            ; BRANCHCC OCCURS {||$C$L18||}   ; [] |694| 
    1472                    ;* --------------------------------------------------------------------------*
    1473 00000258 2001              MOVS      A1, #1                ; [DPU_3_PIPE] |694|  ; [ORIG 16-BIT INS]
    1474                    ;* --------------------------------------------------------------------------*
    1475 0000025a           ||$C$L18||:    
    1476 0000025a B930              CBNZ      A1, ||$C$L19||        ; []  ; [ORIG 16-BIT INS]
    1477                            ; BRANCHCC OCCURS {||$C$L19||}   ; [] |694| 
    1478                    ;* --------------------------------------------------------------------------*
    1479                            .dwpsn  file "C:/TI_ARM_Tiva_Projects/Source/queue.c",line 696,column 7,is_stmt,isa 1
    1480 0000025c 9808              LDR       A1, [SP, #32]         ; [DPU_3_PIPE] |696|  ; [ORIG 16-BIT INS]
    1481 0000025e 3024              ADDS      A1, A1, #36           ; [DPU_3_PIPE] |696|  ; [ORIG 16-BIT INS]
    1482                    $C$DW$114       .dwtag  DW_TAG_TI_branch
    1483                            .dwattr $C$DW$114, DW_AT_low_pc(0x00)
    1484                            .dwattr $C$DW$114, DW_AT_name("xTaskRemoveFromEventList")
    1485                            .dwattr $C$DW$114, DW_AT_TI_call
TI ARM Assembler PC v15.12.1 Tue Oct 18 10:42:33 2016

Tools Copyright (c) 1996-2015 Texas Instruments Incorporated
queue.asm                                                            PAGE   28

    1486                    
    1487 00000260 FFFEF7FF!         BL        xTaskRemoveFromEventList ; [DPU_3_PIPE] |696|  ; [KEEP 32-BIT INS]
    1488                            ; CALL OCCURS {xTaskRemoveFromEventList }  ; [] |696| 
    1489 00000264 2801              CMP       A1, #1                ; [DPU_3_PIPE] |696|  ; [ORIG 16-BIT INS]
    1490 00000266 D003              BEQ       ||$C$L20||            ; [DPU_3_PIPE] |696|  ; [ORIG 16-BIT INS]
    1491                            ; BRANCHCC OCCURS {||$C$L20||}   ; [] |696| 
    1492                    ;* --------------------------------------------------------------------------*
    1493                            .dwpsn  file "C:/TI_ARM_Tiva_Projects/Source/queue.c",line 703,column 7,is_stmt,isa 1
    1494                            .dwpsn  file "C:/TI_ARM_Tiva_Projects/Source/queue.c",line 708,column 6,is_stmt,isa 1
    1495 00000268 E002              B         ||$C$L20||            ; [DPU_3_PIPE] |708|  ; [ORIG 16-BIT INS]
    1496                            ; BRANCH OCCURS {||$C$L20||}     ; [] |708| 
    1497                    ;* --------------------------------------------------------------------------*
    1498 0000026a           ||$C$L19||:    
    1499                            .dwpsn  file "C:/TI_ARM_Tiva_Projects/Source/queue.c",line 709,column 11,is_stmt,isa 1
    1500 0000026a 9805              LDR       A1, [SP, #20]         ; [DPU_3_PIPE] |709|  ; [ORIG 16-BIT INS]
    1501 0000026c 2800              CMP       A1, #0                ; [DPU_3_PIPE] |709|  ; [ORIG 16-BIT INS]
    1502 0000026e D1FF              BNE       ||$C$L20||            ; [DPU_3_PIPE] |709|  ; [ORIG 16-BIT INS]
    1503                            ; BRANCHCC OCCURS {||$C$L20||}   ; [] |709| 
    1504                    ;* --------------------------------------------------------------------------*
    1505                            .dwpsn  file "C:/TI_ARM_Tiva_Projects/Source/queue.c",line 716,column 6,is_stmt,isa 1
    1506                    ;* --------------------------------------------------------------------------*
    1507 00000270           ||$C$L20||:    
    1508                            .dwpsn  file "C:/TI_ARM_Tiva_Projects/Source/queue.c",line 724,column 5,is_stmt,isa 1
    1509                    $C$DW$115       .dwtag  DW_TAG_TI_branch
    1510                            .dwattr $C$DW$115, DW_AT_low_pc(0x00)
    1511                            .dwattr $C$DW$115, DW_AT_name("vPortExitCritical")
    1512                            .dwattr $C$DW$115, DW_AT_TI_call
    1513                    
    1514 00000270 FFFEF7FF!         BL        vPortExitCritical     ; [DPU_3_PIPE] |724|  ; [KEEP 32-BIT INS]
    1515                            ; CALL OCCURS {vPortExitCritical }  ; [] |724| 
    1516                            .dwpsn  file "C:/TI_ARM_Tiva_Projects/Source/queue.c",line 725,column 5,is_stmt,isa 1
    1517 00000274 2001              MOVS      A1, #1                ; [DPU_3_PIPE] |725|  ; [ORIG 16-BIT INS]
    1518 00000276 E04F              B         ||$C$L28||            ; [DPU_3_PIPE] |725|  ; [ORIG 16-BIT INS]
    1519                            ; BRANCH OCCURS {||$C$L28||}     ; [] |725| 
    1520                    ;* --------------------------------------------------------------------------*
    1521                    ;* --------------------------------------------------------------------------*
    1522 00000278           ||$C$L21||:    
    1523                            .dwpsn  file "C:/TI_ARM_Tiva_Projects/Source/queue.c",line 729,column 5,is_stmt,isa 1
    1524 00000278 9802              LDR       A1, [SP, #8]          ; [DPU_3_PIPE] |729|  ; [ORIG 16-BIT INS]
    1525 0000027a B918              CBNZ      A1, ||$C$L22||        ; []  ; [ORIG 16-BIT INS]
    1526                            ; BRANCHCC OCCURS {||$C$L22||}   ; [] |729| 
    1527                    ;* --------------------------------------------------------------------------*
    1528                            .dwpsn  file "C:/TI_ARM_Tiva_Projects/Source/queue.c",line 733,column 6,is_stmt,isa 1
    1529                    $C$DW$116       .dwtag  DW_TAG_TI_branch
    1530                            .dwattr $C$DW$116, DW_AT_low_pc(0x00)
    1531                            .dwattr $C$DW$116, DW_AT_name("vPortExitCritical")
    1532                            .dwattr $C$DW$116, DW_AT_TI_call
    1533                    
    1534 0000027c FFFEF7FF!         BL        vPortExitCritical     ; [DPU_3_PIPE] |733|  ; [KEEP 32-BIT INS]
    1535                            ; CALL OCCURS {vPortExitCritical }  ; [] |733| 
    1536                            .dwpsn  file "C:/TI_ARM_Tiva_Projects/Source/queue.c",line 738,column 6,is_stmt,isa 1
    1537 00000280 2000              MOVS      A1, #0                ; [DPU_3_PIPE] |738|  ; [ORIG 16-BIT INS]
    1538 00000282 E049              B         ||$C$L28||            ; [DPU_3_PIPE] |738|  ; [ORIG 16-BIT INS]
    1539                            ; BRANCH OCCURS {||$C$L28||}     ; [] |738| 
    1540                    ;* --------------------------------------------------------------------------*
TI ARM Assembler PC v15.12.1 Tue Oct 18 10:42:33 2016

Tools Copyright (c) 1996-2015 Texas Instruments Incorporated
queue.asm                                                            PAGE   29

    1541                    ;* --------------------------------------------------------------------------*
    1542 00000284           ||$C$L22||:    
    1543                            .dwpsn  file "C:/TI_ARM_Tiva_Projects/Source/queue.c",line 740,column 10,is_stmt,isa 1
    1544 00000284 9804              LDR       A1, [SP, #16]         ; [DPU_3_PIPE] |740|  ; [ORIG 16-BIT INS]
    1545 00000286 B920              CBNZ      A1, ||$C$L23||        ; []  ; [ORIG 16-BIT INS]
    1546                            ; BRANCHCC OCCURS {||$C$L23||}   ; [] |740| 
    1547                    ;* --------------------------------------------------------------------------*
    1548                            .dwpsn  file "C:/TI_ARM_Tiva_Projects/Source/queue.c",line 744,column 6,is_stmt,isa 1
    1549 00000288 A806              ADD       A1, SP, #24           ; [DPU_3_PIPE] |744|  ; [ORIG 16-BIT INS]
    1550                    $C$DW$117       .dwtag  DW_TAG_TI_branch
    1551                            .dwattr $C$DW$117, DW_AT_low_pc(0x00)
    1552                            .dwattr $C$DW$117, DW_AT_name("vTaskSetTimeOutState")
    1553                            .dwattr $C$DW$117, DW_AT_TI_call
    1554                    
    1555 0000028a FFFEF7FF!         BL        vTaskSetTimeOutState  ; [DPU_3_PIPE] |744|  ; [KEEP 32-BIT INS]
    1556                            ; CALL OCCURS {vTaskSetTimeOutState }  ; [] |744| 
    1557                            .dwpsn  file "C:/TI_ARM_Tiva_Projects/Source/queue.c",line 745,column 6,is_stmt,isa 1
    1558 0000028e 2001              MOVS      A1, #1                ; [DPU_3_PIPE] |745|  ; [ORIG 16-BIT INS]
    1559 00000290 9004              STR       A1, [SP, #16]         ; [DPU_3_PIPE] |745|  ; [ORIG 16-BIT INS]
    1560                            .dwpsn  file "C:/TI_ARM_Tiva_Projects/Source/queue.c",line 746,column 5,is_stmt,isa 1
    1561                    ;* --------------------------------------------------------------------------*
    1562 00000292           ||$C$L23||:    
    1563                            .dwpsn  file "C:/TI_ARM_Tiva_Projects/Source/queue.c",line 754,column 3,is_stmt,isa 1
    1564                    $C$DW$118       .dwtag  DW_TAG_TI_branch
    1565                            .dwattr $C$DW$118, DW_AT_low_pc(0x00)
    1566                            .dwattr $C$DW$118, DW_AT_name("vPortExitCritical")
    1567                            .dwattr $C$DW$118, DW_AT_TI_call
    1568                    
    1569 00000292 FFFEF7FF!         BL        vPortExitCritical     ; [DPU_3_PIPE] |754|  ; [KEEP 32-BIT INS]
    1570                            ; CALL OCCURS {vPortExitCritical }  ; [] |754| 
    1571                            .dwpsn  file "C:/TI_ARM_Tiva_Projects/Source/queue.c",line 759,column 3,is_stmt,isa 1
    1572                    $C$DW$119       .dwtag  DW_TAG_TI_branch
    1573                            .dwattr $C$DW$119, DW_AT_low_pc(0x00)
    1574                            .dwattr $C$DW$119, DW_AT_name("vTaskSuspendAll")
    1575                            .dwattr $C$DW$119, DW_AT_TI_call
    1576                    
    1577 00000296 FFFEF7FF!         BL        vTaskSuspendAll       ; [DPU_3_PIPE] |759|  ; [KEEP 32-BIT INS]
    1578                            ; CALL OCCURS {vTaskSuspendAll }  ; [] |759| 
    1579                            .dwpsn  file "C:/TI_ARM_Tiva_Projects/Source/queue.c",line 760,column 3,is_stmt,isa 1
    1580                    $C$DW$120       .dwtag  DW_TAG_TI_branch
    1581                            .dwattr $C$DW$120, DW_AT_low_pc(0x00)
    1582                            .dwattr $C$DW$120, DW_AT_name("vPortEnterCritical")
    1583                            .dwattr $C$DW$120, DW_AT_TI_call
    1584                    
    1585 0000029a FFFEF7FF!         BL        vPortEnterCritical    ; [DPU_3_PIPE] |760|  ; [KEEP 32-BIT INS]
    1586                            ; CALL OCCURS {vPortEnterCritical }  ; [] |760| 
    1587 0000029e 9808              LDR       A1, [SP, #32]         ; [DPU_3_PIPE] |760|  ; [ORIG 16-BIT INS]
    1588 000002a0 6C40              LDR       A1, [A1, #68]         ; [DPU_3_PIPE] |760|  ; [ORIG 16-BIT INS]
    1589 000002a2 3FFFF1B0          CMP       A1, #-1               ; [DPU_3_PIPE] |760|  ; [KEEP 32-BIT INS]
    1590 000002a6 D102              BNE       ||$C$L24||            ; [DPU_3_PIPE] |760|  ; [ORIG 16-BIT INS]
    1591                            ; BRANCHCC OCCURS {||$C$L24||}   ; [] |760| 
    1592                    ;* --------------------------------------------------------------------------*
    1593 000002a8 9808              LDR       A1, [SP, #32]         ; [DPU_3_PIPE] |760|  ; [ORIG 16-BIT INS]
    1594 000002aa 2100              MOVS      A2, #0                ; [DPU_3_PIPE] |760|  ; [ORIG 16-BIT INS]
    1595 000002ac 6441              STR       A2, [A1, #68]         ; [DPU_3_PIPE] |760|  ; [ORIG 16-BIT INS]
TI ARM Assembler PC v15.12.1 Tue Oct 18 10:42:33 2016

Tools Copyright (c) 1996-2015 Texas Instruments Incorporated
queue.asm                                                            PAGE   30

    1596                    ;* --------------------------------------------------------------------------*
    1597 000002ae           ||$C$L24||:    
    1598 000002ae 9808              LDR       A1, [SP, #32]         ; [DPU_3_PIPE] |760|  ; [ORIG 16-BIT INS]
    1599 000002b0 6C80              LDR       A1, [A1, #72]         ; [DPU_3_PIPE] |760|  ; [ORIG 16-BIT INS]
    1600 000002b2 3FFFF1B0          CMP       A1, #-1               ; [DPU_3_PIPE] |760|  ; [KEEP 32-BIT INS]
    1601 000002b6 D102              BNE       ||$C$L25||            ; [DPU_3_PIPE] |760|  ; [ORIG 16-BIT INS]
    1602                            ; BRANCHCC OCCURS {||$C$L25||}   ; [] |760| 
    1603                    ;* --------------------------------------------------------------------------*
    1604 000002b8 9808              LDR       A1, [SP, #32]         ; [DPU_3_PIPE] |760|  ; [ORIG 16-BIT INS]
    1605 000002ba 2100              MOVS      A2, #0                ; [DPU_3_PIPE] |760|  ; [ORIG 16-BIT INS]
    1606 000002bc 6481              STR       A2, [A1, #72]         ; [DPU_3_PIPE] |760|  ; [ORIG 16-BIT INS]
    1607                    ;* --------------------------------------------------------------------------*
    1608                    ||$C$L25||:    
    1609                    $C$DW$121       .dwtag  DW_TAG_TI_branch
    1610                            .dwattr $C$DW$121, DW_AT_low_pc(0x00)
    1611                            .dwattr $C$DW$121, DW_AT_name("vPortExitCritical")
    1612                            .dwattr $C$DW$121, DW_AT_TI_call
    1613                    
    1614 000002be FFFEF7FF!         BL        vPortExitCritical     ; [DPU_3_PIPE] |760|  ; [KEEP 32-BIT INS]
    1615                            ; CALL OCCURS {vPortExitCritical }  ; [] |760| 
    1616                            .dwpsn  file "C:/TI_ARM_Tiva_Projects/Source/queue.c",line 763,column 3,is_stmt,isa 1
    1617 000002c2 A806              ADD       A1, SP, #24           ; [DPU_3_PIPE] |763|  ; [ORIG 16-BIT INS]
    1618 000002c4 A902              ADD       A2, SP, #8            ; [DPU_3_PIPE] |763|  ; [ORIG 16-BIT INS]
    1619                    $C$DW$122       .dwtag  DW_TAG_TI_branch
    1620                            .dwattr $C$DW$122, DW_AT_low_pc(0x00)
    1621                            .dwattr $C$DW$122, DW_AT_name("xTaskCheckForTimeOut")
    1622                            .dwattr $C$DW$122, DW_AT_TI_call
    1623                    
    1624 000002c6 FFFEF7FF!         BL        xTaskCheckForTimeOut  ; [DPU_3_PIPE] |763|  ; [KEEP 32-BIT INS]
    1625                            ; CALL OCCURS {xTaskCheckForTimeOut }  ; [] |763| 
    1626 000002ca B9F0              CBNZ      A1, ||$C$L27||        ; []  ; [ORIG 16-BIT INS]
    1627                            ; BRANCHCC OCCURS {||$C$L27||}   ; [] |763| 
    1628                    ;* --------------------------------------------------------------------------*
    1629                            .dwpsn  file "C:/TI_ARM_Tiva_Projects/Source/queue.c",line 765,column 4,is_stmt,isa 1
    1630 000002cc 9808              LDR       A1, [SP, #32]         ; [DPU_3_PIPE] |765|  ; [ORIG 16-BIT INS]
    1631                    $C$DW$123       .dwtag  DW_TAG_TI_branch
    1632                            .dwattr $C$DW$123, DW_AT_low_pc(0x00)
    1633                            .dwattr $C$DW$123, DW_AT_name("prvIsQueueFull")
    1634                            .dwattr $C$DW$123, DW_AT_TI_call
    1635                    
    1636 000002ce FADDF000          BL        prvIsQueueFull        ; [DPU_3_PIPE] |765|  ; [KEEP 32-BIT INS]
    1637                            ; CALL OCCURS {prvIsQueueFull }  ; [] |765| 
    1638 000002d2 B1A0              CBZ       A1, ||$C$L26||        ; []  ; [ORIG 16-BIT INS]
    1639                            ; BRANCHCC OCCURS {||$C$L26||}   ; [] |765| 
    1640                    ;* --------------------------------------------------------------------------*
    1641                            .dwpsn  file "C:/TI_ARM_Tiva_Projects/Source/queue.c",line 768,column 5,is_stmt,isa 1
    1642 000002d4 9808              LDR       A1, [SP, #32]         ; [DPU_3_PIPE] |768|  ; [ORIG 16-BIT INS]
    1643 000002d6 9902              LDR       A2, [SP, #8]          ; [DPU_3_PIPE] |768|  ; [ORIG 16-BIT INS]
    1644 000002d8 3010              ADDS      A1, A1, #16           ; [DPU_3_PIPE] |768|  ; [ORIG 16-BIT INS]
    1645                    $C$DW$124       .dwtag  DW_TAG_TI_branch
    1646                            .dwattr $C$DW$124, DW_AT_low_pc(0x00)
    1647                            .dwattr $C$DW$124, DW_AT_name("vTaskPlaceOnEventList")
    1648                            .dwattr $C$DW$124, DW_AT_TI_call
    1649                    
    1650 000002da FFFEF7FF!         BL        vTaskPlaceOnEventList ; [DPU_3_PIPE] |768|  ; [KEEP 32-BIT INS]
TI ARM Assembler PC v15.12.1 Tue Oct 18 10:42:33 2016

Tools Copyright (c) 1996-2015 Texas Instruments Incorporated
queue.asm                                                            PAGE   31

    1651                            ; CALL OCCURS {vTaskPlaceOnEventList }  ; [] |768| 
    1652                            .dwpsn  file "C:/TI_ARM_Tiva_Projects/Source/queue.c",line 775,column 5,is_stmt,isa 1
    1653 000002de 9808              LDR       A1, [SP, #32]         ; [DPU_3_PIPE] |775|  ; [ORIG 16-BIT INS]
    1654                    $C$DW$125       .dwtag  DW_TAG_TI_branch
    1655                            .dwattr $C$DW$125, DW_AT_low_pc(0x00)
    1656                            .dwattr $C$DW$125, DW_AT_name("prvUnlockQueue")
    1657                            .dwattr $C$DW$125, DW_AT_TI_call
    1658                    
    1659 000002e0 FA75F000          BL        prvUnlockQueue        ; [DPU_3_PIPE] |775|  ; [KEEP 32-BIT INS]
    1660                            ; CALL OCCURS {prvUnlockQueue }  ; [] |775| 
    1661                            .dwpsn  file "C:/TI_ARM_Tiva_Projects/Source/queue.c",line 782,column 5,is_stmt,isa 1
    1662                    $C$DW$126       .dwtag  DW_TAG_TI_branch
    1663                            .dwattr $C$DW$126, DW_AT_low_pc(0x00)
    1664                            .dwattr $C$DW$126, DW_AT_name("xTaskResumeAll")
    1665                            .dwattr $C$DW$126, DW_AT_TI_call
    1666                    
    1667 000002e4 FFFEF7FF!         BL        xTaskResumeAll        ; [DPU_3_PIPE] |782|  ; [KEEP 32-BIT INS]
    1668                            ; CALL OCCURS {xTaskResumeAll }  ; [] |782| 
    1669 000002e8 2800              CMP       A1, #0                ; [DPU_3_PIPE] |782|  ; [ORIG 16-BIT INS]
    1670 000002ea D1A0              BNE       ||$C$L16||            ; [DPU_3_PIPE] |782|  ; [ORIG 16-BIT INS]
    1671                            ; BRANCHCC OCCURS {||$C$L16||}   ; [] |782| 
    1672                    ;* --------------------------------------------------------------------------*
    1673                            .dwpsn  file "C:/TI_ARM_Tiva_Projects/Source/queue.c",line 784,column 6,is_stmt,isa 1
    1674 000002ec 499F              LDR       A2, $C$CON1           ; [DPU_3_PIPE] |784|  ; [ORIG 16-BIT INS]
    1675 000002ee 5080F04F          MOV       A1, #268435456        ; [DPU_3_PIPE] |784|  ; [KEEP 32-BIT INS]
    1676 000002f2 6008              STR       A1, [A2, #0]          ; [DPU_3_PIPE] |784|  ; [ORIG 16-BIT INS]
    1677 000002f4 8F4FF3BF          dsb ; [KEEP 32-BIT INS]
    1678 000002f8 8F6FF3BF          isb ; [KEEP 32-BIT INS]
    1679                            .dwpsn  file "C:/TI_ARM_Tiva_Projects/Source/queue.c",line 786,column 4,is_stmt,isa 1
    1680 000002fc E797              B         ||$C$L16||            ; [DPU_3_PIPE] |786|  ; [ORIG 16-BIT INS]
    1681                            ; BRANCH OCCURS {||$C$L16||}     ; [] |786| 
    1682                    ;* --------------------------------------------------------------------------*
    1683 000002fe           ||$C$L26||:    
    1684                            .dwpsn  file "C:/TI_ARM_Tiva_Projects/Source/queue.c",line 790,column 5,is_stmt,isa 1
    1685 000002fe 9808              LDR       A1, [SP, #32]         ; [DPU_3_PIPE] |790|  ; [ORIG 16-BIT INS]
    1686                    $C$DW$127       .dwtag  DW_TAG_TI_branch
    1687                            .dwattr $C$DW$127, DW_AT_low_pc(0x00)
    1688                            .dwattr $C$DW$127, DW_AT_name("prvUnlockQueue")
    1689                            .dwattr $C$DW$127, DW_AT_TI_call
    1690                    
    1691 00000300 FA65F000          BL        prvUnlockQueue        ; [DPU_3_PIPE] |790|  ; [KEEP 32-BIT INS]
    1692                            ; CALL OCCURS {prvUnlockQueue }  ; [] |790| 
    1693                            .dwpsn  file "C:/TI_ARM_Tiva_Projects/Source/queue.c",line 791,column 5,is_stmt,isa 1
    1694                    $C$DW$128       .dwtag  DW_TAG_TI_branch
    1695                            .dwattr $C$DW$128, DW_AT_low_pc(0x00)
    1696                            .dwattr $C$DW$128, DW_AT_name("xTaskResumeAll")
    1697                            .dwattr $C$DW$128, DW_AT_TI_call
    1698                    
    1699 00000304 FFFEF7FF!         BL        xTaskResumeAll        ; [DPU_3_PIPE] |791|  ; [KEEP 32-BIT INS]
    1700                            ; CALL OCCURS {xTaskResumeAll }  ; [] |791| 
    1701                            .dwpsn  file "C:/TI_ARM_Tiva_Projects/Source/queue.c",line 793,column 3,is_stmt,isa 1
    1702 00000308 E791              B         ||$C$L16||            ; [DPU_3_PIPE] |793|  ; [ORIG 16-BIT INS]
    1703                            ; BRANCH OCCURS {||$C$L16||}     ; [] |793| 
    1704                    ;* --------------------------------------------------------------------------*
    1705 0000030a           ||$C$L27||:    
TI ARM Assembler PC v15.12.1 Tue Oct 18 10:42:33 2016

Tools Copyright (c) 1996-2015 Texas Instruments Incorporated
queue.asm                                                            PAGE   32

    1706                            .dwpsn  file "C:/TI_ARM_Tiva_Projects/Source/queue.c",line 797,column 4,is_stmt,isa 1
    1707 0000030a 9808              LDR       A1, [SP, #32]         ; [DPU_3_PIPE] |797|  ; [ORIG 16-BIT INS]
    1708                    $C$DW$129       .dwtag  DW_TAG_TI_branch
    1709                            .dwattr $C$DW$129, DW_AT_low_pc(0x00)
    1710                            .dwattr $C$DW$129, DW_AT_name("prvUnlockQueue")
    1711                            .dwattr $C$DW$129, DW_AT_TI_call
    1712                    
    1713 0000030c FA5FF000          BL        prvUnlockQueue        ; [DPU_3_PIPE] |797|  ; [KEEP 32-BIT INS]
    1714                            ; CALL OCCURS {prvUnlockQueue }  ; [] |797| 
    1715                            .dwpsn  file "C:/TI_ARM_Tiva_Projects/Source/queue.c",line 798,column 4,is_stmt,isa 1
    1716                    $C$DW$130       .dwtag  DW_TAG_TI_branch
    1717                            .dwattr $C$DW$130, DW_AT_low_pc(0x00)
    1718                            .dwattr $C$DW$130, DW_AT_name("xTaskResumeAll")
    1719                            .dwattr $C$DW$130, DW_AT_TI_call
    1720                    
    1721 00000310 FFFEF7FF!         BL        xTaskResumeAll        ; [DPU_3_PIPE] |798|  ; [KEEP 32-BIT INS]
    1722                            ; CALL OCCURS {xTaskResumeAll }  ; [] |798| 
    1723                            .dwpsn  file "C:/TI_ARM_Tiva_Projects/Source/queue.c",line 803,column 4,is_stmt,isa 1
    1724 00000314 2000              MOVS      A1, #0                ; [DPU_3_PIPE] |803|  ; [ORIG 16-BIT INS]
    1725 00000316 E7FF              B         ||$C$L28||            ; [DPU_3_PIPE] |803|  ; [ORIG 16-BIT INS]
    1726                            ; BRANCH OCCURS {||$C$L28||}     ; [] |803| 
    1727                    ;* --------------------------------------------------------------------------*
    1728                    ;* --------------------------------------------------------------------------*
    1729 00000318           ||$C$L28||:    
    1730                            .dwpsn  file "C:/TI_ARM_Tiva_Projects/Source/queue.c",line 806,column 1,is_stmt,isa 1
    1731 00000318 B009              ADD       SP, SP, #36           ; [DPU_3_PIPE]  ; [ORIG 16-BIT INS]
    1732                            .dwcfi  cfa_offset, 4
    1733                    $C$DW$131       .dwtag  DW_TAG_TI_branch
    1734                            .dwattr $C$DW$131, DW_AT_low_pc(0x00)
    1735                            .dwattr $C$DW$131, DW_AT_TI_return
    1736                    
    1737 0000031a BD00              POP       {PC}                  ; [DPU_3_PIPE]  ; [ORIG 16-BIT INS]
    1738                            .dwcfi  cfa_offset, 0
    1739                            ; BRANCH OCCURS                  ; [] 
    1740                            .dwattr $C$DW$99, DW_AT_TI_end_file("C:/TI_ARM_Tiva_Projects/Source/queue.c")
    1741                            .dwattr $C$DW$99, DW_AT_TI_end_line(0x326)
    1742                            .dwattr $C$DW$99, DW_AT_TI_end_column(0x01)
    1743                            .dwendentry
    1744                            .dwendtag $C$DW$99
    1745                    
    1746 0000031c                   .sect   ".text"
    1747                            .clink
    1748                            .thumbfunc xQueueGenericSendFromISR
    1749 0000031c                   .thumb
    1750                            .global xQueueGenericSendFromISR
    1751                    
    1752                    $C$DW$132       .dwtag  DW_TAG_subprogram
    1753                            .dwattr $C$DW$132, DW_AT_name("xQueueGenericSendFromISR")
    1754                            .dwattr $C$DW$132, DW_AT_low_pc(xQueueGenericSendFromISR)
    1755                            .dwattr $C$DW$132, DW_AT_high_pc(0x00)
    1756                            .dwattr $C$DW$132, DW_AT_TI_symbol_name("xQueueGenericSendFromISR")
    1757                            .dwattr $C$DW$132, DW_AT_external
    1758                            .dwattr $C$DW$132, DW_AT_type(*$C$DW$T$39)
    1759                            .dwattr $C$DW$132, DW_AT_TI_begin_file("C:/TI_ARM_Tiva_Projects/Source/queue.c")
    1760                            .dwattr $C$DW$132, DW_AT_TI_begin_line(0x41e)
TI ARM Assembler PC v15.12.1 Tue Oct 18 10:42:33 2016

Tools Copyright (c) 1996-2015 Texas Instruments Incorporated
queue.asm                                                            PAGE   33

    1761                            .dwattr $C$DW$132, DW_AT_TI_begin_column(0x0c)
    1762                            .dwattr $C$DW$132, DW_AT_decl_file("C:/TI_ARM_Tiva_Projects/Source/queue.c")
    1763                            .dwattr $C$DW$132, DW_AT_decl_line(0x41e)
    1764                            .dwattr $C$DW$132, DW_AT_decl_column(0x0c)
    1765                            .dwattr $C$DW$132, DW_AT_TI_max_frame_size(0x20)
    1766                            .dwpsn  file "C:/TI_ARM_Tiva_Projects/Source/queue.c",line 1055,column 1,is_stmt,address xQueu
    1767                    
    1768                            .dwfde $C$DW$CIE, xQueueGenericSendFromISR
    1769                    $C$DW$133       .dwtag  DW_TAG_formal_parameter
    1770                            .dwattr $C$DW$133, DW_AT_name("xQueue")
    1771                            .dwattr $C$DW$133, DW_AT_TI_symbol_name("xQueue")
    1772                            .dwattr $C$DW$133, DW_AT_type(*$C$DW$T$34)
    1773                            .dwattr $C$DW$133, DW_AT_location[DW_OP_reg0]
    1774                    
    1775                    $C$DW$134       .dwtag  DW_TAG_formal_parameter
    1776                            .dwattr $C$DW$134, DW_AT_name("pvItemToQueue")
    1777                            .dwattr $C$DW$134, DW_AT_TI_symbol_name("pvItemToQueue")
    1778                            .dwattr $C$DW$134, DW_AT_type(*$C$DW$T$105)
    1779                            .dwattr $C$DW$134, DW_AT_location[DW_OP_reg1]
    1780                    
    1781                    $C$DW$135       .dwtag  DW_TAG_formal_parameter
    1782                            .dwattr $C$DW$135, DW_AT_name("pxHigherPriorityTaskWoken")
    1783                            .dwattr $C$DW$135, DW_AT_TI_symbol_name("pxHigherPriorityTaskWoken")
    1784                            .dwattr $C$DW$135, DW_AT_type(*$C$DW$T$167)
    1785                            .dwattr $C$DW$135, DW_AT_location[DW_OP_reg2]
    1786                    
    1787                    $C$DW$136       .dwtag  DW_TAG_formal_parameter
    1788                            .dwattr $C$DW$136, DW_AT_name("xCopyPosition")
    1789                            .dwattr $C$DW$136, DW_AT_TI_symbol_name("xCopyPosition")
    1790                            .dwattr $C$DW$136, DW_AT_type(*$C$DW$T$116)
    1791                            .dwattr $C$DW$136, DW_AT_location[DW_OP_reg3]
    1792                    
    1793                    
    1794                    ;*****************************************************************************
    1795                    ;* FUNCTION NAME: xQueueGenericSendFromISR                                   *
    1796                    ;*                                                                           *
    1797                    ;*   Regs Modified     : A1,A2,A3,A4,V9,SP,LR,SR,D0,D0_hi,D1,D1_hi,D2,D2_hi, *
    1798                    ;*                           D3,D3_hi,D4,D4_hi,D5,D5_hi,D6,D6_hi,D7,D7_hi,   *
    1799                    ;*                           FPEXC,FPSCR                                     *
    1800                    ;*   Regs Used         : A1,A2,A3,A4,V9,SP,LR,SR,D0,D0_hi,D1,D1_hi,D2,D2_hi, *
    1801                    ;*                           D3,D3_hi,D4,D4_hi,D5,D5_hi,D6,D6_hi,D7,D7_hi,   *
    1802                    ;*                           FPEXC,FPSCR                                     *
    1803                    ;*   Local Frame Size  : 0 Args + 28 Auto + 4 Save = 32 byte                 *
    1804                    ;*****************************************************************************
    1805 0000031c           xQueueGenericSendFromISR:
    1806                    ;* --------------------------------------------------------------------------*
    1807                            .dwcfi  cfa_offset, 0
    1808 0000031c B500              PUSH      {LR}                  ; [DPU_3_PIPE]  ; [ORIG 16-BIT INS]
    1809                            .dwcfi  cfa_offset, 4
    1810                            .dwcfi  save_reg_to_mem, 14, -4
    1811 0000031e 0D1CF1AD          SUB       SP, SP, #28           ; [DPU_3_PIPE]  ; [KEEP 32-BIT INS]
    1812                            .dwcfi  cfa_offset, 32
    1813                    $C$DW$137       .dwtag  DW_TAG_variable
    1814                            .dwattr $C$DW$137, DW_AT_name("xQueue")
    1815                            .dwattr $C$DW$137, DW_AT_TI_symbol_name("xQueue")
TI ARM Assembler PC v15.12.1 Tue Oct 18 10:42:33 2016

Tools Copyright (c) 1996-2015 Texas Instruments Incorporated
queue.asm                                                            PAGE   34

    1816                            .dwattr $C$DW$137, DW_AT_type(*$C$DW$T$34)
    1817                            .dwattr $C$DW$137, DW_AT_location[DW_OP_breg13 0]
    1818                    
    1819                    $C$DW$138       .dwtag  DW_TAG_variable
    1820                            .dwattr $C$DW$138, DW_AT_name("pvItemToQueue")
    1821                            .dwattr $C$DW$138, DW_AT_TI_symbol_name("pvItemToQueue")
    1822                            .dwattr $C$DW$138, DW_AT_type(*$C$DW$T$105)
    1823                            .dwattr $C$DW$138, DW_AT_location[DW_OP_breg13 4]
    1824                    
    1825                    $C$DW$139       .dwtag  DW_TAG_variable
    1826                            .dwattr $C$DW$139, DW_AT_name("pxHigherPriorityTaskWoken")
    1827                            .dwattr $C$DW$139, DW_AT_TI_symbol_name("pxHigherPriorityTaskWoken")
    1828                            .dwattr $C$DW$139, DW_AT_type(*$C$DW$T$167)
    1829                            .dwattr $C$DW$139, DW_AT_location[DW_OP_breg13 8]
    1830                    
    1831                    $C$DW$140       .dwtag  DW_TAG_variable
    1832                            .dwattr $C$DW$140, DW_AT_name("xCopyPosition")
    1833                            .dwattr $C$DW$140, DW_AT_TI_symbol_name("xCopyPosition")
    1834                            .dwattr $C$DW$140, DW_AT_type(*$C$DW$T$116)
    1835                            .dwattr $C$DW$140, DW_AT_location[DW_OP_breg13 12]
    1836                    
    1837                    $C$DW$141       .dwtag  DW_TAG_variable
    1838                            .dwattr $C$DW$141, DW_AT_name("xReturn")
    1839                            .dwattr $C$DW$141, DW_AT_TI_symbol_name("xReturn")
    1840                            .dwattr $C$DW$141, DW_AT_type(*$C$DW$T$39)
    1841                            .dwattr $C$DW$141, DW_AT_location[DW_OP_breg13 16]
    1842                    
    1843                    $C$DW$142       .dwtag  DW_TAG_variable
    1844                            .dwattr $C$DW$142, DW_AT_name("uxSavedInterruptStatus")
    1845                            .dwattr $C$DW$142, DW_AT_TI_symbol_name("uxSavedInterruptStatus")
    1846                            .dwattr $C$DW$142, DW_AT_type(*$C$DW$T$25)
    1847                            .dwattr $C$DW$142, DW_AT_location[DW_OP_breg13 20]
    1848                    
    1849                    $C$DW$143       .dwtag  DW_TAG_variable
    1850                            .dwattr $C$DW$143, DW_AT_name("pxQueue")
    1851                            .dwattr $C$DW$143, DW_AT_TI_symbol_name("pxQueue")
    1852                            .dwattr $C$DW$143, DW_AT_type(*$C$DW$T$84)
    1853                            .dwattr $C$DW$143, DW_AT_location[DW_OP_breg13 24]
    1854                    
    1855 00000322 9303              STR       A4, [SP, #12]         ; [DPU_3_PIPE] |1055|  ; [ORIG 16-BIT INS]
    1856 00000324 9202              STR       A3, [SP, #8]          ; [DPU_3_PIPE] |1055|  ; [ORIG 16-BIT INS]
    1857 00000326 9101              STR       A2, [SP, #4]          ; [DPU_3_PIPE] |1055|  ; [ORIG 16-BIT INS]
    1858 00000328 9000              STR       A1, [SP, #0]          ; [DPU_3_PIPE] |1055|  ; [ORIG 16-BIT INS]
    1859                            .dwpsn  file "C:/TI_ARM_Tiva_Projects/Source/queue.c",line 1058,column 25,is_stmt,isa 1
    1860 0000032a 9800              LDR       A1, [SP, #0]          ; [DPU_3_PIPE] |1058|  ; [ORIG 16-BIT INS]
    1861 0000032c 9006              STR       A1, [SP, #24]         ; [DPU_3_PIPE] |1058|  ; [ORIG 16-BIT INS]
    1862                            .dwpsn  file "C:/TI_ARM_Tiva_Projects/Source/queue.c",line 1085,column 2,is_stmt,isa 1
    1863 0000032e 8111F3EF          MRS       A2, BASEPRI           ; [DPU_3_PIPE] |1085|  ; [KEEP 32-BIT INS]
    1864 00000332 20A0              MOVS      A1, #160              ; [DPU_3_PIPE] |1085|  ; [ORIG 16-BIT INS]
    1865 00000334 8811F380          MSR       BASEPRI, A1           ; [DPU_3_PIPE] |1085|  ; [KEEP 32-BIT INS]
    1866 00000338 9105              STR       A2, [SP, #20]         ; [DPU_3_PIPE] |1085|  ; [ORIG 16-BIT INS]
    1867                            .dwpsn  file "C:/TI_ARM_Tiva_Projects/Source/queue.c",line 1085,column 27,is_stmt,isa 1
    1868 0000033a 8F4FF3BF          dsb ; [KEEP 32-BIT INS]
    1869 0000033e 8F6FF3BF          isb ; [KEEP 32-BIT INS]
    1870                            .dwpsn  file "C:/TI_ARM_Tiva_Projects/Source/queue.c",line 1087,column 3,is_stmt,isa 1
TI ARM Assembler PC v15.12.1 Tue Oct 18 10:42:33 2016

Tools Copyright (c) 1996-2015 Texas Instruments Incorporated
queue.asm                                                            PAGE   35

    1871 00000342 9806              LDR       A1, [SP, #24]         ; [DPU_3_PIPE] |1087|  ; [ORIG 16-BIT INS]
    1872 00000344 9906              LDR       A2, [SP, #24]         ; [DPU_3_PIPE] |1087|  ; [ORIG 16-BIT INS]
    1873 00000346 6BC0              LDR       A1, [A1, #60]         ; [DPU_3_PIPE] |1087|  ; [ORIG 16-BIT INS]
    1874 00000348 6B89              LDR       A2, [A2, #56]         ; [DPU_3_PIPE] |1087|  ; [ORIG 16-BIT INS]
    1875 0000034a 4288              CMP       A1, A2                ; [DPU_3_PIPE] |1087|  ; [ORIG 16-BIT INS]
    1876 0000034c D802              BHI       ||$C$L29||            ; [DPU_3_PIPE] |1087|  ; [ORIG 16-BIT INS]
    1877                            ; BRANCHCC OCCURS {||$C$L29||}   ; [] |1087| 
    1878                    ;* --------------------------------------------------------------------------*
    1879 0000034e 9803              LDR       A1, [SP, #12]         ; [DPU_3_PIPE] |1087|  ; [ORIG 16-BIT INS]
    1880 00000350 2802              CMP       A1, #2                ; [DPU_3_PIPE] |1087|  ; [ORIG 16-BIT INS]
    1881 00000352 D121              BNE       ||$C$L33||            ; [DPU_3_PIPE] |1087|  ; [ORIG 16-BIT INS]
    1882                            ; BRANCHCC OCCURS {||$C$L33||}   ; [] |1087| 
    1883                    ;* --------------------------------------------------------------------------*
    1884 00000354           ||$C$L29||:    
    1885                            .dwpsn  file "C:/TI_ARM_Tiva_Projects/Source/queue.c",line 1096,column 4,is_stmt,isa 1
    1886 00000354 9806              LDR       A1, [SP, #24]         ; [DPU_3_PIPE] |1096|  ; [ORIG 16-BIT INS]
    1887 00000356 9901              LDR       A2, [SP, #4]          ; [DPU_3_PIPE] |1096|  ; [ORIG 16-BIT INS]
    1888 00000358 9A03              LDR       A3, [SP, #12]         ; [DPU_3_PIPE] |1096|  ; [ORIG 16-BIT INS]
    1889                    $C$DW$144       .dwtag  DW_TAG_TI_branch
    1890                            .dwattr $C$DW$144, DW_AT_low_pc(0x00)
    1891                            .dwattr $C$DW$144, DW_AT_name("prvCopyDataToQueue")
    1892                            .dwattr $C$DW$144, DW_AT_TI_call
    1893                    
    1894 0000035a F9BCF000          BL        prvCopyDataToQueue    ; [DPU_3_PIPE] |1096|  ; [KEEP 32-BIT INS]
    1895                            ; CALL OCCURS {prvCopyDataToQueue }  ; [] |1096| 
    1896                            .dwpsn  file "C:/TI_ARM_Tiva_Projects/Source/queue.c",line 1100,column 4,is_stmt,isa 1
    1897 0000035e 9806              LDR       A1, [SP, #24]         ; [DPU_3_PIPE] |1100|  ; [ORIG 16-BIT INS]
    1898 00000360 6C80              LDR       A1, [A1, #72]         ; [DPU_3_PIPE] |1100|  ; [ORIG 16-BIT INS]
    1899 00000362 3FFFF1B0          CMP       A1, #-1               ; [DPU_3_PIPE] |1100|  ; [KEEP 32-BIT INS]
    1900 00000366 D110              BNE       ||$C$L31||            ; [DPU_3_PIPE] |1100|  ; [ORIG 16-BIT INS]
    1901                            ; BRANCHCC OCCURS {||$C$L31||}   ; [] |1100| 
    1902                    ;* --------------------------------------------------------------------------*
    1903                            .dwpsn  file "C:/TI_ARM_Tiva_Projects/Source/queue.c",line 1155,column 6,is_stmt,isa 1
    1904 00000368 9806              LDR       A1, [SP, #24]         ; [DPU_3_PIPE] |1155|  ; [ORIG 16-BIT INS]
    1905 0000036a 6A41              LDR       A2, [A1, #36]         ; [DPU_3_PIPE] |1155|  ; [ORIG 16-BIT INS]
    1906 0000036c 2000              MOVS      A1, #0                ; [DPU_3_PIPE] |1155|  ; [ORIG 16-BIT INS]
    1907 0000036e B901              CBNZ      A2, ||$C$L30||        ; []  ; [ORIG 16-BIT INS]
    1908                            ; BRANCHCC OCCURS {||$C$L30||}   ; [] |1155| 
    1909                    ;* --------------------------------------------------------------------------*
    1910 00000370 2001              MOVS      A1, #1                ; [DPU_3_PIPE] |1155|  ; [ORIG 16-BIT INS]
    1911                    ;* --------------------------------------------------------------------------*
    1912 00000372           ||$C$L30||:    
    1913 00000372 B970              CBNZ      A1, ||$C$L32||        ; []  ; [ORIG 16-BIT INS]
    1914                            ; BRANCHCC OCCURS {||$C$L32||}   ; [] |1155| 
    1915                    ;* --------------------------------------------------------------------------*
    1916                            .dwpsn  file "C:/TI_ARM_Tiva_Projects/Source/queue.c",line 1157,column 7,is_stmt,isa 1
    1917 00000374 9806              LDR       A1, [SP, #24]         ; [DPU_3_PIPE] |1157|  ; [ORIG 16-BIT INS]
    1918 00000376 3024              ADDS      A1, A1, #36           ; [DPU_3_PIPE] |1157|  ; [ORIG 16-BIT INS]
    1919                    $C$DW$145       .dwtag  DW_TAG_TI_branch
    1920                            .dwattr $C$DW$145, DW_AT_low_pc(0x00)
    1921                            .dwattr $C$DW$145, DW_AT_name("xTaskRemoveFromEventList")
    1922                            .dwattr $C$DW$145, DW_AT_TI_call
    1923                    
    1924 00000378 FFFEF7FF!         BL        xTaskRemoveFromEventList ; [DPU_3_PIPE] |1157|  ; [KEEP 32-BIT INS]
    1925                            ; CALL OCCURS {xTaskRemoveFromEventList }  ; [] |1157| 
TI ARM Assembler PC v15.12.1 Tue Oct 18 10:42:33 2016

Tools Copyright (c) 1996-2015 Texas Instruments Incorporated
queue.asm                                                            PAGE   36

    1926 0000037c B148              CBZ       A1, ||$C$L32||        ; []  ; [ORIG 16-BIT INS]
    1927                            ; BRANCHCC OCCURS {||$C$L32||}   ; [] |1157| 
    1928                    ;* --------------------------------------------------------------------------*
    1929                            .dwpsn  file "C:/TI_ARM_Tiva_Projects/Source/queue.c",line 1161,column 8,is_stmt,isa 1
    1930 0000037e 9802              LDR       A1, [SP, #8]          ; [DPU_3_PIPE] |1161|  ; [ORIG 16-BIT INS]
    1931 00000380 B138              CBZ       A1, ||$C$L32||        ; []  ; [ORIG 16-BIT INS]
    1932                            ; BRANCHCC OCCURS {||$C$L32||}   ; [] |1161| 
    1933                    ;* --------------------------------------------------------------------------*
    1934                            .dwpsn  file "C:/TI_ARM_Tiva_Projects/Source/queue.c",line 1163,column 9,is_stmt,isa 1
    1935 00000382 9802              LDR       A1, [SP, #8]          ; [DPU_3_PIPE] |1163|  ; [ORIG 16-BIT INS]
    1936 00000384 2101              MOVS      A2, #1                ; [DPU_3_PIPE] |1163|  ; [ORIG 16-BIT INS]
    1937 00000386 6001              STR       A2, [A1, #0]          ; [DPU_3_PIPE] |1163|  ; [ORIG 16-BIT INS]
    1938                            .dwpsn  file "C:/TI_ARM_Tiva_Projects/Source/queue.c",line 1164,column 8,is_stmt,isa 1
    1939 00000388 E003              B         ||$C$L32||            ; [DPU_3_PIPE] |1164|  ; [ORIG 16-BIT INS]
    1940                            ; BRANCH OCCURS {||$C$L32||}     ; [] |1164| 
    1941                    ;* --------------------------------------------------------------------------*
    1942                    ;* --------------------------------------------------------------------------*
    1943 0000038a           ||$C$L31||:    
    1944                            .dwpsn  file "C:/TI_ARM_Tiva_Projects/Source/queue.c",line 1186,column 5,is_stmt,isa 1
    1945 0000038a 9906              LDR       A2, [SP, #24]         ; [DPU_3_PIPE] |1186|  ; [ORIG 16-BIT INS]
    1946 0000038c 6C88              LDR       A1, [A2, #72]         ; [DPU_3_PIPE] |1186|  ; [ORIG 16-BIT INS]
    1947 0000038e 1C40              ADDS      A1, A1, #1            ; [DPU_3_PIPE] |1186|  ; [ORIG 16-BIT INS]
    1948 00000390 6488              STR       A1, [A2, #72]         ; [DPU_3_PIPE] |1186|  ; [ORIG 16-BIT INS]
    1949                    ;* --------------------------------------------------------------------------*
    1950 00000392           ||$C$L32||:    
    1951                            .dwpsn  file "C:/TI_ARM_Tiva_Projects/Source/queue.c",line 1189,column 4,is_stmt,isa 1
    1952 00000392 2001              MOVS      A1, #1                ; [DPU_3_PIPE] |1189|  ; [ORIG 16-BIT INS]
    1953 00000394 9004              STR       A1, [SP, #16]         ; [DPU_3_PIPE] |1189|  ; [ORIG 16-BIT INS]
    1954                            .dwpsn  file "C:/TI_ARM_Tiva_Projects/Source/queue.c",line 1190,column 3,is_stmt,isa 1
    1955 00000396 E001              B         ||$C$L34||            ; [DPU_3_PIPE] |1190|  ; [ORIG 16-BIT INS]
    1956                            ; BRANCH OCCURS {||$C$L34||}     ; [] |1190| 
    1957                    ;* --------------------------------------------------------------------------*
    1958 00000398           ||$C$L33||:    
    1959                            .dwpsn  file "C:/TI_ARM_Tiva_Projects/Source/queue.c",line 1194,column 4,is_stmt,isa 1
    1960 00000398 2000              MOVS      A1, #0                ; [DPU_3_PIPE] |1194|  ; [ORIG 16-BIT INS]
    1961 0000039a 9004              STR       A1, [SP, #16]         ; [DPU_3_PIPE] |1194|  ; [ORIG 16-BIT INS]
    1962                    ;* --------------------------------------------------------------------------*
    1963 0000039c           ||$C$L34||:    
    1964                            .dwpsn  file "C:/TI_ARM_Tiva_Projects/Source/queue.c",line 1197,column 2,is_stmt,isa 1
    1965 0000039c 9805              LDR       A1, [SP, #20]         ; [DPU_3_PIPE] |1197|  ; [ORIG 16-BIT INS]
    1966 0000039e 8811F380          MSR       BASEPRI, A1           ; [DPU_3_PIPE] |1197|  ; [KEEP 32-BIT INS]
    1967                            .dwpsn  file "C:/TI_ARM_Tiva_Projects/Source/queue.c",line 1199,column 2,is_stmt,isa 1
    1968 000003a2 9804              LDR       A1, [SP, #16]         ; [DPU_3_PIPE] |1199|  ; [ORIG 16-BIT INS]
    1969                            .dwpsn  file "C:/TI_ARM_Tiva_Projects/Source/queue.c",line 1200,column 1,is_stmt,isa 1
    1970 000003a4 B007              ADD       SP, SP, #28           ; [DPU_3_PIPE]  ; [ORIG 16-BIT INS]
    1971                            .dwcfi  cfa_offset, 4
    1972                    $C$DW$146       .dwtag  DW_TAG_TI_branch
    1973                            .dwattr $C$DW$146, DW_AT_low_pc(0x00)
    1974                            .dwattr $C$DW$146, DW_AT_TI_return
    1975                    
    1976 000003a6 BD00              POP       {PC}                  ; [DPU_3_PIPE]  ; [ORIG 16-BIT INS]
    1977                            .dwcfi  cfa_offset, 0
    1978                            ; BRANCH OCCURS                  ; [] 
    1979                            .dwattr $C$DW$132, DW_AT_TI_end_file("C:/TI_ARM_Tiva_Projects/Source/queue.c")
    1980                            .dwattr $C$DW$132, DW_AT_TI_end_line(0x4b0)
TI ARM Assembler PC v15.12.1 Tue Oct 18 10:42:33 2016

Tools Copyright (c) 1996-2015 Texas Instruments Incorporated
queue.asm                                                            PAGE   37

    1981                            .dwattr $C$DW$132, DW_AT_TI_end_column(0x01)
    1982                            .dwendentry
    1983                            .dwendtag $C$DW$132
    1984                    
    1985 000003a8                   .sect   ".text"
    1986                            .clink
    1987                            .thumbfunc xQueueGiveFromISR
    1988 000003a8                   .thumb
    1989                            .global xQueueGiveFromISR
    1990                    
    1991                    $C$DW$147       .dwtag  DW_TAG_subprogram
    1992                            .dwattr $C$DW$147, DW_AT_name("xQueueGiveFromISR")
    1993                            .dwattr $C$DW$147, DW_AT_low_pc(xQueueGiveFromISR)
    1994                            .dwattr $C$DW$147, DW_AT_high_pc(0x00)
    1995                            .dwattr $C$DW$147, DW_AT_TI_symbol_name("xQueueGiveFromISR")
    1996                            .dwattr $C$DW$147, DW_AT_external
    1997                            .dwattr $C$DW$147, DW_AT_type(*$C$DW$T$39)
    1998                            .dwattr $C$DW$147, DW_AT_TI_begin_file("C:/TI_ARM_Tiva_Projects/Source/queue.c")
    1999                            .dwattr $C$DW$147, DW_AT_TI_begin_line(0x4b3)
    2000                            .dwattr $C$DW$147, DW_AT_TI_begin_column(0x0c)
    2001                            .dwattr $C$DW$147, DW_AT_decl_file("C:/TI_ARM_Tiva_Projects/Source/queue.c")
    2002                            .dwattr $C$DW$147, DW_AT_decl_line(0x4b3)
    2003                            .dwattr $C$DW$147, DW_AT_decl_column(0x0c)
    2004                            .dwattr $C$DW$147, DW_AT_TI_max_frame_size(0x18)
    2005                            .dwpsn  file "C:/TI_ARM_Tiva_Projects/Source/queue.c",line 1204,column 1,is_stmt,address xQueu
    2006                    
    2007                            .dwfde $C$DW$CIE, xQueueGiveFromISR
    2008                    $C$DW$148       .dwtag  DW_TAG_formal_parameter
    2009                            .dwattr $C$DW$148, DW_AT_name("xQueue")
    2010                            .dwattr $C$DW$148, DW_AT_TI_symbol_name("xQueue")
    2011                            .dwattr $C$DW$148, DW_AT_type(*$C$DW$T$34)
    2012                            .dwattr $C$DW$148, DW_AT_location[DW_OP_reg0]
    2013                    
    2014                    $C$DW$149       .dwtag  DW_TAG_formal_parameter
    2015                            .dwattr $C$DW$149, DW_AT_name("pxHigherPriorityTaskWoken")
    2016                            .dwattr $C$DW$149, DW_AT_TI_symbol_name("pxHigherPriorityTaskWoken")
    2017                            .dwattr $C$DW$149, DW_AT_type(*$C$DW$T$167)
    2018                            .dwattr $C$DW$149, DW_AT_location[DW_OP_reg1]
    2019                    
    2020                    
    2021                    ;*****************************************************************************
    2022                    ;* FUNCTION NAME: xQueueGiveFromISR                                          *
    2023                    ;*                                                                           *
    2024                    ;*   Regs Modified     : A1,A2,A3,A4,V9,SP,LR,SR,D0,D0_hi,D1,D1_hi,D2,D2_hi, *
    2025                    ;*                           D3,D3_hi,D4,D4_hi,D5,D5_hi,D6,D6_hi,D7,D7_hi,   *
    2026                    ;*                           FPEXC,FPSCR                                     *
    2027                    ;*   Regs Used         : A1,A2,A3,A4,V9,SP,LR,SR,D0,D0_hi,D1,D1_hi,D2,D2_hi, *
    2028                    ;*                           D3,D3_hi,D4,D4_hi,D5,D5_hi,D6,D6_hi,D7,D7_hi,   *
    2029                    ;*                           FPEXC,FPSCR                                     *
    2030                    ;*   Local Frame Size  : 0 Args + 20 Auto + 4 Save = 24 byte                 *
    2031                    ;*****************************************************************************
    2032 000003a8           xQueueGiveFromISR:
    2033                    ;* --------------------------------------------------------------------------*
    2034                            .dwcfi  cfa_offset, 0
    2035 000003a8 B500              PUSH      {LR}                  ; [DPU_3_PIPE]  ; [ORIG 16-BIT INS]
TI ARM Assembler PC v15.12.1 Tue Oct 18 10:42:33 2016

Tools Copyright (c) 1996-2015 Texas Instruments Incorporated
queue.asm                                                            PAGE   38

    2036                            .dwcfi  cfa_offset, 4
    2037                            .dwcfi  save_reg_to_mem, 14, -4
    2038 000003aa 0D14F1AD          SUB       SP, SP, #20           ; [DPU_3_PIPE]  ; [KEEP 32-BIT INS]
    2039                            .dwcfi  cfa_offset, 24
    2040                    $C$DW$150       .dwtag  DW_TAG_variable
    2041                            .dwattr $C$DW$150, DW_AT_name("xQueue")
    2042                            .dwattr $C$DW$150, DW_AT_TI_symbol_name("xQueue")
    2043                            .dwattr $C$DW$150, DW_AT_type(*$C$DW$T$34)
    2044                            .dwattr $C$DW$150, DW_AT_location[DW_OP_breg13 0]
    2045                    
    2046                    $C$DW$151       .dwtag  DW_TAG_variable
    2047                            .dwattr $C$DW$151, DW_AT_name("pxHigherPriorityTaskWoken")
    2048                            .dwattr $C$DW$151, DW_AT_TI_symbol_name("pxHigherPriorityTaskWoken")
    2049                            .dwattr $C$DW$151, DW_AT_type(*$C$DW$T$167)
    2050                            .dwattr $C$DW$151, DW_AT_location[DW_OP_breg13 4]
    2051                    
    2052                    $C$DW$152       .dwtag  DW_TAG_variable
    2053                            .dwattr $C$DW$152, DW_AT_name("xReturn")
    2054                            .dwattr $C$DW$152, DW_AT_TI_symbol_name("xReturn")
    2055                            .dwattr $C$DW$152, DW_AT_type(*$C$DW$T$39)
    2056                            .dwattr $C$DW$152, DW_AT_location[DW_OP_breg13 8]
    2057                    
    2058                    $C$DW$153       .dwtag  DW_TAG_variable
    2059                            .dwattr $C$DW$153, DW_AT_name("uxSavedInterruptStatus")
    2060                            .dwattr $C$DW$153, DW_AT_TI_symbol_name("uxSavedInterruptStatus")
    2061                            .dwattr $C$DW$153, DW_AT_type(*$C$DW$T$25)
    2062                            .dwattr $C$DW$153, DW_AT_location[DW_OP_breg13 12]
    2063                    
    2064                    $C$DW$154       .dwtag  DW_TAG_variable
    2065                            .dwattr $C$DW$154, DW_AT_name("pxQueue")
    2066                            .dwattr $C$DW$154, DW_AT_TI_symbol_name("pxQueue")
    2067                            .dwattr $C$DW$154, DW_AT_type(*$C$DW$T$84)
    2068                            .dwattr $C$DW$154, DW_AT_location[DW_OP_breg13 16]
    2069                    
    2070 000003ae 9101              STR       A2, [SP, #4]          ; [DPU_3_PIPE] |1204|  ; [ORIG 16-BIT INS]
    2071 000003b0 9000              STR       A1, [SP, #0]          ; [DPU_3_PIPE] |1204|  ; [ORIG 16-BIT INS]
    2072                            .dwpsn  file "C:/TI_ARM_Tiva_Projects/Source/queue.c",line 1207,column 25,is_stmt,isa 1
    2073 000003b2 9800              LDR       A1, [SP, #0]          ; [DPU_3_PIPE] |1207|  ; [ORIG 16-BIT INS]
    2074 000003b4 9004              STR       A1, [SP, #16]         ; [DPU_3_PIPE] |1207|  ; [ORIG 16-BIT INS]
    2075                            .dwpsn  file "C:/TI_ARM_Tiva_Projects/Source/queue.c",line 1242,column 2,is_stmt,isa 1
    2076 000003b6 8111F3EF          MRS       A2, BASEPRI           ; [DPU_3_PIPE] |1242|  ; [KEEP 32-BIT INS]
    2077 000003ba 20A0              MOVS      A1, #160              ; [DPU_3_PIPE] |1242|  ; [ORIG 16-BIT INS]
    2078 000003bc 8811F380          MSR       BASEPRI, A1           ; [DPU_3_PIPE] |1242|  ; [KEEP 32-BIT INS]
    2079 000003c0 9103              STR       A2, [SP, #12]         ; [DPU_3_PIPE] |1242|  ; [ORIG 16-BIT INS]
    2080                            .dwpsn  file "C:/TI_ARM_Tiva_Projects/Source/queue.c",line 1242,column 27,is_stmt,isa 1
    2081 000003c2 8F4FF3BF          dsb ; [KEEP 32-BIT INS]
    2082 000003c6 8F6FF3BF          isb ; [KEEP 32-BIT INS]
    2083                            .dwpsn  file "C:/TI_ARM_Tiva_Projects/Source/queue.c",line 1247,column 3,is_stmt,isa 1
    2084 000003ca 9804              LDR       A1, [SP, #16]         ; [DPU_3_PIPE] |1247|  ; [ORIG 16-BIT INS]
    2085 000003cc 9904              LDR       A2, [SP, #16]         ; [DPU_3_PIPE] |1247|  ; [ORIG 16-BIT INS]
    2086 000003ce 6BC0              LDR       A1, [A1, #60]         ; [DPU_3_PIPE] |1247|  ; [ORIG 16-BIT INS]
    2087 000003d0 6B89              LDR       A2, [A2, #56]         ; [DPU_3_PIPE] |1247|  ; [ORIG 16-BIT INS]
    2088 000003d2 4288              CMP       A1, A2                ; [DPU_3_PIPE] |1247|  ; [ORIG 16-BIT INS]
    2089 000003d4 D920              BLS       ||$C$L38||            ; [DPU_3_PIPE] |1247|  ; [ORIG 16-BIT INS]
    2090                            ; BRANCHCC OCCURS {||$C$L38||}   ; [] |1247| 
TI ARM Assembler PC v15.12.1 Tue Oct 18 10:42:33 2016

Tools Copyright (c) 1996-2015 Texas Instruments Incorporated
queue.asm                                                            PAGE   39

    2091                    ;* --------------------------------------------------------------------------*
    2092                            .dwpsn  file "C:/TI_ARM_Tiva_Projects/Source/queue.c",line 1257,column 4,is_stmt,isa 1
    2093 000003d6 9904              LDR       A2, [SP, #16]         ; [DPU_3_PIPE] |1257|  ; [ORIG 16-BIT INS]
    2094 000003d8 6B88              LDR       A1, [A2, #56]         ; [DPU_3_PIPE] |1257|  ; [ORIG 16-BIT INS]
    2095 000003da 1C40              ADDS      A1, A1, #1            ; [DPU_3_PIPE] |1257|  ; [ORIG 16-BIT INS]
    2096 000003dc 6388              STR       A1, [A2, #56]         ; [DPU_3_PIPE] |1257|  ; [ORIG 16-BIT INS]
    2097                            .dwpsn  file "C:/TI_ARM_Tiva_Projects/Source/queue.c",line 1261,column 4,is_stmt,isa 1
    2098 000003de 9804              LDR       A1, [SP, #16]         ; [DPU_3_PIPE] |1261|  ; [ORIG 16-BIT INS]
    2099 000003e0 6C80              LDR       A1, [A1, #72]         ; [DPU_3_PIPE] |1261|  ; [ORIG 16-BIT INS]
    2100 000003e2 3FFFF1B0          CMP       A1, #-1               ; [DPU_3_PIPE] |1261|  ; [KEEP 32-BIT INS]
    2101 000003e6 D110              BNE       ||$C$L36||            ; [DPU_3_PIPE] |1261|  ; [ORIG 16-BIT INS]
    2102                            ; BRANCHCC OCCURS {||$C$L36||}   ; [] |1261| 
    2103                    ;* --------------------------------------------------------------------------*
    2104                            .dwpsn  file "C:/TI_ARM_Tiva_Projects/Source/queue.c",line 1316,column 6,is_stmt,isa 1
    2105 000003e8 9804              LDR       A1, [SP, #16]         ; [DPU_3_PIPE] |1316|  ; [ORIG 16-BIT INS]
    2106 000003ea 6A41              LDR       A2, [A1, #36]         ; [DPU_3_PIPE] |1316|  ; [ORIG 16-BIT INS]
    2107 000003ec 2000              MOVS      A1, #0                ; [DPU_3_PIPE] |1316|  ; [ORIG 16-BIT INS]
    2108 000003ee B901              CBNZ      A2, ||$C$L35||        ; []  ; [ORIG 16-BIT INS]
    2109                            ; BRANCHCC OCCURS {||$C$L35||}   ; [] |1316| 
    2110                    ;* --------------------------------------------------------------------------*
    2111 000003f0 2001              MOVS      A1, #1                ; [DPU_3_PIPE] |1316|  ; [ORIG 16-BIT INS]
    2112                    ;* --------------------------------------------------------------------------*
    2113 000003f2           ||$C$L35||:    
    2114 000003f2 B970              CBNZ      A1, ||$C$L37||        ; []  ; [ORIG 16-BIT INS]
    2115                            ; BRANCHCC OCCURS {||$C$L37||}   ; [] |1316| 
    2116                    ;* --------------------------------------------------------------------------*
    2117                            .dwpsn  file "C:/TI_ARM_Tiva_Projects/Source/queue.c",line 1318,column 7,is_stmt,isa 1
    2118 000003f4 9804              LDR       A1, [SP, #16]         ; [DPU_3_PIPE] |1318|  ; [ORIG 16-BIT INS]
    2119 000003f6 3024              ADDS      A1, A1, #36           ; [DPU_3_PIPE] |1318|  ; [ORIG 16-BIT INS]
    2120                    $C$DW$155       .dwtag  DW_TAG_TI_branch
    2121                            .dwattr $C$DW$155, DW_AT_low_pc(0x00)
    2122                            .dwattr $C$DW$155, DW_AT_name("xTaskRemoveFromEventList")
    2123                            .dwattr $C$DW$155, DW_AT_TI_call
    2124                    
    2125 000003f8 FFFEF7FF!         BL        xTaskRemoveFromEventList ; [DPU_3_PIPE] |1318|  ; [KEEP 32-BIT INS]
    2126                            ; CALL OCCURS {xTaskRemoveFromEventList }  ; [] |1318| 
    2127 000003fc B148              CBZ       A1, ||$C$L37||        ; []  ; [ORIG 16-BIT INS]
    2128                            ; BRANCHCC OCCURS {||$C$L37||}   ; [] |1318| 
    2129                    ;* --------------------------------------------------------------------------*
    2130                            .dwpsn  file "C:/TI_ARM_Tiva_Projects/Source/queue.c",line 1322,column 8,is_stmt,isa 1
    2131 000003fe 9801              LDR       A1, [SP, #4]          ; [DPU_3_PIPE] |1322|  ; [ORIG 16-BIT INS]
    2132 00000400 B138              CBZ       A1, ||$C$L37||        ; []  ; [ORIG 16-BIT INS]
    2133                            ; BRANCHCC OCCURS {||$C$L37||}   ; [] |1322| 
    2134                    ;* --------------------------------------------------------------------------*
    2135                            .dwpsn  file "C:/TI_ARM_Tiva_Projects/Source/queue.c",line 1324,column 9,is_stmt,isa 1
    2136 00000402 9801              LDR       A1, [SP, #4]          ; [DPU_3_PIPE] |1324|  ; [ORIG 16-BIT INS]
    2137 00000404 2101              MOVS      A2, #1                ; [DPU_3_PIPE] |1324|  ; [ORIG 16-BIT INS]
    2138 00000406 6001              STR       A2, [A1, #0]          ; [DPU_3_PIPE] |1324|  ; [ORIG 16-BIT INS]
    2139                            .dwpsn  file "C:/TI_ARM_Tiva_Projects/Source/queue.c",line 1325,column 8,is_stmt,isa 1
    2140 00000408 E003              B         ||$C$L37||            ; [DPU_3_PIPE] |1325|  ; [ORIG 16-BIT INS]
    2141                            ; BRANCH OCCURS {||$C$L37||}     ; [] |1325| 
    2142                    ;* --------------------------------------------------------------------------*
    2143                    ;* --------------------------------------------------------------------------*
    2144 0000040a           ||$C$L36||:    
    2145                            .dwpsn  file "C:/TI_ARM_Tiva_Projects/Source/queue.c",line 1347,column 5,is_stmt,isa 1
TI ARM Assembler PC v15.12.1 Tue Oct 18 10:42:33 2016

Tools Copyright (c) 1996-2015 Texas Instruments Incorporated
queue.asm                                                            PAGE   40

    2146 0000040a 9904              LDR       A2, [SP, #16]         ; [DPU_3_PIPE] |1347|  ; [ORIG 16-BIT INS]
    2147 0000040c 6C88              LDR       A1, [A2, #72]         ; [DPU_3_PIPE] |1347|  ; [ORIG 16-BIT INS]
    2148 0000040e 1C40              ADDS      A1, A1, #1            ; [DPU_3_PIPE] |1347|  ; [ORIG 16-BIT INS]
    2149 00000410 6488              STR       A1, [A2, #72]         ; [DPU_3_PIPE] |1347|  ; [ORIG 16-BIT INS]
    2150                    ;* --------------------------------------------------------------------------*
    2151 00000412           ||$C$L37||:    
    2152                            .dwpsn  file "C:/TI_ARM_Tiva_Projects/Source/queue.c",line 1350,column 4,is_stmt,isa 1
    2153 00000412 2001              MOVS      A1, #1                ; [DPU_3_PIPE] |1350|  ; [ORIG 16-BIT INS]
    2154 00000414 9002              STR       A1, [SP, #8]          ; [DPU_3_PIPE] |1350|  ; [ORIG 16-BIT INS]
    2155                            .dwpsn  file "C:/TI_ARM_Tiva_Projects/Source/queue.c",line 1351,column 3,is_stmt,isa 1
    2156 00000416 E001              B         ||$C$L39||            ; [DPU_3_PIPE] |1351|  ; [ORIG 16-BIT INS]
    2157                            ; BRANCH OCCURS {||$C$L39||}     ; [] |1351| 
    2158                    ;* --------------------------------------------------------------------------*
    2159 00000418           ||$C$L38||:    
    2160                            .dwpsn  file "C:/TI_ARM_Tiva_Projects/Source/queue.c",line 1355,column 4,is_stmt,isa 1
    2161 00000418 2000              MOVS      A1, #0                ; [DPU_3_PIPE] |1355|  ; [ORIG 16-BIT INS]
    2162 0000041a 9002              STR       A1, [SP, #8]          ; [DPU_3_PIPE] |1355|  ; [ORIG 16-BIT INS]
    2163                    ;* --------------------------------------------------------------------------*
    2164 0000041c           ||$C$L39||:    
    2165                            .dwpsn  file "C:/TI_ARM_Tiva_Projects/Source/queue.c",line 1358,column 2,is_stmt,isa 1
    2166 0000041c 9803              LDR       A1, [SP, #12]         ; [DPU_3_PIPE] |1358|  ; [ORIG 16-BIT INS]
    2167 0000041e 8811F380          MSR       BASEPRI, A1           ; [DPU_3_PIPE] |1358|  ; [KEEP 32-BIT INS]
    2168                            .dwpsn  file "C:/TI_ARM_Tiva_Projects/Source/queue.c",line 1360,column 2,is_stmt,isa 1
    2169 00000422 9802              LDR       A1, [SP, #8]          ; [DPU_3_PIPE] |1360|  ; [ORIG 16-BIT INS]
    2170                            .dwpsn  file "C:/TI_ARM_Tiva_Projects/Source/queue.c",line 1361,column 1,is_stmt,isa 1
    2171 00000424 B005              ADD       SP, SP, #20           ; [DPU_3_PIPE]  ; [ORIG 16-BIT INS]
    2172                            .dwcfi  cfa_offset, 4
    2173                    $C$DW$156       .dwtag  DW_TAG_TI_branch
    2174                            .dwattr $C$DW$156, DW_AT_low_pc(0x00)
    2175                            .dwattr $C$DW$156, DW_AT_TI_return
    2176                    
    2177 00000426 BD00              POP       {PC}                  ; [DPU_3_PIPE]  ; [ORIG 16-BIT INS]
    2178                            .dwcfi  cfa_offset, 0
    2179                            ; BRANCH OCCURS                  ; [] 
    2180                            .dwattr $C$DW$147, DW_AT_TI_end_file("C:/TI_ARM_Tiva_Projects/Source/queue.c")
    2181                            .dwattr $C$DW$147, DW_AT_TI_end_line(0x551)
    2182                            .dwattr $C$DW$147, DW_AT_TI_end_column(0x01)
    2183                            .dwendentry
    2184                            .dwendtag $C$DW$147
    2185                    
    2186 00000428                   .sect   ".text"
    2187                            .clink
    2188                            .thumbfunc xQueueGenericReceive
    2189 00000428                   .thumb
    2190                            .global xQueueGenericReceive
    2191                    
    2192                    $C$DW$157       .dwtag  DW_TAG_subprogram
    2193                            .dwattr $C$DW$157, DW_AT_name("xQueueGenericReceive")
    2194                            .dwattr $C$DW$157, DW_AT_low_pc(xQueueGenericReceive)
    2195                            .dwattr $C$DW$157, DW_AT_high_pc(0x00)
    2196                            .dwattr $C$DW$157, DW_AT_TI_symbol_name("xQueueGenericReceive")
    2197                            .dwattr $C$DW$157, DW_AT_external
    2198                            .dwattr $C$DW$157, DW_AT_type(*$C$DW$T$39)
    2199                            .dwattr $C$DW$157, DW_AT_TI_begin_file("C:/TI_ARM_Tiva_Projects/Source/queue.c")
    2200                            .dwattr $C$DW$157, DW_AT_TI_begin_line(0x554)
TI ARM Assembler PC v15.12.1 Tue Oct 18 10:42:33 2016

Tools Copyright (c) 1996-2015 Texas Instruments Incorporated
queue.asm                                                            PAGE   41

    2201                            .dwattr $C$DW$157, DW_AT_TI_begin_column(0x0c)
    2202                            .dwattr $C$DW$157, DW_AT_decl_file("C:/TI_ARM_Tiva_Projects/Source/queue.c")
    2203                            .dwattr $C$DW$157, DW_AT_decl_line(0x554)
    2204                            .dwattr $C$DW$157, DW_AT_decl_column(0x0c)
    2205                            .dwattr $C$DW$157, DW_AT_TI_max_frame_size(0x30)
    2206                            .dwpsn  file "C:/TI_ARM_Tiva_Projects/Source/queue.c",line 1365,column 1,is_stmt,address xQueu
    2207                    
    2208                            .dwfde $C$DW$CIE, xQueueGenericReceive
    2209                    $C$DW$158       .dwtag  DW_TAG_formal_parameter
    2210                            .dwattr $C$DW$158, DW_AT_name("xQueue")
    2211                            .dwattr $C$DW$158, DW_AT_TI_symbol_name("xQueue")
    2212                            .dwattr $C$DW$158, DW_AT_type(*$C$DW$T$34)
    2213                            .dwattr $C$DW$158, DW_AT_location[DW_OP_reg0]
    2214                    
    2215                    $C$DW$159       .dwtag  DW_TAG_formal_parameter
    2216                            .dwattr $C$DW$159, DW_AT_name("pvBuffer")
    2217                            .dwattr $C$DW$159, DW_AT_TI_symbol_name("pvBuffer")
    2218                            .dwattr $C$DW$159, DW_AT_type(*$C$DW$T$104)
    2219                            .dwattr $C$DW$159, DW_AT_location[DW_OP_reg1]
    2220                    
    2221                    $C$DW$160       .dwtag  DW_TAG_formal_parameter
    2222                            .dwattr $C$DW$160, DW_AT_name("xTicksToWait")
    2223                            .dwattr $C$DW$160, DW_AT_TI_symbol_name("xTicksToWait")
    2224                            .dwattr $C$DW$160, DW_AT_type(*$C$DW$T$47)
    2225                            .dwattr $C$DW$160, DW_AT_location[DW_OP_reg2]
    2226                    
    2227                    $C$DW$161       .dwtag  DW_TAG_formal_parameter
    2228                            .dwattr $C$DW$161, DW_AT_name("xJustPeeking")
    2229                            .dwattr $C$DW$161, DW_AT_TI_symbol_name("xJustPeeking")
    2230                            .dwattr $C$DW$161, DW_AT_type(*$C$DW$T$116)
    2231                            .dwattr $C$DW$161, DW_AT_location[DW_OP_reg3]
    2232                    
    2233                    
    2234                    ;*****************************************************************************
    2235                    ;* FUNCTION NAME: xQueueGenericReceive                                       *
    2236                    ;*                                                                           *
    2237                    ;*   Regs Modified     : A1,A2,A3,A4,V9,SP,LR,SR,D0,D0_hi,D1,D1_hi,D2,D2_hi, *
    2238                    ;*                           D3,D3_hi,D4,D4_hi,D5,D5_hi,D6,D6_hi,D7,D7_hi,   *
    2239                    ;*                           FPEXC,FPSCR                                     *
    2240                    ;*   Regs Used         : A1,A2,A3,A4,V9,SP,LR,SR,D0,D0_hi,D1,D1_hi,D2,D2_hi, *
    2241                    ;*                           D3,D3_hi,D4,D4_hi,D5,D5_hi,D6,D6_hi,D7,D7_hi,   *
    2242                    ;*                           FPEXC,FPSCR                                     *
    2243                    ;*   Local Frame Size  : 0 Args + 40 Auto + 4 Save = 44 byte                 *
    2244                    ;*****************************************************************************
    2245 00000428           xQueueGenericReceive:
    2246                    ;* --------------------------------------------------------------------------*
    2247                            .dwcfi  cfa_offset, 0
    2248 00000428 B500              PUSH      {LR}                  ; [DPU_3_PIPE]  ; [ORIG 16-BIT INS]
    2249                            .dwcfi  cfa_offset, 4
    2250                            .dwcfi  save_reg_to_mem, 14, -4
    2251 0000042a 0D2CF1AD          SUB       SP, SP, #44           ; [DPU_3_PIPE]  ; [KEEP 32-BIT INS]
    2252                            .dwcfi  cfa_offset, 48
    2253                    $C$DW$162       .dwtag  DW_TAG_variable
    2254                            .dwattr $C$DW$162, DW_AT_name("xQueue")
    2255                            .dwattr $C$DW$162, DW_AT_TI_symbol_name("xQueue")
TI ARM Assembler PC v15.12.1 Tue Oct 18 10:42:33 2016

Tools Copyright (c) 1996-2015 Texas Instruments Incorporated
queue.asm                                                            PAGE   42

    2256                            .dwattr $C$DW$162, DW_AT_type(*$C$DW$T$34)
    2257                            .dwattr $C$DW$162, DW_AT_location[DW_OP_breg13 0]
    2258                    
    2259                    $C$DW$163       .dwtag  DW_TAG_variable
    2260                            .dwattr $C$DW$163, DW_AT_name("pvBuffer")
    2261                            .dwattr $C$DW$163, DW_AT_TI_symbol_name("pvBuffer")
    2262                            .dwattr $C$DW$163, DW_AT_type(*$C$DW$T$104)
    2263                            .dwattr $C$DW$163, DW_AT_location[DW_OP_breg13 4]
    2264                    
    2265                    $C$DW$164       .dwtag  DW_TAG_variable
    2266                            .dwattr $C$DW$164, DW_AT_name("xTicksToWait")
    2267                            .dwattr $C$DW$164, DW_AT_TI_symbol_name("xTicksToWait")
    2268                            .dwattr $C$DW$164, DW_AT_type(*$C$DW$T$47)
    2269                            .dwattr $C$DW$164, DW_AT_location[DW_OP_breg13 8]
    2270                    
    2271                    $C$DW$165       .dwtag  DW_TAG_variable
    2272                            .dwattr $C$DW$165, DW_AT_name("xJustPeeking")
    2273                            .dwattr $C$DW$165, DW_AT_TI_symbol_name("xJustPeeking")
    2274                            .dwattr $C$DW$165, DW_AT_type(*$C$DW$T$116)
    2275                            .dwattr $C$DW$165, DW_AT_location[DW_OP_breg13 12]
    2276                    
    2277                    $C$DW$166       .dwtag  DW_TAG_variable
    2278                            .dwattr $C$DW$166, DW_AT_name("xEntryTimeSet")
    2279                            .dwattr $C$DW$166, DW_AT_TI_symbol_name("xEntryTimeSet")
    2280                            .dwattr $C$DW$166, DW_AT_type(*$C$DW$T$39)
    2281                            .dwattr $C$DW$166, DW_AT_location[DW_OP_breg13 16]
    2282                    
    2283                    $C$DW$167       .dwtag  DW_TAG_variable
    2284                            .dwattr $C$DW$167, DW_AT_name("xTimeOut")
    2285                            .dwattr $C$DW$167, DW_AT_TI_symbol_name("xTimeOut")
    2286                            .dwattr $C$DW$167, DW_AT_type(*$C$DW$T$119)
    2287                            .dwattr $C$DW$167, DW_AT_location[DW_OP_breg13 24]
    2288                    
    2289                    $C$DW$168       .dwtag  DW_TAG_variable
    2290                            .dwattr $C$DW$168, DW_AT_name("pcOriginalReadPosition")
    2291                            .dwattr $C$DW$168, DW_AT_TI_symbol_name("pcOriginalReadPosition")
    2292                            .dwattr $C$DW$168, DW_AT_type(*$C$DW$T$23)
    2293                            .dwattr $C$DW$168, DW_AT_location[DW_OP_breg13 32]
    2294                    
    2295                    $C$DW$169       .dwtag  DW_TAG_variable
    2296                            .dwattr $C$DW$169, DW_AT_name("pxQueue")
    2297                            .dwattr $C$DW$169, DW_AT_TI_symbol_name("pxQueue")
    2298                            .dwattr $C$DW$169, DW_AT_type(*$C$DW$T$84)
    2299                            .dwattr $C$DW$169, DW_AT_location[DW_OP_breg13 36]
    2300                    
    2301 0000042e 9303              STR       A4, [SP, #12]         ; [DPU_3_PIPE] |1365|  ; [ORIG 16-BIT INS]
    2302 00000430 9202              STR       A3, [SP, #8]          ; [DPU_3_PIPE] |1365|  ; [ORIG 16-BIT INS]
    2303 00000432 9101              STR       A2, [SP, #4]          ; [DPU_3_PIPE] |1365|  ; [ORIG 16-BIT INS]
    2304 00000434 9000              STR       A1, [SP, #0]          ; [DPU_3_PIPE] |1365|  ; [ORIG 16-BIT INS]
    2305                            .dwpsn  file "C:/TI_ARM_Tiva_Projects/Source/queue.c",line 1366,column 26,is_stmt,isa 1
    2306 00000436 2000              MOVS      A1, #0                ; [DPU_3_PIPE] |1366|  ; [ORIG 16-BIT INS]
    2307 00000438 9004              STR       A1, [SP, #16]         ; [DPU_3_PIPE] |1366|  ; [ORIG 16-BIT INS]
    2308                            .dwpsn  file "C:/TI_ARM_Tiva_Projects/Source/queue.c",line 1369,column 25,is_stmt,isa 1
    2309 0000043a 9800              LDR       A1, [SP, #0]          ; [DPU_3_PIPE] |1369|  ; [ORIG 16-BIT INS]
    2310 0000043c 9009              STR       A1, [SP, #36]         ; [DPU_3_PIPE] |1369|  ; [ORIG 16-BIT INS]
TI ARM Assembler PC v15.12.1 Tue Oct 18 10:42:33 2016

Tools Copyright (c) 1996-2015 Texas Instruments Incorporated
queue.asm                                                            PAGE   43

    2311                    ;* --------------------------------------------------------------------------*
    2312                    ;*   BEGIN LOOP ||$C$L40||
    2313                    ;*
    2314                    ;*   Loop source line                : 1383
    2315                    ;*   Loop closing brace source line  : 1547
    2316                    ;*   Known Minimum Trip Count        : 1
    2317                    ;*   Known Maximum Trip Count        : 4294967295
    2318                    ;*   Known Max Trip Count Factor     : 1
    2319                    ;* --------------------------------------------------------------------------*
    2320 0000043e           ||$C$L40||:    
    2321                            .dwpsn  file "C:/TI_ARM_Tiva_Projects/Source/queue.c",line 1385,column 3,is_stmt,isa 1
    2322                    $C$DW$170       .dwtag  DW_TAG_TI_branch
    2323                            .dwattr $C$DW$170, DW_AT_low_pc(0x00)
    2324                            .dwattr $C$DW$170, DW_AT_name("vPortEnterCritical")
    2325                            .dwattr $C$DW$170, DW_AT_TI_call
    2326                    
    2327 0000043e FFFEF7FF!         BL        vPortEnterCritical    ; [DPU_3_PIPE] |1385|  ; [KEEP 32-BIT INS]
    2328                            ; CALL OCCURS {vPortEnterCritical }  ; [] |1385| 
    2329                            .dwpsn  file "C:/TI_ARM_Tiva_Projects/Source/queue.c",line 1389,column 4,is_stmt,isa 1
    2330 00000442 9809              LDR       A1, [SP, #36]         ; [DPU_3_PIPE] |1389|  ; [ORIG 16-BIT INS]
    2331 00000444 6B80              LDR       A1, [A1, #56]         ; [DPU_3_PIPE] |1389|  ; [ORIG 16-BIT INS]
    2332 00000446 2800              CMP       A1, #0                ; [DPU_3_PIPE] |1389|  ; [ORIG 16-BIT INS]
    2333 00000448 D033              BEQ       ||$C$L46||            ; [DPU_3_PIPE] |1389|  ; [ORIG 16-BIT INS]
    2334                            ; BRANCHCC OCCURS {||$C$L46||}   ; [] |1389| 
    2335                    ;* --------------------------------------------------------------------------*
    2336                            .dwpsn  file "C:/TI_ARM_Tiva_Projects/Source/queue.c",line 1393,column 5,is_stmt,isa 1
    2337 0000044a 9809              LDR       A1, [SP, #36]         ; [DPU_3_PIPE] |1393|  ; [ORIG 16-BIT INS]
    2338 0000044c 68C0              LDR       A1, [A1, #12]         ; [DPU_3_PIPE] |1393|  ; [ORIG 16-BIT INS]
    2339 0000044e 9008              STR       A1, [SP, #32]         ; [DPU_3_PIPE] |1393|  ; [ORIG 16-BIT INS]
    2340                            .dwpsn  file "C:/TI_ARM_Tiva_Projects/Source/queue.c",line 1395,column 5,is_stmt,isa 1
    2341 00000450 9901              LDR       A2, [SP, #4]          ; [DPU_3_PIPE] |1395|  ; [ORIG 16-BIT INS]
    2342 00000452 9809              LDR       A1, [SP, #36]         ; [DPU_3_PIPE] |1395|  ; [ORIG 16-BIT INS]
    2343                    $C$DW$171       .dwtag  DW_TAG_TI_branch
    2344                            .dwattr $C$DW$171, DW_AT_low_pc(0x00)
    2345                            .dwattr $C$DW$171, DW_AT_name("prvCopyDataFromQueue")
    2346                            .dwattr $C$DW$171, DW_AT_TI_call
    2347                    
    2348 00000454 F99DF000          BL        prvCopyDataFromQueue  ; [DPU_3_PIPE] |1395|  ; [KEEP 32-BIT INS]
    2349                            ; CALL OCCURS {prvCopyDataFromQueue }  ; [] |1395| 
    2350                            .dwpsn  file "C:/TI_ARM_Tiva_Projects/Source/queue.c",line 1397,column 5,is_stmt,isa 1
    2351 00000458 9803              LDR       A1, [SP, #12]         ; [DPU_3_PIPE] |1397|  ; [ORIG 16-BIT INS]
    2352 0000045a B9B8              CBNZ      A1, ||$C$L43||        ; []  ; [ORIG 16-BIT INS]
    2353                            ; BRANCHCC OCCURS {||$C$L43||}   ; [] |1397| 
    2354                    ;* --------------------------------------------------------------------------*
    2355                            .dwpsn  file "C:/TI_ARM_Tiva_Projects/Source/queue.c",line 1402,column 6,is_stmt,isa 1
    2356 0000045c 9909              LDR       A2, [SP, #36]         ; [DPU_3_PIPE] |1402|  ; [ORIG 16-BIT INS]
    2357 0000045e 6B88              LDR       A1, [A2, #56]         ; [DPU_3_PIPE] |1402|  ; [ORIG 16-BIT INS]
    2358 00000460 1E40              SUBS      A1, A1, #1            ; [DPU_3_PIPE] |1402|  ; [ORIG 16-BIT INS]
    2359 00000462 6388              STR       A1, [A2, #56]         ; [DPU_3_PIPE] |1402|  ; [ORIG 16-BIT INS]
    2360                            .dwpsn  file "C:/TI_ARM_Tiva_Projects/Source/queue.c",line 1406,column 7,is_stmt,isa 1
    2361 00000464 9809              LDR       A1, [SP, #36]         ; [DPU_3_PIPE] |1406|  ; [ORIG 16-BIT INS]
    2362 00000466 6800              LDR       A1, [A1, #0]          ; [DPU_3_PIPE] |1406|  ; [ORIG 16-BIT INS]
    2363 00000468 B918              CBNZ      A1, ||$C$L41||        ; []  ; [ORIG 16-BIT INS]
    2364                            ; BRANCHCC OCCURS {||$C$L41||}   ; [] |1406| 
    2365                    ;* --------------------------------------------------------------------------*
TI ARM Assembler PC v15.12.1 Tue Oct 18 10:42:33 2016

Tools Copyright (c) 1996-2015 Texas Instruments Incorporated
queue.asm                                                            PAGE   44

    2366                            .dwpsn  file "C:/TI_ARM_Tiva_Projects/Source/queue.c",line 1410,column 8,is_stmt,isa 1
    2367                    $C$DW$172       .dwtag  DW_TAG_TI_branch
    2368                            .dwattr $C$DW$172, DW_AT_low_pc(0x00)
    2369                            .dwattr $C$DW$172, DW_AT_name("pvTaskIncrementMutexHeldCount")
    2370                            .dwattr $C$DW$172, DW_AT_TI_call
    2371                    
    2372 0000046a FFFEF7FF!         BL        pvTaskIncrementMutexHeldCount ; [DPU_3_PIPE] |1410|  ; [KEEP 32-BIT INS]
    2373                            ; CALL OCCURS {pvTaskIncrementMutexHeldCount }  ; [] |1410| 
    2374 0000046e 9909              LDR       A2, [SP, #36]         ; [DPU_3_PIPE] |1410|  ; [ORIG 16-BIT INS]
    2375 00000470 6048              STR       A1, [A2, #4]          ; [DPU_3_PIPE] |1410|  ; [ORIG 16-BIT INS]
    2376                            .dwpsn  file "C:/TI_ARM_Tiva_Projects/Source/queue.c",line 1411,column 7,is_stmt,isa 1
    2377                    ;* --------------------------------------------------------------------------*
    2378 00000472           ||$C$L41||:    
    2379                            .dwpsn  file "C:/TI_ARM_Tiva_Projects/Source/queue.c",line 1419,column 6,is_stmt,isa 1
    2380 00000472 9809              LDR       A1, [SP, #36]         ; [DPU_3_PIPE] |1419|  ; [ORIG 16-BIT INS]
    2381 00000474 6901              LDR       A2, [A1, #16]         ; [DPU_3_PIPE] |1419|  ; [ORIG 16-BIT INS]
    2382 00000476 2000              MOVS      A1, #0                ; [DPU_3_PIPE] |1419|  ; [ORIG 16-BIT INS]
    2383 00000478 B901              CBNZ      A2, ||$C$L42||        ; []  ; [ORIG 16-BIT INS]
    2384                            ; BRANCHCC OCCURS {||$C$L42||}   ; [] |1419| 
    2385                    ;* --------------------------------------------------------------------------*
    2386 0000047a 2001              MOVS      A1, #1                ; [DPU_3_PIPE] |1419|  ; [ORIG 16-BIT INS]
    2387                    ;* --------------------------------------------------------------------------*
    2388 0000047c           ||$C$L42||:    
    2389 0000047c B9A8              CBNZ      A1, ||$C$L45||        ; []  ; [ORIG 16-BIT INS]
    2390                            ; BRANCHCC OCCURS {||$C$L45||}   ; [] |1419| 
    2391                    ;* --------------------------------------------------------------------------*
    2392                            .dwpsn  file "C:/TI_ARM_Tiva_Projects/Source/queue.c",line 1421,column 7,is_stmt,isa 1
    2393 0000047e 9809              LDR       A1, [SP, #36]         ; [DPU_3_PIPE] |1421|  ; [ORIG 16-BIT INS]
    2394 00000480 3010              ADDS      A1, A1, #16           ; [DPU_3_PIPE] |1421|  ; [ORIG 16-BIT INS]
    2395                    $C$DW$173       .dwtag  DW_TAG_TI_branch
    2396                            .dwattr $C$DW$173, DW_AT_low_pc(0x00)
    2397                            .dwattr $C$DW$173, DW_AT_name("xTaskRemoveFromEventList")
    2398                            .dwattr $C$DW$173, DW_AT_TI_call
    2399                    
    2400 00000482 FFFEF7FF!         BL        xTaskRemoveFromEventList ; [DPU_3_PIPE] |1421|  ; [KEEP 32-BIT INS]
    2401                            ; CALL OCCURS {xTaskRemoveFromEventList }  ; [] |1421| 
    2402 00000486 2801              CMP       A1, #1                ; [DPU_3_PIPE] |1421|  ; [ORIG 16-BIT INS]
    2403 00000488 D00F              BEQ       ||$C$L45||            ; [DPU_3_PIPE] |1421|  ; [ORIG 16-BIT INS]
    2404                            ; BRANCHCC OCCURS {||$C$L45||}   ; [] |1421| 
    2405                    ;* --------------------------------------------------------------------------*
    2406                            .dwpsn  file "C:/TI_ARM_Tiva_Projects/Source/queue.c",line 1424,column 7,is_stmt,isa 1
    2407                            .dwpsn  file "C:/TI_ARM_Tiva_Projects/Source/queue.c",line 1429,column 6,is_stmt,isa 1
    2408 0000048a E00E              B         ||$C$L45||            ; [DPU_3_PIPE] |1429|  ; [ORIG 16-BIT INS]
    2409                            ; BRANCH OCCURS {||$C$L45||}     ; [] |1429| 
    2410                    ;* --------------------------------------------------------------------------*
    2411                    ;* --------------------------------------------------------------------------*
    2412 0000048c           ||$C$L43||:    
    2413                            .dwpsn  file "C:/TI_ARM_Tiva_Projects/Source/queue.c",line 1441,column 6,is_stmt,isa 1
    2414 0000048c 9808              LDR       A1, [SP, #32]         ; [DPU_3_PIPE] |1441|  ; [ORIG 16-BIT INS]
    2415 0000048e 9909              LDR       A2, [SP, #36]         ; [DPU_3_PIPE] |1441|  ; [ORIG 16-BIT INS]
    2416 00000490 60C8              STR       A1, [A2, #12]         ; [DPU_3_PIPE] |1441|  ; [ORIG 16-BIT INS]
    2417                            .dwpsn  file "C:/TI_ARM_Tiva_Projects/Source/queue.c",line 1445,column 6,is_stmt,isa 1
    2418 00000492 9809              LDR       A1, [SP, #36]         ; [DPU_3_PIPE] |1445|  ; [ORIG 16-BIT INS]
    2419 00000494 6A41              LDR       A2, [A1, #36]         ; [DPU_3_PIPE] |1445|  ; [ORIG 16-BIT INS]
    2420 00000496 2000              MOVS      A1, #0                ; [DPU_3_PIPE] |1445|  ; [ORIG 16-BIT INS]
TI ARM Assembler PC v15.12.1 Tue Oct 18 10:42:33 2016

Tools Copyright (c) 1996-2015 Texas Instruments Incorporated
queue.asm                                                            PAGE   45

    2421 00000498 B901              CBNZ      A2, ||$C$L44||        ; []  ; [ORIG 16-BIT INS]
    2422                            ; BRANCHCC OCCURS {||$C$L44||}   ; [] |1445| 
    2423                    ;* --------------------------------------------------------------------------*
    2424 0000049a 2001              MOVS      A1, #1                ; [DPU_3_PIPE] |1445|  ; [ORIG 16-BIT INS]
    2425                    ;* --------------------------------------------------------------------------*
    2426 0000049c           ||$C$L44||:    
    2427 0000049c B928              CBNZ      A1, ||$C$L45||        ; []  ; [ORIG 16-BIT INS]
    2428                            ; BRANCHCC OCCURS {||$C$L45||}   ; [] |1445| 
    2429                    ;* --------------------------------------------------------------------------*
    2430                            .dwpsn  file "C:/TI_ARM_Tiva_Projects/Source/queue.c",line 1447,column 7,is_stmt,isa 1
    2431 0000049e 9809              LDR       A1, [SP, #36]         ; [DPU_3_PIPE] |1447|  ; [ORIG 16-BIT INS]
    2432 000004a0 3024              ADDS      A1, A1, #36           ; [DPU_3_PIPE] |1447|  ; [ORIG 16-BIT INS]
    2433                    $C$DW$174       .dwtag  DW_TAG_TI_branch
    2434                            .dwattr $C$DW$174, DW_AT_low_pc(0x00)
    2435                            .dwattr $C$DW$174, DW_AT_name("xTaskRemoveFromEventList")
    2436                            .dwattr $C$DW$174, DW_AT_TI_call
    2437                    
    2438 000004a2 FFFEF7FF!         BL        xTaskRemoveFromEventList ; [DPU_3_PIPE] |1447|  ; [KEEP 32-BIT INS]
    2439                            ; CALL OCCURS {xTaskRemoveFromEventList }  ; [] |1447| 
    2440 000004a6 2800              CMP       A1, #0                ; [DPU_3_PIPE] |1447|  ; [ORIG 16-BIT INS]
    2441 000004a8 D1FF              BNE       ||$C$L45||            ; [DPU_3_PIPE] |1447|  ; [ORIG 16-BIT INS]
    2442                            ; BRANCHCC OCCURS {||$C$L45||}   ; [] |1447| 
    2443                    ;* --------------------------------------------------------------------------*
    2444                            .dwpsn  file "C:/TI_ARM_Tiva_Projects/Source/queue.c",line 1451,column 7,is_stmt,isa 1
    2445                            .dwpsn  file "C:/TI_ARM_Tiva_Projects/Source/queue.c",line 1456,column 6,is_stmt,isa 1
    2446                    ;* --------------------------------------------------------------------------*
    2447 000004aa           ||$C$L45||:    
    2448                            .dwpsn  file "C:/TI_ARM_Tiva_Projects/Source/queue.c",line 1463,column 5,is_stmt,isa 1
    2449                    $C$DW$175       .dwtag  DW_TAG_TI_branch
    2450                            .dwattr $C$DW$175, DW_AT_low_pc(0x00)
    2451                            .dwattr $C$DW$175, DW_AT_name("vPortExitCritical")
    2452                            .dwattr $C$DW$175, DW_AT_TI_call
    2453                    
    2454 000004aa FFFEF7FF!         BL        vPortExitCritical     ; [DPU_3_PIPE] |1463|  ; [KEEP 32-BIT INS]
    2455                            ; CALL OCCURS {vPortExitCritical }  ; [] |1463| 
    2456                            .dwpsn  file "C:/TI_ARM_Tiva_Projects/Source/queue.c",line 1464,column 5,is_stmt,isa 1
    2457 000004ae 2001              MOVS      A1, #1                ; [DPU_3_PIPE] |1464|  ; [ORIG 16-BIT INS]
    2458 000004b0 E05A              B         ||$C$L54||            ; [DPU_3_PIPE] |1464|  ; [ORIG 16-BIT INS]
    2459                            ; BRANCH OCCURS {||$C$L54||}     ; [] |1464| 
    2460                    ;* --------------------------------------------------------------------------*
    2461                    ;* --------------------------------------------------------------------------*
    2462 000004b2           ||$C$L46||:    
    2463                            .dwpsn  file "C:/TI_ARM_Tiva_Projects/Source/queue.c",line 1468,column 5,is_stmt,isa 1
    2464 000004b2 9802              LDR       A1, [SP, #8]          ; [DPU_3_PIPE] |1468|  ; [ORIG 16-BIT INS]
    2465 000004b4 B918              CBNZ      A1, ||$C$L47||        ; []  ; [ORIG 16-BIT INS]
    2466                            ; BRANCHCC OCCURS {||$C$L47||}   ; [] |1468| 
    2467                    ;* --------------------------------------------------------------------------*
    2468                            .dwpsn  file "C:/TI_ARM_Tiva_Projects/Source/queue.c",line 1472,column 6,is_stmt,isa 1
    2469                    $C$DW$176       .dwtag  DW_TAG_TI_branch
    2470                            .dwattr $C$DW$176, DW_AT_low_pc(0x00)
    2471                            .dwattr $C$DW$176, DW_AT_name("vPortExitCritical")
    2472                            .dwattr $C$DW$176, DW_AT_TI_call
    2473                    
    2474 000004b6 FFFEF7FF!         BL        vPortExitCritical     ; [DPU_3_PIPE] |1472|  ; [KEEP 32-BIT INS]
    2475                            ; CALL OCCURS {vPortExitCritical }  ; [] |1472| 
TI ARM Assembler PC v15.12.1 Tue Oct 18 10:42:33 2016

Tools Copyright (c) 1996-2015 Texas Instruments Incorporated
queue.asm                                                            PAGE   46

    2476                            .dwpsn  file "C:/TI_ARM_Tiva_Projects/Source/queue.c",line 1474,column 6,is_stmt,isa 1
    2477 000004ba 2000              MOVS      A1, #0                ; [DPU_3_PIPE] |1474|  ; [ORIG 16-BIT INS]
    2478 000004bc E054              B         ||$C$L54||            ; [DPU_3_PIPE] |1474|  ; [ORIG 16-BIT INS]
    2479                            ; BRANCH OCCURS {||$C$L54||}     ; [] |1474| 
    2480                    ;* --------------------------------------------------------------------------*
    2481                    ;* --------------------------------------------------------------------------*
    2482 000004be           ||$C$L47||:    
    2483                            .dwpsn  file "C:/TI_ARM_Tiva_Projects/Source/queue.c",line 1476,column 10,is_stmt,isa 1
    2484 000004be 9804              LDR       A1, [SP, #16]         ; [DPU_3_PIPE] |1476|  ; [ORIG 16-BIT INS]
    2485 000004c0 B920              CBNZ      A1, ||$C$L48||        ; []  ; [ORIG 16-BIT INS]
    2486                            ; BRANCHCC OCCURS {||$C$L48||}   ; [] |1476| 
    2487                    ;* --------------------------------------------------------------------------*
    2488                            .dwpsn  file "C:/TI_ARM_Tiva_Projects/Source/queue.c",line 1480,column 6,is_stmt,isa 1
    2489 000004c2 A806              ADD       A1, SP, #24           ; [DPU_3_PIPE] |1480|  ; [ORIG 16-BIT INS]
    2490                    $C$DW$177       .dwtag  DW_TAG_TI_branch
    2491                            .dwattr $C$DW$177, DW_AT_low_pc(0x00)
    2492                            .dwattr $C$DW$177, DW_AT_name("vTaskSetTimeOutState")
    2493                            .dwattr $C$DW$177, DW_AT_TI_call
    2494                    
    2495 000004c4 FFFEF7FF!         BL        vTaskSetTimeOutState  ; [DPU_3_PIPE] |1480|  ; [KEEP 32-BIT INS]
    2496                            ; CALL OCCURS {vTaskSetTimeOutState }  ; [] |1480| 
    2497                            .dwpsn  file "C:/TI_ARM_Tiva_Projects/Source/queue.c",line 1481,column 6,is_stmt,isa 1
    2498 000004c8 2001              MOVS      A1, #1                ; [DPU_3_PIPE] |1481|  ; [ORIG 16-BIT INS]
    2499 000004ca 9004              STR       A1, [SP, #16]         ; [DPU_3_PIPE] |1481|  ; [ORIG 16-BIT INS]
    2500                            .dwpsn  file "C:/TI_ARM_Tiva_Projects/Source/queue.c",line 1482,column 5,is_stmt,isa 1
    2501                    ;* --------------------------------------------------------------------------*
    2502 000004cc           ||$C$L48||:    
    2503                            .dwpsn  file "C:/TI_ARM_Tiva_Projects/Source/queue.c",line 1490,column 3,is_stmt,isa 1
    2504                    $C$DW$178       .dwtag  DW_TAG_TI_branch
    2505                            .dwattr $C$DW$178, DW_AT_low_pc(0x00)
    2506                            .dwattr $C$DW$178, DW_AT_name("vPortExitCritical")
    2507                            .dwattr $C$DW$178, DW_AT_TI_call
    2508                    
    2509 000004cc FFFEF7FF!         BL        vPortExitCritical     ; [DPU_3_PIPE] |1490|  ; [KEEP 32-BIT INS]
    2510                            ; CALL OCCURS {vPortExitCritical }  ; [] |1490| 
    2511                            .dwpsn  file "C:/TI_ARM_Tiva_Projects/Source/queue.c",line 1495,column 3,is_stmt,isa 1
    2512                    $C$DW$179       .dwtag  DW_TAG_TI_branch
    2513                            .dwattr $C$DW$179, DW_AT_low_pc(0x00)
    2514                            .dwattr $C$DW$179, DW_AT_name("vTaskSuspendAll")
    2515                            .dwattr $C$DW$179, DW_AT_TI_call
    2516                    
    2517 000004d0 FFFEF7FF!         BL        vTaskSuspendAll       ; [DPU_3_PIPE] |1495|  ; [KEEP 32-BIT INS]
    2518                            ; CALL OCCURS {vTaskSuspendAll }  ; [] |1495| 
    2519                            .dwpsn  file "C:/TI_ARM_Tiva_Projects/Source/queue.c",line 1496,column 3,is_stmt,isa 1
    2520                    $C$DW$180       .dwtag  DW_TAG_TI_branch
    2521                            .dwattr $C$DW$180, DW_AT_low_pc(0x00)
    2522                            .dwattr $C$DW$180, DW_AT_name("vPortEnterCritical")
    2523                            .dwattr $C$DW$180, DW_AT_TI_call
    2524                    
    2525 000004d4 FFFEF7FF!         BL        vPortEnterCritical    ; [DPU_3_PIPE] |1496|  ; [KEEP 32-BIT INS]
    2526                            ; CALL OCCURS {vPortEnterCritical }  ; [] |1496| 
    2527 000004d8 9809              LDR       A1, [SP, #36]         ; [DPU_3_PIPE] |1496|  ; [ORIG 16-BIT INS]
    2528 000004da 6C40              LDR       A1, [A1, #68]         ; [DPU_3_PIPE] |1496|  ; [ORIG 16-BIT INS]
    2529 000004dc 3FFFF1B0          CMP       A1, #-1               ; [DPU_3_PIPE] |1496|  ; [KEEP 32-BIT INS]
    2530 000004e0 D102              BNE       ||$C$L49||            ; [DPU_3_PIPE] |1496|  ; [ORIG 16-BIT INS]
TI ARM Assembler PC v15.12.1 Tue Oct 18 10:42:33 2016

Tools Copyright (c) 1996-2015 Texas Instruments Incorporated
queue.asm                                                            PAGE   47

    2531                            ; BRANCHCC OCCURS {||$C$L49||}   ; [] |1496| 
    2532                    ;* --------------------------------------------------------------------------*
    2533 000004e2 9809              LDR       A1, [SP, #36]         ; [DPU_3_PIPE] |1496|  ; [ORIG 16-BIT INS]
    2534 000004e4 2100              MOVS      A2, #0                ; [DPU_3_PIPE] |1496|  ; [ORIG 16-BIT INS]
    2535 000004e6 6441              STR       A2, [A1, #68]         ; [DPU_3_PIPE] |1496|  ; [ORIG 16-BIT INS]
    2536                    ;* --------------------------------------------------------------------------*
    2537 000004e8           ||$C$L49||:    
    2538 000004e8 9809              LDR       A1, [SP, #36]         ; [DPU_3_PIPE] |1496|  ; [ORIG 16-BIT INS]
    2539 000004ea 6C80              LDR       A1, [A1, #72]         ; [DPU_3_PIPE] |1496|  ; [ORIG 16-BIT INS]
    2540 000004ec 3FFFF1B0          CMP       A1, #-1               ; [DPU_3_PIPE] |1496|  ; [KEEP 32-BIT INS]
    2541 000004f0 D102              BNE       ||$C$L50||            ; [DPU_3_PIPE] |1496|  ; [ORIG 16-BIT INS]
    2542                            ; BRANCHCC OCCURS {||$C$L50||}   ; [] |1496| 
    2543                    ;* --------------------------------------------------------------------------*
    2544 000004f2 9809              LDR       A1, [SP, #36]         ; [DPU_3_PIPE] |1496|  ; [ORIG 16-BIT INS]
    2545 000004f4 2100              MOVS      A2, #0                ; [DPU_3_PIPE] |1496|  ; [ORIG 16-BIT INS]
    2546 000004f6 6481              STR       A2, [A1, #72]         ; [DPU_3_PIPE] |1496|  ; [ORIG 16-BIT INS]
    2547                    ;* --------------------------------------------------------------------------*
    2548                    ||$C$L50||:    
    2549                    $C$DW$181       .dwtag  DW_TAG_TI_branch
    2550                            .dwattr $C$DW$181, DW_AT_low_pc(0x00)
    2551                            .dwattr $C$DW$181, DW_AT_name("vPortExitCritical")
    2552                            .dwattr $C$DW$181, DW_AT_TI_call
    2553                    
    2554 000004f8 FFFEF7FF!         BL        vPortExitCritical     ; [DPU_3_PIPE] |1496|  ; [KEEP 32-BIT INS]
    2555                            ; CALL OCCURS {vPortExitCritical }  ; [] |1496| 
    2556                            .dwpsn  file "C:/TI_ARM_Tiva_Projects/Source/queue.c",line 1499,column 3,is_stmt,isa 1
    2557 000004fc A806              ADD       A1, SP, #24           ; [DPU_3_PIPE] |1499|  ; [ORIG 16-BIT INS]
    2558 000004fe A902              ADD       A2, SP, #8            ; [DPU_3_PIPE] |1499|  ; [ORIG 16-BIT INS]
    2559                    $C$DW$182       .dwtag  DW_TAG_TI_branch
    2560                            .dwattr $C$DW$182, DW_AT_low_pc(0x00)
    2561                            .dwattr $C$DW$182, DW_AT_name("xTaskCheckForTimeOut")
    2562                            .dwattr $C$DW$182, DW_AT_TI_call
    2563                    
    2564 00000500 FFFEF7FF!         BL        xTaskCheckForTimeOut  ; [DPU_3_PIPE] |1499|  ; [KEEP 32-BIT INS]
    2565                            ; CALL OCCURS {xTaskCheckForTimeOut }  ; [] |1499| 
    2566 00000504 BB48              CBNZ      A1, ||$C$L53||        ; []  ; [ORIG 16-BIT INS]
    2567                            ; BRANCHCC OCCURS {||$C$L53||}   ; [] |1499| 
    2568                    ;* --------------------------------------------------------------------------*
    2569                            .dwpsn  file "C:/TI_ARM_Tiva_Projects/Source/queue.c",line 1501,column 4,is_stmt,isa 1
    2570 00000506 9809              LDR       A1, [SP, #36]         ; [DPU_3_PIPE] |1501|  ; [ORIG 16-BIT INS]
    2571                    $C$DW$183       .dwtag  DW_TAG_TI_branch
    2572                            .dwattr $C$DW$183, DW_AT_low_pc(0x00)
    2573                            .dwattr $C$DW$183, DW_AT_name("prvIsQueueEmpty")
    2574                            .dwattr $C$DW$183, DW_AT_TI_call
    2575                    
    2576 00000508 F9A2F000          BL        prvIsQueueEmpty       ; [DPU_3_PIPE] |1501|  ; [KEEP 32-BIT INS]
    2577                            ; CALL OCCURS {prvIsQueueEmpty }  ; [] |1501| 
    2578 0000050c B1F8              CBZ       A1, ||$C$L52||        ; []  ; [ORIG 16-BIT INS]
    2579                            ; BRANCHCC OCCURS {||$C$L52||}   ; [] |1501| 
    2580                    ;* --------------------------------------------------------------------------*
    2581                            .dwpsn  file "C:/TI_ARM_Tiva_Projects/Source/queue.c",line 1507,column 6,is_stmt,isa 1
    2582 0000050e 9809              LDR       A1, [SP, #36]         ; [DPU_3_PIPE] |1507|  ; [ORIG 16-BIT INS]
    2583 00000510 6800              LDR       A1, [A1, #0]          ; [DPU_3_PIPE] |1507|  ; [ORIG 16-BIT INS]
    2584 00000512 B938              CBNZ      A1, ||$C$L51||        ; []  ; [ORIG 16-BIT INS]
    2585                            ; BRANCHCC OCCURS {||$C$L51||}   ; [] |1507| 
TI ARM Assembler PC v15.12.1 Tue Oct 18 10:42:33 2016

Tools Copyright (c) 1996-2015 Texas Instruments Incorporated
queue.asm                                                            PAGE   48

    2586                    ;* --------------------------------------------------------------------------*
    2587                            .dwpsn  file "C:/TI_ARM_Tiva_Projects/Source/queue.c",line 1509,column 7,is_stmt,isa 1
    2588                    $C$DW$184       .dwtag  DW_TAG_TI_branch
    2589                            .dwattr $C$DW$184, DW_AT_low_pc(0x00)
    2590                            .dwattr $C$DW$184, DW_AT_name("vPortEnterCritical")
    2591                            .dwattr $C$DW$184, DW_AT_TI_call
    2592                    
    2593 00000514 FFFEF7FF!         BL        vPortEnterCritical    ; [DPU_3_PIPE] |1509|  ; [KEEP 32-BIT INS]
    2594                            ; CALL OCCURS {vPortEnterCritical }  ; [] |1509| 
    2595                            .dwpsn  file "C:/TI_ARM_Tiva_Projects/Source/queue.c",line 1511,column 8,is_stmt,isa 1
    2596 00000518 9809              LDR       A1, [SP, #36]         ; [DPU_3_PIPE] |1511|  ; [ORIG 16-BIT INS]
    2597 0000051a 6840              LDR       A1, [A1, #4]          ; [DPU_3_PIPE] |1511|  ; [ORIG 16-BIT INS]
    2598                    $C$DW$185       .dwtag  DW_TAG_TI_branch
    2599                            .dwattr $C$DW$185, DW_AT_low_pc(0x00)
    2600                            .dwattr $C$DW$185, DW_AT_name("vTaskPriorityInherit")
    2601                            .dwattr $C$DW$185, DW_AT_TI_call
    2602                    
    2603 0000051c FFFEF7FF!         BL        vTaskPriorityInherit  ; [DPU_3_PIPE] |1511|  ; [KEEP 32-BIT INS]
    2604                            ; CALL OCCURS {vTaskPriorityInherit }  ; [] |1511| 
    2605                            .dwpsn  file "C:/TI_ARM_Tiva_Projects/Source/queue.c",line 1513,column 7,is_stmt,isa 1
    2606                    $C$DW$186       .dwtag  DW_TAG_TI_branch
    2607                            .dwattr $C$DW$186, DW_AT_low_pc(0x00)
    2608                            .dwattr $C$DW$186, DW_AT_name("vPortExitCritical")
    2609                            .dwattr $C$DW$186, DW_AT_TI_call
    2610                    
    2611 00000520 FFFEF7FF!         BL        vPortExitCritical     ; [DPU_3_PIPE] |1513|  ; [KEEP 32-BIT INS]
    2612                            ; CALL OCCURS {vPortExitCritical }  ; [] |1513| 
    2613                            .dwpsn  file "C:/TI_ARM_Tiva_Projects/Source/queue.c",line 1514,column 6,is_stmt,isa 1
    2614                    ;* --------------------------------------------------------------------------*
    2615 00000524           ||$C$L51||:    
    2616                            .dwpsn  file "C:/TI_ARM_Tiva_Projects/Source/queue.c",line 1522,column 5,is_stmt,isa 1
    2617 00000524 9809              LDR       A1, [SP, #36]         ; [DPU_3_PIPE] |1522|  ; [ORIG 16-BIT INS]
    2618 00000526 9902              LDR       A2, [SP, #8]          ; [DPU_3_PIPE] |1522|  ; [ORIG 16-BIT INS]
    2619 00000528 3024              ADDS      A1, A1, #36           ; [DPU_3_PIPE] |1522|  ; [ORIG 16-BIT INS]
    2620                    $C$DW$187       .dwtag  DW_TAG_TI_branch
    2621                            .dwattr $C$DW$187, DW_AT_low_pc(0x00)
    2622                            .dwattr $C$DW$187, DW_AT_name("vTaskPlaceOnEventList")
    2623                            .dwattr $C$DW$187, DW_AT_TI_call
    2624                    
    2625 0000052a FFFEF7FF!         BL        vTaskPlaceOnEventList ; [DPU_3_PIPE] |1522|  ; [KEEP 32-BIT INS]
    2626                            ; CALL OCCURS {vTaskPlaceOnEventList }  ; [] |1522| 
    2627                            .dwpsn  file "C:/TI_ARM_Tiva_Projects/Source/queue.c",line 1523,column 5,is_stmt,isa 1
    2628 0000052e 9809              LDR       A1, [SP, #36]         ; [DPU_3_PIPE] |1523|  ; [ORIG 16-BIT INS]
    2629                    $C$DW$188       .dwtag  DW_TAG_TI_branch
    2630                            .dwattr $C$DW$188, DW_AT_low_pc(0x00)
    2631                            .dwattr $C$DW$188, DW_AT_name("prvUnlockQueue")
    2632                            .dwattr $C$DW$188, DW_AT_TI_call
    2633                    
    2634 00000530 F94DF000          BL        prvUnlockQueue        ; [DPU_3_PIPE] |1523|  ; [KEEP 32-BIT INS]
    2635                            ; CALL OCCURS {prvUnlockQueue }  ; [] |1523| 
    2636                            .dwpsn  file "C:/TI_ARM_Tiva_Projects/Source/queue.c",line 1524,column 5,is_stmt,isa 1
    2637                    $C$DW$189       .dwtag  DW_TAG_TI_branch
    2638                            .dwattr $C$DW$189, DW_AT_low_pc(0x00)
    2639                            .dwattr $C$DW$189, DW_AT_name("xTaskResumeAll")
    2640                            .dwattr $C$DW$189, DW_AT_TI_call
TI ARM Assembler PC v15.12.1 Tue Oct 18 10:42:33 2016

Tools Copyright (c) 1996-2015 Texas Instruments Incorporated
queue.asm                                                            PAGE   49

    2641                    
    2642 00000534 FFFEF7FF!         BL        xTaskResumeAll        ; [DPU_3_PIPE] |1524|  ; [KEEP 32-BIT INS]
    2643                            ; CALL OCCURS {xTaskResumeAll }  ; [] |1524| 
    2644 00000538 2800              CMP       A1, #0                ; [DPU_3_PIPE] |1524|  ; [ORIG 16-BIT INS]
    2645 0000053a D180              BNE       ||$C$L40||            ; [DPU_3_PIPE] |1524|  ; [ORIG 16-BIT INS]
    2646                            ; BRANCHCC OCCURS {||$C$L40||}   ; [] |1524| 
    2647                    ;* --------------------------------------------------------------------------*
    2648                            .dwpsn  file "C:/TI_ARM_Tiva_Projects/Source/queue.c",line 1526,column 6,is_stmt,isa 1
    2649 0000053c 490B              LDR       A2, $C$CON1           ; [DPU_3_PIPE] |1526|  ; [ORIG 16-BIT INS]
    2650 0000053e 5080F04F          MOV       A1, #268435456        ; [DPU_3_PIPE] |1526|  ; [KEEP 32-BIT INS]
    2651 00000542 6008              STR       A1, [A2, #0]          ; [DPU_3_PIPE] |1526|  ; [ORIG 16-BIT INS]
    2652 00000544 8F4FF3BF          dsb ; [KEEP 32-BIT INS]
    2653 00000548 8F6FF3BF          isb ; [KEEP 32-BIT INS]
    2654                            .dwpsn  file "C:/TI_ARM_Tiva_Projects/Source/queue.c",line 1527,column 5,is_stmt,isa 1
    2655 0000054c E777              B         ||$C$L40||            ; [DPU_3_PIPE] |1527|  ; [ORIG 16-BIT INS]
    2656                            ; BRANCH OCCURS {||$C$L40||}     ; [] |1527| 
    2657                    ;* --------------------------------------------------------------------------*
    2658                    ;* --------------------------------------------------------------------------*
    2659 0000054e           ||$C$L52||:    
    2660                            .dwpsn  file "C:/TI_ARM_Tiva_Projects/Source/queue.c",line 1536,column 5,is_stmt,isa 1
    2661 0000054e 9809              LDR       A1, [SP, #36]         ; [DPU_3_PIPE] |1536|  ; [ORIG 16-BIT INS]
    2662                    $C$DW$190       .dwtag  DW_TAG_TI_branch
    2663                            .dwattr $C$DW$190, DW_AT_low_pc(0x00)
    2664                            .dwattr $C$DW$190, DW_AT_name("prvUnlockQueue")
    2665                            .dwattr $C$DW$190, DW_AT_TI_call
    2666                    
    2667 00000550 F93DF000          BL        prvUnlockQueue        ; [DPU_3_PIPE] |1536|  ; [KEEP 32-BIT INS]
    2668                            ; CALL OCCURS {prvUnlockQueue }  ; [] |1536| 
    2669                            .dwpsn  file "C:/TI_ARM_Tiva_Projects/Source/queue.c",line 1537,column 5,is_stmt,isa 1
    2670                    $C$DW$191       .dwtag  DW_TAG_TI_branch
    2671                            .dwattr $C$DW$191, DW_AT_low_pc(0x00)
    2672                            .dwattr $C$DW$191, DW_AT_name("xTaskResumeAll")
    2673                            .dwattr $C$DW$191, DW_AT_TI_call
    2674                    
    2675 00000554 FFFEF7FF!         BL        xTaskResumeAll        ; [DPU_3_PIPE] |1537|  ; [KEEP 32-BIT INS]
    2676                            ; CALL OCCURS {xTaskResumeAll }  ; [] |1537| 
    2677                            .dwpsn  file "C:/TI_ARM_Tiva_Projects/Source/queue.c",line 1539,column 3,is_stmt,isa 1
    2678 00000558 E771              B         ||$C$L40||            ; [DPU_3_PIPE] |1539|  ; [ORIG 16-BIT INS]
    2679                            ; BRANCH OCCURS {||$C$L40||}     ; [] |1539| 
    2680                    ;* --------------------------------------------------------------------------*
    2681 0000055a           ||$C$L53||:    
    2682                            .dwpsn  file "C:/TI_ARM_Tiva_Projects/Source/queue.c",line 1542,column 4,is_stmt,isa 1
    2683 0000055a 9809              LDR       A1, [SP, #36]         ; [DPU_3_PIPE] |1542|  ; [ORIG 16-BIT INS]
    2684                    $C$DW$192       .dwtag  DW_TAG_TI_branch
    2685                            .dwattr $C$DW$192, DW_AT_low_pc(0x00)
    2686                            .dwattr $C$DW$192, DW_AT_name("prvUnlockQueue")
    2687                            .dwattr $C$DW$192, DW_AT_TI_call
    2688                    
    2689 0000055c F937F000          BL        prvUnlockQueue        ; [DPU_3_PIPE] |1542|  ; [KEEP 32-BIT INS]
    2690                            ; CALL OCCURS {prvUnlockQueue }  ; [] |1542| 
    2691                            .dwpsn  file "C:/TI_ARM_Tiva_Projects/Source/queue.c",line 1543,column 4,is_stmt,isa 1
    2692                    $C$DW$193       .dwtag  DW_TAG_TI_branch
    2693                            .dwattr $C$DW$193, DW_AT_low_pc(0x00)
    2694                            .dwattr $C$DW$193, DW_AT_name("xTaskResumeAll")
    2695                            .dwattr $C$DW$193, DW_AT_TI_call
TI ARM Assembler PC v15.12.1 Tue Oct 18 10:42:33 2016

Tools Copyright (c) 1996-2015 Texas Instruments Incorporated
queue.asm                                                            PAGE   50

    2696                    
    2697 00000560 FFFEF7FF!         BL        xTaskResumeAll        ; [DPU_3_PIPE] |1543|  ; [KEEP 32-BIT INS]
    2698                            ; CALL OCCURS {xTaskResumeAll }  ; [] |1543| 
    2699                            .dwpsn  file "C:/TI_ARM_Tiva_Projects/Source/queue.c",line 1545,column 4,is_stmt,isa 1
    2700 00000564 2000              MOVS      A1, #0                ; [DPU_3_PIPE] |1545|  ; [ORIG 16-BIT INS]
    2701 00000566 E7FF              B         ||$C$L54||            ; [DPU_3_PIPE] |1545|  ; [ORIG 16-BIT INS]
    2702                            ; BRANCH OCCURS {||$C$L54||}     ; [] |1545| 
    2703                    ;* --------------------------------------------------------------------------*
    2704                    ;* --------------------------------------------------------------------------*
    2705 00000568           ||$C$L54||:    
    2706                            .dwpsn  file "C:/TI_ARM_Tiva_Projects/Source/queue.c",line 1548,column 1,is_stmt,isa 1
    2707 00000568 B00B              ADD       SP, SP, #44           ; [DPU_3_PIPE]  ; [ORIG 16-BIT INS]
    2708                            .dwcfi  cfa_offset, 4
    2709                    $C$DW$194       .dwtag  DW_TAG_TI_branch
    2710                            .dwattr $C$DW$194, DW_AT_low_pc(0x00)
    2711                            .dwattr $C$DW$194, DW_AT_TI_return
    2712                    
    2713 0000056a BD00              POP       {PC}                  ; [DPU_3_PIPE]  ; [ORIG 16-BIT INS]
    2714                            .dwcfi  cfa_offset, 0
    2715                            ; BRANCH OCCURS                  ; [] 
    2716                            .dwattr $C$DW$157, DW_AT_TI_end_file("C:/TI_ARM_Tiva_Projects/Source/queue.c")
    2717                            .dwattr $C$DW$157, DW_AT_TI_end_line(0x60c)
    2718                            .dwattr $C$DW$157, DW_AT_TI_end_column(0x01)
    2719                            .dwendentry
    2720                            .dwendtag $C$DW$157
    2721                    
    2722                    ;******************************************************************************
    2723                    ;* CONSTANT TABLE                                                             *
    2724                    ;******************************************************************************
    2725 0000056c                   .sect   ".text"
    2726                            .align  4
    2727 0000056c E000ED04  ||$C$CON1||:    .bits   -536810236,32
    2728 00000570                   .sect   ".text"
    2729                            .clink
    2730                            .thumbfunc xQueueReceiveFromISR
    2731 00000570                   .thumb
    2732                            .global xQueueReceiveFromISR
    2733                    
    2734                    $C$DW$195       .dwtag  DW_TAG_subprogram
    2735                            .dwattr $C$DW$195, DW_AT_name("xQueueReceiveFromISR")
    2736                            .dwattr $C$DW$195, DW_AT_low_pc(xQueueReceiveFromISR)
    2737                            .dwattr $C$DW$195, DW_AT_high_pc(0x00)
    2738                            .dwattr $C$DW$195, DW_AT_TI_symbol_name("xQueueReceiveFromISR")
    2739                            .dwattr $C$DW$195, DW_AT_external
    2740                            .dwattr $C$DW$195, DW_AT_type(*$C$DW$T$39)
    2741                            .dwattr $C$DW$195, DW_AT_TI_begin_file("C:/TI_ARM_Tiva_Projects/Source/queue.c")
    2742                            .dwattr $C$DW$195, DW_AT_TI_begin_line(0x60f)
    2743                            .dwattr $C$DW$195, DW_AT_TI_begin_column(0x0c)
    2744                            .dwattr $C$DW$195, DW_AT_decl_file("C:/TI_ARM_Tiva_Projects/Source/queue.c")
    2745                            .dwattr $C$DW$195, DW_AT_decl_line(0x60f)
    2746                            .dwattr $C$DW$195, DW_AT_decl_column(0x0c)
    2747                            .dwattr $C$DW$195, DW_AT_TI_max_frame_size(0x20)
    2748                            .dwpsn  file "C:/TI_ARM_Tiva_Projects/Source/queue.c",line 1552,column 1,is_stmt,address xQueu
    2749                    
    2750                            .dwfde $C$DW$CIE, xQueueReceiveFromISR
TI ARM Assembler PC v15.12.1 Tue Oct 18 10:42:33 2016

Tools Copyright (c) 1996-2015 Texas Instruments Incorporated
queue.asm                                                            PAGE   51

    2751                    $C$DW$196       .dwtag  DW_TAG_formal_parameter
    2752                            .dwattr $C$DW$196, DW_AT_name("xQueue")
    2753                            .dwattr $C$DW$196, DW_AT_TI_symbol_name("xQueue")
    2754                            .dwattr $C$DW$196, DW_AT_type(*$C$DW$T$34)
    2755                            .dwattr $C$DW$196, DW_AT_location[DW_OP_reg0]
    2756                    
    2757                    $C$DW$197       .dwtag  DW_TAG_formal_parameter
    2758                            .dwattr $C$DW$197, DW_AT_name("pvBuffer")
    2759                            .dwattr $C$DW$197, DW_AT_TI_symbol_name("pvBuffer")
    2760                            .dwattr $C$DW$197, DW_AT_type(*$C$DW$T$104)
    2761                            .dwattr $C$DW$197, DW_AT_location[DW_OP_reg1]
    2762                    
    2763                    $C$DW$198       .dwtag  DW_TAG_formal_parameter
    2764                            .dwattr $C$DW$198, DW_AT_name("pxHigherPriorityTaskWoken")
    2765                            .dwattr $C$DW$198, DW_AT_TI_symbol_name("pxHigherPriorityTaskWoken")
    2766                            .dwattr $C$DW$198, DW_AT_type(*$C$DW$T$167)
    2767                            .dwattr $C$DW$198, DW_AT_location[DW_OP_reg2]
    2768                    
    2769                    
    2770                    ;*****************************************************************************
    2771                    ;* FUNCTION NAME: xQueueReceiveFromISR                                       *
    2772                    ;*                                                                           *
    2773                    ;*   Regs Modified     : A1,A2,A3,A4,V9,SP,LR,SR,D0,D0_hi,D1,D1_hi,D2,D2_hi, *
    2774                    ;*                           D3,D3_hi,D4,D4_hi,D5,D5_hi,D6,D6_hi,D7,D7_hi,   *
    2775                    ;*                           FPEXC,FPSCR                                     *
    2776                    ;*   Regs Used         : A1,A2,A3,A4,V9,SP,LR,SR,D0,D0_hi,D1,D1_hi,D2,D2_hi, *
    2777                    ;*                           D3,D3_hi,D4,D4_hi,D5,D5_hi,D6,D6_hi,D7,D7_hi,   *
    2778                    ;*                           FPEXC,FPSCR                                     *
    2779                    ;*   Local Frame Size  : 0 Args + 24 Auto + 4 Save = 28 byte                 *
    2780                    ;*****************************************************************************
    2781 00000570           xQueueReceiveFromISR:
    2782                    ;* --------------------------------------------------------------------------*
    2783                            .dwcfi  cfa_offset, 0
    2784 00000570 B500              PUSH      {LR}                  ; [DPU_3_PIPE]  ; [ORIG 16-BIT INS]
    2785                            .dwcfi  cfa_offset, 4
    2786                            .dwcfi  save_reg_to_mem, 14, -4
    2787 00000572 0D1CF1AD          SUB       SP, SP, #28           ; [DPU_3_PIPE]  ; [KEEP 32-BIT INS]
    2788                            .dwcfi  cfa_offset, 32
    2789                    $C$DW$199       .dwtag  DW_TAG_variable
    2790                            .dwattr $C$DW$199, DW_AT_name("xQueue")
    2791                            .dwattr $C$DW$199, DW_AT_TI_symbol_name("xQueue")
    2792                            .dwattr $C$DW$199, DW_AT_type(*$C$DW$T$34)
    2793                            .dwattr $C$DW$199, DW_AT_location[DW_OP_breg13 0]
    2794                    
    2795                    $C$DW$200       .dwtag  DW_TAG_variable
    2796                            .dwattr $C$DW$200, DW_AT_name("pvBuffer")
    2797                            .dwattr $C$DW$200, DW_AT_TI_symbol_name("pvBuffer")
    2798                            .dwattr $C$DW$200, DW_AT_type(*$C$DW$T$104)
    2799                            .dwattr $C$DW$200, DW_AT_location[DW_OP_breg13 4]
    2800                    
    2801                    $C$DW$201       .dwtag  DW_TAG_variable
    2802                            .dwattr $C$DW$201, DW_AT_name("pxHigherPriorityTaskWoken")
    2803                            .dwattr $C$DW$201, DW_AT_TI_symbol_name("pxHigherPriorityTaskWoken")
    2804                            .dwattr $C$DW$201, DW_AT_type(*$C$DW$T$167)
    2805                            .dwattr $C$DW$201, DW_AT_location[DW_OP_breg13 8]
TI ARM Assembler PC v15.12.1 Tue Oct 18 10:42:33 2016

Tools Copyright (c) 1996-2015 Texas Instruments Incorporated
queue.asm                                                            PAGE   52

    2806                    
