TI ARM Assembler PC v15.12.1 Tue Oct 18 10:42:35 2016

Tools Copyright (c) 1996-2015 Texas Instruments Incorporated
tasks.asm                                                            PAGE    1

       1                    ;******************************************************************************
       2                    ;* TI ARM C/C++ Codegen                                       PC v15.12.1.LTS *
       3                    ;* Date/Time created: Tue Oct 18 10:42:33 2016                                *
       4                    ;******************************************************************************
       5                            .compiler_opts --abi=eabi --arm_vmrs_si_workaround=off --code_state=16 --diag_wrap=off --disab
       6 00000000                   .thumb
       7                    
       8                    $C$DW$CU        .dwtag  DW_TAG_compile_unit
       9                            .dwattr $C$DW$CU, DW_AT_name("C:/TI_ARM_Tiva_Projects/Source/tasks.c")
      10                            .dwattr $C$DW$CU, DW_AT_producer("TI TI ARM C/C++ Codegen PC v15.12.1.LTS Copyright (c) 1996-2
      11                            .dwattr $C$DW$CU, DW_AT_TI_version(0x01)
      12                            .dwattr $C$DW$CU, DW_AT_comp_dir("C:\TI_ARM_Tiva_Projects\FreeRTOS82_TM4C1294_Base\Debug")
      13                    
      14                    $C$DW$1 .dwtag  DW_TAG_subprogram
      15                            .dwattr $C$DW$1, DW_AT_name("__clz")
      16                            .dwattr $C$DW$1, DW_AT_TI_symbol_name("__clz")
      17                            .dwattr $C$DW$1, DW_AT_type(*$C$DW$T$10)
      18                            .dwattr $C$DW$1, DW_AT_declaration
      19                            .dwattr $C$DW$1, DW_AT_external
      20                    $C$DW$2 .dwtag  DW_TAG_formal_parameter
      21                            .dwattr $C$DW$2, DW_AT_type(*$C$DW$T$10)
      22                    
      23                            .dwendtag $C$DW$1
      24                    
      25                    
      26                    $C$DW$3 .dwtag  DW_TAG_subprogram
      27                            .dwattr $C$DW$3, DW_AT_name("_set_interrupt_priority")
      28                            .dwattr $C$DW$3, DW_AT_TI_symbol_name("_set_interrupt_priority")
      29                            .dwattr $C$DW$3, DW_AT_type(*$C$DW$T$11)
      30                            .dwattr $C$DW$3, DW_AT_declaration
      31                            .dwattr $C$DW$3, DW_AT_external
      32                    $C$DW$4 .dwtag  DW_TAG_formal_parameter
      33                            .dwattr $C$DW$4, DW_AT_type(*$C$DW$T$11)
      34                    
      35                            .dwendtag $C$DW$3
      36                    
      37                    
      38                    $C$DW$5 .dwtag  DW_TAG_subprogram
      39                            .dwattr $C$DW$5, DW_AT_name("memset")
      40                            .dwattr $C$DW$5, DW_AT_TI_symbol_name("memset")
      41                            .dwattr $C$DW$5, DW_AT_type(*$C$DW$T$3)
      42                            .dwattr $C$DW$5, DW_AT_declaration
      43                            .dwattr $C$DW$5, DW_AT_external
      44                            .dwattr $C$DW$5, DW_AT_decl_file("C:/TI_CodeComposer/ccsv6/tools/compiler/ti-cgt-arm_15.12.1.L
      45                            .dwattr $C$DW$5, DW_AT_decl_line(0x71)
      46                            .dwattr $C$DW$5, DW_AT_decl_column(0x16)
      47                    $C$DW$6 .dwtag  DW_TAG_formal_parameter
      48                            .dwattr $C$DW$6, DW_AT_type(*$C$DW$T$3)
      49                    
      50                    $C$DW$7 .dwtag  DW_TAG_formal_parameter
      51                            .dwattr $C$DW$7, DW_AT_type(*$C$DW$T$10)
      52                    
      53                    $C$DW$8 .dwtag  DW_TAG_formal_parameter
      54                            .dwattr $C$DW$8, DW_AT_type(*$C$DW$T$24)
      55                    
TI ARM Assembler PC v15.12.1 Tue Oct 18 10:42:35 2016

Tools Copyright (c) 1996-2015 Texas Instruments Incorporated
tasks.asm                                                            PAGE    2

      56                            .dwendtag $C$DW$5
      57                    
      58                    
      59                    $C$DW$9 .dwtag  DW_TAG_subprogram
      60                            .dwattr $C$DW$9, DW_AT_name("vPortEnterCritical")
      61                            .dwattr $C$DW$9, DW_AT_TI_symbol_name("vPortEnterCritical")
      62                            .dwattr $C$DW$9, DW_AT_declaration
      63                            .dwattr $C$DW$9, DW_AT_external
      64                            .dwattr $C$DW$9, DW_AT_decl_file("C:/TI_ARM_Tiva_Projects/Source/portable/CCS/ARM_CM4F/portmac
      65                            .dwattr $C$DW$9, DW_AT_decl_line(0xa7)
      66                            .dwattr $C$DW$9, DW_AT_decl_column(0x0d)
      67                            .dwendtag $C$DW$9
      68                    
      69                    
      70                    $C$DW$10        .dwtag  DW_TAG_subprogram
      71                            .dwattr $C$DW$10, DW_AT_name("vPortExitCritical")
      72                            .dwattr $C$DW$10, DW_AT_TI_symbol_name("vPortExitCritical")
      73                            .dwattr $C$DW$10, DW_AT_declaration
      74                            .dwattr $C$DW$10, DW_AT_external
      75                            .dwattr $C$DW$10, DW_AT_decl_file("C:/TI_ARM_Tiva_Projects/Source/portable/CCS/ARM_CM4F/portma
      76                            .dwattr $C$DW$10, DW_AT_decl_line(0xa8)
      77                            .dwattr $C$DW$10, DW_AT_decl_column(0x0d)
      78                            .dwendtag $C$DW$10
      79                    
      80                    
      81                    $C$DW$11        .dwtag  DW_TAG_subprogram
      82                            .dwattr $C$DW$11, DW_AT_name("pxPortInitialiseStack")
      83                            .dwattr $C$DW$11, DW_AT_TI_symbol_name("pxPortInitialiseStack")
      84                            .dwattr $C$DW$11, DW_AT_type(*$C$DW$T$33)
      85                            .dwattr $C$DW$11, DW_AT_declaration
      86                            .dwattr $C$DW$11, DW_AT_external
      87                            .dwattr $C$DW$11, DW_AT_decl_file("C:\TI_ARM_Tiva_Projects\Source\include\portable.h")
      88                            .dwattr $C$DW$11, DW_AT_decl_line(0x90)
      89                            .dwattr $C$DW$11, DW_AT_decl_column(0x0f)
      90                    $C$DW$12        .dwtag  DW_TAG_formal_parameter
      91                            .dwattr $C$DW$12, DW_AT_type(*$C$DW$T$33)
      92                    
      93                    $C$DW$13        .dwtag  DW_TAG_formal_parameter
      94                            .dwattr $C$DW$13, DW_AT_type(*$C$DW$T$51)
      95                    
      96                    $C$DW$14        .dwtag  DW_TAG_formal_parameter
      97                            .dwattr $C$DW$14, DW_AT_type(*$C$DW$T$3)
      98                    
      99                            .dwendtag $C$DW$11
     100                    
     101                    
     102                    $C$DW$15        .dwtag  DW_TAG_subprogram
     103                            .dwattr $C$DW$15, DW_AT_name("pvPortMalloc")
     104                            .dwattr $C$DW$15, DW_AT_TI_symbol_name("pvPortMalloc")
     105                            .dwattr $C$DW$15, DW_AT_type(*$C$DW$T$3)
     106                            .dwattr $C$DW$15, DW_AT_declaration
     107                            .dwattr $C$DW$15, DW_AT_external
     108                            .dwattr $C$DW$15, DW_AT_decl_file("C:\TI_ARM_Tiva_Projects\Source\include\portable.h")
     109                            .dwattr $C$DW$15, DW_AT_decl_line(0xab)
     110                            .dwattr $C$DW$15, DW_AT_decl_column(0x07)
TI ARM Assembler PC v15.12.1 Tue Oct 18 10:42:35 2016

Tools Copyright (c) 1996-2015 Texas Instruments Incorporated
tasks.asm                                                            PAGE    3

     111                    $C$DW$16        .dwtag  DW_TAG_formal_parameter
     112                            .dwattr $C$DW$16, DW_AT_type(*$C$DW$T$24)
     113                    
     114                            .dwendtag $C$DW$15
     115                    
     116                    
     117                    $C$DW$17        .dwtag  DW_TAG_subprogram
     118                            .dwattr $C$DW$17, DW_AT_name("vPortFree")
     119                            .dwattr $C$DW$17, DW_AT_TI_symbol_name("vPortFree")
     120                            .dwattr $C$DW$17, DW_AT_declaration
     121                            .dwattr $C$DW$17, DW_AT_external
     122                            .dwattr $C$DW$17, DW_AT_decl_file("C:\TI_ARM_Tiva_Projects\Source\include\portable.h")
     123                            .dwattr $C$DW$17, DW_AT_decl_line(0xac)
     124                            .dwattr $C$DW$17, DW_AT_decl_column(0x06)
     125                    $C$DW$18        .dwtag  DW_TAG_formal_parameter
     126                            .dwattr $C$DW$18, DW_AT_type(*$C$DW$T$3)
     127                    
     128                            .dwendtag $C$DW$17
     129                    
     130                    
     131                    $C$DW$19        .dwtag  DW_TAG_subprogram
     132                            .dwattr $C$DW$19, DW_AT_name("xPortStartScheduler")
     133                            .dwattr $C$DW$19, DW_AT_TI_symbol_name("xPortStartScheduler")
     134                            .dwattr $C$DW$19, DW_AT_type(*$C$DW$T$64)
     135                            .dwattr $C$DW$19, DW_AT_declaration
     136                            .dwattr $C$DW$19, DW_AT_external
     137                            .dwattr $C$DW$19, DW_AT_decl_file("C:\TI_ARM_Tiva_Projects\Source\include\portable.h")
     138                            .dwattr $C$DW$19, DW_AT_decl_line(0xb5)
     139                            .dwattr $C$DW$19, DW_AT_decl_column(0x0c)
     140                            .dwendtag $C$DW$19
     141                    
     142                    
     143                    $C$DW$20        .dwtag  DW_TAG_subprogram
     144                            .dwattr $C$DW$20, DW_AT_name("vPortEndScheduler")
     145                            .dwattr $C$DW$20, DW_AT_TI_symbol_name("vPortEndScheduler")
     146                            .dwattr $C$DW$20, DW_AT_declaration
     147                            .dwattr $C$DW$20, DW_AT_external
     148                            .dwattr $C$DW$20, DW_AT_decl_file("C:\TI_ARM_Tiva_Projects\Source\include\portable.h")
     149                            .dwattr $C$DW$20, DW_AT_decl_line(0xbc)
     150                            .dwattr $C$DW$20, DW_AT_decl_column(0x06)
     151                            .dwendtag $C$DW$20
     152                    
     153                    
     154                    $C$DW$21        .dwtag  DW_TAG_subprogram
     155                            .dwattr $C$DW$21, DW_AT_name("vListInitialise")
     156                            .dwattr $C$DW$21, DW_AT_TI_symbol_name("vListInitialise")
     157                            .dwattr $C$DW$21, DW_AT_declaration
     158                            .dwattr $C$DW$21, DW_AT_external
     159                            .dwattr $C$DW$21, DW_AT_decl_file("C:\TI_ARM_Tiva_Projects\Source\include\list.h")
     160                            .dwattr $C$DW$21, DW_AT_decl_line(0x182)
     161                            .dwattr $C$DW$21, DW_AT_decl_column(0x06)
     162                    $C$DW$22        .dwtag  DW_TAG_formal_parameter
     163                            .dwattr $C$DW$22, DW_AT_type(*$C$DW$T$91)
     164                    
     165                            .dwendtag $C$DW$21
TI ARM Assembler PC v15.12.1 Tue Oct 18 10:42:35 2016

Tools Copyright (c) 1996-2015 Texas Instruments Incorporated
tasks.asm                                                            PAGE    4

     166                    
     167                    
     168                    $C$DW$23        .dwtag  DW_TAG_subprogram
     169                            .dwattr $C$DW$23, DW_AT_name("vListInitialiseItem")
     170                            .dwattr $C$DW$23, DW_AT_TI_symbol_name("vListInitialiseItem")
     171                            .dwattr $C$DW$23, DW_AT_declaration
     172                            .dwattr $C$DW$23, DW_AT_external
     173                            .dwattr $C$DW$23, DW_AT_decl_file("C:\TI_ARM_Tiva_Projects\Source\include\list.h")
     174                            .dwattr $C$DW$23, DW_AT_decl_line(0x18d)
     175                            .dwattr $C$DW$23, DW_AT_decl_column(0x06)
     176                    $C$DW$24        .dwtag  DW_TAG_formal_parameter
     177                            .dwattr $C$DW$24, DW_AT_type(*$C$DW$T$94)
     178                    
     179                            .dwendtag $C$DW$23
     180                    
     181                    
     182                    $C$DW$25        .dwtag  DW_TAG_subprogram
     183                            .dwattr $C$DW$25, DW_AT_name("vListInsert")
     184                            .dwattr $C$DW$25, DW_AT_TI_symbol_name("vListInsert")
     185                            .dwattr $C$DW$25, DW_AT_declaration
     186                            .dwattr $C$DW$25, DW_AT_external
     187                            .dwattr $C$DW$25, DW_AT_decl_file("C:\TI_ARM_Tiva_Projects\Source\include\list.h")
     188                            .dwattr $C$DW$25, DW_AT_decl_line(0x19a)
     189                            .dwattr $C$DW$25, DW_AT_decl_column(0x06)
     190                    $C$DW$26        .dwtag  DW_TAG_formal_parameter
     191                            .dwattr $C$DW$26, DW_AT_type(*$C$DW$T$91)
     192                    
     193                    $C$DW$27        .dwtag  DW_TAG_formal_parameter
     194                            .dwattr $C$DW$27, DW_AT_type(*$C$DW$T$94)
     195                    
     196                            .dwendtag $C$DW$25
     197                    
     198                    
     199                    $C$DW$28        .dwtag  DW_TAG_subprogram
     200                            .dwattr $C$DW$28, DW_AT_name("vListInsertEnd")
     201                            .dwattr $C$DW$28, DW_AT_TI_symbol_name("vListInsertEnd")
     202                            .dwattr $C$DW$28, DW_AT_declaration
     203                            .dwattr $C$DW$28, DW_AT_external
     204                            .dwattr $C$DW$28, DW_AT_decl_file("C:\TI_ARM_Tiva_Projects\Source\include\list.h")
     205                            .dwattr $C$DW$28, DW_AT_decl_line(0x1af)
     206                            .dwattr $C$DW$28, DW_AT_decl_column(0x06)
     207                    $C$DW$29        .dwtag  DW_TAG_formal_parameter
     208                            .dwattr $C$DW$29, DW_AT_type(*$C$DW$T$91)
     209                    
     210                    $C$DW$30        .dwtag  DW_TAG_formal_parameter
     211                            .dwattr $C$DW$30, DW_AT_type(*$C$DW$T$94)
     212                    
     213                            .dwendtag $C$DW$28
     214                    
     215                    
     216                    $C$DW$31        .dwtag  DW_TAG_subprogram
     217                            .dwattr $C$DW$31, DW_AT_name("uxListRemove")
     218                            .dwattr $C$DW$31, DW_AT_TI_symbol_name("uxListRemove")
     219                            .dwattr $C$DW$31, DW_AT_type(*$C$DW$T$32)
     220                            .dwattr $C$DW$31, DW_AT_declaration
TI ARM Assembler PC v15.12.1 Tue Oct 18 10:42:35 2016

Tools Copyright (c) 1996-2015 Texas Instruments Incorporated
tasks.asm                                                            PAGE    5

     221                            .dwattr $C$DW$31, DW_AT_external
     222                            .dwattr $C$DW$31, DW_AT_decl_file("C:\TI_ARM_Tiva_Projects\Source\include\list.h")
     223                            .dwattr $C$DW$31, DW_AT_decl_line(0x1be)
     224                            .dwattr $C$DW$31, DW_AT_decl_column(0x0d)
     225                    $C$DW$32        .dwtag  DW_TAG_formal_parameter
     226                            .dwattr $C$DW$32, DW_AT_type(*$C$DW$T$94)
     227                    
     228                            .dwendtag $C$DW$31
     229                    
     230                    
     231                    $C$DW$33        .dwtag  DW_TAG_subprogram
     232                            .dwattr $C$DW$33, DW_AT_name("xTimerCreateTimerTask")
     233                            .dwattr $C$DW$33, DW_AT_TI_symbol_name("xTimerCreateTimerTask")
     234                            .dwattr $C$DW$33, DW_AT_type(*$C$DW$T$64)
     235                            .dwattr $C$DW$33, DW_AT_declaration
     236                            .dwattr $C$DW$33, DW_AT_external
     237                            .dwattr $C$DW$33, DW_AT_decl_file("C:/TI_ARM_Tiva_Projects/Source/include/timers.h")
     238                            .dwattr $C$DW$33, DW_AT_decl_line(0x471)
     239                            .dwattr $C$DW$33, DW_AT_decl_column(0x0c)
     240                            .dwendtag $C$DW$33
     241                    
     242                            .global pxCurrentTCB
     243 00000000                   .data
     244                            .align  4
     245                            .elfsym pxCurrentTCB,SYM_SIZE(4)
     246 00000000           pxCurrentTCB:
     247 00000000 00000000          .bits   0,32                    ; pxCurrentTCB @ 0
     248                    
     249                    $C$DW$34        .dwtag  DW_TAG_variable
     250                            .dwattr $C$DW$34, DW_AT_name("pxCurrentTCB")
     251                            .dwattr $C$DW$34, DW_AT_TI_symbol_name("pxCurrentTCB")
     252                            .dwattr $C$DW$34, DW_AT_location[DW_OP_addr pxCurrentTCB]
     253                            .dwattr $C$DW$34, DW_AT_type(*$C$DW$T$237)
     254                            .dwattr $C$DW$34, DW_AT_external
     255                            .dwattr $C$DW$34, DW_AT_decl_file("C:/TI_ARM_Tiva_Projects/Source/tasks.c")
     256                            .dwattr $C$DW$34, DW_AT_decl_line(0xd4)
     257                            .dwattr $C$DW$34, DW_AT_decl_column(0x22)
     258                    
     259 00000000           pxReadyTasksLists:      .usect  ".bss:pxReadyTasksLists",100,4
     260                            .clink ".bss:pxReadyTasksLists"
     261                    $C$DW$35        .dwtag  DW_TAG_variable
     262                            .dwattr $C$DW$35, DW_AT_name("pxReadyTasksLists")
     263                            .dwattr $C$DW$35, DW_AT_TI_symbol_name("pxReadyTasksLists")
     264                            .dwattr $C$DW$35, DW_AT_type(*$C$DW$T$239)
     265                            .dwattr $C$DW$35, DW_AT_location[DW_OP_addr pxReadyTasksLists]
     266                            .dwattr $C$DW$35, DW_AT_decl_file("C:/TI_ARM_Tiva_Projects/Source/tasks.c")
     267                            .dwattr $C$DW$35, DW_AT_decl_line(0xd7)
     268                            .dwattr $C$DW$35, DW_AT_decl_column(0x1f)
     269                    
     270 00000000           xDelayedTaskList1:      .usect  ".bss:xDelayedTaskList1",20,4
     271                            .clink ".bss:xDelayedTaskList1"
     272                    $C$DW$36        .dwtag  DW_TAG_variable
     273                            .dwattr $C$DW$36, DW_AT_name("xDelayedTaskList1")
     274                            .dwattr $C$DW$36, DW_AT_TI_symbol_name("xDelayedTaskList1")
     275                            .dwattr $C$DW$36, DW_AT_type(*$C$DW$T$89)
TI ARM Assembler PC v15.12.1 Tue Oct 18 10:42:35 2016

Tools Copyright (c) 1996-2015 Texas Instruments Incorporated
tasks.asm                                                            PAGE    6

     276                            .dwattr $C$DW$36, DW_AT_location[DW_OP_addr xDelayedTaskList1]
     277                            .dwattr $C$DW$36, DW_AT_decl_file("C:/TI_ARM_Tiva_Projects/Source/tasks.c")
     278                            .dwattr $C$DW$36, DW_AT_decl_line(0xd8)
     279                            .dwattr $C$DW$36, DW_AT_decl_column(0x1f)
     280                    
     281 00000000           xDelayedTaskList2:      .usect  ".bss:xDelayedTaskList2",20,4
     282                            .clink ".bss:xDelayedTaskList2"
     283                    $C$DW$37        .dwtag  DW_TAG_variable
     284                            .dwattr $C$DW$37, DW_AT_name("xDelayedTaskList2")
     285                            .dwattr $C$DW$37, DW_AT_TI_symbol_name("xDelayedTaskList2")
     286                            .dwattr $C$DW$37, DW_AT_type(*$C$DW$T$89)
     287                            .dwattr $C$DW$37, DW_AT_location[DW_OP_addr xDelayedTaskList2]
     288                            .dwattr $C$DW$37, DW_AT_decl_file("C:/TI_ARM_Tiva_Projects/Source/tasks.c")
     289                            .dwattr $C$DW$37, DW_AT_decl_line(0xd9)
     290                            .dwattr $C$DW$37, DW_AT_decl_column(0x1f)
     291                    
     292 00000000                   .bss    pxDelayedTaskList,4,4
     293                    $C$DW$38        .dwtag  DW_TAG_variable
     294                            .dwattr $C$DW$38, DW_AT_name("pxDelayedTaskList")
     295                            .dwattr $C$DW$38, DW_AT_TI_symbol_name("pxDelayedTaskList")
     296                            .dwattr $C$DW$38, DW_AT_type(*$C$DW$T$238)
     297                            .dwattr $C$DW$38, DW_AT_location[DW_OP_addr pxDelayedTaskList]
     298                            .dwattr $C$DW$38, DW_AT_decl_file("C:/TI_ARM_Tiva_Projects/Source/tasks.c")
     299                            .dwattr $C$DW$38, DW_AT_decl_line(0xda)
     300                            .dwattr $C$DW$38, DW_AT_decl_column(0x2a)
     301                    
     302 00000004                   .bss    pxOverflowDelayedTaskList,4,4
     303                    $C$DW$39        .dwtag  DW_TAG_variable
     304                            .dwattr $C$DW$39, DW_AT_name("pxOverflowDelayedTaskList")
     305                            .dwattr $C$DW$39, DW_AT_TI_symbol_name("pxOverflowDelayedTaskList")
     306                            .dwattr $C$DW$39, DW_AT_type(*$C$DW$T$238)
     307                            .dwattr $C$DW$39, DW_AT_location[DW_OP_addr pxOverflowDelayedTaskList]
     308                            .dwattr $C$DW$39, DW_AT_decl_file("C:/TI_ARM_Tiva_Projects/Source/tasks.c")
     309                            .dwattr $C$DW$39, DW_AT_decl_line(0xdb)
     310                            .dwattr $C$DW$39, DW_AT_decl_column(0x2a)
     311                    
     312 00000000           xPendingReadyList:      .usect  ".bss:xPendingReadyList",20,4
     313                            .clink ".bss:xPendingReadyList"
     314                    $C$DW$40        .dwtag  DW_TAG_variable
     315                            .dwattr $C$DW$40, DW_AT_name("xPendingReadyList")
     316                            .dwattr $C$DW$40, DW_AT_TI_symbol_name("xPendingReadyList")
     317                            .dwattr $C$DW$40, DW_AT_type(*$C$DW$T$89)
     318                            .dwattr $C$DW$40, DW_AT_location[DW_OP_addr xPendingReadyList]
     319                            .dwattr $C$DW$40, DW_AT_decl_file("C:/TI_ARM_Tiva_Projects/Source/tasks.c")
     320                            .dwattr $C$DW$40, DW_AT_decl_line(0xdc)
     321                            .dwattr $C$DW$40, DW_AT_decl_column(0x1f)
     322                    
     323 00000000           xTasksWaitingTermination:       .usect  ".bss:xTasksWaitingTermination",20,4
     324                            .clink ".bss:xTasksWaitingTermination"
     325                    $C$DW$41        .dwtag  DW_TAG_variable
     326                            .dwattr $C$DW$41, DW_AT_name("xTasksWaitingTermination")
     327                            .dwattr $C$DW$41, DW_AT_TI_symbol_name("xTasksWaitingTermination")
     328                            .dwattr $C$DW$41, DW_AT_type(*$C$DW$T$89)
     329                            .dwattr $C$DW$41, DW_AT_location[DW_OP_addr xTasksWaitingTermination]
     330                            .dwattr $C$DW$41, DW_AT_decl_file("C:/TI_ARM_Tiva_Projects/Source/tasks.c")
TI ARM Assembler PC v15.12.1 Tue Oct 18 10:42:35 2016

Tools Copyright (c) 1996-2015 Texas Instruments Incorporated
tasks.asm                                                            PAGE    7

     331                            .dwattr $C$DW$41, DW_AT_decl_line(0xe0)
     332                            .dwattr $C$DW$41, DW_AT_decl_column(0x20)
     333                    
     334 00000004                   .data
     335                            .align  4
     336                            .elfsym uxTasksDeleted,SYM_SIZE(4)
     337 00000004           uxTasksDeleted:
     338 00000004 00000000          .bits   0,32                    ; uxTasksDeleted @ 0
     339                    
     340                    $C$DW$42        .dwtag  DW_TAG_variable
     341                            .dwattr $C$DW$42, DW_AT_name("uxTasksDeleted")
     342                            .dwattr $C$DW$42, DW_AT_TI_symbol_name("uxTasksDeleted")
     343                            .dwattr $C$DW$42, DW_AT_type(*$C$DW$T$194)
     344                            .dwattr $C$DW$42, DW_AT_location[DW_OP_addr uxTasksDeleted]
     345                            .dwattr $C$DW$42, DW_AT_decl_file("C:/TI_ARM_Tiva_Projects/Source/tasks.c")
     346                            .dwattr $C$DW$42, DW_AT_decl_line(0xe1)
     347                            .dwattr $C$DW$42, DW_AT_decl_column(0x2e)
     348                    
     349 00000000           xSuspendedTaskList:     .usect  ".bss:xSuspendedTaskList",20,4
     350                            .clink ".bss:xSuspendedTaskList"
     351                    $C$DW$43        .dwtag  DW_TAG_variable
     352                            .dwattr $C$DW$43, DW_AT_name("xSuspendedTaskList")
     353                            .dwattr $C$DW$43, DW_AT_TI_symbol_name("xSuspendedTaskList")
     354                            .dwattr $C$DW$43, DW_AT_type(*$C$DW$T$89)
     355                            .dwattr $C$DW$43, DW_AT_location[DW_OP_addr xSuspendedTaskList]
     356                            .dwattr $C$DW$43, DW_AT_decl_file("C:/TI_ARM_Tiva_Projects/Source/tasks.c")
     357                            .dwattr $C$DW$43, DW_AT_decl_line(0xe7)
     358                            .dwattr $C$DW$43, DW_AT_decl_column(0x20)
     359                    
     360 00000008                   .data
     361                            .align  4
     362                            .elfsym uxCurrentNumberOfTasks,SYM_SIZE(4)
     363 00000008           uxCurrentNumberOfTasks:
     364 00000008 00000000          .bits   0,32                    ; uxCurrentNumberOfTasks @ 0
     365                    
     366                    $C$DW$44        .dwtag  DW_TAG_variable
     367                            .dwattr $C$DW$44, DW_AT_name("uxCurrentNumberOfTasks")
     368                            .dwattr $C$DW$44, DW_AT_TI_symbol_name("uxCurrentNumberOfTasks")
     369                            .dwattr $C$DW$44, DW_AT_type(*$C$DW$T$194)
     370                            .dwattr $C$DW$44, DW_AT_location[DW_OP_addr uxCurrentNumberOfTasks]
     371                            .dwattr $C$DW$44, DW_AT_decl_file("C:/TI_ARM_Tiva_Projects/Source/tasks.c")
     372                            .dwattr $C$DW$44, DW_AT_decl_line(0xf2)
     373                            .dwattr $C$DW$44, DW_AT_decl_column(0x2d)
     374                    
     375 0000000c                   .data
     376                            .align  4
     377                            .elfsym xTickCount,SYM_SIZE(4)
     378 0000000c           xTickCount:
     379 0000000c 00000000          .bits   0,32                    ; xTickCount @ 0
     380                    
     381                    $C$DW$45        .dwtag  DW_TAG_variable
     382                            .dwattr $C$DW$45, DW_AT_name("xTickCount")
     383                            .dwattr $C$DW$45, DW_AT_TI_symbol_name("xTickCount")
     384                            .dwattr $C$DW$45, DW_AT_type(*$C$DW$T$192)
     385                            .dwattr $C$DW$45, DW_AT_location[DW_OP_addr xTickCount]
TI ARM Assembler PC v15.12.1 Tue Oct 18 10:42:35 2016

Tools Copyright (c) 1996-2015 Texas Instruments Incorporated
tasks.asm                                                            PAGE    8

     386                            .dwattr $C$DW$45, DW_AT_decl_file("C:/TI_ARM_Tiva_Projects/Source/tasks.c")
     387                            .dwattr $C$DW$45, DW_AT_decl_line(0xf3)
     388                            .dwattr $C$DW$45, DW_AT_decl_column(0x2c)
     389                    
     390 00000010                   .data
     391                            .align  4
     392                            .elfsym uxTopReadyPriority,SYM_SIZE(4)
     393 00000010           uxTopReadyPriority:
     394 00000010 00000000          .bits   0,32                    ; uxTopReadyPriority @ 0
     395                    
     396                    $C$DW$46        .dwtag  DW_TAG_variable
     397                            .dwattr $C$DW$46, DW_AT_name("uxTopReadyPriority")
     398                            .dwattr $C$DW$46, DW_AT_TI_symbol_name("uxTopReadyPriority")
     399                            .dwattr $C$DW$46, DW_AT_type(*$C$DW$T$194)
     400                            .dwattr $C$DW$46, DW_AT_location[DW_OP_addr uxTopReadyPriority]
     401                            .dwattr $C$DW$46, DW_AT_decl_file("C:/TI_ARM_Tiva_Projects/Source/tasks.c")
     402                            .dwattr $C$DW$46, DW_AT_decl_line(0xf4)
     403                            .dwattr $C$DW$46, DW_AT_decl_column(0x2d)
     404                    
     405 00000014                   .data
     406                            .align  4
     407                            .elfsym xSchedulerRunning,SYM_SIZE(4)
     408 00000014           xSchedulerRunning:
     409 00000014 00000000          .bits   0,32                    ; xSchedulerRunning @ 0
     410                    
     411                    $C$DW$47        .dwtag  DW_TAG_variable
     412                            .dwattr $C$DW$47, DW_AT_name("xSchedulerRunning")
     413                            .dwattr $C$DW$47, DW_AT_TI_symbol_name("xSchedulerRunning")
     414                            .dwattr $C$DW$47, DW_AT_type(*$C$DW$T$158)
     415                            .dwattr $C$DW$47, DW_AT_location[DW_OP_addr xSchedulerRunning]
     416                            .dwattr $C$DW$47, DW_AT_decl_file("C:/TI_ARM_Tiva_Projects/Source/tasks.c")
     417                            .dwattr $C$DW$47, DW_AT_decl_line(0xf5)
     418                            .dwattr $C$DW$47, DW_AT_decl_column(0x2c)
     419                    
     420 00000018                   .data
     421                            .align  4
     422                            .elfsym uxPendedTicks,SYM_SIZE(4)
     423 00000018           uxPendedTicks:
     424 00000018 00000000          .bits   0,32                    ; uxPendedTicks @ 0
     425                    
     426                    $C$DW$48        .dwtag  DW_TAG_variable
     427                            .dwattr $C$DW$48, DW_AT_name("uxPendedTicks")
     428                            .dwattr $C$DW$48, DW_AT_TI_symbol_name("uxPendedTicks")
     429                            .dwattr $C$DW$48, DW_AT_type(*$C$DW$T$194)
     430                            .dwattr $C$DW$48, DW_AT_location[DW_OP_addr uxPendedTicks]
     431                            .dwattr $C$DW$48, DW_AT_decl_file("C:/TI_ARM_Tiva_Projects/Source/tasks.c")
     432                            .dwattr $C$DW$48, DW_AT_decl_line(0xf6)
     433                            .dwattr $C$DW$48, DW_AT_decl_column(0x2d)
     434                    
     435 0000001c                   .data
     436                            .align  4
     437                            .elfsym xYieldPending,SYM_SIZE(4)
     438 0000001c           xYieldPending:
     439 0000001c 00000000          .bits   0,32                    ; xYieldPending @ 0
     440                    
TI ARM Assembler PC v15.12.1 Tue Oct 18 10:42:35 2016

Tools Copyright (c) 1996-2015 Texas Instruments Incorporated
tasks.asm                                                            PAGE    9

     441                    $C$DW$49        .dwtag  DW_TAG_variable
     442                            .dwattr $C$DW$49, DW_AT_name("xYieldPending")
     443                            .dwattr $C$DW$49, DW_AT_TI_symbol_name("xYieldPending")
     444                            .dwattr $C$DW$49, DW_AT_type(*$C$DW$T$158)
     445                            .dwattr $C$DW$49, DW_AT_location[DW_OP_addr xYieldPending]
     446                            .dwattr $C$DW$49, DW_AT_decl_file("C:/TI_ARM_Tiva_Projects/Source/tasks.c")
     447                            .dwattr $C$DW$49, DW_AT_decl_line(0xf7)
     448                            .dwattr $C$DW$49, DW_AT_decl_column(0x2c)
     449                    
     450 00000020                   .data
     451                            .align  4
     452                            .elfsym xNumOfOverflows,SYM_SIZE(4)
     453 00000020           xNumOfOverflows:
     454 00000020 00000000          .bits   0,32                    ; xNumOfOverflows @ 0
     455                    
     456                    $C$DW$50        .dwtag  DW_TAG_variable
     457                            .dwattr $C$DW$50, DW_AT_name("xNumOfOverflows")
     458                            .dwattr $C$DW$50, DW_AT_TI_symbol_name("xNumOfOverflows")
     459                            .dwattr $C$DW$50, DW_AT_type(*$C$DW$T$158)
     460                            .dwattr $C$DW$50, DW_AT_location[DW_OP_addr xNumOfOverflows]
     461                            .dwattr $C$DW$50, DW_AT_decl_file("C:/TI_ARM_Tiva_Projects/Source/tasks.c")
     462                            .dwattr $C$DW$50, DW_AT_decl_line(0xf8)
     463                            .dwattr $C$DW$50, DW_AT_decl_column(0x2c)
     464                    
     465 00000024                   .data
     466                            .align  4
     467                            .elfsym uxTaskNumber,SYM_SIZE(4)
     468 00000024           uxTaskNumber:
     469 00000024 00000000          .bits   0,32                    ; uxTaskNumber @ 0
     470                    
     471                    $C$DW$51        .dwtag  DW_TAG_variable
     472                            .dwattr $C$DW$51, DW_AT_name("uxTaskNumber")
     473                            .dwattr $C$DW$51, DW_AT_TI_symbol_name("uxTaskNumber")
     474                            .dwattr $C$DW$51, DW_AT_type(*$C$DW$T$32)
     475                            .dwattr $C$DW$51, DW_AT_location[DW_OP_addr uxTaskNumber]
     476                            .dwattr $C$DW$51, DW_AT_decl_file("C:/TI_ARM_Tiva_Projects/Source/tasks.c")
     477                            .dwattr $C$DW$51, DW_AT_decl_line(0xf9)
     478                            .dwattr $C$DW$51, DW_AT_decl_column(0x24)
     479                    
     480 00000028                   .data
     481                            .align  4
     482                            .elfsym xNextTaskUnblockTime,SYM_SIZE(4)
     483 00000028           xNextTaskUnblockTime:
     484 00000028 00000000          .bits   0,32                    ; xNextTaskUnblockTime @ 0
     485                    
     486                    $C$DW$52        .dwtag  DW_TAG_variable
     487                            .dwattr $C$DW$52, DW_AT_name("xNextTaskUnblockTime")
     488                            .dwattr $C$DW$52, DW_AT_TI_symbol_name("xNextTaskUnblockTime")
     489                            .dwattr $C$DW$52, DW_AT_type(*$C$DW$T$192)
     490                            .dwattr $C$DW$52, DW_AT_location[DW_OP_addr xNextTaskUnblockTime]
     491                            .dwattr $C$DW$52, DW_AT_decl_file("C:/TI_ARM_Tiva_Projects/Source/tasks.c")
     492                            .dwattr $C$DW$52, DW_AT_decl_line(0xfa)
     493                            .dwattr $C$DW$52, DW_AT_decl_column(0x2c)
     494                    
     495 0000002c                   .data
TI ARM Assembler PC v15.12.1 Tue Oct 18 10:42:35 2016

Tools Copyright (c) 1996-2015 Texas Instruments Incorporated
tasks.asm                                                            PAGE   10

     496                            .align  4
     497                            .elfsym uxSchedulerSuspended,SYM_SIZE(4)
     498 0000002c           uxSchedulerSuspended:
     499 0000002c 00000000          .bits   0,32                    ; uxSchedulerSuspended @ 0
     500                    
     501                    $C$DW$53        .dwtag  DW_TAG_variable
     502                            .dwattr $C$DW$53, DW_AT_name("uxSchedulerSuspended")
     503                            .dwattr $C$DW$53, DW_AT_TI_symbol_name("uxSchedulerSuspended")
     504                            .dwattr $C$DW$53, DW_AT_type(*$C$DW$T$194)
     505                            .dwattr $C$DW$53, DW_AT_location[DW_OP_addr uxSchedulerSuspended]
     506                            .dwattr $C$DW$53, DW_AT_decl_file("C:/TI_ARM_Tiva_Projects/Source/tasks.c")
     507                            .dwattr $C$DW$53, DW_AT_decl_line(0x104)
     508                            .dwattr $C$DW$53, DW_AT_decl_column(0x2d)
     509                    
     510                    ;       C:\TI_CodeComposer\ccsv6\tools\compiler\ti-cgt-arm_15.12.1.LTS\bin\armacpia.exe -@C:\\Users\\R
     511 00000000                   .sect   ".text"
     512                            .clink
     513                            .thumbfunc xTaskGenericCreate
     514 00000000                   .thumb
     515                            .global xTaskGenericCreate
     516                    
     517                    $C$DW$54        .dwtag  DW_TAG_subprogram
     518                            .dwattr $C$DW$54, DW_AT_name("xTaskGenericCreate")
     519                            .dwattr $C$DW$54, DW_AT_low_pc(xTaskGenericCreate)
     520                            .dwattr $C$DW$54, DW_AT_high_pc(0x00)
     521                            .dwattr $C$DW$54, DW_AT_TI_symbol_name("xTaskGenericCreate")
     522                            .dwattr $C$DW$54, DW_AT_external
     523                            .dwattr $C$DW$54, DW_AT_type(*$C$DW$T$64)
     524                            .dwattr $C$DW$54, DW_AT_TI_begin_file("C:/TI_ARM_Tiva_Projects/Source/tasks.c")
     525                            .dwattr $C$DW$54, DW_AT_TI_begin_line(0x227)
     526                            .dwattr $C$DW$54, DW_AT_TI_begin_column(0x0c)
     527                            .dwattr $C$DW$54, DW_AT_decl_file("C:/TI_ARM_Tiva_Projects/Source/tasks.c")
     528                            .dwattr $C$DW$54, DW_AT_decl_line(0x227)
     529                            .dwattr $C$DW$54, DW_AT_decl_column(0x0c)
     530                            .dwattr $C$DW$54, DW_AT_TI_max_frame_size(0x28)
     531                            .dwpsn  file "C:/TI_ARM_Tiva_Projects/Source/tasks.c",line 552,column 1,is_stmt,address xTaskG
     532                    
     533                            .dwfde $C$DW$CIE, xTaskGenericCreate
     534                    $C$DW$55        .dwtag  DW_TAG_formal_parameter
     535                            .dwattr $C$DW$55, DW_AT_name("pxTaskCode")
     536                            .dwattr $C$DW$55, DW_AT_TI_symbol_name("pxTaskCode")
     537                            .dwattr $C$DW$55, DW_AT_type(*$C$DW$T$51)
     538                            .dwattr $C$DW$55, DW_AT_location[DW_OP_reg0]
     539                    
     540                    $C$DW$56        .dwtag  DW_TAG_formal_parameter
     541                            .dwattr $C$DW$56, DW_AT_name("pcName")
     542                            .dwattr $C$DW$56, DW_AT_TI_symbol_name("pcName")
     543                            .dwattr $C$DW$56, DW_AT_type(*$C$DW$T$54)
     544                            .dwattr $C$DW$56, DW_AT_location[DW_OP_reg1]
     545                    
     546                    $C$DW$57        .dwtag  DW_TAG_formal_parameter
     547                            .dwattr $C$DW$57, DW_AT_name("usStackDepth")
     548                            .dwattr $C$DW$57, DW_AT_TI_symbol_name("usStackDepth")
     549                            .dwattr $C$DW$57, DW_AT_type(*$C$DW$T$125)
     550                            .dwattr $C$DW$57, DW_AT_location[DW_OP_reg2]
TI ARM Assembler PC v15.12.1 Tue Oct 18 10:42:35 2016

Tools Copyright (c) 1996-2015 Texas Instruments Incorporated
tasks.asm                                                            PAGE   11

     551                    
     552                    $C$DW$58        .dwtag  DW_TAG_formal_parameter
     553                            .dwattr $C$DW$58, DW_AT_name("pvParameters")
     554                            .dwattr $C$DW$58, DW_AT_TI_symbol_name("pvParameters")
     555                            .dwattr $C$DW$58, DW_AT_type(*$C$DW$T$83)
     556                            .dwattr $C$DW$58, DW_AT_location[DW_OP_reg3]
     557                    
     558                    $C$DW$59        .dwtag  DW_TAG_formal_parameter
     559                            .dwattr $C$DW$59, DW_AT_name("uxPriority")
     560                            .dwattr $C$DW$59, DW_AT_TI_symbol_name("uxPriority")
     561                            .dwattr $C$DW$59, DW_AT_type(*$C$DW$T$32)
     562                            .dwattr $C$DW$59, DW_AT_location[DW_OP_breg13 40]
     563                    
     564                    $C$DW$60        .dwtag  DW_TAG_formal_parameter
     565                            .dwattr $C$DW$60, DW_AT_name("pxCreatedTask")
     566                            .dwattr $C$DW$60, DW_AT_TI_symbol_name("pxCreatedTask")
     567                            .dwattr $C$DW$60, DW_AT_type(*$C$DW$T$76)
     568                            .dwattr $C$DW$60, DW_AT_location[DW_OP_breg13 44]
     569                    
     570                    $C$DW$61        .dwtag  DW_TAG_formal_parameter
     571                            .dwattr $C$DW$61, DW_AT_name("puxStackBuffer")
     572                            .dwattr $C$DW$61, DW_AT_TI_symbol_name("puxStackBuffer")
     573                            .dwattr $C$DW$61, DW_AT_type(*$C$DW$T$161)
     574                            .dwattr $C$DW$61, DW_AT_location[DW_OP_breg13 48]
     575                    
     576                    $C$DW$62        .dwtag  DW_TAG_formal_parameter
     577                            .dwattr $C$DW$62, DW_AT_name("xRegions")
     578                            .dwattr $C$DW$62, DW_AT_TI_symbol_name("xRegions")
     579                            .dwattr $C$DW$62, DW_AT_type(*$C$DW$T$124)
     580                            .dwattr $C$DW$62, DW_AT_location[DW_OP_breg13 52]
     581                    
     582                    
     583                    ;*****************************************************************************
     584                    ;* FUNCTION NAME: xTaskGenericCreate                                         *
     585                    ;*                                                                           *
     586                    ;*   Regs Modified     : A1,A2,A3,A4,V1,V9,SP,LR,SR,D0,D0_hi,D1,D1_hi,D2,    *
     587                    ;*                           D2_hi,D3,D3_hi,D4,D4_hi,D5,D5_hi,D6,D6_hi,D7,   *
     588                    ;*                           D7_hi,FPEXC,FPSCR                               *
     589                    ;*   Regs Used         : A1,A2,A3,A4,V1,V9,SP,LR,SR,D0,D0_hi,D1,D1_hi,D2,    *
     590                    ;*                           D2_hi,D3,D3_hi,D4,D4_hi,D5,D5_hi,D6,D6_hi,D7,   *
     591                    ;*                           D7_hi,FPEXC,FPSCR                               *
     592                    ;*   Local Frame Size  : 4 Args + 28 Auto + 8 Save = 40 byte                 *
     593                    ;*****************************************************************************
     594 00000000           xTaskGenericCreate:
     595                    ;* --------------------------------------------------------------------------*
     596                            .dwcfi  cfa_offset, 0
     597 00000000 B510              PUSH      {V1, LR}              ; [DPU_3_PIPE]  ; [ORIG 16-BIT INS]
     598                            .dwcfi  cfa_offset, 8
     599                            .dwcfi  save_reg_to_mem, 14, -4
     600                            .dwcfi  save_reg_to_mem, 4, -8
     601 00000002 0D20F1AD          SUB       SP, SP, #32           ; [DPU_3_PIPE]  ; [KEEP 32-BIT INS]
     602                            .dwcfi  cfa_offset, 40
     603                    $C$DW$63        .dwtag  DW_TAG_variable
     604                            .dwattr $C$DW$63, DW_AT_name("pxTaskCode")
     605                            .dwattr $C$DW$63, DW_AT_TI_symbol_name("pxTaskCode")
TI ARM Assembler PC v15.12.1 Tue Oct 18 10:42:35 2016

Tools Copyright (c) 1996-2015 Texas Instruments Incorporated
tasks.asm                                                            PAGE   12

     606                            .dwattr $C$DW$63, DW_AT_type(*$C$DW$T$51)
     607                            .dwattr $C$DW$63, DW_AT_location[DW_OP_breg13 4]
     608                    
     609                    $C$DW$64        .dwtag  DW_TAG_variable
     610                            .dwattr $C$DW$64, DW_AT_name("pcName")
     611                            .dwattr $C$DW$64, DW_AT_TI_symbol_name("pcName")
     612                            .dwattr $C$DW$64, DW_AT_type(*$C$DW$T$54)
     613                            .dwattr $C$DW$64, DW_AT_location[DW_OP_breg13 8]
     614                    
     615                    $C$DW$65        .dwtag  DW_TAG_variable
     616                            .dwattr $C$DW$65, DW_AT_name("usStackDepth")
     617                            .dwattr $C$DW$65, DW_AT_TI_symbol_name("usStackDepth")
     618                            .dwattr $C$DW$65, DW_AT_type(*$C$DW$T$125)
     619                            .dwattr $C$DW$65, DW_AT_location[DW_OP_breg13 12]
     620                    
     621                    $C$DW$66        .dwtag  DW_TAG_variable
     622                            .dwattr $C$DW$66, DW_AT_name("pvParameters")
     623                            .dwattr $C$DW$66, DW_AT_TI_symbol_name("pvParameters")
     624                            .dwattr $C$DW$66, DW_AT_type(*$C$DW$T$83)
     625                            .dwattr $C$DW$66, DW_AT_location[DW_OP_breg13 16]
     626                    
     627                    $C$DW$67        .dwtag  DW_TAG_variable
     628                            .dwattr $C$DW$67, DW_AT_name("xReturn")
     629                            .dwattr $C$DW$67, DW_AT_TI_symbol_name("xReturn")
     630                            .dwattr $C$DW$67, DW_AT_type(*$C$DW$T$64)
     631                            .dwattr $C$DW$67, DW_AT_location[DW_OP_breg13 20]
     632                    
     633                    $C$DW$68        .dwtag  DW_TAG_variable
     634                            .dwattr $C$DW$68, DW_AT_name("pxNewTCB")
     635                            .dwattr $C$DW$68, DW_AT_TI_symbol_name("pxNewTCB")
     636                            .dwattr $C$DW$68, DW_AT_type(*$C$DW$T$120)
     637                            .dwattr $C$DW$68, DW_AT_location[DW_OP_breg13 24]
     638                    
     639                    $C$DW$69        .dwtag  DW_TAG_variable
     640                            .dwattr $C$DW$69, DW_AT_name("pxTopOfStack")
     641                            .dwattr $C$DW$69, DW_AT_TI_symbol_name("pxTopOfStack")
     642                            .dwattr $C$DW$69, DW_AT_type(*$C$DW$T$33)
     643                            .dwattr $C$DW$69, DW_AT_location[DW_OP_breg13 28]
     644                    
     645 00000006 9304              STR       A4, [SP, #16]         ; [DPU_3_PIPE] |552|  ; [ORIG 16-BIT INS]
     646 00000008 200CF8AD          STRH      A3, [SP, #12]         ; [DPU_3_PIPE] |552|  ; [KEEP 32-BIT INS]
     647 0000000c 9102              STR       A2, [SP, #8]          ; [DPU_3_PIPE] |552|  ; [ORIG 16-BIT INS]
     648 0000000e 9001              STR       A1, [SP, #4]          ; [DPU_3_PIPE] |552|  ; [ORIG 16-BIT INS]
     649                            .dwpsn  file "C:/TI_ARM_Tiva_Projects/Source/tasks.c",line 562,column 2,is_stmt,isa 1
     650 00000010 990C              LDR       A2, [SP, #48]         ; [DPU_3_PIPE] |562|  ; [ORIG 16-BIT INS]
     651 00000012 000CF8BD          LDRH      A1, [SP, #12]         ; [DPU_3_PIPE] |562|  ; [KEEP 32-BIT INS]
     652                    $C$DW$70        .dwtag  DW_TAG_TI_branch
     653                            .dwattr $C$DW$70, DW_AT_low_pc(0x00)
     654                            .dwattr $C$DW$70, DW_AT_name("prvAllocateTCBAndStack")
     655                            .dwattr $C$DW$70, DW_AT_TI_call
     656                    
     657 00000016 FF45F000          BL        prvAllocateTCBAndStack ; [DPU_3_PIPE] |562|  ; [KEEP 32-BIT INS]
     658                            ; CALL OCCURS {prvAllocateTCBAndStack }  ; [] |562| 
     659 0000001a 9006              STR       A1, [SP, #24]         ; [DPU_3_PIPE] |562|  ; [ORIG 16-BIT INS]
     660                            .dwpsn  file "C:/TI_ARM_Tiva_Projects/Source/tasks.c",line 564,column 2,is_stmt,isa 1
TI ARM Assembler PC v15.12.1 Tue Oct 18 10:42:35 2016

Tools Copyright (c) 1996-2015 Texas Instruments Incorporated
tasks.asm                                                            PAGE   13

     661 0000001c 9806              LDR       A1, [SP, #24]         ; [DPU_3_PIPE] |564|  ; [ORIG 16-BIT INS]
     662 0000001e 2800              CMP       A1, #0                ; [DPU_3_PIPE] |564|  ; [ORIG 16-BIT INS]
     663 00000020 D060              BEQ       ||$C$L4||             ; [DPU_3_PIPE] |564|  ; [ORIG 16-BIT INS]
     664                            ; BRANCHCC OCCURS {||$C$L4||}    ; [] |564| 
     665                    ;* --------------------------------------------------------------------------*
     666                            .dwpsn  file "C:/TI_ARM_Tiva_Projects/Source/tasks.c",line 600,column 4,is_stmt,isa 1
     667 00000022 9906              LDR       A2, [SP, #24]         ; [DPU_3_PIPE] |600|  ; [ORIG 16-BIT INS]
     668 00000024 000CF8BD          LDRH      A1, [SP, #12]         ; [DPU_3_PIPE] |600|  ; [KEEP 32-BIT INS]
     669 00000028 6B09              LDR       A2, [A2, #48]         ; [DPU_3_PIPE] |600|  ; [ORIG 16-BIT INS]
     670 0000002a 1E40              SUBS      A1, A1, #1            ; [DPU_3_PIPE] |600|  ; [ORIG 16-BIT INS]
     671 0000002c 0180EB01          ADD       A2, A2, A1, LSL #2    ; [DPU_3_PIPE] |600|  ; [KEEP 32-BIT INS]
     672 00000030 9107              STR       A2, [SP, #28]         ; [DPU_3_PIPE] |600|  ; [ORIG 16-BIT INS]
     673                            .dwpsn  file "C:/TI_ARM_Tiva_Projects/Source/tasks.c",line 601,column 4,is_stmt,isa 1
     674 00000032 9807              LDR       A1, [SP, #28]         ; [DPU_3_PIPE] |601|  ; [ORIG 16-BIT INS]
     675 00000034 0007F020          BIC       A1, A1, #7            ; [DPU_3_PIPE] |601|  ; [KEEP 32-BIT INS]
     676 00000038 9007              STR       A1, [SP, #28]         ; [DPU_3_PIPE] |601|  ; [ORIG 16-BIT INS]
     677                            .dwpsn  file "C:/TI_ARM_Tiva_Projects/Source/tasks.c",line 621,column 3,is_stmt,isa 1
     678 0000003a 000CF8BD          LDRH      A1, [SP, #12]         ; [DPU_3_PIPE] |621|  ; [KEEP 32-BIT INS]
     679 0000003e 9A0A              LDR       A3, [SP, #40]         ; [DPU_3_PIPE] |621|  ; [ORIG 16-BIT INS]
     680 00000040 9B0D              LDR       A4, [SP, #52]         ; [DPU_3_PIPE] |621|  ; [ORIG 16-BIT INS]
     681 00000042 9000              STR       A1, [SP, #0]          ; [DPU_3_PIPE] |621|  ; [ORIG 16-BIT INS]
     682 00000044 9902              LDR       A2, [SP, #8]          ; [DPU_3_PIPE] |621|  ; [ORIG 16-BIT INS]
     683 00000046 9806              LDR       A1, [SP, #24]         ; [DPU_3_PIPE] |621|  ; [ORIG 16-BIT INS]
     684                    $C$DW$71        .dwtag  DW_TAG_TI_branch
     685                            .dwattr $C$DW$71, DW_AT_low_pc(0x00)
     686                            .dwattr $C$DW$71, DW_AT_name("prvInitialiseTCBVariables")
     687                            .dwattr $C$DW$71, DW_AT_TI_call
     688                    
     689 00000048 FE5CF000          BL        prvInitialiseTCBVariables ; [DPU_3_PIPE] |621|  ; [KEEP 32-BIT INS]
     690                            ; CALL OCCURS {prvInitialiseTCBVariables }  ; [] |621| 
     691                            .dwpsn  file "C:/TI_ARM_Tiva_Projects/Source/tasks.c",line 633,column 4,is_stmt,isa 1
     692 0000004c 9807              LDR       A1, [SP, #28]         ; [DPU_3_PIPE] |633|  ; [ORIG 16-BIT INS]
     693 0000004e 9901              LDR       A2, [SP, #4]          ; [DPU_3_PIPE] |633|  ; [ORIG 16-BIT INS]
     694 00000050 9A04              LDR       A3, [SP, #16]         ; [DPU_3_PIPE] |633|  ; [ORIG 16-BIT INS]
     695                    $C$DW$72        .dwtag  DW_TAG_TI_branch
     696                            .dwattr $C$DW$72, DW_AT_low_pc(0x00)
     697                            .dwattr $C$DW$72, DW_AT_name("pxPortInitialiseStack")
     698                            .dwattr $C$DW$72, DW_AT_TI_call
     699                    
     700 00000052 FFFEF7FF!         BL        pxPortInitialiseStack ; [DPU_3_PIPE] |633|  ; [KEEP 32-BIT INS]
     701                            ; CALL OCCURS {pxPortInitialiseStack }  ; [] |633| 
     702 00000056 9906              LDR       A2, [SP, #24]         ; [DPU_3_PIPE] |633|  ; [ORIG 16-BIT INS]
     703 00000058 6008              STR       A1, [A2, #0]          ; [DPU_3_PIPE] |633|  ; [ORIG 16-BIT INS]
     704                            .dwpsn  file "C:/TI_ARM_Tiva_Projects/Source/tasks.c",line 637,column 3,is_stmt,isa 1
     705 0000005a 980B              LDR       A1, [SP, #44]         ; [DPU_3_PIPE] |637|  ; [ORIG 16-BIT INS]
     706 0000005c B110              CBZ       A1, ||$C$L1||         ; []  ; [ORIG 16-BIT INS]
     707                            ; BRANCHCC OCCURS {||$C$L1||}    ; [] |637| 
     708                    ;* --------------------------------------------------------------------------*
     709                            .dwpsn  file "C:/TI_ARM_Tiva_Projects/Source/tasks.c",line 642,column 4,is_stmt,isa 1
     710 0000005e 9806              LDR       A1, [SP, #24]         ; [DPU_3_PIPE] |642|  ; [ORIG 16-BIT INS]
     711 00000060 990B              LDR       A2, [SP, #44]         ; [DPU_3_PIPE] |642|  ; [ORIG 16-BIT INS]
     712 00000062 6008              STR       A1, [A2, #0]          ; [DPU_3_PIPE] |642|  ; [ORIG 16-BIT INS]
     713                            .dwpsn  file "C:/TI_ARM_Tiva_Projects/Source/tasks.c",line 643,column 3,is_stmt,isa 1
     714                    ;* --------------------------------------------------------------------------*
     715 00000064           ||$C$L1||:    
TI ARM Assembler PC v15.12.1 Tue Oct 18 10:42:35 2016

Tools Copyright (c) 1996-2015 Texas Instruments Incorporated
tasks.asm                                                            PAGE   14

     716                            .dwpsn  file "C:/TI_ARM_Tiva_Projects/Source/tasks.c",line 651,column 3,is_stmt,isa 1
     717                    $C$DW$73        .dwtag  DW_TAG_TI_branch
     718                            .dwattr $C$DW$73, DW_AT_low_pc(0x00)
     719                            .dwattr $C$DW$73, DW_AT_name("vPortEnterCritical")
     720                            .dwattr $C$DW$73, DW_AT_TI_call
     721                    
     722 00000064 FFFEF7FF!         BL        vPortEnterCritical    ; [DPU_3_PIPE] |651|  ; [KEEP 32-BIT INS]
     723                            ; CALL OCCURS {vPortEnterCritical }  ; [] |651| 
     724                            .dwpsn  file "C:/TI_ARM_Tiva_Projects/Source/tasks.c",line 653,column 4,is_stmt,isa 1
     725 00000068 4998              LDR       A2, $C$CON1           ; [DPU_3_PIPE] |653|  ; [ORIG 16-BIT INS]
     726 0000006a 6808              LDR       A1, [A2, #0]          ; [DPU_3_PIPE] |653|  ; [ORIG 16-BIT INS]
     727 0000006c 1C40              ADDS      A1, A1, #1            ; [DPU_3_PIPE] |653|  ; [ORIG 16-BIT INS]
     728 0000006e 6008              STR       A1, [A2, #0]          ; [DPU_3_PIPE] |653|  ; [ORIG 16-BIT INS]
     729                            .dwpsn  file "C:/TI_ARM_Tiva_Projects/Source/tasks.c",line 654,column 4,is_stmt,isa 1
     730 00000070 4897              LDR       A1, $C$CON2           ; [DPU_3_PIPE] |654|  ; [ORIG 16-BIT INS]
     731 00000072 6800              LDR       A1, [A1, #0]          ; [DPU_3_PIPE] |654|  ; [ORIG 16-BIT INS]
     732 00000074 B948              CBNZ      A1, ||$C$L2||         ; []  ; [ORIG 16-BIT INS]
     733                            ; BRANCHCC OCCURS {||$C$L2||}    ; [] |654| 
     734                    ;* --------------------------------------------------------------------------*
     735                            .dwpsn  file "C:/TI_ARM_Tiva_Projects/Source/tasks.c",line 658,column 5,is_stmt,isa 1
     736 00000076 9806              LDR       A1, [SP, #24]         ; [DPU_3_PIPE] |658|  ; [ORIG 16-BIT INS]
     737 00000078 4995              LDR       A2, $C$CON2           ; [DPU_3_PIPE] |658|  ; [ORIG 16-BIT INS]
     738 0000007a 6008              STR       A1, [A2, #0]          ; [DPU_3_PIPE] |658|  ; [ORIG 16-BIT INS]
     739                            .dwpsn  file "C:/TI_ARM_Tiva_Projects/Source/tasks.c",line 660,column 5,is_stmt,isa 1
     740 0000007c 4893              LDR       A1, $C$CON1           ; [DPU_3_PIPE] |660|  ; [ORIG 16-BIT INS]
     741 0000007e 6800              LDR       A1, [A1, #0]          ; [DPU_3_PIPE] |660|  ; [ORIG 16-BIT INS]
     742 00000080 2801              CMP       A1, #1                ; [DPU_3_PIPE] |660|  ; [ORIG 16-BIT INS]
     743 00000082 D10F              BNE       ||$C$L3||             ; [DPU_3_PIPE] |660|  ; [ORIG 16-BIT INS]
     744                            ; BRANCHCC OCCURS {||$C$L3||}    ; [] |660| 
     745                    ;* --------------------------------------------------------------------------*
     746                            .dwpsn  file "C:/TI_ARM_Tiva_Projects/Source/tasks.c",line 665,column 6,is_stmt,isa 1
     747                    $C$DW$74        .dwtag  DW_TAG_TI_branch
     748                            .dwattr $C$DW$74, DW_AT_low_pc(0x00)
     749                            .dwattr $C$DW$74, DW_AT_name("prvInitialiseTaskLists")
     750                            .dwattr $C$DW$74, DW_AT_TI_call
     751                    
     752 00000084 FE8BF000          BL        prvInitialiseTaskLists ; [DPU_3_PIPE] |665|  ; [KEEP 32-BIT INS]
     753                            ; CALL OCCURS {prvInitialiseTaskLists }  ; [] |665| 
     754                            .dwpsn  file "C:/TI_ARM_Tiva_Projects/Source/tasks.c",line 666,column 5,is_stmt,isa 1
     755 00000088 E00C              B         ||$C$L3||             ; [DPU_3_PIPE] |666|  ; [ORIG 16-BIT INS]
     756                            ; BRANCH OCCURS {||$C$L3||}      ; [] |666| 
     757                    ;* --------------------------------------------------------------------------*
     758                    ;* --------------------------------------------------------------------------*
     759 0000008a           ||$C$L2||:    
     760                            .dwpsn  file "C:/TI_ARM_Tiva_Projects/Source/tasks.c",line 677,column 5,is_stmt,isa 1
     761 0000008a 48A1              LDR       A1, $C$CON3           ; [DPU_3_PIPE] |677|  ; [ORIG 16-BIT INS]
     762 0000008c 6800              LDR       A1, [A1, #0]          ; [DPU_3_PIPE] |677|  ; [ORIG 16-BIT INS]
     763 0000008e B948              CBNZ      A1, ||$C$L3||         ; []  ; [ORIG 16-BIT INS]
     764                            ; BRANCHCC OCCURS {||$C$L3||}    ; [] |677| 
     765                    ;* --------------------------------------------------------------------------*
     766                            .dwpsn  file "C:/TI_ARM_Tiva_Projects/Source/tasks.c",line 679,column 6,is_stmt,isa 1
     767 00000090 488F              LDR       A1, $C$CON2           ; [DPU_3_PIPE] |679|  ; [ORIG 16-BIT INS]
     768 00000092 6801              LDR       A2, [A1, #0]          ; [DPU_3_PIPE] |679|  ; [ORIG 16-BIT INS]
     769 00000094 980A              LDR       A1, [SP, #40]         ; [DPU_3_PIPE] |679|  ; [ORIG 16-BIT INS]
     770 00000096 6AC9              LDR       A2, [A2, #44]         ; [DPU_3_PIPE] |679|  ; [ORIG 16-BIT INS]
TI ARM Assembler PC v15.12.1 Tue Oct 18 10:42:35 2016

Tools Copyright (c) 1996-2015 Texas Instruments Incorporated
tasks.asm                                                            PAGE   15

     771 00000098 4288              CMP       A1, A2                ; [DPU_3_PIPE] |679|  ; [ORIG 16-BIT INS]
     772 0000009a D303              BCC       ||$C$L3||             ; [DPU_3_PIPE] |679|  ; [ORIG 16-BIT INS]
     773                            ; BRANCHCC OCCURS {||$C$L3||}    ; [] |679| 
     774                    ;* --------------------------------------------------------------------------*
     775                            .dwpsn  file "C:/TI_ARM_Tiva_Projects/Source/tasks.c",line 681,column 7,is_stmt,isa 1
     776 0000009c 9806              LDR       A1, [SP, #24]         ; [DPU_3_PIPE] |681|  ; [ORIG 16-BIT INS]
     777 0000009e 498C              LDR       A2, $C$CON2           ; [DPU_3_PIPE] |681|  ; [ORIG 16-BIT INS]
     778 000000a0 6008              STR       A1, [A2, #0]          ; [DPU_3_PIPE] |681|  ; [ORIG 16-BIT INS]
     779                            .dwpsn  file "C:/TI_ARM_Tiva_Projects/Source/tasks.c",line 682,column 6,is_stmt,isa 1
     780 000000a2 E7FF              B         ||$C$L3||             ; [DPU_3_PIPE] |682|  ; [ORIG 16-BIT INS]
     781                            ; BRANCH OCCURS {||$C$L3||}      ; [] |682| 
     782                    ;* --------------------------------------------------------------------------*
     783                    ;* --------------------------------------------------------------------------*
     784 000000a4           ||$C$L3||:    
     785                            .dwpsn  file "C:/TI_ARM_Tiva_Projects/Source/tasks.c",line 694,column 4,is_stmt,isa 1
     786 000000a4 499B              LDR       A2, $C$CON4           ; [DPU_3_PIPE] |694|  ; [ORIG 16-BIT INS]
     787 000000a6 6808              LDR       A1, [A2, #0]          ; [DPU_3_PIPE] |694|  ; [ORIG 16-BIT INS]
     788 000000a8 1C40              ADDS      A1, A1, #1            ; [DPU_3_PIPE] |694|  ; [ORIG 16-BIT INS]
     789 000000aa 6008              STR       A1, [A2, #0]          ; [DPU_3_PIPE] |694|  ; [ORIG 16-BIT INS]
     790                            .dwpsn  file "C:/TI_ARM_Tiva_Projects/Source/tasks.c",line 699,column 5,is_stmt,isa 1
     791 000000ac 4899              LDR       A1, $C$CON4           ; [DPU_3_PIPE] |699|  ; [ORIG 16-BIT INS]
     792 000000ae 9906              LDR       A2, [SP, #24]         ; [DPU_3_PIPE] |699|  ; [ORIG 16-BIT INS]
     793 000000b0 6800              LDR       A1, [A1, #0]          ; [DPU_3_PIPE] |699|  ; [ORIG 16-BIT INS]
     794 000000b2 6408              STR       A1, [A2, #64]         ; [DPU_3_PIPE] |699|  ; [ORIG 16-BIT INS]
     795                            .dwpsn  file "C:/TI_ARM_Tiva_Projects/Source/tasks.c",line 704,column 4,is_stmt,isa 1
     796 000000b4 4A98              LDR       A3, $C$CON5           ; [DPU_3_PIPE] |704|  ; [ORIG 16-BIT INS]
     797 000000b6 9806              LDR       A1, [SP, #24]         ; [DPU_3_PIPE] |704|  ; [ORIG 16-BIT INS]
     798 000000b8 6813              LDR       A4, [A3, #0]          ; [DPU_3_PIPE] |704|  ; [ORIG 16-BIT INS]
     799 000000ba 9906              LDR       A2, [SP, #24]         ; [DPU_3_PIPE] |704|  ; [ORIG 16-BIT INS]
     800 000000bc 6AC4              LDR       V1, [A1, #44]         ; [DPU_3_PIPE] |704|  ; [ORIG 16-BIT INS]
     801 000000be 2001              MOVS      A1, #1                ; [DPU_3_PIPE] |704|  ; [ORIG 16-BIT INS]
     802 000000c0 40A0              LSLS      A1, A1, V1            ; [DPU_3_PIPE] |704|  ; [ORIG 16-BIT INS]
     803 000000c2 4318              ORRS      A1, A1, A4            ; [DPU_3_PIPE] |704|  ; [ORIG 16-BIT INS]
     804 000000c4 6010              STR       A1, [A3, #0]          ; [DPU_3_PIPE] |704|  ; [ORIG 16-BIT INS]
     805 000000c6 4895              LDR       A1, $C$CON6           ; [DPU_3_PIPE] |704|  ; [ORIG 16-BIT INS]
     806 000000c8 6ACB              LDR       A4, [A2, #44]         ; [DPU_3_PIPE] |704|  ; [ORIG 16-BIT INS]
     807 000000ca 9906              LDR       A2, [SP, #24]         ; [DPU_3_PIPE] |704|  ; [ORIG 16-BIT INS]
     808 000000cc 009A              LSLS      A3, A4, #2            ; [DPU_3_PIPE] |704|  ; [ORIG 16-BIT INS]
     809 000000ce 1D09              ADDS      A2, A2, #4            ; [DPU_3_PIPE] |704|  ; [ORIG 16-BIT INS]
     810 000000d0 1203EB02          ADD       A3, A3, A4, LSL #4    ; [DPU_3_PIPE] |704|  ; [KEEP 32-BIT INS]
     811 000000d4 1880              ADDS      A1, A1, A3            ; [DPU_3_PIPE] |704|  ; [ORIG 16-BIT INS]
     812                    $C$DW$75        .dwtag  DW_TAG_TI_branch
     813                            .dwattr $C$DW$75, DW_AT_low_pc(0x00)
     814                            .dwattr $C$DW$75, DW_AT_name("vListInsertEnd")
     815                            .dwattr $C$DW$75, DW_AT_TI_call
     816                    
     817 000000d6 FFFEF7FF!         BL        vListInsertEnd        ; [DPU_3_PIPE] |704|  ; [KEEP 32-BIT INS]
     818                            ; CALL OCCURS {vListInsertEnd }  ; [] |704| 
     819                            .dwpsn  file "C:/TI_ARM_Tiva_Projects/Source/tasks.c",line 706,column 4,is_stmt,isa 1
     820 000000da 2001              MOVS      A1, #1                ; [DPU_3_PIPE] |706|  ; [ORIG 16-BIT INS]
     821 000000dc 9005              STR       A1, [SP, #20]         ; [DPU_3_PIPE] |706|  ; [ORIG 16-BIT INS]
     822                            .dwpsn  file "C:/TI_ARM_Tiva_Projects/Source/tasks.c",line 707,column 4,is_stmt,isa 1
     823                            .dwpsn  file "C:/TI_ARM_Tiva_Projects/Source/tasks.c",line 709,column 3,is_stmt,isa 1
     824                    $C$DW$76        .dwtag  DW_TAG_TI_branch
     825                            .dwattr $C$DW$76, DW_AT_low_pc(0x00)
TI ARM Assembler PC v15.12.1 Tue Oct 18 10:42:35 2016

Tools Copyright (c) 1996-2015 Texas Instruments Incorporated
tasks.asm                                                            PAGE   16

     826                            .dwattr $C$DW$76, DW_AT_name("vPortExitCritical")
     827                            .dwattr $C$DW$76, DW_AT_TI_call
     828                    
     829 000000de FFFEF7FF!         BL        vPortExitCritical     ; [DPU_3_PIPE] |709|  ; [KEEP 32-BIT INS]
     830                            ; CALL OCCURS {vPortExitCritical }  ; [] |709| 
     831                            .dwpsn  file "C:/TI_ARM_Tiva_Projects/Source/tasks.c",line 710,column 2,is_stmt,isa 1
     832 000000e2 E002              B         ||$C$L5||             ; [DPU_3_PIPE] |710|  ; [ORIG 16-BIT INS]
     833                            ; BRANCH OCCURS {||$C$L5||}      ; [] |710| 
     834                    ;* --------------------------------------------------------------------------*
     835 000000e4           ||$C$L4||:    
     836                            .dwpsn  file "C:/TI_ARM_Tiva_Projects/Source/tasks.c",line 713,column 3,is_stmt,isa 1
     837 000000e4 30FFF04F          MOV       A1, #-1               ; [DPU_3_PIPE] |713|  ; [KEEP 32-BIT INS]
     838 000000e8 9005              STR       A1, [SP, #20]         ; [DPU_3_PIPE] |713|  ; [ORIG 16-BIT INS]
     839                    ;* --------------------------------------------------------------------------*
     840 000000ea           ||$C$L5||:    
     841                            .dwpsn  file "C:/TI_ARM_Tiva_Projects/Source/tasks.c",line 717,column 2,is_stmt,isa 1
     842 000000ea 9805              LDR       A1, [SP, #20]         ; [DPU_3_PIPE] |717|  ; [ORIG 16-BIT INS]
     843 000000ec 2801              CMP       A1, #1                ; [DPU_3_PIPE] |717|  ; [ORIG 16-BIT INS]
     844 000000ee D108              BNE       ||$C$L6||             ; [DPU_3_PIPE] |717|  ; [ORIG 16-BIT INS]
     845                            ; BRANCHCC OCCURS {||$C$L6||}    ; [] |717| 
     846                    ;* --------------------------------------------------------------------------*
     847                            .dwpsn  file "C:/TI_ARM_Tiva_Projects/Source/tasks.c",line 719,column 3,is_stmt,isa 1
     848 000000f0 4887              LDR       A1, $C$CON3           ; [DPU_3_PIPE] |719|  ; [ORIG 16-BIT INS]
     849 000000f2 6800              LDR       A1, [A1, #0]          ; [DPU_3_PIPE] |719|  ; [ORIG 16-BIT INS]
     850 000000f4 B128              CBZ       A1, ||$C$L6||         ; []  ; [ORIG 16-BIT INS]
     851                            ; BRANCHCC OCCURS {||$C$L6||}    ; [] |719| 
     852                    ;* --------------------------------------------------------------------------*
     853                            .dwpsn  file "C:/TI_ARM_Tiva_Projects/Source/tasks.c",line 723,column 4,is_stmt,isa 1
     854 000000f6 4876              LDR       A1, $C$CON2           ; [DPU_3_PIPE] |723|  ; [ORIG 16-BIT INS]
     855 000000f8 6801              LDR       A2, [A1, #0]          ; [DPU_3_PIPE] |723|  ; [ORIG 16-BIT INS]
     856 000000fa 980A              LDR       A1, [SP, #40]         ; [DPU_3_PIPE] |723|  ; [ORIG 16-BIT INS]
     857 000000fc 6AC9              LDR       A2, [A2, #44]         ; [DPU_3_PIPE] |723|  ; [ORIG 16-BIT INS]
     858 000000fe 4288              CMP       A1, A2                ; [DPU_3_PIPE] |723|  ; [ORIG 16-BIT INS]
     859 00000100 D8FF              BHI       ||$C$L6||             ; [DPU_3_PIPE] |723|  ; [ORIG 16-BIT INS]
     860                            ; BRANCHCC OCCURS {||$C$L6||}    ; [] |723| 
     861                    ;* --------------------------------------------------------------------------*
     862                            .dwpsn  file "C:/TI_ARM_Tiva_Projects/Source/tasks.c",line 726,column 4,is_stmt,isa 1
     863                            .dwpsn  file "C:/TI_ARM_Tiva_Projects/Source/tasks.c",line 731,column 3,is_stmt,isa 1
     864                    ;* --------------------------------------------------------------------------*
     865 00000102           ||$C$L6||:    
     866                            .dwpsn  file "C:/TI_ARM_Tiva_Projects/Source/tasks.c",line 738,column 2,is_stmt,isa 1
     867 00000102 9805              LDR       A1, [SP, #20]         ; [DPU_3_PIPE] |738|  ; [ORIG 16-BIT INS]
     868                            .dwpsn  file "C:/TI_ARM_Tiva_Projects/Source/tasks.c",line 739,column 1,is_stmt,isa 1
     869 00000104 B008              ADD       SP, SP, #32           ; [DPU_3_PIPE]  ; [ORIG 16-BIT INS]
     870                            .dwcfi  cfa_offset, 8
     871                    $C$DW$77        .dwtag  DW_TAG_TI_branch
     872                            .dwattr $C$DW$77, DW_AT_low_pc(0x00)
     873                            .dwattr $C$DW$77, DW_AT_TI_return
     874                    
     875 00000106 BD10              POP       {V1, PC}              ; [DPU_3_PIPE]  ; [ORIG 16-BIT INS]
     876                            .dwcfi  cfa_offset, 0
     877                            ; BRANCH OCCURS                  ; [] 
     878                            .dwattr $C$DW$54, DW_AT_TI_end_file("C:/TI_ARM_Tiva_Projects/Source/tasks.c")
     879                            .dwattr $C$DW$54, DW_AT_TI_end_line(0x2e3)
     880                            .dwattr $C$DW$54, DW_AT_TI_end_column(0x01)
TI ARM Assembler PC v15.12.1 Tue Oct 18 10:42:35 2016

Tools Copyright (c) 1996-2015 Texas Instruments Incorporated
tasks.asm                                                            PAGE   17

     881                            .dwendentry
     882                            .dwendtag $C$DW$54
     883                    
     884 00000108                   .sect   ".text"
     885                            .clink
     886                            .thumbfunc vTaskDelete
     887 00000108                   .thumb
     888                            .global vTaskDelete
     889                    
     890                    $C$DW$78        .dwtag  DW_TAG_subprogram
     891                            .dwattr $C$DW$78, DW_AT_name("vTaskDelete")
     892                            .dwattr $C$DW$78, DW_AT_low_pc(vTaskDelete)
     893                            .dwattr $C$DW$78, DW_AT_high_pc(0x00)
     894                            .dwattr $C$DW$78, DW_AT_TI_symbol_name("vTaskDelete")
     895                            .dwattr $C$DW$78, DW_AT_external
     896                            .dwattr $C$DW$78, DW_AT_TI_begin_file("C:/TI_ARM_Tiva_Projects/Source/tasks.c")
     897                            .dwattr $C$DW$78, DW_AT_TI_begin_line(0x2e8)
     898                            .dwattr $C$DW$78, DW_AT_TI_begin_column(0x07)
     899                            .dwattr $C$DW$78, DW_AT_decl_file("C:/TI_ARM_Tiva_Projects/Source/tasks.c")
     900                            .dwattr $C$DW$78, DW_AT_decl_line(0x2e8)
     901                            .dwattr $C$DW$78, DW_AT_decl_column(0x07)
     902                            .dwattr $C$DW$78, DW_AT_TI_max_frame_size(0x10)
     903                            .dwpsn  file "C:/TI_ARM_Tiva_Projects/Source/tasks.c",line 745,column 2,is_stmt,address vTaskD
     904                    
     905                            .dwfde $C$DW$CIE, vTaskDelete
     906                    $C$DW$79        .dwtag  DW_TAG_formal_parameter
     907                            .dwattr $C$DW$79, DW_AT_name("xTaskToDelete")
     908                            .dwattr $C$DW$79, DW_AT_TI_symbol_name("xTaskToDelete")
     909                            .dwattr $C$DW$79, DW_AT_type(*$C$DW$T$59)
     910                            .dwattr $C$DW$79, DW_AT_location[DW_OP_reg0]
     911                    
     912                    
     913                    ;*****************************************************************************
     914                    ;* FUNCTION NAME: vTaskDelete                                                *
     915                    ;*                                                                           *
     916                    ;*   Regs Modified     : A1,A2,A3,A4,V9,SP,LR,SR,D0,D0_hi,D1,D1_hi,D2,D2_hi, *
     917                    ;*                           D3,D3_hi,D4,D4_hi,D5,D5_hi,D6,D6_hi,D7,D7_hi,   *
     918                    ;*                           FPEXC,FPSCR                                     *
     919                    ;*   Regs Used         : A1,A2,A3,A4,V9,SP,LR,SR,D0,D0_hi,D1,D1_hi,D2,D2_hi, *
     920                    ;*                           D3,D3_hi,D4,D4_hi,D5,D5_hi,D6,D6_hi,D7,D7_hi,   *
     921                    ;*                           FPEXC,FPSCR                                     *
     922                    ;*   Local Frame Size  : 0 Args + 8 Auto + 4 Save = 12 byte                  *
     923                    ;*****************************************************************************
     924 00000108           vTaskDelete:
     925                    ;* --------------------------------------------------------------------------*
     926                            .dwcfi  cfa_offset, 0
     927 00000108 B50E              PUSH      {A2, A3, A4, LR}      ; [DPU_3_PIPE]  ; [ORIG 16-BIT INS]
     928                            .dwcfi  cfa_offset, 16
     929                            .dwcfi  save_reg_to_mem, 14, -4
     930                            .dwcfi  save_reg_to_mem, 3, -8
     931                            .dwcfi  save_reg_to_mem, 2, -12
     932                            .dwcfi  save_reg_to_mem, 1, -16
     933                    $C$DW$80        .dwtag  DW_TAG_variable
     934                            .dwattr $C$DW$80, DW_AT_name("xTaskToDelete")
     935                            .dwattr $C$DW$80, DW_AT_TI_symbol_name("xTaskToDelete")
TI ARM Assembler PC v15.12.1 Tue Oct 18 10:42:35 2016

Tools Copyright (c) 1996-2015 Texas Instruments Incorporated
tasks.asm                                                            PAGE   18

     936                            .dwattr $C$DW$80, DW_AT_type(*$C$DW$T$59)
     937                            .dwattr $C$DW$80, DW_AT_location[DW_OP_breg13 0]
     938                    
     939                    $C$DW$81        .dwtag  DW_TAG_variable
     940                            .dwattr $C$DW$81, DW_AT_name("pxTCB")
     941                            .dwattr $C$DW$81, DW_AT_TI_symbol_name("pxTCB")
     942                            .dwattr $C$DW$81, DW_AT_type(*$C$DW$T$120)
     943                            .dwattr $C$DW$81, DW_AT_location[DW_OP_breg13 4]
     944                    
     945 0000010a 9000              STR       A1, [SP, #0]          ; [DPU_3_PIPE] |745|  ; [ORIG 16-BIT INS]
     946                            .dwpsn  file "C:/TI_ARM_Tiva_Projects/Source/tasks.c",line 748,column 3,is_stmt,isa 1
     947                    $C$DW$82        .dwtag  DW_TAG_TI_branch
     948                            .dwattr $C$DW$82, DW_AT_low_pc(0x00)
     949                            .dwattr $C$DW$82, DW_AT_name("vPortEnterCritical")
     950                            .dwattr $C$DW$82, DW_AT_TI_call
     951                    
     952 0000010c FFFEF7FF!         BL        vPortEnterCritical    ; [DPU_3_PIPE] |748|  ; [KEEP 32-BIT INS]
     953                            ; CALL OCCURS {vPortEnterCritical }  ; [] |748| 
     954                            .dwpsn  file "C:/TI_ARM_Tiva_Projects/Source/tasks.c",line 752,column 4,is_stmt,isa 1
     955 00000110 9800              LDR       A1, [SP, #0]          ; [DPU_3_PIPE] |752|  ; [ORIG 16-BIT INS]
     956 00000112 B910              CBNZ      A1, ||$C$L7||         ; []  ; [ORIG 16-BIT INS]
     957                            ; BRANCHCC OCCURS {||$C$L7||}    ; [] |752| 
     958                    ;* --------------------------------------------------------------------------*
     959 00000114 486E              LDR       A1, $C$CON2           ; [DPU_3_PIPE] |752|  ; [ORIG 16-BIT INS]
     960 00000116 6800              LDR       A1, [A1, #0]          ; [DPU_3_PIPE] |752|  ; [ORIG 16-BIT INS]
     961 00000118 E000              B         ||$C$L8||             ; [DPU_3_PIPE] |752|  ; [ORIG 16-BIT INS]
     962                            ; BRANCH OCCURS {||$C$L8||}      ; [] |752| 
     963                    ;* --------------------------------------------------------------------------*
     964 0000011a           ||$C$L7||:    
     965 0000011a 9800              LDR       A1, [SP, #0]          ; [DPU_3_PIPE] |752|  ; [ORIG 16-BIT INS]
     966                    ;* --------------------------------------------------------------------------*
     967 0000011c           ||$C$L8||:    
     968 0000011c 9001              STR       A1, [SP, #4]          ; [DPU_3_PIPE] |752|  ; [ORIG 16-BIT INS]
     969                            .dwpsn  file "C:/TI_ARM_Tiva_Projects/Source/tasks.c",line 758,column 4,is_stmt,isa 1
     970 0000011e 9801              LDR       A1, [SP, #4]          ; [DPU_3_PIPE] |758|  ; [ORIG 16-BIT INS]
     971 00000120 1D00              ADDS      A1, A1, #4            ; [DPU_3_PIPE] |758|  ; [ORIG 16-BIT INS]
     972                    $C$DW$83        .dwtag  DW_TAG_TI_branch
     973                            .dwattr $C$DW$83, DW_AT_low_pc(0x00)
     974                            .dwattr $C$DW$83, DW_AT_name("uxListRemove")
     975                            .dwattr $C$DW$83, DW_AT_TI_call
     976                    
     977 00000122 FFFEF7FF!         BL        uxListRemove          ; [DPU_3_PIPE] |758|  ; [KEEP 32-BIT INS]
     978                            ; CALL OCCURS {uxListRemove }    ; [] |758| 
     979 00000126 B978              CBNZ      A1, ||$C$L9||         ; []  ; [ORIG 16-BIT INS]
     980                            ; BRANCHCC OCCURS {||$C$L9||}    ; [] |758| 
     981                    ;* --------------------------------------------------------------------------*
     982                            .dwpsn  file "C:/TI_ARM_Tiva_Projects/Source/tasks.c",line 760,column 5,is_stmt,isa 1
     983 00000128 9801              LDR       A1, [SP, #4]          ; [DPU_3_PIPE] |760|  ; [ORIG 16-BIT INS]
     984 0000012a 497C              LDR       A2, $C$CON6           ; [DPU_3_PIPE] |760|  ; [ORIG 16-BIT INS]
     985 0000012c 6AC2              LDR       A3, [A1, #44]         ; [DPU_3_PIPE] |760|  ; [ORIG 16-BIT INS]
     986 0000012e 0090              LSLS      A1, A3, #2            ; [DPU_3_PIPE] |760|  ; [ORIG 16-BIT INS]
     987 00000130 1002EB00          ADD       A1, A1, A3, LSL #4    ; [DPU_3_PIPE] |760|  ; [KEEP 32-BIT INS]
     988 00000134 5808              LDR       A1, [A2, +A1]         ; [DPU_3_PIPE] |760|  ; [ORIG 16-BIT INS]
     989 00000136 B938              CBNZ      A1, ||$C$L9||         ; []  ; [ORIG 16-BIT INS]
     990                            ; BRANCHCC OCCURS {||$C$L9||}    ; [] |760| 
TI ARM Assembler PC v15.12.1 Tue Oct 18 10:42:35 2016

Tools Copyright (c) 1996-2015 Texas Instruments Incorporated
tasks.asm                                                            PAGE   19

     991                    ;* --------------------------------------------------------------------------*
     992 00000138 9801              LDR       A1, [SP, #4]          ; [DPU_3_PIPE] |760|  ; [ORIG 16-BIT INS]
     993 0000013a 4A77              LDR       A3, $C$CON5           ; [DPU_3_PIPE] |760|  ; [ORIG 16-BIT INS]
     994 0000013c 6AC3              LDR       A4, [A1, #44]         ; [DPU_3_PIPE] |760|  ; [ORIG 16-BIT INS]
     995 0000013e 6811              LDR       A2, [A3, #0]          ; [DPU_3_PIPE] |760|  ; [ORIG 16-BIT INS]
     996 00000140 2001              MOVS      A1, #1                ; [DPU_3_PIPE] |760|  ; [ORIG 16-BIT INS]
     997 00000142 4098              LSLS      A1, A1, A4            ; [DPU_3_PIPE] |760|  ; [ORIG 16-BIT INS]
     998 00000144 4381              BICS      A2, A2, A1            ; [DPU_3_PIPE] |760|  ; [ORIG 16-BIT INS]
     999 00000146 6011              STR       A2, [A3, #0]          ; [DPU_3_PIPE] |760|  ; [ORIG 16-BIT INS]
    1000                            .dwpsn  file "C:/TI_ARM_Tiva_Projects/Source/tasks.c",line 761,column 4,is_stmt,isa 1
    1001                    ;* --------------------------------------------------------------------------*
    1002 00000148           ||$C$L9||:    
    1003                            .dwpsn  file "C:/TI_ARM_Tiva_Projects/Source/tasks.c",line 768,column 4,is_stmt,isa 1
    1004 00000148 9801              LDR       A1, [SP, #4]          ; [DPU_3_PIPE] |768|  ; [ORIG 16-BIT INS]
    1005 0000014a 6A80              LDR       A1, [A1, #40]         ; [DPU_3_PIPE] |768|  ; [ORIG 16-BIT INS]
    1006 0000014c B118              CBZ       A1, ||$C$L10||        ; []  ; [ORIG 16-BIT INS]
    1007                            ; BRANCHCC OCCURS {||$C$L10||}   ; [] |768| 
    1008                    ;* --------------------------------------------------------------------------*
    1009                            .dwpsn  file "C:/TI_ARM_Tiva_Projects/Source/tasks.c",line 770,column 5,is_stmt,isa 1
    1010 0000014e 9801              LDR       A1, [SP, #4]          ; [DPU_3_PIPE] |770|  ; [ORIG 16-BIT INS]
    1011 00000150 3018              ADDS      A1, A1, #24           ; [DPU_3_PIPE] |770|  ; [ORIG 16-BIT INS]
    1012                    $C$DW$84        .dwtag  DW_TAG_TI_branch
    1013                            .dwattr $C$DW$84, DW_AT_low_pc(0x00)
    1014                            .dwattr $C$DW$84, DW_AT_name("uxListRemove")
    1015                            .dwattr $C$DW$84, DW_AT_TI_call
    1016                    
    1017 00000152 FFFEF7FF!         BL        uxListRemove          ; [DPU_3_PIPE] |770|  ; [KEEP 32-BIT INS]
    1018                            ; CALL OCCURS {uxListRemove }    ; [] |770| 
    1019                            .dwpsn  file "C:/TI_ARM_Tiva_Projects/Source/tasks.c",line 771,column 4,is_stmt,isa 1
    1020                    ;* --------------------------------------------------------------------------*
    1021 00000156           ||$C$L10||:    
    1022                            .dwpsn  file "C:/TI_ARM_Tiva_Projects/Source/tasks.c",line 777,column 4,is_stmt,isa 1
    1023 00000156 9901              LDR       A2, [SP, #4]          ; [DPU_3_PIPE] |777|  ; [ORIG 16-BIT INS]
    1024 00000158 4871              LDR       A1, $C$CON7           ; [DPU_3_PIPE] |777|  ; [ORIG 16-BIT INS]
    1025 0000015a 1D09              ADDS      A2, A2, #4            ; [DPU_3_PIPE] |777|  ; [ORIG 16-BIT INS]
    1026                    $C$DW$85        .dwtag  DW_TAG_TI_branch
    1027                            .dwattr $C$DW$85, DW_AT_low_pc(0x00)
    1028                            .dwattr $C$DW$85, DW_AT_name("vListInsertEnd")
    1029                            .dwattr $C$DW$85, DW_AT_TI_call
    1030                    
    1031 0000015c FFFEF7FF!         BL        vListInsertEnd        ; [DPU_3_PIPE] |777|  ; [KEEP 32-BIT INS]
    1032                            ; CALL OCCURS {vListInsertEnd }  ; [] |777| 
    1033                            .dwpsn  file "C:/TI_ARM_Tiva_Projects/Source/tasks.c",line 782,column 4,is_stmt,isa 1
    1034 00000160 4970              LDR       A2, $C$CON8           ; [DPU_3_PIPE] |782|  ; [ORIG 16-BIT INS]
    1035 00000162 6808              LDR       A1, [A2, #0]          ; [DPU_3_PIPE] |782|  ; [ORIG 16-BIT INS]
    1036 00000164 1C40              ADDS      A1, A1, #1            ; [DPU_3_PIPE] |782|  ; [ORIG 16-BIT INS]
    1037 00000166 6008              STR       A1, [A2, #0]          ; [DPU_3_PIPE] |782|  ; [ORIG 16-BIT INS]
    1038                            .dwpsn  file "C:/TI_ARM_Tiva_Projects/Source/tasks.c",line 786,column 4,is_stmt,isa 1
    1039 00000168 496A              LDR       A2, $C$CON4           ; [DPU_3_PIPE] |786|  ; [ORIG 16-BIT INS]
    1040 0000016a 6808              LDR       A1, [A2, #0]          ; [DPU_3_PIPE] |786|  ; [ORIG 16-BIT INS]
    1041 0000016c 1C40              ADDS      A1, A1, #1            ; [DPU_3_PIPE] |786|  ; [ORIG 16-BIT INS]
    1042 0000016e 6008              STR       A1, [A2, #0]          ; [DPU_3_PIPE] |786|  ; [ORIG 16-BIT INS]
    1043                            .dwpsn  file "C:/TI_ARM_Tiva_Projects/Source/tasks.c",line 790,column 3,is_stmt,isa 1
    1044                    $C$DW$86        .dwtag  DW_TAG_TI_branch
    1045                            .dwattr $C$DW$86, DW_AT_low_pc(0x00)
TI ARM Assembler PC v15.12.1 Tue Oct 18 10:42:35 2016

Tools Copyright (c) 1996-2015 Texas Instruments Incorporated
tasks.asm                                                            PAGE   20

    1046                            .dwattr $C$DW$86, DW_AT_name("vPortExitCritical")
    1047                            .dwattr $C$DW$86, DW_AT_TI_call
    1048                    
    1049 00000170 FFFEF7FF!         BL        vPortExitCritical     ; [DPU_3_PIPE] |790|  ; [KEEP 32-BIT INS]
    1050                            ; CALL OCCURS {vPortExitCritical }  ; [] |790| 
    1051                            .dwpsn  file "C:/TI_ARM_Tiva_Projects/Source/tasks.c",line 794,column 3,is_stmt,isa 1
    1052 00000174 4866              LDR       A1, $C$CON3           ; [DPU_3_PIPE] |794|  ; [ORIG 16-BIT INS]
    1053 00000176 6800              LDR       A1, [A1, #0]          ; [DPU_3_PIPE] |794|  ; [ORIG 16-BIT INS]
    1054 00000178 B198              CBZ       A1, ||$C$L12||        ; []  ; [ORIG 16-BIT INS]
    1055                            ; BRANCHCC OCCURS {||$C$L12||}   ; [] |794| 
    1056                    ;* --------------------------------------------------------------------------*
    1057                            .dwpsn  file "C:/TI_ARM_Tiva_Projects/Source/tasks.c",line 796,column 4,is_stmt,isa 1
    1058 0000017a 4855              LDR       A1, $C$CON2           ; [DPU_3_PIPE] |796|  ; [ORIG 16-BIT INS]
    1059 0000017c 9901              LDR       A2, [SP, #4]          ; [DPU_3_PIPE] |796|  ; [ORIG 16-BIT INS]
    1060 0000017e 6800              LDR       A1, [A1, #0]          ; [DPU_3_PIPE] |796|  ; [ORIG 16-BIT INS]
    1061 00000180 4288              CMP       A1, A2                ; [DPU_3_PIPE] |796|  ; [ORIG 16-BIT INS]
    1062 00000182 D108              BNE       ||$C$L11||            ; [DPU_3_PIPE] |796|  ; [ORIG 16-BIT INS]
    1063                            ; BRANCHCC OCCURS {||$C$L11||}   ; [] |796| 
    1064                    ;* --------------------------------------------------------------------------*
    1065                            .dwpsn  file "C:/TI_ARM_Tiva_Projects/Source/tasks.c",line 806,column 5,is_stmt,isa 1
    1066 00000184 4968              LDR       A2, $C$CON9           ; [DPU_3_PIPE] |806|  ; [ORIG 16-BIT INS]
    1067 00000186 5080F04F          MOV       A1, #268435456        ; [DPU_3_PIPE] |806|  ; [KEEP 32-BIT INS]
    1068 0000018a 6008              STR       A1, [A2, #0]          ; [DPU_3_PIPE] |806|  ; [ORIG 16-BIT INS]
    1069 0000018c 8F4FF3BF          dsb ; [KEEP 32-BIT INS]
    1070 00000190 8F6FF3BF          isb ; [KEEP 32-BIT INS]
    1071                            .dwpsn  file "C:/TI_ARM_Tiva_Projects/Source/tasks.c",line 807,column 4,is_stmt,isa 1
    1072 00000194 E005              B         ||$C$L12||            ; [DPU_3_PIPE] |807|  ; [ORIG 16-BIT INS]
    1073                            ; BRANCH OCCURS {||$C$L12||}     ; [] |807| 
    1074                    ;* --------------------------------------------------------------------------*
    1075 00000196           ||$C$L11||:    
    1076                            .dwpsn  file "C:/TI_ARM_Tiva_Projects/Source/tasks.c",line 812,column 5,is_stmt,isa 1
    1077                    $C$DW$87        .dwtag  DW_TAG_TI_branch
    1078                            .dwattr $C$DW$87, DW_AT_low_pc(0x00)
    1079                            .dwattr $C$DW$87, DW_AT_name("vPortEnterCritical")
    1080                            .dwattr $C$DW$87, DW_AT_TI_call
    1081                    
    1082 00000196 FFFEF7FF!         BL        vPortEnterCritical    ; [DPU_3_PIPE] |812|  ; [KEEP 32-BIT INS]
    1083                            ; CALL OCCURS {vPortEnterCritical }  ; [] |812| 
    1084                            .dwpsn  file "C:/TI_ARM_Tiva_Projects/Source/tasks.c",line 814,column 6,is_stmt,isa 1
    1085                    $C$DW$88        .dwtag  DW_TAG_TI_branch
    1086                            .dwattr $C$DW$88, DW_AT_low_pc(0x00)
    1087                            .dwattr $C$DW$88, DW_AT_name("prvResetNextTaskUnblockTime")
    1088                            .dwattr $C$DW$88, DW_AT_TI_call
    1089                    
    1090 0000019a FF69F000          BL        prvResetNextTaskUnblockTime ; [DPU_3_PIPE] |814|  ; [KEEP 32-BIT INS]
    1091                            ; CALL OCCURS {prvResetNextTaskUnblockTime }  ; [] |814| 
    1092                            .dwpsn  file "C:/TI_ARM_Tiva_Projects/Source/tasks.c",line 816,column 5,is_stmt,isa 1
    1093                    $C$DW$89        .dwtag  DW_TAG_TI_branch
    1094                            .dwattr $C$DW$89, DW_AT_low_pc(0x00)
    1095                            .dwattr $C$DW$89, DW_AT_name("vPortExitCritical")
    1096                            .dwattr $C$DW$89, DW_AT_TI_call
    1097                    
    1098 0000019e FFFEF7FF!         BL        vPortExitCritical     ; [DPU_3_PIPE] |816|  ; [KEEP 32-BIT INS]
    1099                            ; CALL OCCURS {vPortExitCritical }  ; [] |816| 
    1100                            .dwpsn  file "C:/TI_ARM_Tiva_Projects/Source/tasks.c",line 819,column 2,is_stmt,isa 1
TI ARM Assembler PC v15.12.1 Tue Oct 18 10:42:35 2016

Tools Copyright (c) 1996-2015 Texas Instruments Incorporated
tasks.asm                                                            PAGE   21

    1101                    ;* --------------------------------------------------------------------------*
    1102                    ||$C$L12||:    
    1103                    $C$DW$90        .dwtag  DW_TAG_TI_branch
    1104                            .dwattr $C$DW$90, DW_AT_low_pc(0x00)
    1105                            .dwattr $C$DW$90, DW_AT_TI_return
    1106                    
    1107 000001a2 BD0E              POP       {A2, A3, A4, PC}      ; [DPU_3_PIPE]  ; [ORIG 16-BIT INS]
    1108                            .dwcfi  cfa_offset, 0
    1109                            ; BRANCH OCCURS                  ; [] 
    1110                            .dwattr $C$DW$78, DW_AT_TI_end_file("C:/TI_ARM_Tiva_Projects/Source/tasks.c")
    1111                            .dwattr $C$DW$78, DW_AT_TI_end_line(0x333)
    1112                            .dwattr $C$DW$78, DW_AT_TI_end_column(0x02)
    1113                            .dwendentry
    1114                            .dwendtag $C$DW$78
    1115                    
    1116 000001a4                   .sect   ".text"
    1117                            .clink
    1118                            .thumbfunc vTaskDelayUntil
    1119 000001a4                   .thumb
    1120                            .global vTaskDelayUntil
    1121                    
    1122                    $C$DW$91        .dwtag  DW_TAG_subprogram
    1123                            .dwattr $C$DW$91, DW_AT_name("vTaskDelayUntil")
    1124                            .dwattr $C$DW$91, DW_AT_low_pc(vTaskDelayUntil)
    1125                            .dwattr $C$DW$91, DW_AT_high_pc(0x00)
    1126                            .dwattr $C$DW$91, DW_AT_TI_symbol_name("vTaskDelayUntil")
    1127                            .dwattr $C$DW$91, DW_AT_external
    1128                            .dwattr $C$DW$91, DW_AT_TI_begin_file("C:/TI_ARM_Tiva_Projects/Source/tasks.c")
    1129                            .dwattr $C$DW$91, DW_AT_TI_begin_line(0x33a)
    1130                            .dwattr $C$DW$91, DW_AT_TI_begin_column(0x07)
    1131                            .dwattr $C$DW$91, DW_AT_decl_file("C:/TI_ARM_Tiva_Projects/Source/tasks.c")
    1132                            .dwattr $C$DW$91, DW_AT_decl_line(0x33a)
    1133                            .dwattr $C$DW$91, DW_AT_decl_column(0x07)
    1134                            .dwattr $C$DW$91, DW_AT_TI_max_frame_size(0x20)
    1135                            .dwpsn  file "C:/TI_ARM_Tiva_Projects/Source/tasks.c",line 827,column 2,is_stmt,address vTaskD
    1136                    
    1137                            .dwfde $C$DW$CIE, vTaskDelayUntil
    1138                    $C$DW$92        .dwtag  DW_TAG_formal_parameter
    1139                            .dwattr $C$DW$92, DW_AT_name("pxPreviousWakeTime")
    1140                            .dwattr $C$DW$92, DW_AT_TI_symbol_name("pxPreviousWakeTime")
    1141                            .dwattr $C$DW$92, DW_AT_type(*$C$DW$T$101)
    1142                            .dwattr $C$DW$92, DW_AT_location[DW_OP_reg0]
    1143                    
    1144                    $C$DW$93        .dwtag  DW_TAG_formal_parameter
    1145                            .dwattr $C$DW$93, DW_AT_name("xTimeIncrement")
    1146                            .dwattr $C$DW$93, DW_AT_TI_symbol_name("xTimeIncrement")
    1147                            .dwattr $C$DW$93, DW_AT_type(*$C$DW$T$102)
    1148                            .dwattr $C$DW$93, DW_AT_location[DW_OP_reg1]
    1149                    
    1150                    
    1151                    ;*****************************************************************************
    1152                    ;* FUNCTION NAME: vTaskDelayUntil                                            *
    1153                    ;*                                                                           *
    1154                    ;*   Regs Modified     : A1,A2,A3,A4,V9,SP,LR,SR,D0,D0_hi,D1,D1_hi,D2,D2_hi, *
    1155                    ;*                           D3,D3_hi,D4,D4_hi,D5,D5_hi,D6,D6_hi,D7,D7_hi,   *
TI ARM Assembler PC v15.12.1 Tue Oct 18 10:42:35 2016

Tools Copyright (c) 1996-2015 Texas Instruments Incorporated
tasks.asm                                                            PAGE   22

    1156                    ;*                           FPEXC,FPSCR                                     *
    1157                    ;*   Regs Used         : A1,A2,A3,A4,V9,SP,LR,SR,D0,D0_hi,D1,D1_hi,D2,D2_hi, *
    1158                    ;*                           D3,D3_hi,D4,D4_hi,D5,D5_hi,D6,D6_hi,D7,D7_hi,   *
    1159                    ;*                           FPEXC,FPSCR                                     *
    1160                    ;*   Local Frame Size  : 0 Args + 24 Auto + 4 Save = 28 byte                 *
    1161                    ;*****************************************************************************
    1162 000001a4           vTaskDelayUntil:
    1163                    ;* --------------------------------------------------------------------------*
    1164                            .dwcfi  cfa_offset, 0
    1165 000001a4 B500              PUSH      {LR}                  ; [DPU_3_PIPE]  ; [ORIG 16-BIT INS]
    1166                            .dwcfi  cfa_offset, 4
    1167                            .dwcfi  save_reg_to_mem, 14, -4
    1168 000001a6 0D1CF1AD          SUB       SP, SP, #28           ; [DPU_3_PIPE]  ; [KEEP 32-BIT INS]
    1169                            .dwcfi  cfa_offset, 32
    1170                    $C$DW$94        .dwtag  DW_TAG_variable
    1171                            .dwattr $C$DW$94, DW_AT_name("pxPreviousWakeTime")
    1172                            .dwattr $C$DW$94, DW_AT_TI_symbol_name("pxPreviousWakeTime")
    1173                            .dwattr $C$DW$94, DW_AT_type(*$C$DW$T$101)
    1174                            .dwattr $C$DW$94, DW_AT_location[DW_OP_breg13 0]
    1175                    
    1176                    $C$DW$95        .dwtag  DW_TAG_variable
    1177                            .dwattr $C$DW$95, DW_AT_name("xTimeIncrement")
    1178                            .dwattr $C$DW$95, DW_AT_TI_symbol_name("xTimeIncrement")
    1179                            .dwattr $C$DW$95, DW_AT_type(*$C$DW$T$102)
    1180                            .dwattr $C$DW$95, DW_AT_location[DW_OP_breg13 4]
    1181                    
    1182                    $C$DW$96        .dwtag  DW_TAG_variable
    1183                            .dwattr $C$DW$96, DW_AT_name("xTimeToWake")
    1184                            .dwattr $C$DW$96, DW_AT_TI_symbol_name("xTimeToWake")
    1185                            .dwattr $C$DW$96, DW_AT_type(*$C$DW$T$44)
    1186                            .dwattr $C$DW$96, DW_AT_location[DW_OP_breg13 8]
    1187                    
    1188                    $C$DW$97        .dwtag  DW_TAG_variable
    1189                            .dwattr $C$DW$97, DW_AT_name("xAlreadyYielded")
    1190                            .dwattr $C$DW$97, DW_AT_TI_symbol_name("xAlreadyYielded")
    1191                            .dwattr $C$DW$97, DW_AT_type(*$C$DW$T$64)
    1192                            .dwattr $C$DW$97, DW_AT_location[DW_OP_breg13 12]
    1193                    
    1194                    $C$DW$98        .dwtag  DW_TAG_variable
    1195                            .dwattr $C$DW$98, DW_AT_name("xShouldDelay")
    1196                            .dwattr $C$DW$98, DW_AT_TI_symbol_name("xShouldDelay")
    1197                            .dwattr $C$DW$98, DW_AT_type(*$C$DW$T$64)
    1198                            .dwattr $C$DW$98, DW_AT_location[DW_OP_breg13 16]
    1199                    
    1200 000001aa 9101              STR       A2, [SP, #4]          ; [DPU_3_PIPE] |827|  ; [ORIG 16-BIT INS]
    1201 000001ac 9000              STR       A1, [SP, #0]          ; [DPU_3_PIPE] |827|  ; [ORIG 16-BIT INS]
    1202                            .dwpsn  file "C:/TI_ARM_Tiva_Projects/Source/tasks.c",line 829,column 43,is_stmt,isa 1
    1203 000001ae 2000              MOVS      A1, #0                ; [DPU_3_PIPE] |829|  ; [ORIG 16-BIT INS]
    1204 000001b0 9004              STR       A1, [SP, #16]         ; [DPU_3_PIPE] |829|  ; [ORIG 16-BIT INS]
    1205                            .dwpsn  file "C:/TI_ARM_Tiva_Projects/Source/tasks.c",line 835,column 3,is_stmt,isa 1
    1206                    $C$DW$99        .dwtag  DW_TAG_TI_branch
    1207                            .dwattr $C$DW$99, DW_AT_low_pc(0x00)
    1208                            .dwattr $C$DW$99, DW_AT_name("vTaskSuspendAll")
    1209                            .dwattr $C$DW$99, DW_AT_TI_call
    1210                    
TI ARM Assembler PC v15.12.1 Tue Oct 18 10:42:35 2016

Tools Copyright (c) 1996-2015 Texas Instruments Incorporated
tasks.asm                                                            PAGE   23

    1211 000001b2 FA77F000          BL        vTaskSuspendAll       ; [DPU_3_PIPE] |835|  ; [KEEP 32-BIT INS]
    1212                            ; CALL OCCURS {vTaskSuspendAll }  ; [] |835| 
    1213                    
    1214                    $C$DW$100       .dwtag  DW_TAG_lexical_block
    1215                            .dwattr $C$DW$100, DW_AT_low_pc(0x00)
    1216                            .dwattr $C$DW$100, DW_AT_high_pc(0x00)
    1217                    $C$DW$101       .dwtag  DW_TAG_variable
    1218                            .dwattr $C$DW$101, DW_AT_name("xConstTickCount")
    1219                            .dwattr $C$DW$101, DW_AT_TI_symbol_name("xConstTickCount")
    1220                            .dwattr $C$DW$101, DW_AT_type(*$C$DW$T$102)
    1221                            .dwattr $C$DW$101, DW_AT_location[DW_OP_breg13 20]
    1222                    
    1223                            .dwpsn  file "C:/TI_ARM_Tiva_Projects/Source/tasks.c",line 839,column 37,is_stmt,isa 1
    1224 000001b6 489D              LDR       A1, $C$CON10          ; [DPU_3_PIPE] |839|  ; [ORIG 16-BIT INS]
    1225 000001b8 6800              LDR       A1, [A1, #0]          ; [DPU_3_PIPE] |839|  ; [ORIG 16-BIT INS]
    1226 000001ba 9005              STR       A1, [SP, #20]         ; [DPU_3_PIPE] |839|  ; [ORIG 16-BIT INS]
    1227                            .dwpsn  file "C:/TI_ARM_Tiva_Projects/Source/tasks.c",line 842,column 4,is_stmt,isa 1
    1228 000001bc 9900              LDR       A2, [SP, #0]          ; [DPU_3_PIPE] |842|  ; [ORIG 16-BIT INS]
    1229 000001be 9801              LDR       A1, [SP, #4]          ; [DPU_3_PIPE] |842|  ; [ORIG 16-BIT INS]
    1230 000001c0 6809              LDR       A2, [A2, #0]          ; [DPU_3_PIPE] |842|  ; [ORIG 16-BIT INS]
    1231 000001c2 1840              ADDS      A1, A1, A2            ; [DPU_3_PIPE] |842|  ; [ORIG 16-BIT INS]
    1232 000001c4 9002              STR       A1, [SP, #8]          ; [DPU_3_PIPE] |842|  ; [ORIG 16-BIT INS]
    1233                            .dwpsn  file "C:/TI_ARM_Tiva_Projects/Source/tasks.c",line 844,column 4,is_stmt,isa 1
    1234 000001c6 9800              LDR       A1, [SP, #0]          ; [DPU_3_PIPE] |844|  ; [ORIG 16-BIT INS]
    1235 000001c8 9905              LDR       A2, [SP, #20]         ; [DPU_3_PIPE] |844|  ; [ORIG 16-BIT INS]
    1236 000001ca 6800              LDR       A1, [A1, #0]          ; [DPU_3_PIPE] |844|  ; [ORIG 16-BIT INS]
    1237 000001cc 4288              CMP       A1, A2                ; [DPU_3_PIPE] |844|  ; [ORIG 16-BIT INS]
    1238 000001ce D90B              BLS       ||$C$L13||            ; [DPU_3_PIPE] |844|  ; [ORIG 16-BIT INS]
    1239                            ; BRANCHCC OCCURS {||$C$L13||}   ; [] |844| 
    1240                    ;* --------------------------------------------------------------------------*
    1241                            .dwpsn  file "C:/TI_ARM_Tiva_Projects/Source/tasks.c",line 851,column 5,is_stmt,isa 1
    1242 000001d0 9800              LDR       A1, [SP, #0]          ; [DPU_3_PIPE] |851|  ; [ORIG 16-BIT INS]
    1243 000001d2 9902              LDR       A2, [SP, #8]          ; [DPU_3_PIPE] |851|  ; [ORIG 16-BIT INS]
    1244 000001d4 6800              LDR       A1, [A1, #0]          ; [DPU_3_PIPE] |851|  ; [ORIG 16-BIT INS]
    1245 000001d6 4288              CMP       A1, A2                ; [DPU_3_PIPE] |851|  ; [ORIG 16-BIT INS]
    1246 000001d8 D911              BLS       ||$C$L15||            ; [DPU_3_PIPE] |851|  ; [ORIG 16-BIT INS]
    1247                            ; BRANCHCC OCCURS {||$C$L15||}   ; [] |851| 
    1248                    ;* --------------------------------------------------------------------------*
    1249 000001da 9805              LDR       A1, [SP, #20]         ; [DPU_3_PIPE] |851|  ; [ORIG 16-BIT INS]
    1250 000001dc 9902              LDR       A2, [SP, #8]          ; [DPU_3_PIPE] |851|  ; [ORIG 16-BIT INS]
    1251 000001de 4288              CMP       A1, A2                ; [DPU_3_PIPE] |851|  ; [ORIG 16-BIT INS]
    1252 000001e0 D20D              BCS       ||$C$L15||            ; [DPU_3_PIPE] |851|  ; [ORIG 16-BIT INS]
    1253                            ; BRANCHCC OCCURS {||$C$L15||}   ; [] |851| 
    1254                    ;* --------------------------------------------------------------------------*
    1255                            .dwpsn  file "C:/TI_ARM_Tiva_Projects/Source/tasks.c",line 853,column 6,is_stmt,isa 1
    1256 000001e2 2001              MOVS      A1, #1                ; [DPU_3_PIPE] |853|  ; [ORIG 16-BIT INS]
    1257 000001e4 9004              STR       A1, [SP, #16]         ; [DPU_3_PIPE] |853|  ; [ORIG 16-BIT INS]
    1258                            .dwpsn  file "C:/TI_ARM_Tiva_Projects/Source/tasks.c",line 854,column 5,is_stmt,isa 1
    1259 000001e6 E00A              B         ||$C$L15||            ; [DPU_3_PIPE] |854|  ; [ORIG 16-BIT INS]
    1260                            ; BRANCH OCCURS {||$C$L15||}     ; [] |854| 
    1261                    ;* --------------------------------------------------------------------------*
    1262                    ;* --------------------------------------------------------------------------*
    1263 000001e8           ||$C$L13||:    
    1264                            .dwpsn  file "C:/TI_ARM_Tiva_Projects/Source/tasks.c",line 865,column 5,is_stmt,isa 1
    1265 000001e8 9800              LDR       A1, [SP, #0]          ; [DPU_3_PIPE] |865|  ; [ORIG 16-BIT INS]
TI ARM Assembler PC v15.12.1 Tue Oct 18 10:42:35 2016

Tools Copyright (c) 1996-2015 Texas Instruments Incorporated
tasks.asm                                                            PAGE   24

    1266 000001ea 9902              LDR       A2, [SP, #8]          ; [DPU_3_PIPE] |865|  ; [ORIG 16-BIT INS]
    1267 000001ec 6800              LDR       A1, [A1, #0]          ; [DPU_3_PIPE] |865|  ; [ORIG 16-BIT INS]
    1268 000001ee 4288              CMP       A1, A2                ; [DPU_3_PIPE] |865|  ; [ORIG 16-BIT INS]
    1269 000001f0 D803              BHI       ||$C$L14||            ; [DPU_3_PIPE] |865|  ; [ORIG 16-BIT INS]
    1270                            ; BRANCHCC OCCURS {||$C$L14||}   ; [] |865| 
    1271                    ;* --------------------------------------------------------------------------*
    1272 000001f2 9805              LDR       A1, [SP, #20]         ; [DPU_3_PIPE] |865|  ; [ORIG 16-BIT INS]
    1273 000001f4 9902              LDR       A2, [SP, #8]          ; [DPU_3_PIPE] |865|  ; [ORIG 16-BIT INS]
    1274 000001f6 4288              CMP       A1, A2                ; [DPU_3_PIPE] |865|  ; [ORIG 16-BIT INS]
    1275 000001f8 D201              BCS       ||$C$L15||            ; [DPU_3_PIPE] |865|  ; [ORIG 16-BIT INS]
    1276                            ; BRANCHCC OCCURS {||$C$L15||}   ; [] |865| 
    1277                    ;* --------------------------------------------------------------------------*
    1278 000001fa           ||$C$L14||:    
    1279                            .dwpsn  file "C:/TI_ARM_Tiva_Projects/Source/tasks.c",line 867,column 6,is_stmt,isa 1
    1280 000001fa 2001              MOVS      A1, #1                ; [DPU_3_PIPE] |867|  ; [ORIG 16-BIT INS]
    1281 000001fc 9004              STR       A1, [SP, #16]         ; [DPU_3_PIPE] |867|  ; [ORIG 16-BIT INS]
    1282                            .dwpsn  file "C:/TI_ARM_Tiva_Projects/Source/tasks.c",line 868,column 5,is_stmt,isa 1
    1283                    ;* --------------------------------------------------------------------------*
    1284 000001fe           ||$C$L15||:    
    1285                            .dwpsn  file "C:/TI_ARM_Tiva_Projects/Source/tasks.c",line 876,column 4,is_stmt,isa 1
    1286 000001fe 9802              LDR       A1, [SP, #8]          ; [DPU_3_PIPE] |876|  ; [ORIG 16-BIT INS]
    1287 00000200 9900              LDR       A2, [SP, #0]          ; [DPU_3_PIPE] |876|  ; [ORIG 16-BIT INS]
    1288 00000202 6008              STR       A1, [A2, #0]          ; [DPU_3_PIPE] |876|  ; [ORIG 16-BIT INS]
    1289                            .dwpsn  file "C:/TI_ARM_Tiva_Projects/Source/tasks.c",line 878,column 4,is_stmt,isa 1
    1290 00000204 9804              LDR       A1, [SP, #16]         ; [DPU_3_PIPE] |878|  ; [ORIG 16-BIT INS]
    1291 00000206 B188              CBZ       A1, ||$C$L17||        ; []  ; [ORIG 16-BIT INS]
    1292                            ; BRANCHCC OCCURS {||$C$L17||}   ; [] |878| 
    1293                    ;* --------------------------------------------------------------------------*
    1294                            .dwpsn  file "C:/TI_ARM_Tiva_Projects/Source/tasks.c",line 884,column 5,is_stmt,isa 1
    1295 00000208 4831              LDR       A1, $C$CON2           ; [DPU_3_PIPE] |884|  ; [ORIG 16-BIT INS]
    1296 0000020a 6800              LDR       A1, [A1, #0]          ; [DPU_3_PIPE] |884|  ; [ORIG 16-BIT INS]
    1297 0000020c 1D00              ADDS      A1, A1, #4            ; [DPU_3_PIPE] |884|  ; [ORIG 16-BIT INS]
    1298                    $C$DW$102       .dwtag  DW_TAG_TI_branch
    1299                            .dwattr $C$DW$102, DW_AT_low_pc(0x00)
    1300                            .dwattr $C$DW$102, DW_AT_name("uxListRemove")
    1301                            .dwattr $C$DW$102, DW_AT_TI_call
    1302                    
    1303 0000020e FFFEF7FF!         BL        uxListRemove          ; [DPU_3_PIPE] |884|  ; [KEEP 32-BIT INS]
    1304                            ; CALL OCCURS {uxListRemove }    ; [] |884| 
    1305 00000212 B940              CBNZ      A1, ||$C$L16||        ; []  ; [ORIG 16-BIT INS]
    1306                            ; BRANCHCC OCCURS {||$C$L16||}   ; [] |884| 
    1307                    ;* --------------------------------------------------------------------------*
    1308                            .dwpsn  file "C:/TI_ARM_Tiva_Projects/Source/tasks.c",line 889,column 6,is_stmt,isa 1
    1309 00000214 482E              LDR       A1, $C$CON2           ; [DPU_3_PIPE] |889|  ; [ORIG 16-BIT INS]
    1310 00000216 6800              LDR       A1, [A1, #0]          ; [DPU_3_PIPE] |889|  ; [ORIG 16-BIT INS]
    1311 00000218 4A3F              LDR       A3, $C$CON5           ; [DPU_3_PIPE] |889|  ; [ORIG 16-BIT INS]
    1312 0000021a 6AC3              LDR       A4, [A1, #44]         ; [DPU_3_PIPE] |889|  ; [ORIG 16-BIT INS]
    1313 0000021c 6811              LDR       A2, [A3, #0]          ; [DPU_3_PIPE] |889|  ; [ORIG 16-BIT INS]
    1314 0000021e 2001              MOVS      A1, #1                ; [DPU_3_PIPE] |889|  ; [ORIG 16-BIT INS]
    1315 00000220 4098              LSLS      A1, A1, A4            ; [DPU_3_PIPE] |889|  ; [ORIG 16-BIT INS]
    1316 00000222 4381              BICS      A2, A2, A1            ; [DPU_3_PIPE] |889|  ; [ORIG 16-BIT INS]
    1317 00000224 6011              STR       A2, [A3, #0]          ; [DPU_3_PIPE] |889|  ; [ORIG 16-BIT INS]
    1318                            .dwpsn  file "C:/TI_ARM_Tiva_Projects/Source/tasks.c",line 890,column 5,is_stmt,isa 1
    1319                    ;* --------------------------------------------------------------------------*
    1320 00000226           ||$C$L16||:    
TI ARM Assembler PC v15.12.1 Tue Oct 18 10:42:35 2016

Tools Copyright (c) 1996-2015 Texas Instruments Incorporated
tasks.asm                                                            PAGE   25

    1321                            .dwpsn  file "C:/TI_ARM_Tiva_Projects/Source/tasks.c",line 896,column 5,is_stmt,isa 1
    1322 00000226 9802              LDR       A1, [SP, #8]          ; [DPU_3_PIPE] |896|  ; [ORIG 16-BIT INS]
    1323                    $C$DW$103       .dwtag  DW_TAG_TI_branch
    1324                            .dwattr $C$DW$103, DW_AT_low_pc(0x00)
    1325                            .dwattr $C$DW$103, DW_AT_name("prvAddCurrentTaskToDelayedList")
    1326                            .dwattr $C$DW$103, DW_AT_TI_call
    1327                    
    1328 00000228 FE16F000          BL        prvAddCurrentTaskToDelayedList ; [DPU_3_PIPE] |896|  ; [KEEP 32-BIT INS]
    1329                            ; CALL OCCURS {prvAddCurrentTaskToDelayedList }  ; [] |896| 
    1330                            .dwpsn  file "C:/TI_ARM_Tiva_Projects/Source/tasks.c",line 897,column 4,is_stmt,isa 1
    1331                    ;* --------------------------------------------------------------------------*
    1332                    ||$C$L17||:    
    1333                            .dwendtag $C$DW$100
    1334                    
    1335                            .dwpsn  file "C:/TI_ARM_Tiva_Projects/Source/tasks.c",line 903,column 3,is_stmt,isa 1
    1336                    $C$DW$104       .dwtag  DW_TAG_TI_branch
    1337                            .dwattr $C$DW$104, DW_AT_low_pc(0x00)
    1338                            .dwattr $C$DW$104, DW_AT_name("xTaskResumeAll")
    1339                            .dwattr $C$DW$104, DW_AT_TI_call
    1340                    
    1341 0000022c FA46F000          BL        xTaskResumeAll        ; [DPU_3_PIPE] |903|  ; [KEEP 32-BIT INS]
    1342                            ; CALL OCCURS {xTaskResumeAll }  ; [] |903| 
    1343 00000230 9003              STR       A1, [SP, #12]         ; [DPU_3_PIPE] |903|  ; [ORIG 16-BIT INS]
    1344                            .dwpsn  file "C:/TI_ARM_Tiva_Projects/Source/tasks.c",line 907,column 3,is_stmt,isa 1
    1345 00000232 9803              LDR       A1, [SP, #12]         ; [DPU_3_PIPE] |907|  ; [ORIG 16-BIT INS]
    1346 00000234 B940              CBNZ      A1, ||$C$L18||        ; []  ; [ORIG 16-BIT INS]
    1347                            ; BRANCHCC OCCURS {||$C$L18||}   ; [] |907| 
    1348                    ;* --------------------------------------------------------------------------*
    1349                            .dwpsn  file "C:/TI_ARM_Tiva_Projects/Source/tasks.c",line 909,column 4,is_stmt,isa 1
    1350 00000236 493C              LDR       A2, $C$CON9           ; [DPU_3_PIPE] |909|  ; [ORIG 16-BIT INS]
    1351 00000238 5080F04F          MOV       A1, #268435456        ; [DPU_3_PIPE] |909|  ; [KEEP 32-BIT INS]
    1352 0000023c 6008              STR       A1, [A2, #0]          ; [DPU_3_PIPE] |909|  ; [ORIG 16-BIT INS]
    1353 0000023e 8F4FF3BF          dsb ; [KEEP 32-BIT INS]
    1354 00000242 8F6FF3BF          isb ; [KEEP 32-BIT INS]
    1355                            .dwpsn  file "C:/TI_ARM_Tiva_Projects/Source/tasks.c",line 910,column 3,is_stmt,isa 1
    1356 00000246 E7FF              B         ||$C$L18||            ; [DPU_3_PIPE] |910|  ; [ORIG 16-BIT INS]
    1357                            ; BRANCH OCCURS {||$C$L18||}     ; [] |910| 
    1358                    ;* --------------------------------------------------------------------------*
    1359                    ;* --------------------------------------------------------------------------*
    1360 00000248           ||$C$L18||:    
    1361 00000248 B007              ADD       SP, SP, #28           ; [DPU_3_PIPE]  ; [ORIG 16-BIT INS]
    1362                            .dwcfi  cfa_offset, 4
    1363                    $C$DW$105       .dwtag  DW_TAG_TI_branch
    1364                            .dwattr $C$DW$105, DW_AT_low_pc(0x00)
    1365                            .dwattr $C$DW$105, DW_AT_TI_return
    1366                    
    1367 0000024a BD00              POP       {PC}                  ; [DPU_3_PIPE]  ; [ORIG 16-BIT INS]
    1368                            .dwcfi  cfa_offset, 0
    1369                            ; BRANCH OCCURS                  ; [] 
    1370                            .dwattr $C$DW$91, DW_AT_TI_end_file("C:/TI_ARM_Tiva_Projects/Source/tasks.c")
    1371                            .dwattr $C$DW$91, DW_AT_TI_end_line(0x393)
    1372                            .dwattr $C$DW$91, DW_AT_TI_end_column(0x02)
    1373                            .dwendentry
    1374                            .dwendtag $C$DW$91
    1375                    
TI ARM Assembler PC v15.12.1 Tue Oct 18 10:42:35 2016

Tools Copyright (c) 1996-2015 Texas Instruments Incorporated
tasks.asm                                                            PAGE   26

    1376 0000024c                   .sect   ".text"
    1377                            .clink
    1378                            .thumbfunc vTaskDelay
    1379 0000024c                   .thumb
    1380                            .global vTaskDelay
    1381                    
    1382                    $C$DW$106       .dwtag  DW_TAG_subprogram
    1383                            .dwattr $C$DW$106, DW_AT_name("vTaskDelay")
    1384                            .dwattr $C$DW$106, DW_AT_low_pc(vTaskDelay)
    1385                            .dwattr $C$DW$106, DW_AT_high_pc(0x00)
    1386                            .dwattr $C$DW$106, DW_AT_TI_symbol_name("vTaskDelay")
    1387                            .dwattr $C$DW$106, DW_AT_external
    1388                            .dwattr $C$DW$106, DW_AT_TI_begin_file("C:/TI_ARM_Tiva_Projects/Source/tasks.c")
    1389                            .dwattr $C$DW$106, DW_AT_TI_begin_line(0x39a)
    1390                            .dwattr $C$DW$106, DW_AT_TI_begin_column(0x07)
    1391                            .dwattr $C$DW$106, DW_AT_decl_file("C:/TI_ARM_Tiva_Projects/Source/tasks.c")
    1392                            .dwattr $C$DW$106, DW_AT_decl_line(0x39a)
    1393                            .dwattr $C$DW$106, DW_AT_decl_column(0x07)
    1394                            .dwattr $C$DW$106, DW_AT_TI_max_frame_size(0x10)
    1395                            .dwpsn  file "C:/TI_ARM_Tiva_Projects/Source/tasks.c",line 923,column 2,is_stmt,address vTaskD
    1396                    
    1397                            .dwfde $C$DW$CIE, vTaskDelay
    1398                    $C$DW$107       .dwtag  DW_TAG_formal_parameter
    1399                            .dwattr $C$DW$107, DW_AT_name("xTicksToDelay")
    1400                            .dwattr $C$DW$107, DW_AT_TI_symbol_name("xTicksToDelay")
    1401                            .dwattr $C$DW$107, DW_AT_type(*$C$DW$T$102)
    1402                            .dwattr $C$DW$107, DW_AT_location[DW_OP_reg0]
    1403                    
    1404                    
    1405                    ;*****************************************************************************
    1406                    ;* FUNCTION NAME: vTaskDelay                                                 *
    1407                    ;*                                                                           *
    1408                    ;*   Regs Modified     : A1,A2,A3,A4,V9,SP,LR,SR,D0,D0_hi,D1,D1_hi,D2,D2_hi, *
    1409                    ;*                           D3,D3_hi,D4,D4_hi,D5,D5_hi,D6,D6_hi,D7,D7_hi,   *
    1410                    ;*                           FPEXC,FPSCR                                     *
    1411                    ;*   Regs Used         : A1,A2,A3,A4,V9,SP,LR,SR,D0,D0_hi,D1,D1_hi,D2,D2_hi, *
    1412                    ;*                           D3,D3_hi,D4,D4_hi,D5,D5_hi,D6,D6_hi,D7,D7_hi,   *
    1413                    ;*                           FPEXC,FPSCR                                     *
    1414                    ;*   Local Frame Size  : 0 Args + 12 Auto + 4 Save = 16 byte                 *
    1415                    ;*****************************************************************************
    1416 0000024c           vTaskDelay:
    1417                    ;* --------------------------------------------------------------------------*
    1418                            .dwcfi  cfa_offset, 0
    1419 0000024c B50E              PUSH      {A2, A3, A4, LR}      ; [DPU_3_PIPE]  ; [ORIG 16-BIT INS]
    1420                            .dwcfi  cfa_offset, 16
    1421                            .dwcfi  save_reg_to_mem, 14, -4
    1422                            .dwcfi  save_reg_to_mem, 3, -8
    1423                            .dwcfi  save_reg_to_mem, 2, -12
    1424                            .dwcfi  save_reg_to_mem, 1, -16
    1425                    $C$DW$108       .dwtag  DW_TAG_variable
    1426                            .dwattr $C$DW$108, DW_AT_name("xTicksToDelay")
    1427                            .dwattr $C$DW$108, DW_AT_TI_symbol_name("xTicksToDelay")
    1428                            .dwattr $C$DW$108, DW_AT_type(*$C$DW$T$102)
    1429                            .dwattr $C$DW$108, DW_AT_location[DW_OP_breg13 0]
    1430                    
TI ARM Assembler PC v15.12.1 Tue Oct 18 10:42:35 2016

Tools Copyright (c) 1996-2015 Texas Instruments Incorporated
tasks.asm                                                            PAGE   27

    1431                    $C$DW$109       .dwtag  DW_TAG_variable
    1432                            .dwattr $C$DW$109, DW_AT_name("xTimeToWake")
    1433                            .dwattr $C$DW$109, DW_AT_TI_symbol_name("xTimeToWake")
    1434                            .dwattr $C$DW$109, DW_AT_type(*$C$DW$T$44)
    1435                            .dwattr $C$DW$109, DW_AT_location[DW_OP_breg13 4]
    1436                    
    1437                    $C$DW$110       .dwtag  DW_TAG_variable
    1438                            .dwattr $C$DW$110, DW_AT_name("xAlreadyYielded")
    1439                            .dwattr $C$DW$110, DW_AT_TI_symbol_name("xAlreadyYielded")
    1440                            .dwattr $C$DW$110, DW_AT_type(*$C$DW$T$64)
    1441                            .dwattr $C$DW$110, DW_AT_location[DW_OP_breg13 8]
    1442                    
    1443 0000024e 9000              STR       A1, [SP, #0]          ; [DPU_3_PIPE] |923|  ; [ORIG 16-BIT INS]
    1444                            .dwpsn  file "C:/TI_ARM_Tiva_Projects/Source/tasks.c",line 925,column 29,is_stmt,isa 1
    1445 00000250 2000              MOVS      A1, #0                ; [DPU_3_PIPE] |925|  ; [ORIG 16-BIT INS]
    1446 00000252 9002              STR       A1, [SP, #8]          ; [DPU_3_PIPE] |925|  ; [ORIG 16-BIT INS]
    1447                            .dwpsn  file "C:/TI_ARM_Tiva_Projects/Source/tasks.c",line 929,column 3,is_stmt,isa 1
    1448 00000254 9800              LDR       A1, [SP, #0]          ; [DPU_3_PIPE] |929|  ; [ORIG 16-BIT INS]
    1449 00000256 B1D8              CBZ       A1, ||$C$L20||        ; []  ; [ORIG 16-BIT INS]
    1450                            ; BRANCHCC OCCURS {||$C$L20||}   ; [] |929| 
    1451                    ;* --------------------------------------------------------------------------*
    1452                            .dwpsn  file "C:/TI_ARM_Tiva_Projects/Source/tasks.c",line 932,column 4,is_stmt,isa 1
    1453                    $C$DW$111       .dwtag  DW_TAG_TI_branch
    1454                            .dwattr $C$DW$111, DW_AT_low_pc(0x00)
    1455                            .dwattr $C$DW$111, DW_AT_name("vTaskSuspendAll")
    1456                            .dwattr $C$DW$111, DW_AT_TI_call
    1457                    
    1458 00000258 FA24F000          BL        vTaskSuspendAll       ; [DPU_3_PIPE] |932|  ; [KEEP 32-BIT INS]
    1459                            ; CALL OCCURS {vTaskSuspendAll }  ; [] |932| 
    1460                            .dwpsn  file "C:/TI_ARM_Tiva_Projects/Source/tasks.c",line 946,column 5,is_stmt,isa 1
    1461 0000025c 4973              LDR       A2, $C$CON10          ; [DPU_3_PIPE] |946|  ; [ORIG 16-BIT INS]
    1462 0000025e 9800              LDR       A1, [SP, #0]          ; [DPU_3_PIPE] |946|  ; [ORIG 16-BIT INS]
    1463 00000260 6809              LDR       A2, [A2, #0]          ; [DPU_3_PIPE] |946|  ; [ORIG 16-BIT INS]
    1464 00000262 1840              ADDS      A1, A1, A2            ; [DPU_3_PIPE] |946|  ; [ORIG 16-BIT INS]
    1465 00000264 9001              STR       A1, [SP, #4]          ; [DPU_3_PIPE] |946|  ; [ORIG 16-BIT INS]
    1466                            .dwpsn  file "C:/TI_ARM_Tiva_Projects/Source/tasks.c",line 951,column 5,is_stmt,isa 1
    1467 00000266 481A              LDR       A1, $C$CON2           ; [DPU_3_PIPE] |951|  ; [ORIG 16-BIT INS]
    1468 00000268 6800              LDR       A1, [A1, #0]          ; [DPU_3_PIPE] |951|  ; [ORIG 16-BIT INS]
    1469 0000026a 1D00              ADDS      A1, A1, #4            ; [DPU_3_PIPE] |951|  ; [ORIG 16-BIT INS]
    1470                    $C$DW$112       .dwtag  DW_TAG_TI_branch
    1471                            .dwattr $C$DW$112, DW_AT_low_pc(0x00)
    1472                            .dwattr $C$DW$112, DW_AT_name("uxListRemove")
    1473                            .dwattr $C$DW$112, DW_AT_TI_call
    1474                    
    1475 0000026c FFFEF7FF!         BL        uxListRemove          ; [DPU_3_PIPE] |951|  ; [KEEP 32-BIT INS]
    1476                            ; CALL OCCURS {uxListRemove }    ; [] |951| 
    1477 00000270 B940              CBNZ      A1, ||$C$L19||        ; []  ; [ORIG 16-BIT INS]
    1478                            ; BRANCHCC OCCURS {||$C$L19||}   ; [] |951| 
    1479                    ;* --------------------------------------------------------------------------*
    1480                            .dwpsn  file "C:/TI_ARM_Tiva_Projects/Source/tasks.c",line 956,column 6,is_stmt,isa 1
    1481 00000272 4817              LDR       A1, $C$CON2           ; [DPU_3_PIPE] |956|  ; [ORIG 16-BIT INS]
    1482 00000274 6800              LDR       A1, [A1, #0]          ; [DPU_3_PIPE] |956|  ; [ORIG 16-BIT INS]
    1483 00000276 4A28              LDR       A3, $C$CON5           ; [DPU_3_PIPE] |956|  ; [ORIG 16-BIT INS]
    1484 00000278 6AC3              LDR       A4, [A1, #44]         ; [DPU_3_PIPE] |956|  ; [ORIG 16-BIT INS]
    1485 0000027a 6811              LDR       A2, [A3, #0]          ; [DPU_3_PIPE] |956|  ; [ORIG 16-BIT INS]
TI ARM Assembler PC v15.12.1 Tue Oct 18 10:42:35 2016

Tools Copyright (c) 1996-2015 Texas Instruments Incorporated
tasks.asm                                                            PAGE   28

    1486 0000027c 2001              MOVS      A1, #1                ; [DPU_3_PIPE] |956|  ; [ORIG 16-BIT INS]
    1487 0000027e 4098              LSLS      A1, A1, A4            ; [DPU_3_PIPE] |956|  ; [ORIG 16-BIT INS]
    1488 00000280 4381              BICS      A2, A2, A1            ; [DPU_3_PIPE] |956|  ; [ORIG 16-BIT INS]
    1489 00000282 6011              STR       A2, [A3, #0]          ; [DPU_3_PIPE] |956|  ; [ORIG 16-BIT INS]
    1490                            .dwpsn  file "C:/TI_ARM_Tiva_Projects/Source/tasks.c",line 957,column 5,is_stmt,isa 1
    1491                    ;* --------------------------------------------------------------------------*
    1492 00000284           ||$C$L19||:    
    1493                            .dwpsn  file "C:/TI_ARM_Tiva_Projects/Source/tasks.c",line 962,column 5,is_stmt,isa 1
    1494 00000284 9801              LDR       A1, [SP, #4]          ; [DPU_3_PIPE] |962|  ; [ORIG 16-BIT INS]
    1495                    $C$DW$113       .dwtag  DW_TAG_TI_branch
    1496                            .dwattr $C$DW$113, DW_AT_low_pc(0x00)
    1497                            .dwattr $C$DW$113, DW_AT_name("prvAddCurrentTaskToDelayedList")
    1498                            .dwattr $C$DW$113, DW_AT_TI_call
    1499                    
    1500 00000286 FDE7F000          BL        prvAddCurrentTaskToDelayedList ; [DPU_3_PIPE] |962|  ; [KEEP 32-BIT INS]
    1501                            ; CALL OCCURS {prvAddCurrentTaskToDelayedList }  ; [] |962| 
    1502                            .dwpsn  file "C:/TI_ARM_Tiva_Projects/Source/tasks.c",line 964,column 4,is_stmt,isa 1
    1503                    $C$DW$114       .dwtag  DW_TAG_TI_branch
    1504                            .dwattr $C$DW$114, DW_AT_low_pc(0x00)
    1505                            .dwattr $C$DW$114, DW_AT_name("xTaskResumeAll")
    1506                            .dwattr $C$DW$114, DW_AT_TI_call
    1507                    
    1508 0000028a FA17F000          BL        xTaskResumeAll        ; [DPU_3_PIPE] |964|  ; [KEEP 32-BIT INS]
    1509                            ; CALL OCCURS {xTaskResumeAll }  ; [] |964| 
    1510 0000028e 9002              STR       A1, [SP, #8]          ; [DPU_3_PIPE] |964|  ; [ORIG 16-BIT INS]
    1511                            .dwpsn  file "C:/TI_ARM_Tiva_Projects/Source/tasks.c",line 965,column 3,is_stmt,isa 1
    1512                    ;* --------------------------------------------------------------------------*
    1513 00000290           ||$C$L20||:    
    1514                            .dwpsn  file "C:/TI_ARM_Tiva_Projects/Source/tasks.c",line 973,column 3,is_stmt,isa 1
    1515 00000290 9802              LDR       A1, [SP, #8]          ; [DPU_3_PIPE] |973|  ; [ORIG 16-BIT INS]
    1516 00000292 B940              CBNZ      A1, ||$C$L21||        ; []  ; [ORIG 16-BIT INS]
    1517                            ; BRANCHCC OCCURS {||$C$L21||}   ; [] |973| 
    1518                    ;* --------------------------------------------------------------------------*
    1519                            .dwpsn  file "C:/TI_ARM_Tiva_Projects/Source/tasks.c",line 975,column 4,is_stmt,isa 1
    1520 00000294 4924              LDR       A2, $C$CON9           ; [DPU_3_PIPE] |975|  ; [ORIG 16-BIT INS]
    1521 00000296 5080F04F          MOV       A1, #268435456        ; [DPU_3_PIPE] |975|  ; [KEEP 32-BIT INS]
    1522 0000029a 6008              STR       A1, [A2, #0]          ; [DPU_3_PIPE] |975|  ; [ORIG 16-BIT INS]
    1523 0000029c 8F4FF3BF          dsb ; [KEEP 32-BIT INS]
    1524 000002a0 8F6FF3BF          isb ; [KEEP 32-BIT INS]
    1525                            .dwpsn  file "C:/TI_ARM_Tiva_Projects/Source/tasks.c",line 976,column 3,is_stmt,isa 1
    1526 000002a4 E7FF              B         ||$C$L21||            ; [DPU_3_PIPE] |976|  ; [ORIG 16-BIT INS]
    1527                            ; BRANCH OCCURS {||$C$L21||}     ; [] |976| 
    1528                    ;* --------------------------------------------------------------------------*
    1529                    ;* --------------------------------------------------------------------------*
    1530                    ||$C$L21||:    
    1531                    $C$DW$115       .dwtag  DW_TAG_TI_branch
    1532                            .dwattr $C$DW$115, DW_AT_low_pc(0x00)
    1533                            .dwattr $C$DW$115, DW_AT_TI_return
    1534                    
    1535 000002a6 BD0E              POP       {A2, A3, A4, PC}      ; [DPU_3_PIPE]  ; [ORIG 16-BIT INS]
    1536                            .dwcfi  cfa_offset, 0
    1537                            ; BRANCH OCCURS                  ; [] 
    1538                            .dwattr $C$DW$106, DW_AT_TI_end_file("C:/TI_ARM_Tiva_Projects/Source/tasks.c")
    1539                            .dwattr $C$DW$106, DW_AT_TI_end_line(0x3d5)
    1540                            .dwattr $C$DW$106, DW_AT_TI_end_column(0x02)
TI ARM Assembler PC v15.12.1 Tue Oct 18 10:42:35 2016

Tools Copyright (c) 1996-2015 Texas Instruments Incorporated
tasks.asm                                                            PAGE   29

    1541                            .dwendentry
    1542                            .dwendtag $C$DW$106
    1543                    
    1544 000002a8                   .sect   ".text"
    1545                            .clink
    1546                            .thumbfunc uxTaskPriorityGet
    1547 000002a8                   .thumb
    1548                            .global uxTaskPriorityGet
    1549                    
    1550                    $C$DW$116       .dwtag  DW_TAG_subprogram
    1551                            .dwattr $C$DW$116, DW_AT_name("uxTaskPriorityGet")
    1552                            .dwattr $C$DW$116, DW_AT_low_pc(uxTaskPriorityGet)
    1553                            .dwattr $C$DW$116, DW_AT_high_pc(0x00)
    1554                            .dwattr $C$DW$116, DW_AT_TI_symbol_name("uxTaskPriorityGet")
    1555                            .dwattr $C$DW$116, DW_AT_external
    1556                            .dwattr $C$DW$116, DW_AT_type(*$C$DW$T$32)
    1557                            .dwattr $C$DW$116, DW_AT_TI_begin_file("C:/TI_ARM_Tiva_Projects/Source/tasks.c")
    1558                            .dwattr $C$DW$116, DW_AT_TI_begin_line(0x422)
    1559                            .dwattr $C$DW$116, DW_AT_TI_begin_column(0x0e)
    1560                            .dwattr $C$DW$116, DW_AT_decl_file("C:/TI_ARM_Tiva_Projects/Source/tasks.c")
    1561                            .dwattr $C$DW$116, DW_AT_decl_line(0x422)
    1562                            .dwattr $C$DW$116, DW_AT_decl_column(0x0e)
    1563                            .dwattr $C$DW$116, DW_AT_TI_max_frame_size(0x10)
    1564                            .dwpsn  file "C:/TI_ARM_Tiva_Projects/Source/tasks.c",line 1059,column 2,is_stmt,address uxTas
    1565                    
    1566                            .dwfde $C$DW$CIE, uxTaskPriorityGet
    1567                    $C$DW$117       .dwtag  DW_TAG_formal_parameter
    1568                            .dwattr $C$DW$117, DW_AT_name("xTask")
    1569                            .dwattr $C$DW$117, DW_AT_TI_symbol_name("xTask")
    1570                            .dwattr $C$DW$117, DW_AT_type(*$C$DW$T$59)
    1571                            .dwattr $C$DW$117, DW_AT_location[DW_OP_reg0]
    1572                    
    1573                    
    1574                    ;*****************************************************************************
    1575                    ;* FUNCTION NAME: uxTaskPriorityGet                                          *
    1576                    ;*                                                                           *
    1577                    ;*   Regs Modified     : A1,A2,A3,A4,V9,SP,LR,SR,D0,D0_hi,D1,D1_hi,D2,D2_hi, *
    1578                    ;*                           D3,D3_hi,D4,D4_hi,D5,D5_hi,D6,D6_hi,D7,D7_hi,   *
    1579                    ;*                           FPEXC,FPSCR                                     *
    1580                    ;*   Regs Used         : A1,A2,A3,A4,V9,SP,LR,SR,D0,D0_hi,D1,D1_hi,D2,D2_hi, *
    1581                    ;*                           D3,D3_hi,D4,D4_hi,D5,D5_hi,D6,D6_hi,D7,D7_hi,   *
    1582                    ;*                           FPEXC,FPSCR                                     *
    1583                    ;*   Local Frame Size  : 0 Args + 12 Auto + 4 Save = 16 byte                 *
    1584                    ;*****************************************************************************
    1585 000002a8           uxTaskPriorityGet:
    1586                    ;* --------------------------------------------------------------------------*
    1587                            .dwcfi  cfa_offset, 0
    1588 000002a8 B50E              PUSH      {A2, A3, A4, LR}      ; [DPU_3_PIPE]  ; [ORIG 16-BIT INS]
    1589                            .dwcfi  cfa_offset, 16
    1590                            .dwcfi  save_reg_to_mem, 14, -4
    1591                            .dwcfi  save_reg_to_mem, 3, -8
    1592                            .dwcfi  save_reg_to_mem, 2, -12
    1593                            .dwcfi  save_reg_to_mem, 1, -16
    1594                    $C$DW$118       .dwtag  DW_TAG_variable
    1595                            .dwattr $C$DW$118, DW_AT_name("xTask")
TI ARM Assembler PC v15.12.1 Tue Oct 18 10:42:35 2016

Tools Copyright (c) 1996-2015 Texas Instruments Incorporated
tasks.asm                                                            PAGE   30

    1596                            .dwattr $C$DW$118, DW_AT_TI_symbol_name("xTask")
    1597                            .dwattr $C$DW$118, DW_AT_type(*$C$DW$T$59)
    1598                            .dwattr $C$DW$118, DW_AT_location[DW_OP_breg13 0]
    1599                    
    1600                    $C$DW$119       .dwtag  DW_TAG_variable
    1601                            .dwattr $C$DW$119, DW_AT_name("pxTCB")
    1602                            .dwattr $C$DW$119, DW_AT_TI_symbol_name("pxTCB")
    1603                            .dwattr $C$DW$119, DW_AT_type(*$C$DW$T$120)
    1604                            .dwattr $C$DW$119, DW_AT_location[DW_OP_breg13 4]
    1605                    
    1606                    $C$DW$120       .dwtag  DW_TAG_variable
    1607                            .dwattr $C$DW$120, DW_AT_name("uxReturn")
    1608                            .dwattr $C$DW$120, DW_AT_TI_symbol_name("uxReturn")
    1609                            .dwattr $C$DW$120, DW_AT_type(*$C$DW$T$32)
    1610                            .dwattr $C$DW$120, DW_AT_location[DW_OP_breg13 8]
    1611                    
    1612 000002aa 9000              STR       A1, [SP, #0]          ; [DPU_3_PIPE] |1059|  ; [ORIG 16-BIT INS]
    1613                            .dwpsn  file "C:/TI_ARM_Tiva_Projects/Source/tasks.c",line 1063,column 3,is_stmt,isa 1
    1614                    $C$DW$121       .dwtag  DW_TAG_TI_branch
    1615                            .dwattr $C$DW$121, DW_AT_low_pc(0x00)
    1616                            .dwattr $C$DW$121, DW_AT_name("vPortEnterCritical")
    1617                            .dwattr $C$DW$121, DW_AT_TI_call
    1618                    
    1619 000002ac FFFEF7FF!         BL        vPortEnterCritical    ; [DPU_3_PIPE] |1063|  ; [KEEP 32-BIT INS]
    1620                            ; CALL OCCURS {vPortEnterCritical }  ; [] |1063| 
    1621                            .dwpsn  file "C:/TI_ARM_Tiva_Projects/Source/tasks.c",line 1067,column 4,is_stmt,isa 1
    1622 000002b0 9800              LDR       A1, [SP, #0]          ; [DPU_3_PIPE] |1067|  ; [ORIG 16-BIT INS]
    1623 000002b2 B910              CBNZ      A1, ||$C$L22||        ; []  ; [ORIG 16-BIT INS]
    1624                            ; BRANCHCC OCCURS {||$C$L22||}   ; [] |1067| 
    1625                    ;* --------------------------------------------------------------------------*
    1626 000002b4 4806              LDR       A1, $C$CON2           ; [DPU_3_PIPE] |1067|  ; [ORIG 16-BIT INS]
    1627 000002b6 6800              LDR       A1, [A1, #0]          ; [DPU_3_PIPE] |1067|  ; [ORIG 16-BIT INS]
    1628 000002b8 E000              B         ||$C$L23||            ; [DPU_3_PIPE] |1067|  ; [ORIG 16-BIT INS]
    1629                            ; BRANCH OCCURS {||$C$L23||}     ; [] |1067| 
    1630                    ;* --------------------------------------------------------------------------*
    1631 000002ba           ||$C$L22||:    
    1632 000002ba 9800              LDR       A1, [SP, #0]          ; [DPU_3_PIPE] |1067|  ; [ORIG 16-BIT INS]
    1633                    ;* --------------------------------------------------------------------------*
    1634 000002bc           ||$C$L23||:    
    1635 000002bc 9001              STR       A1, [SP, #4]          ; [DPU_3_PIPE] |1067|  ; [ORIG 16-BIT INS]
    1636                            .dwpsn  file "C:/TI_ARM_Tiva_Projects/Source/tasks.c",line 1068,column 4,is_stmt,isa 1
    1637 000002be 9801              LDR       A1, [SP, #4]          ; [DPU_3_PIPE] |1068|  ; [ORIG 16-BIT INS]
    1638 000002c0 6AC0              LDR       A1, [A1, #44]         ; [DPU_3_PIPE] |1068|  ; [ORIG 16-BIT INS]
    1639 000002c2 9002              STR       A1, [SP, #8]          ; [DPU_3_PIPE] |1068|  ; [ORIG 16-BIT INS]
    1640                            .dwpsn  file "C:/TI_ARM_Tiva_Projects/Source/tasks.c",line 1070,column 3,is_stmt,isa 1
    1641                    $C$DW$122       .dwtag  DW_TAG_TI_branch
    1642                            .dwattr $C$DW$122, DW_AT_low_pc(0x00)
    1643                            .dwattr $C$DW$122, DW_AT_name("vPortExitCritical")
    1644                            .dwattr $C$DW$122, DW_AT_TI_call
    1645                    
    1646 000002c4 FFFEF7FF!         BL        vPortExitCritical     ; [DPU_3_PIPE] |1070|  ; [KEEP 32-BIT INS]
    1647                            ; CALL OCCURS {vPortExitCritical }  ; [] |1070| 
    1648                            .dwpsn  file "C:/TI_ARM_Tiva_Projects/Source/tasks.c",line 1072,column 3,is_stmt,isa 1
    1649 000002c8 9802              LDR       A1, [SP, #8]          ; [DPU_3_PIPE] |1072|  ; [ORIG 16-BIT INS]
    1650                            .dwpsn  file "C:/TI_ARM_Tiva_Projects/Source/tasks.c",line 1073,column 2,is_stmt,isa 1
TI ARM Assembler PC v15.12.1 Tue Oct 18 10:42:35 2016

Tools Copyright (c) 1996-2015 Texas Instruments Incorporated
tasks.asm                                                            PAGE   31

    1651                    $C$DW$123       .dwtag  DW_TAG_TI_branch
    1652                            .dwattr $C$DW$123, DW_AT_low_pc(0x00)
    1653                            .dwattr $C$DW$123, DW_AT_TI_return
    1654                    
    1655 000002ca BD0E              POP       {A2, A3, A4, PC}      ; [DPU_3_PIPE]  ; [ORIG 16-BIT INS]
    1656                            .dwcfi  cfa_offset, 0
    1657                            ; BRANCH OCCURS                  ; [] 
    1658                            .dwattr $C$DW$116, DW_AT_TI_end_file("C:/TI_ARM_Tiva_Projects/Source/tasks.c")
    1659                            .dwattr $C$DW$116, DW_AT_TI_end_line(0x431)
    1660                            .dwattr $C$DW$116, DW_AT_TI_end_column(0x02)
    1661                            .dwendentry
    1662                            .dwendtag $C$DW$116
    1663                    
    1664                    ;******************************************************************************
    1665                    ;* CONSTANT TABLE                                                             *
    1666                    ;******************************************************************************
    1667 000002cc                   .sect   ".text"
    1668                            .align  4
    1669 000002cc 00000000! ||$C$CON1||:    .bits   uxCurrentNumberOfTasks,32
    1670                            .align  4
    1671 000002d0 00000000! ||$C$CON2||:    .bits   pxCurrentTCB,32
    1672 000002d4                   .sect   ".text"
    1673                            .clink
    1674                            .thumbfunc uxTaskPriorityGetFromISR
    1675 000002d4                   .thumb
    1676                            .global uxTaskPriorityGetFromISR
    1677                    
    1678                    $C$DW$124       .dwtag  DW_TAG_subprogram
    1679                            .dwattr $C$DW$124, DW_AT_name("uxTaskPriorityGetFromISR")
    1680                            .dwattr $C$DW$124, DW_AT_low_pc(uxTaskPriorityGetFromISR)
    1681                            .dwattr $C$DW$124, DW_AT_high_pc(0x00)
    1682                            .dwattr $C$DW$124, DW_AT_TI_symbol_name("uxTaskPriorityGetFromISR")
    1683                            .dwattr $C$DW$124, DW_AT_external
    1684                            .dwattr $C$DW$124, DW_AT_type(*$C$DW$T$32)
    1685                            .dwattr $C$DW$124, DW_AT_TI_begin_file("C:/TI_ARM_Tiva_Projects/Source/tasks.c")
    1686                            .dwattr $C$DW$124, DW_AT_TI_begin_line(0x438)
    1687                            .dwattr $C$DW$124, DW_AT_TI_begin_column(0x0e)
    1688                            .dwattr $C$DW$124, DW_AT_decl_file("C:/TI_ARM_Tiva_Projects/Source/tasks.c")
    1689                            .dwattr $C$DW$124, DW_AT_decl_line(0x438)
    1690                            .dwattr $C$DW$124, DW_AT_decl_column(0x0e)
    1691                            .dwattr $C$DW$124, DW_AT_TI_max_frame_size(0x10)
    1692                            .dwpsn  file "C:/TI_ARM_Tiva_Projects/Source/tasks.c",line 1081,column 2,is_stmt,address uxTas
    1693                    
    1694                            .dwfde $C$DW$CIE, uxTaskPriorityGetFromISR
    1695                    $C$DW$125       .dwtag  DW_TAG_formal_parameter
    1696                            .dwattr $C$DW$125, DW_AT_name("xTask")
    1697                            .dwattr $C$DW$125, DW_AT_TI_symbol_name("xTask")
    1698                            .dwattr $C$DW$125, DW_AT_type(*$C$DW$T$59)
    1699                            .dwattr $C$DW$125, DW_AT_location[DW_OP_reg0]
    1700                    
    1701                    
    1702                    ;*****************************************************************************
    1703                    ;* FUNCTION NAME: uxTaskPriorityGetFromISR                                   *
    1704                    ;*                                                                           *
    1705                    ;*   Regs Modified     : A1,A2,SP,SR                                         *
TI ARM Assembler PC v15.12.1 Tue Oct 18 10:42:35 2016

Tools Copyright (c) 1996-2015 Texas Instruments Incorporated
tasks.asm                                                            PAGE   32

    1706                    ;*   Regs Used         : A1,A2,SP,LR,SR                                      *
    1707                    ;*   Local Frame Size  : 0 Args + 16 Auto + 0 Save = 16 byte                 *
    1708                    ;*****************************************************************************
    1709 000002d4           uxTaskPriorityGetFromISR:
    1710                    ;* --------------------------------------------------------------------------*
    1711                            .dwcfi  cfa_offset, 0
    1712 000002d4 0D10F1AD          SUB       SP, SP, #16           ; [DPU_3_PIPE]  ; [KEEP 32-BIT INS]
    1713                            .dwcfi  cfa_offset, 16
    1714                    $C$DW$126       .dwtag  DW_TAG_variable
    1715                            .dwattr $C$DW$126, DW_AT_name("xTask")
    1716                            .dwattr $C$DW$126, DW_AT_TI_symbol_name("xTask")
    1717                            .dwattr $C$DW$126, DW_AT_type(*$C$DW$T$59)
    1718                            .dwattr $C$DW$126, DW_AT_location[DW_OP_breg13 0]
    1719                    
    1720                    $C$DW$127       .dwtag  DW_TAG_variable
    1721                            .dwattr $C$DW$127, DW_AT_name("pxTCB")
    1722                            .dwattr $C$DW$127, DW_AT_TI_symbol_name("pxTCB")
    1723                            .dwattr $C$DW$127, DW_AT_type(*$C$DW$T$120)
    1724                            .dwattr $C$DW$127, DW_AT_location[DW_OP_breg13 4]
    1725                    
    1726                    $C$DW$128       .dwtag  DW_TAG_variable
    1727                            .dwattr $C$DW$128, DW_AT_name("uxReturn")
    1728                            .dwattr $C$DW$128, DW_AT_TI_symbol_name("uxReturn")
    1729                            .dwattr $C$DW$128, DW_AT_type(*$C$DW$T$32)
    1730                            .dwattr $C$DW$128, DW_AT_location[DW_OP_breg13 8]
    1731                    
    1732                    $C$DW$129       .dwtag  DW_TAG_variable
    1733                            .dwattr $C$DW$129, DW_AT_name("uxSavedInterruptState")
    1734                            .dwattr $C$DW$129, DW_AT_TI_symbol_name("uxSavedInterruptState")
    1735                            .dwattr $C$DW$129, DW_AT_type(*$C$DW$T$32)
    1736                            .dwattr $C$DW$129, DW_AT_location[DW_OP_breg13 12]
    1737                    
    1738 000002d8 9000              STR       A1, [SP, #0]          ; [DPU_3_PIPE] |1081|  ; [ORIG 16-BIT INS]
    1739                            .dwpsn  file "C:/TI_ARM_Tiva_Projects/Source/tasks.c",line 1103,column 3,is_stmt,isa 1
    1740 000002da 8111F3EF          MRS       A2, BASEPRI           ; [DPU_3_PIPE] |1103|  ; [KEEP 32-BIT INS]
    1741 000002de 20A0              MOVS      A1, #160              ; [DPU_3_PIPE] |1103|  ; [ORIG 16-BIT INS]
    1742 000002e0 8811F380          MSR       BASEPRI, A1           ; [DPU_3_PIPE] |1103|  ; [KEEP 32-BIT INS]
    1743 000002e4 9103              STR       A2, [SP, #12]         ; [DPU_3_PIPE] |1103|  ; [ORIG 16-BIT INS]
    1744                            .dwpsn  file "C:/TI_ARM_Tiva_Projects/Source/tasks.c",line 1103,column 27,is_stmt,isa 1
    1745 000002e6 8F4FF3BF          dsb ; [KEEP 32-BIT INS]
    1746 000002ea 8F6FF3BF          isb ; [KEEP 32-BIT INS]
    1747                            .dwpsn  file "C:/TI_ARM_Tiva_Projects/Source/tasks.c",line 1107,column 4,is_stmt,isa 1
    1748 000002ee 9800              LDR       A1, [SP, #0]          ; [DPU_3_PIPE] |1107|  ; [ORIG 16-BIT INS]
    1749 000002f0 B910              CBNZ      A1, ||$C$L24||        ; []  ; [ORIG 16-BIT INS]
    1750                            ; BRANCHCC OCCURS {||$C$L24||}   ; [] |1107| 
    1751                    ;* --------------------------------------------------------------------------*
    1752 000002f2 4896              LDR       A1, $C$CON11          ; [DPU_3_PIPE] |1107|  ; [ORIG 16-BIT INS]
    1753 000002f4 6800              LDR       A1, [A1, #0]          ; [DPU_3_PIPE] |1107|  ; [ORIG 16-BIT INS]
    1754 000002f6 E000              B         ||$C$L25||            ; [DPU_3_PIPE] |1107|  ; [ORIG 16-BIT INS]
    1755                            ; BRANCH OCCURS {||$C$L25||}     ; [] |1107| 
    1756                    ;* --------------------------------------------------------------------------*
    1757 000002f8           ||$C$L24||:    
    1758 000002f8 9800              LDR       A1, [SP, #0]          ; [DPU_3_PIPE] |1107|  ; [ORIG 16-BIT INS]
    1759                    ;* --------------------------------------------------------------------------*
    1760 000002fa           ||$C$L25||:    
TI ARM Assembler PC v15.12.1 Tue Oct 18 10:42:35 2016

Tools Copyright (c) 1996-2015 Texas Instruments Incorporated
tasks.asm                                                            PAGE   33

    1761 000002fa 9001              STR       A1, [SP, #4]          ; [DPU_3_PIPE] |1107|  ; [ORIG 16-BIT INS]
    1762                            .dwpsn  file "C:/TI_ARM_Tiva_Projects/Source/tasks.c",line 1108,column 4,is_stmt,isa 1
    1763 000002fc 9801              LDR       A1, [SP, #4]          ; [DPU_3_PIPE] |1108|  ; [ORIG 16-BIT INS]
    1764 000002fe 6AC0              LDR       A1, [A1, #44]         ; [DPU_3_PIPE] |1108|  ; [ORIG 16-BIT INS]
    1765 00000300 9002              STR       A1, [SP, #8]          ; [DPU_3_PIPE] |1108|  ; [ORIG 16-BIT INS]
    1766                            .dwpsn  file "C:/TI_ARM_Tiva_Projects/Source/tasks.c",line 1110,column 3,is_stmt,isa 1
    1767 00000302 9803              LDR       A1, [SP, #12]         ; [DPU_3_PIPE] |1110|  ; [ORIG 16-BIT INS]
    1768 00000304 8811F380          MSR       BASEPRI, A1           ; [DPU_3_PIPE] |1110|  ; [KEEP 32-BIT INS]
    1769                            .dwpsn  file "C:/TI_ARM_Tiva_Projects/Source/tasks.c",line 1112,column 3,is_stmt,isa 1
    1770 00000308 9802              LDR       A1, [SP, #8]          ; [DPU_3_PIPE] |1112|  ; [ORIG 16-BIT INS]
    1771                            .dwpsn  file "C:/TI_ARM_Tiva_Projects/Source/tasks.c",line 1113,column 2,is_stmt,isa 1
    1772 0000030a B004              ADD       SP, SP, #16           ; [DPU_3_PIPE]  ; [ORIG 16-BIT INS]
    1773                            .dwcfi  cfa_offset, 0
    1774                    $C$DW$130       .dwtag  DW_TAG_TI_branch
    1775                            .dwattr $C$DW$130, DW_AT_low_pc(0x00)
    1776                            .dwattr $C$DW$130, DW_AT_TI_return
    1777                    
    1778 0000030c 4770              BX        LR                    ; [DPU_3_PIPE]  ; [ORIG 16-BIT INS]
    1779                            ; BRANCH OCCURS                  ; [] 
    1780                            .dwattr $C$DW$124, DW_AT_TI_end_file("C:/TI_ARM_Tiva_Projects/Source/tasks.c")
    1781                            .dwattr $C$DW$124, DW_AT_TI_end_line(0x459)
    1782                            .dwattr $C$DW$124, DW_AT_TI_end_column(0x02)
    1783                            .dwendentry
    1784                            .dwendtag $C$DW$124
    1785                    
    1786                    ;******************************************************************************
    1787                    ;* CONSTANT TABLE                                                             *
    1788                    ;******************************************************************************
    1789 0000030e                   .sect   ".text"
    1790                            .align  4
    1791 0000030e 000046C0! ||$C$CON3||:    .bits   xSchedulerRunning,32
         00000312 00000000 
    1792                            .align  4
    1793 00000312 00000000! ||$C$CON4||:    .bits   uxTaskNumber,32
         00000316 00000000 
    1794                            .align  4
    1795 00000316 00000000! ||$C$CON5||:    .bits   uxTopReadyPriority,32
         0000031a 00000000 
    1796                            .align  4
    1797 0000031a 00000000! ||$C$CON6||:    .bits   pxReadyTasksLists,32
         0000031e 00000000 
    1798                            .align  4
    1799 0000031e 00000000! ||$C$CON7||:    .bits   xTasksWaitingTermination,32
         00000322 00000000 
    1800                            .align  4
    1801 00000322 00000000! ||$C$CON8||:    .bits   uxTasksDeleted,32
         00000326 00000000 
    1802                            .align  4
    1803 00000326 ED040000  ||$C$CON9||:    .bits   -536810236,32
         0000032a 0000E000 
    1804 0000032c                   .sect   ".text"
    1805                            .clink
    1806                            .thumbfunc vTaskPrioritySet
    1807 0000032c                   .thumb
    1808                            .global vTaskPrioritySet
TI ARM Assembler PC v15.12.1 Tue Oct 18 10:42:35 2016

Tools Copyright (c) 1996-2015 Texas Instruments Incorporated
tasks.asm                                                            PAGE   34

    1809                    
    1810                    $C$DW$131       .dwtag  DW_TAG_subprogram
    1811                            .dwattr $C$DW$131, DW_AT_name("vTaskPrioritySet")
    1812                            .dwattr $C$DW$131, DW_AT_low_pc(vTaskPrioritySet)
    1813                            .dwattr $C$DW$131, DW_AT_high_pc(0x00)
    1814                            .dwattr $C$DW$131, DW_AT_TI_symbol_name("vTaskPrioritySet")
    1815                            .dwattr $C$DW$131, DW_AT_external
    1816                            .dwattr $C$DW$131, DW_AT_TI_begin_file("C:/TI_ARM_Tiva_Projects/Source/tasks.c")
    1817                            .dwattr $C$DW$131, DW_AT_TI_begin_line(0x460)
    1818                            .dwattr $C$DW$131, DW_AT_TI_begin_column(0x07)
    1819                            .dwattr $C$DW$131, DW_AT_decl_file("C:/TI_ARM_Tiva_Projects/Source/tasks.c")
    1820                            .dwattr $C$DW$131, DW_AT_decl_line(0x460)
    1821                            .dwattr $C$DW$131, DW_AT_decl_column(0x07)
    1822                            .dwattr $C$DW$131, DW_AT_TI_max_frame_size(0x20)
    1823                            .dwpsn  file "C:/TI_ARM_Tiva_Projects/Source/tasks.c",line 1121,column 2,is_stmt,address vTask
    1824                    
    1825                            .dwfde $C$DW$CIE, vTaskPrioritySet
    1826                    $C$DW$132       .dwtag  DW_TAG_formal_parameter
    1827                            .dwattr $C$DW$132, DW_AT_name("xTask")
    1828                            .dwattr $C$DW$132, DW_AT_TI_symbol_name("xTask")
    1829                            .dwattr $C$DW$132, DW_AT_type(*$C$DW$T$59)
    1830                            .dwattr $C$DW$132, DW_AT_location[DW_OP_reg0]
    1831                    
    1832                    $C$DW$133       .dwtag  DW_TAG_formal_parameter
    1833                            .dwattr $C$DW$133, DW_AT_name("uxNewPriority")
    1834                            .dwattr $C$DW$133, DW_AT_TI_symbol_name("uxNewPriority")
    1835                            .dwattr $C$DW$133, DW_AT_type(*$C$DW$T$32)
    1836                            .dwattr $C$DW$133, DW_AT_location[DW_OP_reg1]
    1837                    
    1838                    
    1839                    ;*****************************************************************************
    1840                    ;* FUNCTION NAME: vTaskPrioritySet                                           *
    1841                    ;*                                                                           *
    1842                    ;*   Regs Modified     : A1,A2,A3,A4,V1,V9,SP,LR,SR,D0,D0_hi,D1,D1_hi,D2,    *
    1843                    ;*                           D2_hi,D3,D3_hi,D4,D4_hi,D5,D5_hi,D6,D6_hi,D7,   *
    1844                    ;*                           D7_hi,FPEXC,FPSCR                               *
    1845                    ;*   Regs Used         : A1,A2,A3,A4,V1,V9,SP,LR,SR,D0,D0_hi,D1,D1_hi,D2,    *
    1846                    ;*                           D2_hi,D3,D3_hi,D4,D4_hi,D5,D5_hi,D6,D6_hi,D7,   *
    1847                    ;*                           D7_hi,FPEXC,FPSCR                               *
    1848                    ;*   Local Frame Size  : 0 Args + 24 Auto + 8 Save = 32 byte                 *
    1849                    ;*****************************************************************************
    1850 0000032c           vTaskPrioritySet:
    1851                    ;* --------------------------------------------------------------------------*
    1852                            .dwcfi  cfa_offset, 0
    1853 0000032c B510              PUSH      {V1, LR}              ; [DPU_3_PIPE]  ; [ORIG 16-BIT INS]
    1854                            .dwcfi  cfa_offset, 8
    1855                            .dwcfi  save_reg_to_mem, 14, -4
    1856                            .dwcfi  save_reg_to_mem, 4, -8
    1857 0000032e 0D18F1AD          SUB       SP, SP, #24           ; [DPU_3_PIPE]  ; [KEEP 32-BIT INS]
    1858                            .dwcfi  cfa_offset, 32
    1859                    $C$DW$134       .dwtag  DW_TAG_variable
    1860                            .dwattr $C$DW$134, DW_AT_name("xTask")
    1861                            .dwattr $C$DW$134, DW_AT_TI_symbol_name("xTask")
    1862                            .dwattr $C$DW$134, DW_AT_type(*$C$DW$T$59)
    1863                            .dwattr $C$DW$134, DW_AT_location[DW_OP_breg13 0]
TI ARM Assembler PC v15.12.1 Tue Oct 18 10:42:35 2016

Tools Copyright (c) 1996-2015 Texas Instruments Incorporated
tasks.asm                                                            PAGE   35

    1864                    
    1865                    $C$DW$135       .dwtag  DW_TAG_variable
    1866                            .dwattr $C$DW$135, DW_AT_name("uxNewPriority")
    1867                            .dwattr $C$DW$135, DW_AT_TI_symbol_name("uxNewPriority")
    1868                            .dwattr $C$DW$135, DW_AT_type(*$C$DW$T$32)
    1869                            .dwattr $C$DW$135, DW_AT_location[DW_OP_breg13 4]
    1870                    
    1871                    $C$DW$136       .dwtag  DW_TAG_variable
    1872                            .dwattr $C$DW$136, DW_AT_name("pxTCB")
    1873                            .dwattr $C$DW$136, DW_AT_TI_symbol_name("pxTCB")
    1874                            .dwattr $C$DW$136, DW_AT_type(*$C$DW$T$120)
    1875                            .dwattr $C$DW$136, DW_AT_location[DW_OP_breg13 8]
    1876                    
    1877                    $C$DW$137       .dwtag  DW_TAG_variable
    1878                            .dwattr $C$DW$137, DW_AT_name("uxCurrentBasePriority")
    1879                            .dwattr $C$DW$137, DW_AT_TI_symbol_name("uxCurrentBasePriority")
    1880                            .dwattr $C$DW$137, DW_AT_type(*$C$DW$T$32)
    1881                            .dwattr $C$DW$137, DW_AT_location[DW_OP_breg13 12]
    1882                    
    1883                    $C$DW$138       .dwtag  DW_TAG_variable
    1884                            .dwattr $C$DW$138, DW_AT_name("uxPriorityUsedOnEntry")
    1885                            .dwattr $C$DW$138, DW_AT_TI_symbol_name("uxPriorityUsedOnEntry")
    1886                            .dwattr $C$DW$138, DW_AT_type(*$C$DW$T$32)
    1887                            .dwattr $C$DW$138, DW_AT_location[DW_OP_breg13 16]
    1888                    
    1889                    $C$DW$139       .dwtag  DW_TAG_variable
    1890                            .dwattr $C$DW$139, DW_AT_name("xYieldRequired")
    1891                            .dwattr $C$DW$139, DW_AT_TI_symbol_name("xYieldRequired")
    1892                            .dwattr $C$DW$139, DW_AT_type(*$C$DW$T$64)
    1893                            .dwattr $C$DW$139, DW_AT_location[DW_OP_breg13 20]
    1894                    
    1895 00000332 9101              STR       A2, [SP, #4]          ; [DPU_3_PIPE] |1121|  ; [ORIG 16-BIT INS]
    1896 00000334 9000              STR       A1, [SP, #0]          ; [DPU_3_PIPE] |1121|  ; [ORIG 16-BIT INS]
    1897                            .dwpsn  file "C:/TI_ARM_Tiva_Projects/Source/tasks.c",line 1124,column 28,is_stmt,isa 1
    1898 00000336 2000              MOVS      A1, #0                ; [DPU_3_PIPE] |1124|  ; [ORIG 16-BIT INS]
    1899 00000338 9005              STR       A1, [SP, #20]         ; [DPU_3_PIPE] |1124|  ; [ORIG 16-BIT INS]
    1900                            .dwpsn  file "C:/TI_ARM_Tiva_Projects/Source/tasks.c",line 1129,column 3,is_stmt,isa 1
    1901 0000033a 9801              LDR       A1, [SP, #4]          ; [DPU_3_PIPE] |1129|  ; [ORIG 16-BIT INS]
    1902 0000033c 2805              CMP       A1, #5                ; [DPU_3_PIPE] |1129|  ; [ORIG 16-BIT INS]
    1903 0000033e D301              BCC       ||$C$L26||            ; [DPU_3_PIPE] |1129|  ; [ORIG 16-BIT INS]
    1904                            ; BRANCHCC OCCURS {||$C$L26||}   ; [] |1129| 
    1905                    ;* --------------------------------------------------------------------------*
    1906                            .dwpsn  file "C:/TI_ARM_Tiva_Projects/Source/tasks.c",line 1131,column 4,is_stmt,isa 1
    1907 00000340 2004              MOVS      A1, #4                ; [DPU_3_PIPE] |1131|  ; [ORIG 16-BIT INS]
    1908 00000342 9001              STR       A1, [SP, #4]          ; [DPU_3_PIPE] |1131|  ; [ORIG 16-BIT INS]
    1909                            .dwpsn  file "C:/TI_ARM_Tiva_Projects/Source/tasks.c",line 1132,column 3,is_stmt,isa 1
    1910                    ;* --------------------------------------------------------------------------*
    1911 00000344           ||$C$L26||:    
    1912                            .dwpsn  file "C:/TI_ARM_Tiva_Projects/Source/tasks.c",line 1138,column 3,is_stmt,isa 1
    1913                    $C$DW$140       .dwtag  DW_TAG_TI_branch
    1914                            .dwattr $C$DW$140, DW_AT_low_pc(0x00)
    1915                            .dwattr $C$DW$140, DW_AT_name("vPortEnterCritical")
    1916                            .dwattr $C$DW$140, DW_AT_TI_call
    1917                    
    1918 00000344 FFFEF7FF!         BL        vPortEnterCritical    ; [DPU_3_PIPE] |1138|  ; [KEEP 32-BIT INS]
TI ARM Assembler PC v15.12.1 Tue Oct 18 10:42:35 2016

Tools Copyright (c) 1996-2015 Texas Instruments Incorporated
tasks.asm                                                            PAGE   36

    1919                            ; CALL OCCURS {vPortEnterCritical }  ; [] |1138| 
    1920                            .dwpsn  file "C:/TI_ARM_Tiva_Projects/Source/tasks.c",line 1142,column 4,is_stmt,isa 1
    1921 00000348 9800              LDR       A1, [SP, #0]          ; [DPU_3_PIPE] |1142|  ; [ORIG 16-BIT INS]
    1922 0000034a B910              CBNZ      A1, ||$C$L27||        ; []  ; [ORIG 16-BIT INS]
    1923                            ; BRANCHCC OCCURS {||$C$L27||}   ; [] |1142| 
    1924                    ;* --------------------------------------------------------------------------*
    1925 0000034c 487F              LDR       A1, $C$CON11          ; [DPU_3_PIPE] |1142|  ; [ORIG 16-BIT INS]
    1926 0000034e 6800              LDR       A1, [A1, #0]          ; [DPU_3_PIPE] |1142|  ; [ORIG 16-BIT INS]
    1927 00000350 E000              B         ||$C$L28||            ; [DPU_3_PIPE] |1142|  ; [ORIG 16-BIT INS]
    1928                            ; BRANCH OCCURS {||$C$L28||}     ; [] |1142| 
    1929                    ;* --------------------------------------------------------------------------*
    1930 00000352           ||$C$L27||:    
    1931 00000352 9800              LDR       A1, [SP, #0]          ; [DPU_3_PIPE] |1142|  ; [ORIG 16-BIT INS]
    1932                    ;* --------------------------------------------------------------------------*
    1933 00000354           ||$C$L28||:    
    1934 00000354 9002              STR       A1, [SP, #8]          ; [DPU_3_PIPE] |1142|  ; [ORIG 16-BIT INS]
    1935                            .dwpsn  file "C:/TI_ARM_Tiva_Projects/Source/tasks.c",line 1148,column 5,is_stmt,isa 1
    1936 00000356 9802              LDR       A1, [SP, #8]          ; [DPU_3_PIPE] |1148|  ; [ORIG 16-BIT INS]
    1937 00000358 6C80              LDR       A1, [A1, #72]         ; [DPU_3_PIPE] |1148|  ; [ORIG 16-BIT INS]
    1938 0000035a 9003              STR       A1, [SP, #12]         ; [DPU_3_PIPE] |1148|  ; [ORIG 16-BIT INS]
    1939                            .dwpsn  file "C:/TI_ARM_Tiva_Projects/Source/tasks.c",line 1156,column 4,is_stmt,isa 1
    1940 0000035c 9903              LDR       A2, [SP, #12]         ; [DPU_3_PIPE] |1156|  ; [ORIG 16-BIT INS]
    1941 0000035e 9801              LDR       A1, [SP, #4]          ; [DPU_3_PIPE] |1156|  ; [ORIG 16-BIT INS]
    1942 00000360 4288              CMP       A1, A2                ; [DPU_3_PIPE] |1156|  ; [ORIG 16-BIT INS]
    1943 00000362 D05F              BEQ       ||$C$L37||            ; [DPU_3_PIPE] |1156|  ; [ORIG 16-BIT INS]
    1944                            ; BRANCHCC OCCURS {||$C$L37||}   ; [] |1156| 
    1945                    ;* --------------------------------------------------------------------------*
    1946                            .dwpsn  file "C:/TI_ARM_Tiva_Projects/Source/tasks.c",line 1160,column 5,is_stmt,isa 1
    1947 00000364 9803              LDR       A1, [SP, #12]         ; [DPU_3_PIPE] |1160|  ; [ORIG 16-BIT INS]
    1948 00000366 9901              LDR       A2, [SP, #4]          ; [DPU_3_PIPE] |1160|  ; [ORIG 16-BIT INS]
    1949 00000368 4288              CMP       A1, A2                ; [DPU_3_PIPE] |1160|  ; [ORIG 16-BIT INS]
    1950 0000036a D20D              BCS       ||$C$L29||            ; [DPU_3_PIPE] |1160|  ; [ORIG 16-BIT INS]
    1951                            ; BRANCHCC OCCURS {||$C$L29||}   ; [] |1160| 
    1952                    ;* --------------------------------------------------------------------------*
    1953                            .dwpsn  file "C:/TI_ARM_Tiva_Projects/Source/tasks.c",line 1162,column 6,is_stmt,isa 1
    1954 0000036c 4877              LDR       A1, $C$CON11          ; [DPU_3_PIPE] |1162|  ; [ORIG 16-BIT INS]
    1955 0000036e 9902              LDR       A2, [SP, #8]          ; [DPU_3_PIPE] |1162|  ; [ORIG 16-BIT INS]
    1956 00000370 6800              LDR       A1, [A1, #0]          ; [DPU_3_PIPE] |1162|  ; [ORIG 16-BIT INS]
    1957 00000372 4288              CMP       A1, A2                ; [DPU_3_PIPE] |1162|  ; [ORIG 16-BIT INS]
    1958 00000374 D00F              BEQ       ||$C$L30||            ; [DPU_3_PIPE] |1162|  ; [ORIG 16-BIT INS]
    1959                            ; BRANCHCC OCCURS {||$C$L30||}   ; [] |1162| 
    1960                    ;* --------------------------------------------------------------------------*
    1961                            .dwpsn  file "C:/TI_ARM_Tiva_Projects/Source/tasks.c",line 1167,column 7,is_stmt,isa 1
    1962 00000376 4875              LDR       A1, $C$CON11          ; [DPU_3_PIPE] |1167|  ; [ORIG 16-BIT INS]
    1963 00000378 6800              LDR       A1, [A1, #0]          ; [DPU_3_PIPE] |1167|  ; [ORIG 16-BIT INS]
    1964 0000037a 9901              LDR       A2, [SP, #4]          ; [DPU_3_PIPE] |1167|  ; [ORIG 16-BIT INS]
    1965 0000037c 6AC0              LDR       A1, [A1, #44]         ; [DPU_3_PIPE] |1167|  ; [ORIG 16-BIT INS]
    1966 0000037e 4288              CMP       A1, A2                ; [DPU_3_PIPE] |1167|  ; [ORIG 16-BIT INS]
    1967 00000380 D809              BHI       ||$C$L30||            ; [DPU_3_PIPE] |1167|  ; [ORIG 16-BIT INS]
    1968                            ; BRANCHCC OCCURS {||$C$L30||}   ; [] |1167| 
    1969                    ;* --------------------------------------------------------------------------*
    1970                            .dwpsn  file "C:/TI_ARM_Tiva_Projects/Source/tasks.c",line 1169,column 8,is_stmt,isa 1
    1971 00000382 2001              MOVS      A1, #1                ; [DPU_3_PIPE] |1169|  ; [ORIG 16-BIT INS]
    1972 00000384 9005              STR       A1, [SP, #20]         ; [DPU_3_PIPE] |1169|  ; [ORIG 16-BIT INS]
    1973                            .dwpsn  file "C:/TI_ARM_Tiva_Projects/Source/tasks.c",line 1170,column 7,is_stmt,isa 1
TI ARM Assembler PC v15.12.1 Tue Oct 18 10:42:35 2016

Tools Copyright (c) 1996-2015 Texas Instruments Incorporated
tasks.asm                                                            PAGE   37

    1974 00000386 E006              B         ||$C$L30||            ; [DPU_3_PIPE] |1170|  ; [ORIG 16-BIT INS]
    1975                            ; BRANCH OCCURS {||$C$L30||}     ; [] |1170| 
    1976                    ;* --------------------------------------------------------------------------*
    1977                    ;* --------------------------------------------------------------------------*
    1978 00000388           ||$C$L29||:    
    1979                            .dwpsn  file "C:/TI_ARM_Tiva_Projects/Source/tasks.c",line 1183,column 10,is_stmt,isa 1
    1980 00000388 4870              LDR       A1, $C$CON11          ; [DPU_3_PIPE] |1183|  ; [ORIG 16-BIT INS]
    1981 0000038a 9902              LDR       A2, [SP, #8]          ; [DPU_3_PIPE] |1183|  ; [ORIG 16-BIT INS]
    1982 0000038c 6800              LDR       A1, [A1, #0]          ; [DPU_3_PIPE] |1183|  ; [ORIG 16-BIT INS]
    1983 0000038e 4288              CMP       A1, A2                ; [DPU_3_PIPE] |1183|  ; [ORIG 16-BIT INS]
    1984 00000390 D101              BNE       ||$C$L30||            ; [DPU_3_PIPE] |1183|  ; [ORIG 16-BIT INS]
    1985                            ; BRANCHCC OCCURS {||$C$L30||}   ; [] |1183| 
    1986                    ;* --------------------------------------------------------------------------*
    1987                            .dwpsn  file "C:/TI_ARM_Tiva_Projects/Source/tasks.c",line 1188,column 6,is_stmt,isa 1
    1988 00000392 2001              MOVS      A1, #1                ; [DPU_3_PIPE] |1188|  ; [ORIG 16-BIT INS]
    1989 00000394 9005              STR       A1, [SP, #20]         ; [DPU_3_PIPE] |1188|  ; [ORIG 16-BIT INS]
    1990                            .dwpsn  file "C:/TI_ARM_Tiva_Projects/Source/tasks.c",line 1189,column 5,is_stmt,isa 1
    1991                    ;* --------------------------------------------------------------------------*
    1992 00000396           ||$C$L30||:    
    1993                            .dwpsn  file "C:/TI_ARM_Tiva_Projects/Source/tasks.c",line 1200,column 5,is_stmt,isa 1
    1994 00000396 9802              LDR       A1, [SP, #8]          ; [DPU_3_PIPE] |1200|  ; [ORIG 16-BIT INS]
    1995 00000398 6AC0              LDR       A1, [A1, #44]         ; [DPU_3_PIPE] |1200|  ; [ORIG 16-BIT INS]
    1996 0000039a 9004              STR       A1, [SP, #16]         ; [DPU_3_PIPE] |1200|  ; [ORIG 16-BIT INS]
    1997                            .dwpsn  file "C:/TI_ARM_Tiva_Projects/Source/tasks.c",line 1206,column 6,is_stmt,isa 1
    1998 0000039c 9902              LDR       A2, [SP, #8]          ; [DPU_3_PIPE] |1206|  ; [ORIG 16-BIT INS]
    1999 0000039e 9802              LDR       A1, [SP, #8]          ; [DPU_3_PIPE] |1206|  ; [ORIG 16-BIT INS]
    2000 000003a0 6C89              LDR       A2, [A2, #72]         ; [DPU_3_PIPE] |1206|  ; [ORIG 16-BIT INS]
    2001 000003a2 6AC0              LDR       A1, [A1, #44]         ; [DPU_3_PIPE] |1206|  ; [ORIG 16-BIT INS]
    2002 000003a4 4288              CMP       A1, A2                ; [DPU_3_PIPE] |1206|  ; [ORIG 16-BIT INS]
    2003 000003a6 D102              BNE       ||$C$L31||            ; [DPU_3_PIPE] |1206|  ; [ORIG 16-BIT INS]
    2004                            ; BRANCHCC OCCURS {||$C$L31||}   ; [] |1206| 
    2005                    ;* --------------------------------------------------------------------------*
    2006                            .dwpsn  file "C:/TI_ARM_Tiva_Projects/Source/tasks.c",line 1208,column 7,is_stmt,isa 1
    2007 000003a8 9801              LDR       A1, [SP, #4]          ; [DPU_3_PIPE] |1208|  ; [ORIG 16-BIT INS]
    2008 000003aa 9902              LDR       A2, [SP, #8]          ; [DPU_3_PIPE] |1208|  ; [ORIG 16-BIT INS]
    2009 000003ac 62C8              STR       A1, [A2, #44]         ; [DPU_3_PIPE] |1208|  ; [ORIG 16-BIT INS]
    2010                            .dwpsn  file "C:/TI_ARM_Tiva_Projects/Source/tasks.c",line 1209,column 6,is_stmt,isa 1
    2011                    ;* --------------------------------------------------------------------------*
    2012 000003ae           ||$C$L31||:    
    2013                            .dwpsn  file "C:/TI_ARM_Tiva_Projects/Source/tasks.c",line 1216,column 6,is_stmt,isa 1
    2014 000003ae 9801              LDR       A1, [SP, #4]          ; [DPU_3_PIPE] |1216|  ; [ORIG 16-BIT INS]
    2015 000003b0 9902              LDR       A2, [SP, #8]          ; [DPU_3_PIPE] |1216|  ; [ORIG 16-BIT INS]
    2016 000003b2 6488              STR       A1, [A2, #72]         ; [DPU_3_PIPE] |1216|  ; [ORIG 16-BIT INS]
    2017                            .dwpsn  file "C:/TI_ARM_Tiva_Projects/Source/tasks.c",line 1226,column 5,is_stmt,isa 1
    2018 000003b4 9802              LDR       A1, [SP, #8]          ; [DPU_3_PIPE] |1226|  ; [ORIG 16-BIT INS]
    2019 000003b6 6980              LDR       A1, [A1, #24]         ; [DPU_3_PIPE] |1226|  ; [ORIG 16-BIT INS]
    2020 000003b8 0800              LSRS      A1, A1, #32           ; [DPU_3_PIPE] |1226|  ; [ORIG 16-BIT INS]
    2021 000003ba D204              BCS       ||$C$L32||            ; [DPU_3_PIPE] |1226|  ; [ORIG 16-BIT INS]
    2022                            ; BRANCHCC OCCURS {||$C$L32||}   ; [] |1226| 
    2023                    ;* --------------------------------------------------------------------------*
    2024                            .dwpsn  file "C:/TI_ARM_Tiva_Projects/Source/tasks.c",line 1228,column 6,is_stmt,isa 1
    2025 000003bc 9801              LDR       A1, [SP, #4]          ; [DPU_3_PIPE] |1228|  ; [ORIG 16-BIT INS]
    2026 000003be 9902              LDR       A2, [SP, #8]          ; [DPU_3_PIPE] |1228|  ; [ORIG 16-BIT INS]
    2027 000003c0 0005F1C0          RSB       A1, A1, #5            ; [DPU_3_PIPE] |1228|  ; [KEEP 32-BIT INS]
    2028 000003c4 6188              STR       A1, [A2, #24]         ; [DPU_3_PIPE] |1228|  ; [ORIG 16-BIT INS]
TI ARM Assembler PC v15.12.1 Tue Oct 18 10:42:35 2016

Tools Copyright (c) 1996-2015 Texas Instruments Incorporated
tasks.asm                                                            PAGE   38

    2029                            .dwpsn  file "C:/TI_ARM_Tiva_Projects/Source/tasks.c",line 1229,column 5,is_stmt,isa 1
    2030                    ;* --------------------------------------------------------------------------*
    2031 000003c6           ||$C$L32||:    
    2032                            .dwpsn  file "C:/TI_ARM_Tiva_Projects/Source/tasks.c",line 1239,column 5,is_stmt,isa 1
    2033 000003c6 9802              LDR       A1, [SP, #8]          ; [DPU_3_PIPE] |1239|  ; [ORIG 16-BIT INS]
    2034 000003c8 9B04              LDR       A4, [SP, #16]         ; [DPU_3_PIPE] |1239|  ; [ORIG 16-BIT INS]
    2035 000003ca 4994              LDR       A2, $C$CON12          ; [DPU_3_PIPE] |1239|  ; [ORIG 16-BIT INS]
    2036 000003cc 6942              LDR       A3, [A1, #20]         ; [DPU_3_PIPE] |1239|  ; [ORIG 16-BIT INS]
    2037 000003ce 0098              LSLS      A1, A4, #2            ; [DPU_3_PIPE] |1239|  ; [ORIG 16-BIT INS]
    2038 000003d0 1003EB00          ADD       A1, A1, A4, LSL #4    ; [DPU_3_PIPE] |1239|  ; [KEEP 32-BIT INS]
    2039 000003d4 1809              ADDS      A2, A2, A1            ; [DPU_3_PIPE] |1239|  ; [ORIG 16-BIT INS]
    2040 000003d6 2000              MOVS      A1, #0                ; [DPU_3_PIPE] |1239|  ; [ORIG 16-BIT INS]
    2041 000003d8 4291              CMP       A2, A3                ; [DPU_3_PIPE] |1239|  ; [ORIG 16-BIT INS]
    2042 000003da D100              BNE       ||$C$L33||            ; [DPU_3_PIPE] |1239|  ; [ORIG 16-BIT INS]
    2043                            ; BRANCHCC OCCURS {||$C$L33||}   ; [] |1239| 
    2044                    ;* --------------------------------------------------------------------------*
    2045 000003dc 2001              MOVS      A1, #1                ; [DPU_3_PIPE] |1239|  ; [ORIG 16-BIT INS]
    2046                    ;* --------------------------------------------------------------------------*
    2047 000003de           ||$C$L33||:    
    2048 000003de B1F0              CBZ       A1, ||$C$L35||        ; []  ; [ORIG 16-BIT INS]
    2049                            ; BRANCHCC OCCURS {||$C$L35||}   ; [] |1239| 
    2050                    ;* --------------------------------------------------------------------------*
    2051                            .dwpsn  file "C:/TI_ARM_Tiva_Projects/Source/tasks.c",line 1244,column 6,is_stmt,isa 1
    2052 000003e0 9802              LDR       A1, [SP, #8]          ; [DPU_3_PIPE] |1244|  ; [ORIG 16-BIT INS]
    2053 000003e2 1D00              ADDS      A1, A1, #4            ; [DPU_3_PIPE] |1244|  ; [ORIG 16-BIT INS]
    2054                    $C$DW$141       .dwtag  DW_TAG_TI_branch
    2055                            .dwattr $C$DW$141, DW_AT_low_pc(0x00)
    2056                            .dwattr $C$DW$141, DW_AT_name("uxListRemove")
    2057                            .dwattr $C$DW$141, DW_AT_TI_call
    2058                    
    2059 000003e4 FFFEF7FF!         BL        uxListRemove          ; [DPU_3_PIPE] |1244|  ; [KEEP 32-BIT INS]
    2060                            ; CALL OCCURS {uxListRemove }    ; [] |1244| 
    2061 000003e8 B930              CBNZ      A1, ||$C$L34||        ; []  ; [ORIG 16-BIT INS]
    2062                            ; BRANCHCC OCCURS {||$C$L34||}   ; [] |1244| 
    2063                    ;* --------------------------------------------------------------------------*
    2064                            .dwpsn  file "C:/TI_ARM_Tiva_Projects/Source/tasks.c",line 1249,column 7,is_stmt,isa 1
    2065 000003ea 4AA6              LDR       A3, $C$CON13          ; [DPU_3_PIPE] |1249|  ; [ORIG 16-BIT INS]
    2066 000003ec 9B04              LDR       A4, [SP, #16]         ; [DPU_3_PIPE] |1249|  ; [ORIG 16-BIT INS]
    2067 000003ee 6811              LDR       A2, [A3, #0]          ; [DPU_3_PIPE] |1249|  ; [ORIG 16-BIT INS]
    2068 000003f0 2001              MOVS      A1, #1                ; [DPU_3_PIPE] |1249|  ; [ORIG 16-BIT INS]
    2069 000003f2 4098              LSLS      A1, A1, A4            ; [DPU_3_PIPE] |1249|  ; [ORIG 16-BIT INS]
    2070 000003f4 4381              BICS      A2, A2, A1            ; [DPU_3_PIPE] |1249|  ; [ORIG 16-BIT INS]
    2071 000003f6 6011              STR       A2, [A3, #0]          ; [DPU_3_PIPE] |1249|  ; [ORIG 16-BIT INS]
    2072                            .dwpsn  file "C:/TI_ARM_Tiva_Projects/Source/tasks.c",line 1250,column 6,is_stmt,isa 1
    2073                    ;* --------------------------------------------------------------------------*
    2074 000003f8           ||$C$L34||:    
    2075                            .dwpsn  file "C:/TI_ARM_Tiva_Projects/Source/tasks.c",line 1255,column 6,is_stmt,isa 1
    2076 000003f8 9802              LDR       A1, [SP, #8]          ; [DPU_3_PIPE] |1255|  ; [ORIG 16-BIT INS]
    2077 000003fa 4AA2              LDR       A3, $C$CON13          ; [DPU_3_PIPE] |1255|  ; [ORIG 16-BIT INS]
    2078 000003fc 6AC4              LDR       V1, [A1, #44]         ; [DPU_3_PIPE] |1255|  ; [ORIG 16-BIT INS]
    2079 000003fe 6813              LDR       A4, [A3, #0]          ; [DPU_3_PIPE] |1255|  ; [ORIG 16-BIT INS]
    2080 00000400 9902              LDR       A2, [SP, #8]          ; [DPU_3_PIPE] |1255|  ; [ORIG 16-BIT INS]
    2081 00000402 2001              MOVS      A1, #1                ; [DPU_3_PIPE] |1255|  ; [ORIG 16-BIT INS]
    2082 00000404 40A0              LSLS      A1, A1, V1            ; [DPU_3_PIPE] |1255|  ; [ORIG 16-BIT INS]
    2083 00000406 4318              ORRS      A1, A1, A4            ; [DPU_3_PIPE] |1255|  ; [ORIG 16-BIT INS]
TI ARM Assembler PC v15.12.1 Tue Oct 18 10:42:35 2016

Tools Copyright (c) 1996-2015 Texas Instruments Incorporated
tasks.asm                                                            PAGE   39

    2084 00000408 6010              STR       A1, [A3, #0]          ; [DPU_3_PIPE] |1255|  ; [ORIG 16-BIT INS]
    2085 0000040a 4884              LDR       A1, $C$CON12          ; [DPU_3_PIPE] |1255|  ; [ORIG 16-BIT INS]
    2086 0000040c 6ACB              LDR       A4, [A2, #44]         ; [DPU_3_PIPE] |1255|  ; [ORIG 16-BIT INS]
    2087 0000040e 9902              LDR       A2, [SP, #8]          ; [DPU_3_PIPE] |1255|  ; [ORIG 16-BIT INS]
    2088 00000410 009A              LSLS      A3, A4, #2            ; [DPU_3_PIPE] |1255|  ; [ORIG 16-BIT INS]
    2089 00000412 1D09              ADDS      A2, A2, #4            ; [DPU_3_PIPE] |1255|  ; [ORIG 16-BIT INS]
    2090 00000414 1203EB02          ADD       A3, A3, A4, LSL #4    ; [DPU_3_PIPE] |1255|  ; [KEEP 32-BIT INS]
    2091 00000418 1880              ADDS      A1, A1, A3            ; [DPU_3_PIPE] |1255|  ; [ORIG 16-BIT INS]
    2092                    $C$DW$142       .dwtag  DW_TAG_TI_branch
    2093                            .dwattr $C$DW$142, DW_AT_low_pc(0x00)
    2094                            .dwattr $C$DW$142, DW_AT_name("vListInsertEnd")
    2095                            .dwattr $C$DW$142, DW_AT_TI_call
    2096                    
    2097 0000041a FFFEF7FF!         BL        vListInsertEnd        ; [DPU_3_PIPE] |1255|  ; [KEEP 32-BIT INS]
    2098                            ; CALL OCCURS {vListInsertEnd }  ; [] |1255| 
    2099                            .dwpsn  file "C:/TI_ARM_Tiva_Projects/Source/tasks.c",line 1256,column 5,is_stmt,isa 1
    2100                    ;* --------------------------------------------------------------------------*
    2101 0000041e           ||$C$L35||:    
    2102                            .dwpsn  file "C:/TI_ARM_Tiva_Projects/Source/tasks.c",line 1262,column 5,is_stmt,isa 1
    2103 0000041e 9805              LDR       A1, [SP, #20]         ; [DPU_3_PIPE] |1262|  ; [ORIG 16-BIT INS]
    2104 00000420 2801              CMP       A1, #1                ; [DPU_3_PIPE] |1262|  ; [ORIG 16-BIT INS]
    2105 00000422 D0FF              BEQ       ||$C$L36||            ; [DPU_3_PIPE] |1262|  ; [ORIG 16-BIT INS]
    2106                            ; BRANCHCC OCCURS {||$C$L36||}   ; [] |1262| 
    2107                    ;* --------------------------------------------------------------------------*
    2108                            .dwpsn  file "C:/TI_ARM_Tiva_Projects/Source/tasks.c",line 1265,column 5,is_stmt,isa 1
    2109                    ;* --------------------------------------------------------------------------*
    2110 00000424           ||$C$L36||:    
    2111                            .dwpsn  file "C:/TI_ARM_Tiva_Projects/Source/tasks.c",line 1273,column 5,is_stmt,isa 1
    2112                    ;* --------------------------------------------------------------------------*
    2113 00000424           ||$C$L37||:    
    2114                            .dwpsn  file "C:/TI_ARM_Tiva_Projects/Source/tasks.c",line 1276,column 3,is_stmt,isa 1
    2115                    $C$DW$143       .dwtag  DW_TAG_TI_branch
    2116                            .dwattr $C$DW$143, DW_AT_low_pc(0x00)
    2117                            .dwattr $C$DW$143, DW_AT_name("vPortExitCritical")
    2118                            .dwattr $C$DW$143, DW_AT_TI_call
    2119                    
    2120 00000424 FFFEF7FF!         BL        vPortExitCritical     ; [DPU_3_PIPE] |1276|  ; [KEEP 32-BIT INS]
    2121                            ; CALL OCCURS {vPortExitCritical }  ; [] |1276| 
    2122                            .dwpsn  file "C:/TI_ARM_Tiva_Projects/Source/tasks.c",line 1277,column 2,is_stmt,isa 1
    2123 00000428 B006              ADD       SP, SP, #24           ; [DPU_3_PIPE]  ; [ORIG 16-BIT INS]
    2124                            .dwcfi  cfa_offset, 8
    2125                    $C$DW$144       .dwtag  DW_TAG_TI_branch
    2126                            .dwattr $C$DW$144, DW_AT_low_pc(0x00)
    2127                            .dwattr $C$DW$144, DW_AT_TI_return
    2128                    
    2129 0000042a BD10              POP       {V1, PC}              ; [DPU_3_PIPE]  ; [ORIG 16-BIT INS]
    2130                            .dwcfi  cfa_offset, 0
    2131                            ; BRANCH OCCURS                  ; [] 
    2132                            .dwattr $C$DW$131, DW_AT_TI_end_file("C:/TI_ARM_Tiva_Projects/Source/tasks.c")
    2133                            .dwattr $C$DW$131, DW_AT_TI_end_line(0x4fd)
    2134                            .dwattr $C$DW$131, DW_AT_TI_end_column(0x02)
    2135                            .dwendentry
    2136                            .dwendtag $C$DW$131
    2137                    
    2138                    ;******************************************************************************
TI ARM Assembler PC v15.12.1 Tue Oct 18 10:42:35 2016

Tools Copyright (c) 1996-2015 Texas Instruments Incorporated
tasks.asm                                                            PAGE   40

    2139                    ;* CONSTANT TABLE                                                             *
    2140                    ;******************************************************************************
    2141 0000042c                   .sect   ".text"
    2142                            .align  4
    2143 0000042c 00000000! ||$C$CON10||:   .bits   xTickCount,32
    2144 00000430                   .sect   ".text"
    2145                            .clink
    2146                            .thumbfunc vTaskSuspend
    2147 00000430                   .thumb
    2148                            .global vTaskSuspend
    2149                    
    2150                    $C$DW$145       .dwtag  DW_TAG_subprogram
    2151                            .dwattr $C$DW$145, DW_AT_name("vTaskSuspend")
    2152                            .dwattr $C$DW$145, DW_AT_low_pc(vTaskSuspend)
    2153                            .dwattr $C$DW$145, DW_AT_high_pc(0x00)
    2154                            .dwattr $C$DW$145, DW_AT_TI_symbol_name("vTaskSuspend")
    2155                            .dwattr $C$DW$145, DW_AT_external
    2156                            .dwattr $C$DW$145, DW_AT_TI_begin_file("C:/TI_ARM_Tiva_Projects/Source/tasks.c")
    2157                            .dwattr $C$DW$145, DW_AT_TI_begin_line(0x504)
    2158                            .dwattr $C$DW$145, DW_AT_TI_begin_column(0x07)
    2159                            .dwattr $C$DW$145, DW_AT_decl_file("C:/TI_ARM_Tiva_Projects/Source/tasks.c")
    2160                            .dwattr $C$DW$145, DW_AT_decl_line(0x504)
    2161                            .dwattr $C$DW$145, DW_AT_decl_column(0x07)
    2162                            .dwattr $C$DW$145, DW_AT_TI_max_frame_size(0x10)
    2163                            .dwpsn  file "C:/TI_ARM_Tiva_Projects/Source/tasks.c",line 1285,column 2,is_stmt,address vTask
    2164                    
    2165                            .dwfde $C$DW$CIE, vTaskSuspend
    2166                    $C$DW$146       .dwtag  DW_TAG_formal_parameter
    2167                            .dwattr $C$DW$146, DW_AT_name("xTaskToSuspend")
    2168                            .dwattr $C$DW$146, DW_AT_TI_symbol_name("xTaskToSuspend")
    2169                            .dwattr $C$DW$146, DW_AT_type(*$C$DW$T$59)
    2170                            .dwattr $C$DW$146, DW_AT_location[DW_OP_reg0]
    2171                    
    2172                    
    2173                    ;*****************************************************************************
    2174                    ;* FUNCTION NAME: vTaskSuspend                                               *
    2175                    ;*                                                                           *
    2176                    ;*   Regs Modified     : A1,A2,A3,A4,V9,SP,LR,SR,D0,D0_hi,D1,D1_hi,D2,D2_hi, *
    2177                    ;*                           D3,D3_hi,D4,D4_hi,D5,D5_hi,D6,D6_hi,D7,D7_hi,   *
    2178                    ;*                           FPEXC,FPSCR                                     *
    2179                    ;*   Regs Used         : A1,A2,A3,A4,V9,SP,LR,SR,D0,D0_hi,D1,D1_hi,D2,D2_hi, *
    2180                    ;*                           D3,D3_hi,D4,D4_hi,D5,D5_hi,D6,D6_hi,D7,D7_hi,   *
    2181                    ;*                           FPEXC,FPSCR                                     *
    2182                    ;*   Local Frame Size  : 0 Args + 8 Auto + 4 Save = 12 byte                  *
    2183                    ;*****************************************************************************
    2184 00000430           vTaskSuspend:
    2185                    ;* --------------------------------------------------------------------------*
    2186                            .dwcfi  cfa_offset, 0
    2187 00000430 B50E              PUSH      {A2, A3, A4, LR}      ; [DPU_3_PIPE]  ; [ORIG 16-BIT INS]
    2188                            .dwcfi  cfa_offset, 16
    2189                            .dwcfi  save_reg_to_mem, 14, -4
    2190                            .dwcfi  save_reg_to_mem, 3, -8
    2191                            .dwcfi  save_reg_to_mem, 2, -12
    2192                            .dwcfi  save_reg_to_mem, 1, -16
    2193                    $C$DW$147       .dwtag  DW_TAG_variable
TI ARM Assembler PC v15.12.1 Tue Oct 18 10:42:35 2016

Tools Copyright (c) 1996-2015 Texas Instruments Incorporated
tasks.asm                                                            PAGE   41

    2194                            .dwattr $C$DW$147, DW_AT_name("xTaskToSuspend")
    2195                            .dwattr $C$DW$147, DW_AT_TI_symbol_name("xTaskToSuspend")
    2196                            .dwattr $C$DW$147, DW_AT_type(*$C$DW$T$59)
    2197                            .dwattr $C$DW$147, DW_AT_location[DW_OP_breg13 0]
    2198                    
    2199                    $C$DW$148       .dwtag  DW_TAG_variable
    2200                            .dwattr $C$DW$148, DW_AT_name("pxTCB")
    2201                            .dwattr $C$DW$148, DW_AT_TI_symbol_name("pxTCB")
    2202                            .dwattr $C$DW$148, DW_AT_type(*$C$DW$T$120)
    2203                            .dwattr $C$DW$148, DW_AT_location[DW_OP_breg13 4]
    2204                    
    2205 00000432 9000              STR       A1, [SP, #0]          ; [DPU_3_PIPE] |1285|  ; [ORIG 16-BIT INS]
    2206                            .dwpsn  file "C:/TI_ARM_Tiva_Projects/Source/tasks.c",line 1288,column 3,is_stmt,isa 1
    2207                    $C$DW$149       .dwtag  DW_TAG_TI_branch
    2208                            .dwattr $C$DW$149, DW_AT_low_pc(0x00)
    2209                            .dwattr $C$DW$149, DW_AT_name("vPortEnterCritical")
    2210                            .dwattr $C$DW$149, DW_AT_TI_call
    2211                    
    2212 00000434 FFFEF7FF!         BL        vPortEnterCritical    ; [DPU_3_PIPE] |1288|  ; [KEEP 32-BIT INS]
    2213                            ; CALL OCCURS {vPortEnterCritical }  ; [] |1288| 
    2214                            .dwpsn  file "C:/TI_ARM_Tiva_Projects/Source/tasks.c",line 1292,column 4,is_stmt,isa 1
    2215 00000438 9800              LDR       A1, [SP, #0]          ; [DPU_3_PIPE] |1292|  ; [ORIG 16-BIT INS]
    2216 0000043a B910              CBNZ      A1, ||$C$L38||        ; []  ; [ORIG 16-BIT INS]
    2217                            ; BRANCHCC OCCURS {||$C$L38||}   ; [] |1292| 
    2218                    ;* --------------------------------------------------------------------------*
    2219 0000043c 4843              LDR       A1, $C$CON11          ; [DPU_3_PIPE] |1292|  ; [ORIG 16-BIT INS]
    2220 0000043e 6800              LDR       A1, [A1, #0]          ; [DPU_3_PIPE] |1292|  ; [ORIG 16-BIT INS]
    2221 00000440 E000              B         ||$C$L39||            ; [DPU_3_PIPE] |1292|  ; [ORIG 16-BIT INS]
    2222                            ; BRANCH OCCURS {||$C$L39||}     ; [] |1292| 
    2223                    ;* --------------------------------------------------------------------------*
    2224 00000442           ||$C$L38||:    
    2225 00000442 9800              LDR       A1, [SP, #0]          ; [DPU_3_PIPE] |1292|  ; [ORIG 16-BIT INS]
    2226                    ;* --------------------------------------------------------------------------*
    2227 00000444           ||$C$L39||:    
    2228 00000444 9001              STR       A1, [SP, #4]          ; [DPU_3_PIPE] |1292|  ; [ORIG 16-BIT INS]
    2229                            .dwpsn  file "C:/TI_ARM_Tiva_Projects/Source/tasks.c",line 1298,column 4,is_stmt,isa 1
    2230 00000446 9801              LDR       A1, [SP, #4]          ; [DPU_3_PIPE] |1298|  ; [ORIG 16-BIT INS]
    2231 00000448 1D00              ADDS      A1, A1, #4            ; [DPU_3_PIPE] |1298|  ; [ORIG 16-BIT INS]
    2232                    $C$DW$150       .dwtag  DW_TAG_TI_branch
    2233                            .dwattr $C$DW$150, DW_AT_low_pc(0x00)
    2234                            .dwattr $C$DW$150, DW_AT_name("uxListRemove")
    2235                            .dwattr $C$DW$150, DW_AT_TI_call
    2236                    
    2237 0000044a FFFEF7FF!         BL        uxListRemove          ; [DPU_3_PIPE] |1298|  ; [KEEP 32-BIT INS]
    2238                            ; CALL OCCURS {uxListRemove }    ; [] |1298| 
    2239 0000044e B978              CBNZ      A1, ||$C$L40||        ; []  ; [ORIG 16-BIT INS]
    2240                            ; BRANCHCC OCCURS {||$C$L40||}   ; [] |1298| 
    2241                    ;* --------------------------------------------------------------------------*
    2242                            .dwpsn  file "C:/TI_ARM_Tiva_Projects/Source/tasks.c",line 1300,column 5,is_stmt,isa 1
    2243 00000450 9801              LDR       A1, [SP, #4]          ; [DPU_3_PIPE] |1300|  ; [ORIG 16-BIT INS]
    2244 00000452 4972              LDR       A2, $C$CON12          ; [DPU_3_PIPE] |1300|  ; [ORIG 16-BIT INS]
    2245 00000454 6AC2              LDR       A3, [A1, #44]         ; [DPU_3_PIPE] |1300|  ; [ORIG 16-BIT INS]
    2246 00000456 0090              LSLS      A1, A3, #2            ; [DPU_3_PIPE] |1300|  ; [ORIG 16-BIT INS]
    2247 00000458 1002EB00          ADD       A1, A1, A3, LSL #4    ; [DPU_3_PIPE] |1300|  ; [KEEP 32-BIT INS]
    2248 0000045c 5808              LDR       A1, [A2, +A1]         ; [DPU_3_PIPE] |1300|  ; [ORIG 16-BIT INS]
TI ARM Assembler PC v15.12.1 Tue Oct 18 10:42:35 2016

Tools Copyright (c) 1996-2015 Texas Instruments Incorporated
tasks.asm                                                            PAGE   42

    2249 0000045e B938              CBNZ      A1, ||$C$L40||        ; []  ; [ORIG 16-BIT INS]
    2250                            ; BRANCHCC OCCURS {||$C$L40||}   ; [] |1300| 
    2251                    ;* --------------------------------------------------------------------------*
    2252 00000460 9801              LDR       A1, [SP, #4]          ; [DPU_3_PIPE] |1300|  ; [ORIG 16-BIT INS]
    2253 00000462 4A88              LDR       A3, $C$CON13          ; [DPU_3_PIPE] |1300|  ; [ORIG 16-BIT INS]
    2254 00000464 6AC3              LDR       A4, [A1, #44]         ; [DPU_3_PIPE] |1300|  ; [ORIG 16-BIT INS]
    2255 00000466 6811              LDR       A2, [A3, #0]          ; [DPU_3_PIPE] |1300|  ; [ORIG 16-BIT INS]
    2256 00000468 2001              MOVS      A1, #1                ; [DPU_3_PIPE] |1300|  ; [ORIG 16-BIT INS]
    2257 0000046a 4098              LSLS      A1, A1, A4            ; [DPU_3_PIPE] |1300|  ; [ORIG 16-BIT INS]
    2258 0000046c 4381              BICS      A2, A2, A1            ; [DPU_3_PIPE] |1300|  ; [ORIG 16-BIT INS]
    2259 0000046e 6011              STR       A2, [A3, #0]          ; [DPU_3_PIPE] |1300|  ; [ORIG 16-BIT INS]
    2260                            .dwpsn  file "C:/TI_ARM_Tiva_Projects/Source/tasks.c",line 1301,column 4,is_stmt,isa 1
    2261                    ;* --------------------------------------------------------------------------*
    2262 00000470           ||$C$L40||:    
    2263                            .dwpsn  file "C:/TI_ARM_Tiva_Projects/Source/tasks.c",line 1308,column 4,is_stmt,isa 1
    2264 00000470 9801              LDR       A1, [SP, #4]          ; [DPU_3_PIPE] |1308|  ; [ORIG 16-BIT INS]
    2265 00000472 6A80              LDR       A1, [A1, #40]         ; [DPU_3_PIPE] |1308|  ; [ORIG 16-BIT INS]
    2266 00000474 B118              CBZ       A1, ||$C$L41||        ; []  ; [ORIG 16-BIT INS]
    2267                            ; BRANCHCC OCCURS {||$C$L41||}   ; [] |1308| 
    2268                    ;* --------------------------------------------------------------------------*
    2269                            .dwpsn  file "C:/TI_ARM_Tiva_Projects/Source/tasks.c",line 1310,column 5,is_stmt,isa 1
    2270 00000476 9801              LDR       A1, [SP, #4]          ; [DPU_3_PIPE] |1310|  ; [ORIG 16-BIT INS]
    2271 00000478 3018              ADDS      A1, A1, #24           ; [DPU_3_PIPE] |1310|  ; [ORIG 16-BIT INS]
    2272                    $C$DW$151       .dwtag  DW_TAG_TI_branch
    2273                            .dwattr $C$DW$151, DW_AT_low_pc(0x00)
    2274                            .dwattr $C$DW$151, DW_AT_name("uxListRemove")
    2275                            .dwattr $C$DW$151, DW_AT_TI_call
    2276                    
    2277 0000047a FFFEF7FF!         BL        uxListRemove          ; [DPU_3_PIPE] |1310|  ; [KEEP 32-BIT INS]
    2278                            ; CALL OCCURS {uxListRemove }    ; [] |1310| 
    2279                            .dwpsn  file "C:/TI_ARM_Tiva_Projects/Source/tasks.c",line 1311,column 4,is_stmt,isa 1
    2280                    ;* --------------------------------------------------------------------------*
    2281 0000047e           ||$C$L41||:    
    2282                            .dwpsn  file "C:/TI_ARM_Tiva_Projects/Source/tasks.c",line 1317,column 4,is_stmt,isa 1
    2283 0000047e 9901              LDR       A2, [SP, #4]          ; [DPU_3_PIPE] |1317|  ; [ORIG 16-BIT INS]
    2284 00000480 488B              LDR       A1, $C$CON14          ; [DPU_3_PIPE] |1317|  ; [ORIG 16-BIT INS]
    2285 00000482 1D09              ADDS      A2, A2, #4            ; [DPU_3_PIPE] |1317|  ; [ORIG 16-BIT INS]
    2286                    $C$DW$152       .dwtag  DW_TAG_TI_branch
    2287                            .dwattr $C$DW$152, DW_AT_low_pc(0x00)
    2288                            .dwattr $C$DW$152, DW_AT_name("vListInsertEnd")
    2289                            .dwattr $C$DW$152, DW_AT_TI_call
    2290                    
    2291 00000484 FFFEF7FF!         BL        vListInsertEnd        ; [DPU_3_PIPE] |1317|  ; [KEEP 32-BIT INS]
    2292                            ; CALL OCCURS {vListInsertEnd }  ; [] |1317| 
    2293                            .dwpsn  file "C:/TI_ARM_Tiva_Projects/Source/tasks.c",line 1319,column 3,is_stmt,isa 1
    2294                    $C$DW$153       .dwtag  DW_TAG_TI_branch
    2295                            .dwattr $C$DW$153, DW_AT_low_pc(0x00)
    2296                            .dwattr $C$DW$153, DW_AT_name("vPortExitCritical")
    2297                            .dwattr $C$DW$153, DW_AT_TI_call
    2298                    
    2299 00000488 FFFEF7FF!         BL        vPortExitCritical     ; [DPU_3_PIPE] |1319|  ; [KEEP 32-BIT INS]
    2300                            ; CALL OCCURS {vPortExitCritical }  ; [] |1319| 
    2301                            .dwpsn  file "C:/TI_ARM_Tiva_Projects/Source/tasks.c",line 1321,column 3,is_stmt,isa 1
    2302 0000048c 482F              LDR       A1, $C$CON11          ; [DPU_3_PIPE] |1321|  ; [ORIG 16-BIT INS]
    2303 0000048e 9901              LDR       A2, [SP, #4]          ; [DPU_3_PIPE] |1321|  ; [ORIG 16-BIT INS]
TI ARM Assembler PC v15.12.1 Tue Oct 18 10:42:35 2016

Tools Copyright (c) 1996-2015 Texas Instruments Incorporated
tasks.asm                                                            PAGE   43

    2304 00000490 6800              LDR       A1, [A1, #0]          ; [DPU_3_PIPE] |1321|  ; [ORIG 16-BIT INS]
    2305 00000492 4288              CMP       A1, A2                ; [DPU_3_PIPE] |1321|  ; [ORIG 16-BIT INS]
    2306 00000494 D118              BNE       ||$C$L44||            ; [DPU_3_PIPE] |1321|  ; [ORIG 16-BIT INS]
    2307                            ; BRANCHCC OCCURS {||$C$L44||}   ; [] |1321| 
    2308                    ;* --------------------------------------------------------------------------*
    2309                            .dwpsn  file "C:/TI_ARM_Tiva_Projects/Source/tasks.c",line 1323,column 4,is_stmt,isa 1
    2310 00000496 4887              LDR       A1, $C$CON15          ; [DPU_3_PIPE] |1323|  ; [ORIG 16-BIT INS]
    2311 00000498 6800              LDR       A1, [A1, #0]          ; [DPU_3_PIPE] |1323|  ; [ORIG 16-BIT INS]
    2312 0000049a B140              CBZ       A1, ||$C$L42||        ; []  ; [ORIG 16-BIT INS]
    2313                            ; BRANCHCC OCCURS {||$C$L42||}   ; [] |1323| 
    2314                    ;* --------------------------------------------------------------------------*
    2315                            .dwpsn  file "C:/TI_ARM_Tiva_Projects/Source/tasks.c",line 1327,column 5,is_stmt,isa 1
    2316 0000049c 4986              LDR       A2, $C$CON16          ; [DPU_3_PIPE] |1327|  ; [ORIG 16-BIT INS]
    2317 0000049e 5080F04F          MOV       A1, #268435456        ; [DPU_3_PIPE] |1327|  ; [KEEP 32-BIT INS]
    2318 000004a2 6008              STR       A1, [A2, #0]          ; [DPU_3_PIPE] |1327|  ; [ORIG 16-BIT INS]
    2319 000004a4 8F4FF3BF          dsb ; [KEEP 32-BIT INS]
    2320 000004a8 8F6FF3BF          isb ; [KEEP 32-BIT INS]
    2321                            .dwpsn  file "C:/TI_ARM_Tiva_Projects/Source/tasks.c",line 1328,column 4,is_stmt,isa 1
    2322 000004ac E016              B         ||$C$L45||            ; [DPU_3_PIPE] |1328|  ; [ORIG 16-BIT INS]
    2323                            ; BRANCH OCCURS {||$C$L45||}     ; [] |1328| 
    2324                    ;* --------------------------------------------------------------------------*
    2325 000004ae           ||$C$L42||:    
    2326                            .dwpsn  file "C:/TI_ARM_Tiva_Projects/Source/tasks.c",line 1334,column 5,is_stmt,isa 1
    2327 000004ae 488C              LDR       A1, $C$CON17          ; [DPU_3_PIPE] |1334|  ; [ORIG 16-BIT INS]
    2328 000004b0 497F              LDR       A2, $C$CON14          ; [DPU_3_PIPE] |1334|  ; [ORIG 16-BIT INS]
    2329 000004b2 6800              LDR       A1, [A1, #0]          ; [DPU_3_PIPE] |1334|  ; [ORIG 16-BIT INS]
    2330 000004b4 6809              LDR       A2, [A2, #0]          ; [DPU_3_PIPE] |1334|  ; [ORIG 16-BIT INS]
    2331 000004b6 4288              CMP       A1, A2                ; [DPU_3_PIPE] |1334|  ; [ORIG 16-BIT INS]
    2332 000004b8 D103              BNE       ||$C$L43||            ; [DPU_3_PIPE] |1334|  ; [ORIG 16-BIT INS]
    2333                            ; BRANCHCC OCCURS {||$C$L43||}   ; [] |1334| 
    2334                    ;* --------------------------------------------------------------------------*
    2335                            .dwpsn  file "C:/TI_ARM_Tiva_Projects/Source/tasks.c",line 1340,column 6,is_stmt,isa 1
    2336 000004ba 4924              LDR       A2, $C$CON11          ; [DPU_3_PIPE] |1340|  ; [ORIG 16-BIT INS]
    2337 000004bc 2000              MOVS      A1, #0                ; [DPU_3_PIPE] |1340|  ; [ORIG 16-BIT INS]
    2338 000004be 6008              STR       A1, [A2, #0]          ; [DPU_3_PIPE] |1340|  ; [ORIG 16-BIT INS]
    2339                            .dwpsn  file "C:/TI_ARM_Tiva_Projects/Source/tasks.c",line 1341,column 5,is_stmt,isa 1
    2340 000004c0 E00C              B         ||$C$L45||            ; [DPU_3_PIPE] |1341|  ; [ORIG 16-BIT INS]
    2341                            ; BRANCH OCCURS {||$C$L45||}     ; [] |1341| 
    2342                    ;* --------------------------------------------------------------------------*
    2343 000004c2           ||$C$L43||:    
    2344                            .dwpsn  file "C:/TI_ARM_Tiva_Projects/Source/tasks.c",line 1344,column 6,is_stmt,isa 1
    2345                    $C$DW$154       .dwtag  DW_TAG_TI_branch
    2346                            .dwattr $C$DW$154, DW_AT_low_pc(0x00)
    2347                            .dwattr $C$DW$154, DW_AT_name("vTaskSwitchContext")
    2348                            .dwattr $C$DW$154, DW_AT_TI_call
    2349                    
    2350 000004c2 FA4DF000          BL        vTaskSwitchContext    ; [DPU_3_PIPE] |1344|  ; [KEEP 32-BIT INS]
    2351                            ; CALL OCCURS {vTaskSwitchContext }  ; [] |1344| 
    2352                            .dwpsn  file "C:/TI_ARM_Tiva_Projects/Source/tasks.c",line 1347,column 3,is_stmt,isa 1
    2353 000004c6 E009              B         ||$C$L45||            ; [DPU_3_PIPE] |1347|  ; [ORIG 16-BIT INS]
    2354                            ; BRANCH OCCURS {||$C$L45||}     ; [] |1347| 
    2355                    ;* --------------------------------------------------------------------------*
    2356 000004c8           ||$C$L44||:    
    2357                            .dwpsn  file "C:/TI_ARM_Tiva_Projects/Source/tasks.c",line 1350,column 4,is_stmt,isa 1
    2358 000004c8 487A              LDR       A1, $C$CON15          ; [DPU_3_PIPE] |1350|  ; [ORIG 16-BIT INS]
TI ARM Assembler PC v15.12.1 Tue Oct 18 10:42:35 2016

Tools Copyright (c) 1996-2015 Texas Instruments Incorporated
tasks.asm                                                            PAGE   44

    2359 000004ca 6800              LDR       A1, [A1, #0]          ; [DPU_3_PIPE] |1350|  ; [ORIG 16-BIT INS]
    2360 000004cc B130              CBZ       A1, ||$C$L45||        ; []  ; [ORIG 16-BIT INS]
    2361                            ; BRANCHCC OCCURS {||$C$L45||}   ; [] |1350| 
    2362                    ;* --------------------------------------------------------------------------*
    2363                            .dwpsn  file "C:/TI_ARM_Tiva_Projects/Source/tasks.c",line 1355,column 5,is_stmt,isa 1
    2364                    $C$DW$155       .dwtag  DW_TAG_TI_branch
    2365                            .dwattr $C$DW$155, DW_AT_low_pc(0x00)
    2366                            .dwattr $C$DW$155, DW_AT_name("vPortEnterCritical")
    2367                            .dwattr $C$DW$155, DW_AT_TI_call
    2368                    
    2369 000004ce FFFEF7FF!         BL        vPortEnterCritical    ; [DPU_3_PIPE] |1355|  ; [KEEP 32-BIT INS]
    2370                            ; CALL OCCURS {vPortEnterCritical }  ; [] |1355| 
    2371                            .dwpsn  file "C:/TI_ARM_Tiva_Projects/Source/tasks.c",line 1357,column 6,is_stmt,isa 1
    2372                    $C$DW$156       .dwtag  DW_TAG_TI_branch
    2373                            .dwattr $C$DW$156, DW_AT_low_pc(0x00)
    2374                            .dwattr $C$DW$156, DW_AT_name("prvResetNextTaskUnblockTime")
    2375                            .dwattr $C$DW$156, DW_AT_TI_call
    2376                    
    2377 000004d2 FDCDF000          BL        prvResetNextTaskUnblockTime ; [DPU_3_PIPE] |1357|  ; [KEEP 32-BIT INS]
    2378                            ; CALL OCCURS {prvResetNextTaskUnblockTime }  ; [] |1357| 
    2379                            .dwpsn  file "C:/TI_ARM_Tiva_Projects/Source/tasks.c",line 1359,column 5,is_stmt,isa 1
    2380                    $C$DW$157       .dwtag  DW_TAG_TI_branch
    2381                            .dwattr $C$DW$157, DW_AT_low_pc(0x00)
    2382                            .dwattr $C$DW$157, DW_AT_name("vPortExitCritical")
    2383                            .dwattr $C$DW$157, DW_AT_TI_call
    2384                    
    2385 000004d6 FFFEF7FF!         BL        vPortExitCritical     ; [DPU_3_PIPE] |1359|  ; [KEEP 32-BIT INS]
    2386                            ; CALL OCCURS {vPortExitCritical }  ; [] |1359| 
    2387                            .dwpsn  file "C:/TI_ARM_Tiva_Projects/Source/tasks.c",line 1360,column 4,is_stmt,isa 1
    2388 000004da E7FF              B         ||$C$L45||            ; [DPU_3_PIPE] |1360|  ; [ORIG 16-BIT INS]
    2389                            ; BRANCH OCCURS {||$C$L45||}     ; [] |1360| 
    2390                    ;* --------------------------------------------------------------------------*
    2391                    ;* --------------------------------------------------------------------------*
    2392                    ||$C$L45||:    
    2393                    $C$DW$158       .dwtag  DW_TAG_TI_branch
    2394                            .dwattr $C$DW$158, DW_AT_low_pc(0x00)
    2395                            .dwattr $C$DW$158, DW_AT_TI_return
    2396                    
    2397 000004dc BD0E              POP       {A2, A3, A4, PC}      ; [DPU_3_PIPE]  ; [ORIG 16-BIT INS]
    2398                            .dwcfi  cfa_offset, 0
    2399                            ; BRANCH OCCURS                  ; [] 
    2400                            .dwattr $C$DW$145, DW_AT_TI_end_file("C:/TI_ARM_Tiva_Projects/Source/tasks.c")
    2401                            .dwattr $C$DW$145, DW_AT_TI_end_line(0x556)
    2402                            .dwattr $C$DW$145, DW_AT_TI_end_column(0x02)
    2403                            .dwendentry
    2404                            .dwendtag $C$DW$145
    2405                    
    2406 000004de                   .sect   ".text"
    2407                            .clink
    2408                            .thumbfunc prvTaskIsTaskSuspended
    2409 000004de                   .thumb
    2410                    
    2411                    $C$DW$159       .dwtag  DW_TAG_subprogram
    2412                            .dwattr $C$DW$159, DW_AT_name("prvTaskIsTaskSuspended")
    2413                            .dwattr $C$DW$159, DW_AT_low_pc(prvTaskIsTaskSuspended)
TI ARM Assembler PC v15.12.1 Tue Oct 18 10:42:35 2016

Tools Copyright (c) 1996-2015 Texas Instruments Incorporated
tasks.asm                                                            PAGE   45

    2414                            .dwattr $C$DW$159, DW_AT_high_pc(0x00)
    2415                            .dwattr $C$DW$159, DW_AT_TI_symbol_name("prvTaskIsTaskSuspended")
    2416                            .dwattr $C$DW$159, DW_AT_type(*$C$DW$T$64)
    2417                            .dwattr $C$DW$159, DW_AT_TI_begin_file("C:/TI_ARM_Tiva_Projects/Source/tasks.c")
    2418                            .dwattr $C$DW$159, DW_AT_TI_begin_line(0x55d)
    2419                            .dwattr $C$DW$159, DW_AT_TI_begin_column(0x14)
    2420                            .dwattr $C$DW$159, DW_AT_decl_file("C:/TI_ARM_Tiva_Projects/Source/tasks.c")
    2421                            .dwattr $C$DW$159, DW_AT_decl_line(0x55d)
    2422                            .dwattr $C$DW$159, DW_AT_decl_column(0x14)
    2423                            .dwattr $C$DW$159, DW_AT_TI_max_frame_size(0x10)
    2424                            .dwpsn  file "C:/TI_ARM_Tiva_Projects/Source/tasks.c",line 1374,column 2,is_stmt,address prvTa
    2425                    
    2426                            .dwfde $C$DW$CIE, prvTaskIsTaskSuspended
    2427                    $C$DW$160       .dwtag  DW_TAG_formal_parameter
    2428                            .dwattr $C$DW$160, DW_AT_name("xTask")
    2429                            .dwattr $C$DW$160, DW_AT_TI_symbol_name("xTask")
    2430                            .dwattr $C$DW$160, DW_AT_type(*$C$DW$T$74)
    2431                            .dwattr $C$DW$160, DW_AT_location[DW_OP_reg0]
    2432                    
    2433                    
    2434                    ;*****************************************************************************
    2435                    ;* FUNCTION NAME: prvTaskIsTaskSuspended                                     *
    2436                    ;*                                                                           *
    2437                    ;*   Regs Modified     : A1,A2,A3,SP,SR                                      *
    2438                    ;*   Regs Used         : A1,A2,A3,SP,LR,SR                                   *
    2439                    ;*   Local Frame Size  : 0 Args + 12 Auto + 0 Save = 12 byte                 *
    2440                    ;*****************************************************************************
    2441 000004de           prvTaskIsTaskSuspended:
    2442                    ;* --------------------------------------------------------------------------*
    2443                            .dwcfi  cfa_offset, 0
    2444 000004de 0D10F1AD          SUB       SP, SP, #16           ; [DPU_3_PIPE]  ; [KEEP 32-BIT INS]
    2445                            .dwcfi  cfa_offset, 16
    2446                    $C$DW$161       .dwtag  DW_TAG_variable
    2447                            .dwattr $C$DW$161, DW_AT_name("xTask")
    2448                            .dwattr $C$DW$161, DW_AT_TI_symbol_name("xTask")
    2449                            .dwattr $C$DW$161, DW_AT_type(*$C$DW$T$74)
    2450                            .dwattr $C$DW$161, DW_AT_location[DW_OP_breg13 0]
    2451                    
    2452                    $C$DW$162       .dwtag  DW_TAG_variable
    2453                            .dwattr $C$DW$162, DW_AT_name("xReturn")
    2454                            .dwattr $C$DW$162, DW_AT_TI_symbol_name("xReturn")
    2455                            .dwattr $C$DW$162, DW_AT_type(*$C$DW$T$64)
    2456                            .dwattr $C$DW$162, DW_AT_location[DW_OP_breg13 4]
    2457                    
    2458                    $C$DW$163       .dwtag  DW_TAG_variable
    2459                            .dwattr $C$DW$163, DW_AT_name("pxTCB")
    2460                            .dwattr $C$DW$163, DW_AT_TI_symbol_name("pxTCB")
    2461                            .dwattr $C$DW$163, DW_AT_type(*$C$DW$T$232)
    2462                            .dwattr $C$DW$163, DW_AT_location[DW_OP_breg13 8]
    2463                    
    2464 000004e2 9000              STR       A1, [SP, #0]          ; [DPU_3_PIPE] |1374|  ; [ORIG 16-BIT INS]
    2465                            .dwpsn  file "C:/TI_ARM_Tiva_Projects/Source/tasks.c",line 1375,column 21,is_stmt,isa 1
    2466 000004e4 2000              MOVS      A1, #0                ; [DPU_3_PIPE] |1375|  ; [ORIG 16-BIT INS]
    2467 000004e6 9001              STR       A1, [SP, #4]          ; [DPU_3_PIPE] |1375|  ; [ORIG 16-BIT INS]
    2468                            .dwpsn  file "C:/TI_ARM_Tiva_Projects/Source/tasks.c",line 1376,column 28,is_stmt,isa 1
TI ARM Assembler PC v15.12.1 Tue Oct 18 10:42:35 2016

Tools Copyright (c) 1996-2015 Texas Instruments Incorporated
tasks.asm                                                            PAGE   46

    2469 000004e8 9800              LDR       A1, [SP, #0]          ; [DPU_3_PIPE] |1376|  ; [ORIG 16-BIT INS]
    2470 000004ea 9002              STR       A1, [SP, #8]          ; [DPU_3_PIPE] |1376|  ; [ORIG 16-BIT INS]
    2471                            .dwpsn  file "C:/TI_ARM_Tiva_Projects/Source/tasks.c",line 1385,column 3,is_stmt,isa 1
    2472 000004ec 9802              LDR       A1, [SP, #8]          ; [DPU_3_PIPE] |1385|  ; [ORIG 16-BIT INS]
    2473 000004ee 4A70              LDR       A3, $C$CON14          ; [DPU_3_PIPE] |1385|  ; [ORIG 16-BIT INS]
    2474 000004f0 6941              LDR       A2, [A1, #20]         ; [DPU_3_PIPE] |1385|  ; [ORIG 16-BIT INS]
    2475 000004f2 2000              MOVS      A1, #0                ; [DPU_3_PIPE] |1385|  ; [ORIG 16-BIT INS]
    2476 000004f4 428A              CMP       A3, A2                ; [DPU_3_PIPE] |1385|  ; [ORIG 16-BIT INS]
    2477 000004f6 D100              BNE       ||$C$L46||            ; [DPU_3_PIPE] |1385|  ; [ORIG 16-BIT INS]
    2478                            ; BRANCHCC OCCURS {||$C$L46||}   ; [] |1385| 
    2479                    ;* --------------------------------------------------------------------------*
    2480 000004f8 2001              MOVS      A1, #1                ; [DPU_3_PIPE] |1385|  ; [ORIG 16-BIT INS]
    2481                    ;* --------------------------------------------------------------------------*
    2482 000004fa           ||$C$L46||:    
    2483 000004fa B180              CBZ       A1, ||$C$L49||        ; []  ; [ORIG 16-BIT INS]
    2484                            ; BRANCHCC OCCURS {||$C$L49||}   ; [] |1385| 
    2485                    ;* --------------------------------------------------------------------------*
    2486                            .dwpsn  file "C:/TI_ARM_Tiva_Projects/Source/tasks.c",line 1388,column 4,is_stmt,isa 1
    2487 000004fc 9802              LDR       A1, [SP, #8]          ; [DPU_3_PIPE] |1388|  ; [ORIG 16-BIT INS]
    2488 000004fe 4AAA              LDR       A3, $C$CON18          ; [DPU_3_PIPE] |1388|  ; [ORIG 16-BIT INS]
    2489 00000500 6A81              LDR       A2, [A1, #40]         ; [DPU_3_PIPE] |1388|  ; [ORIG 16-BIT INS]
    2490 00000502 2000              MOVS      A1, #0                ; [DPU_3_PIPE] |1388|  ; [ORIG 16-BIT INS]
    2491 00000504 428A              CMP       A3, A2                ; [DPU_3_PIPE] |1388|  ; [ORIG 16-BIT INS]
    2492 00000506 D100              BNE       ||$C$L47||            ; [DPU_3_PIPE] |1388|  ; [ORIG 16-BIT INS]
    2493                            ; BRANCHCC OCCURS {||$C$L47||}   ; [] |1388| 
    2494                    ;* --------------------------------------------------------------------------*
    2495 00000508 2001              MOVS      A1, #1                ; [DPU_3_PIPE] |1388|  ; [ORIG 16-BIT INS]
    2496                    ;* --------------------------------------------------------------------------*
    2497 0000050a           ||$C$L47||:    
    2498 0000050a B940              CBNZ      A1, ||$C$L49||        ; []  ; [ORIG 16-BIT INS]
    2499                            ; BRANCHCC OCCURS {||$C$L49||}   ; [] |1388| 
    2500                    ;* --------------------------------------------------------------------------*
    2501                            .dwpsn  file "C:/TI_ARM_Tiva_Projects/Source/tasks.c",line 1392,column 5,is_stmt,isa 1
    2502 0000050c 9802              LDR       A1, [SP, #8]          ; [DPU_3_PIPE] |1392|  ; [ORIG 16-BIT INS]
    2503 0000050e 6A81              LDR       A2, [A1, #40]         ; [DPU_3_PIPE] |1392|  ; [ORIG 16-BIT INS]
    2504 00000510 2000              MOVS      A1, #0                ; [DPU_3_PIPE] |1392|  ; [ORIG 16-BIT INS]
    2505 00000512 B901              CBNZ      A2, ||$C$L48||        ; []  ; [ORIG 16-BIT INS]
    2506                            ; BRANCHCC OCCURS {||$C$L48||}   ; [] |1392| 
    2507                    ;* --------------------------------------------------------------------------*
    2508 00000514 2001              MOVS      A1, #1                ; [DPU_3_PIPE] |1392|  ; [ORIG 16-BIT INS]
    2509                    ;* --------------------------------------------------------------------------*
    2510 00000516           ||$C$L48||:    
    2511 00000516 B110              CBZ       A1, ||$C$L49||        ; []  ; [ORIG 16-BIT INS]
    2512                            ; BRANCHCC OCCURS {||$C$L49||}   ; [] |1392| 
    2513                    ;* --------------------------------------------------------------------------*
    2514                            .dwpsn  file "C:/TI_ARM_Tiva_Projects/Source/tasks.c",line 1394,column 6,is_stmt,isa 1
    2515 00000518 2001              MOVS      A1, #1                ; [DPU_3_PIPE] |1394|  ; [ORIG 16-BIT INS]
    2516 0000051a 9001              STR       A1, [SP, #4]          ; [DPU_3_PIPE] |1394|  ; [ORIG 16-BIT INS]
    2517                            .dwpsn  file "C:/TI_ARM_Tiva_Projects/Source/tasks.c",line 1395,column 5,is_stmt,isa 1
    2518 0000051c E7FF              B         ||$C$L49||            ; [DPU_3_PIPE] |1395|  ; [ORIG 16-BIT INS]
    2519                            ; BRANCH OCCURS {||$C$L49||}     ; [] |1395| 
    2520                    ;* --------------------------------------------------------------------------*
    2521                    ;* --------------------------------------------------------------------------*
    2522 0000051e           ||$C$L49||:    
    2523                            .dwpsn  file "C:/TI_ARM_Tiva_Projects/Source/tasks.c",line 1411,column 3,is_stmt,isa 1
TI ARM Assembler PC v15.12.1 Tue Oct 18 10:42:35 2016

Tools Copyright (c) 1996-2015 Texas Instruments Incorporated
tasks.asm                                                            PAGE   47

    2524 0000051e 9801              LDR       A1, [SP, #4]          ; [DPU_3_PIPE] |1411|  ; [ORIG 16-BIT INS]
    2525                            .dwpsn  file "C:/TI_ARM_Tiva_Projects/Source/tasks.c",line 1412,column 2,is_stmt,isa 1
    2526 00000520 B004              ADD       SP, SP, #16           ; [DPU_3_PIPE]  ; [ORIG 16-BIT INS]
    2527                            .dwcfi  cfa_offset, 0
    2528                    $C$DW$164       .dwtag  DW_TAG_TI_branch
    2529                            .dwattr $C$DW$164, DW_AT_low_pc(0x00)
    2530                            .dwattr $C$DW$164, DW_AT_TI_return
    2531                    
    2532 00000522 4770              BX        LR                    ; [DPU_3_PIPE]  ; [ORIG 16-BIT INS]
    2533                            ; BRANCH OCCURS                  ; [] 
    2534                            .dwattr $C$DW$159, DW_AT_TI_end_file("C:/TI_ARM_Tiva_Projects/Source/tasks.c")
    2535                            .dwattr $C$DW$159, DW_AT_TI_end_line(0x584)
    2536                            .dwattr $C$DW$159, DW_AT_TI_end_column(0x02)
    2537                            .dwendentry
    2538                            .dwendtag $C$DW$159
    2539                    
    2540 00000524                   .sect   ".text"
    2541                            .clink
    2542                            .thumbfunc vTaskResume
    2543 00000524                   .thumb
    2544                            .global vTaskResume
    2545                    
    2546                    $C$DW$165       .dwtag  DW_TAG_subprogram
    2547                            .dwattr $C$DW$165, DW_AT_name("vTaskResume")
    2548                            .dwattr $C$DW$165, DW_AT_low_pc(vTaskResume)
    2549                            .dwattr $C$DW$165, DW_AT_high_pc(0x00)
    2550                            .dwattr $C$DW$165, DW_AT_TI_symbol_name("vTaskResume")
    2551                            .dwattr $C$DW$165, DW_AT_external
    2552                            .dwattr $C$DW$165, DW_AT_TI_begin_file("C:/TI_ARM_Tiva_Projects/Source/tasks.c")
    2553                            .dwattr $C$DW$165, DW_AT_TI_begin_line(0x58b)
    2554                            .dwattr $C$DW$165, DW_AT_TI_begin_column(0x07)
    2555                            .dwattr $C$DW$165, DW_AT_decl_file("C:/TI_ARM_Tiva_Projects/Source/tasks.c")
    2556                            .dwattr $C$DW$165, DW_AT_decl_line(0x58b)
    2557                            .dwattr $C$DW$165, DW_AT_decl_column(0x07)
    2558                            .dwattr $C$DW$165, DW_AT_TI_max_frame_size(0x10)
    2559                            .dwpsn  file "C:/TI_ARM_Tiva_Projects/Source/tasks.c",line 1420,column 2,is_stmt,address vTask
    2560                    
    2561                            .dwfde $C$DW$CIE, vTaskResume
    2562                    $C$DW$166       .dwtag  DW_TAG_formal_parameter
    2563                            .dwattr $C$DW$166, DW_AT_name("xTaskToResume")
    2564                            .dwattr $C$DW$166, DW_AT_TI_symbol_name("xTaskToResume")
    2565                            .dwattr $C$DW$166, DW_AT_type(*$C$DW$T$59)
    2566                            .dwattr $C$DW$166, DW_AT_location[DW_OP_reg0]
    2567                    
    2568                    
    2569                    ;*****************************************************************************
    2570                    ;* FUNCTION NAME: vTaskResume                                                *
    2571                    ;*                                                                           *
    2572                    ;*   Regs Modified     : A1,A2,A3,A4,V1,V9,SP,LR,SR,D0,D0_hi,D1,D1_hi,D2,    *
    2573                    ;*                           D2_hi,D3,D3_hi,D4,D4_hi,D5,D5_hi,D6,D6_hi,D7,   *
    2574                    ;*                           D7_hi,FPEXC,FPSCR                               *
    2575                    ;*   Regs Used         : A1,A2,A3,A4,V1,V9,SP,LR,SR,D0,D0_hi,D1,D1_hi,D2,    *
    2576                    ;*                           D2_hi,D3,D3_hi,D4,D4_hi,D5,D5_hi,D6,D6_hi,D7,   *
    2577                    ;*                           D7_hi,FPEXC,FPSCR                               *
    2578                    ;*   Local Frame Size  : 0 Args + 8 Auto + 8 Save = 16 byte                  *
TI ARM Assembler PC v15.12.1 Tue Oct 18 10:42:35 2016

Tools Copyright (c) 1996-2015 Texas Instruments Incorporated
tasks.asm                                                            PAGE   48

    2579                    ;*****************************************************************************
    2580 00000524           vTaskResume:
    2581                    ;* --------------------------------------------------------------------------*
    2582                            .dwcfi  cfa_offset, 0
    2583 00000524 B51C              PUSH      {A3, A4, V1, LR}      ; [DPU_3_PIPE]  ; [ORIG 16-BIT INS]
    2584                            .dwcfi  cfa_offset, 16
    2585                            .dwcfi  save_reg_to_mem, 14, -4
    2586                            .dwcfi  save_reg_to_mem, 4, -8
    2587                            .dwcfi  save_reg_to_mem, 3, -12
    2588                            .dwcfi  save_reg_to_mem, 2, -16
    2589                    $C$DW$167       .dwtag  DW_TAG_variable
    2590                            .dwattr $C$DW$167, DW_AT_name("xTaskToResume")
    2591                            .dwattr $C$DW$167, DW_AT_TI_symbol_name("xTaskToResume")
    2592                            .dwattr $C$DW$167, DW_AT_type(*$C$DW$T$59)
    2593                            .dwattr $C$DW$167, DW_AT_location[DW_OP_breg13 0]
    2594                    
    2595                    $C$DW$168       .dwtag  DW_TAG_variable
    2596                            .dwattr $C$DW$168, DW_AT_name("pxTCB")
    2597                            .dwattr $C$DW$168, DW_AT_TI_symbol_name("pxTCB")
    2598                            .dwattr $C$DW$168, DW_AT_type(*$C$DW$T$121)
    2599                            .dwattr $C$DW$168, DW_AT_location[DW_OP_breg13 4]
    2600                    
    2601 00000526 9000              STR       A1, [SP, #0]          ; [DPU_3_PIPE] |1420|  ; [ORIG 16-BIT INS]
    2602                            .dwpsn  file "C:/TI_ARM_Tiva_Projects/Source/tasks.c",line 1421,column 22,is_stmt,isa 1
    2603 00000528 9800              LDR       A1, [SP, #0]          ; [DPU_3_PIPE] |1421|  ; [ORIG 16-BIT INS]
    2604 0000052a 9001              STR       A1, [SP, #4]          ; [DPU_3_PIPE] |1421|  ; [ORIG 16-BIT INS]
    2605                            .dwpsn  file "C:/TI_ARM_Tiva_Projects/Source/tasks.c",line 1428,column 3,is_stmt,isa 1
    2606 0000052c 9801              LDR       A1, [SP, #4]          ; [DPU_3_PIPE] |1428|  ; [ORIG 16-BIT INS]
    2607 0000052e 2800              CMP       A1, #0                ; [DPU_3_PIPE] |1428|  ; [ORIG 16-BIT INS]
    2608 00000530 D02F              BEQ       ||$C$L52||            ; [DPU_3_PIPE] |1428|  ; [ORIG 16-BIT INS]
    2609                            ; BRANCHCC OCCURS {||$C$L52||}   ; [] |1428| 
    2610                    ;* --------------------------------------------------------------------------*
    2611 00000532 4806              LDR       A1, $C$CON11          ; [DPU_3_PIPE] |1428|  ; [ORIG 16-BIT INS]
    2612 00000534 9901              LDR       A2, [SP, #4]          ; [DPU_3_PIPE] |1428|  ; [ORIG 16-BIT INS]
    2613 00000536 6800              LDR       A1, [A1, #0]          ; [DPU_3_PIPE] |1428|  ; [ORIG 16-BIT INS]
    2614 00000538 4288              CMP       A1, A2                ; [DPU_3_PIPE] |1428|  ; [ORIG 16-BIT INS]
    2615 0000053a D02A              BEQ       ||$C$L52||            ; [DPU_3_PIPE] |1428|  ; [ORIG 16-BIT INS]
    2616                            ; BRANCHCC OCCURS {||$C$L52||}   ; [] |1428| 
    2617                    ;* --------------------------------------------------------------------------*
    2618                            .dwpsn  file "C:/TI_ARM_Tiva_Projects/Source/tasks.c",line 1430,column 4,is_stmt,isa 1
    2619                    $C$DW$169       .dwtag  DW_TAG_TI_branch
    2620                            .dwattr $C$DW$169, DW_AT_low_pc(0x00)
    2621                            .dwattr $C$DW$169, DW_AT_name("vPortEnterCritical")
    2622                            .dwattr $C$DW$169, DW_AT_TI_call
    2623                    
    2624 0000053c FFFEF7FF!         BL        vPortEnterCritical    ; [DPU_3_PIPE] |1430|  ; [KEEP 32-BIT INS]
    2625                            ; CALL OCCURS {vPortEnterCritical }  ; [] |1430| 
    2626                            .dwpsn  file "C:/TI_ARM_Tiva_Projects/Source/tasks.c",line 1432,column 5,is_stmt,isa 1
    2627 00000540 9801              LDR       A1, [SP, #4]          ; [DPU_3_PIPE] |1432|  ; [ORIG 16-BIT INS]
    2628                    $C$DW$170       .dwtag  DW_TAG_TI_branch
    2629                            .dwattr $C$DW$170, DW_AT_low_pc(0x00)
    2630                            .dwattr $C$DW$170, DW_AT_name("prvTaskIsTaskSuspended")
    2631                            .dwattr $C$DW$170, DW_AT_TI_call
    2632                    
    2633 00000542 FFCCF7FF          BL        prvTaskIsTaskSuspended ; [DPU_3_PIPE] |1432|  ; [KEEP 32-BIT INS]
TI ARM Assembler PC v15.12.1 Tue Oct 18 10:42:35 2016

Tools Copyright (c) 1996-2015 Texas Instruments Incorporated
tasks.asm                                                            PAGE   49

    2634                            ; CALL OCCURS {prvTaskIsTaskSuspended }  ; [] |1432| 
    2635 00000546 2801              CMP       A1, #1                ; [DPU_3_PIPE] |1432|  ; [ORIG 16-BIT INS]
    2636 00000548 D120              BNE       ||$C$L51||            ; [DPU_3_PIPE] |1432|  ; [ORIG 16-BIT INS]
    2637                            ; BRANCHCC OCCURS {||$C$L51||}   ; [] |1432| 
    2638                    ;* --------------------------------------------------------------------------*
    2639 0000054a E001              B         ||$C$L50||            ; []  ; [ORIG 16-BIT INS]
    2640                            ; BRANCH OCCURS {||$C$L50||}     ; [] 
    2641                    ;******************************************************************************
    2642                    ;* CONSTANT TABLE                                                             *
    2643                    ;******************************************************************************
    2644 0000054c                   .sect   ".text"
    2645                            .align  4
    2646 0000054c 00000000! ||$C$CON11||:   .bits   pxCurrentTCB,32
    2647                    ;* --------------------------------------------------------------------------*
    2648 00000550           ||$C$L50||:    
    2649                            .dwpsn  file "C:/TI_ARM_Tiva_Projects/Source/tasks.c",line 1438,column 6,is_stmt,isa 1
    2650 00000550 9801              LDR       A1, [SP, #4]          ; [DPU_3_PIPE] |1438|  ; [ORIG 16-BIT INS]
    2651 00000552 1D00              ADDS      A1, A1, #4            ; [DPU_3_PIPE] |1438|  ; [ORIG 16-BIT INS]
    2652                    $C$DW$171       .dwtag  DW_TAG_TI_branch
    2653                            .dwattr $C$DW$171, DW_AT_low_pc(0x00)
    2654                            .dwattr $C$DW$171, DW_AT_name("uxListRemove")
    2655                            .dwattr $C$DW$171, DW_AT_TI_call
    2656                    
    2657 00000554 FFFEF7FF!         BL        uxListRemove          ; [DPU_3_PIPE] |1438|  ; [KEEP 32-BIT INS]
    2658                            ; CALL OCCURS {uxListRemove }    ; [] |1438| 
    2659                            .dwpsn  file "C:/TI_ARM_Tiva_Projects/Source/tasks.c",line 1439,column 6,is_stmt,isa 1
    2660 00000558 9801              LDR       A1, [SP, #4]          ; [DPU_3_PIPE] |1439|  ; [ORIG 16-BIT INS]
    2661 0000055a 4A4A              LDR       A3, $C$CON13          ; [DPU_3_PIPE] |1439|  ; [ORIG 16-BIT INS]
    2662 0000055c 6AC4              LDR       V1, [A1, #44]         ; [DPU_3_PIPE] |1439|  ; [ORIG 16-BIT INS]
    2663 0000055e 9901              LDR       A2, [SP, #4]          ; [DPU_3_PIPE] |1439|  ; [ORIG 16-BIT INS]
    2664 00000560 6813              LDR       A4, [A3, #0]          ; [DPU_3_PIPE] |1439|  ; [ORIG 16-BIT INS]
    2665 00000562 2001              MOVS      A1, #1                ; [DPU_3_PIPE] |1439|  ; [ORIG 16-BIT INS]
    2666 00000564 40A0              LSLS      A1, A1, V1            ; [DPU_3_PIPE] |1439|  ; [ORIG 16-BIT INS]
    2667 00000566 4318              ORRS      A1, A1, A4            ; [DPU_3_PIPE] |1439|  ; [ORIG 16-BIT INS]
    2668 00000568 6010              STR       A1, [A3, #0]          ; [DPU_3_PIPE] |1439|  ; [ORIG 16-BIT INS]
    2669 0000056a 482C              LDR       A1, $C$CON12          ; [DPU_3_PIPE] |1439|  ; [ORIG 16-BIT INS]
    2670 0000056c 6ACB              LDR       A4, [A2, #44]         ; [DPU_3_PIPE] |1439|  ; [ORIG 16-BIT INS]
    2671 0000056e 9901              LDR       A2, [SP, #4]          ; [DPU_3_PIPE] |1439|  ; [ORIG 16-BIT INS]
    2672 00000570 009A              LSLS      A3, A4, #2            ; [DPU_3_PIPE] |1439|  ; [ORIG 16-BIT INS]
    2673 00000572 1D09              ADDS      A2, A2, #4            ; [DPU_3_PIPE] |1439|  ; [ORIG 16-BIT INS]
    2674 00000574 1203EB02          ADD       A3, A3, A4, LSL #4    ; [DPU_3_PIPE] |1439|  ; [KEEP 32-BIT INS]
    2675 00000578 1880              ADDS      A1, A1, A3            ; [DPU_3_PIPE] |1439|  ; [ORIG 16-BIT INS]
    2676                    $C$DW$172       .dwtag  DW_TAG_TI_branch
    2677                            .dwattr $C$DW$172, DW_AT_low_pc(0x00)
    2678                            .dwattr $C$DW$172, DW_AT_name("vListInsertEnd")
    2679                            .dwattr $C$DW$172, DW_AT_TI_call
    2680                    
    2681 0000057a FFFEF7FF!         BL        vListInsertEnd        ; [DPU_3_PIPE] |1439|  ; [KEEP 32-BIT INS]
    2682                            ; CALL OCCURS {vListInsertEnd }  ; [] |1439| 
    2683                            .dwpsn  file "C:/TI_ARM_Tiva_Projects/Source/tasks.c",line 1442,column 6,is_stmt,isa 1
    2684 0000057e 488B              LDR       A1, $C$CON19          ; [DPU_3_PIPE] |1442|  ; [ORIG 16-BIT INS]
    2685 00000580 9901              LDR       A2, [SP, #4]          ; [DPU_3_PIPE] |1442|  ; [ORIG 16-BIT INS]
    2686 00000582 6800              LDR       A1, [A1, #0]          ; [DPU_3_PIPE] |1442|  ; [ORIG 16-BIT INS]
    2687 00000584 6AC9              LDR       A2, [A2, #44]         ; [DPU_3_PIPE] |1442|  ; [ORIG 16-BIT INS]
    2688 00000586 6AC0              LDR       A1, [A1, #44]         ; [DPU_3_PIPE] |1442|  ; [ORIG 16-BIT INS]
TI ARM Assembler PC v15.12.1 Tue Oct 18 10:42:35 2016

Tools Copyright (c) 1996-2015 Texas Instruments Incorporated
tasks.asm                                                            PAGE   50

    2689 00000588 4288              CMP       A1, A2                ; [DPU_3_PIPE] |1442|  ; [ORIG 16-BIT INS]
    2690 0000058a D9FF              BLS       ||$C$L51||            ; [DPU_3_PIPE] |1442|  ; [ORIG 16-BIT INS]
    2691                            ; BRANCHCC OCCURS {||$C$L51||}   ; [] |1442| 
    2692                    ;* --------------------------------------------------------------------------*
    2693                            .dwpsn  file "C:/TI_ARM_Tiva_Projects/Source/tasks.c",line 1448,column 6,is_stmt,isa 1
    2694                            .dwpsn  file "C:/TI_ARM_Tiva_Projects/Source/tasks.c",line 1453,column 5,is_stmt,isa 1
    2695                    ;* --------------------------------------------------------------------------*
    2696 0000058c           ||$C$L51||:    
    2697                            .dwpsn  file "C:/TI_ARM_Tiva_Projects/Source/tasks.c",line 1459,column 4,is_stmt,isa 1
    2698                    $C$DW$173       .dwtag  DW_TAG_TI_branch
    2699                            .dwattr $C$DW$173, DW_AT_low_pc(0x00)
    2700                            .dwattr $C$DW$173, DW_AT_name("vPortExitCritical")
    2701                            .dwattr $C$DW$173, DW_AT_TI_call
    2702                    
    2703 0000058c FFFEF7FF!         BL        vPortExitCritical     ; [DPU_3_PIPE] |1459|  ; [KEEP 32-BIT INS]
    2704                            ; CALL OCCURS {vPortExitCritical }  ; [] |1459| 
    2705                            .dwpsn  file "C:/TI_ARM_Tiva_Projects/Source/tasks.c",line 1460,column 3,is_stmt,isa 1
    2706 00000590 E7FF              B         ||$C$L52||            ; [DPU_3_PIPE] |1460|  ; [ORIG 16-BIT INS]
    2707                            ; BRANCH OCCURS {||$C$L52||}     ; [] |1460| 
    2708                    ;* --------------------------------------------------------------------------*
    2709                    ;* --------------------------------------------------------------------------*
    2710                    ||$C$L52||:    
    2711                    $C$DW$174       .dwtag  DW_TAG_TI_branch
    2712                            .dwattr $C$DW$174, DW_AT_low_pc(0x00)
    2713                            .dwattr $C$DW$174, DW_AT_TI_return
    2714                    
    2715 00000592 BD1C              POP       {A3, A4, V1, PC}      ; [DPU_3_PIPE]  ; [ORIG 16-BIT INS]
    2716                            .dwcfi  cfa_offset, 0
    2717                            ; BRANCH OCCURS                  ; [] 
    2718                            .dwattr $C$DW$165, DW_AT_TI_end_file("C:/TI_ARM_Tiva_Projects/Source/tasks.c")
    2719                            .dwattr $C$DW$165, DW_AT_TI_end_line(0x5b9)
    2720                            .dwattr $C$DW$165, DW_AT_TI_end_column(0x02)
    2721                            .dwendentry
    2722                            .dwendtag $C$DW$165
    2723                    
    2724 00000594                   .sect   ".text"
    2725                            .clink
    2726                            .thumbfunc xTaskResumeFromISR
    2727 00000594                   .thumb
    2728                            .global xTaskResumeFromISR
    2729                    
    2730                    $C$DW$175       .dwtag  DW_TAG_subprogram
    2731                            .dwattr $C$DW$175, DW_AT_name("xTaskResumeFromISR")
    2732                            .dwattr $C$DW$175, DW_AT_low_pc(xTaskResumeFromISR)
    2733                            .dwattr $C$DW$175, DW_AT_high_pc(0x00)
    2734                            .dwattr $C$DW$175, DW_AT_TI_symbol_name("xTaskResumeFromISR")
    2735                            .dwattr $C$DW$175, DW_AT_external
    2736                            .dwattr $C$DW$175, DW_AT_type(*$C$DW$T$64)
    2737                            .dwattr $C$DW$175, DW_AT_TI_begin_file("C:/TI_ARM_Tiva_Projects/Source/tasks.c")
    2738                            .dwattr $C$DW$175, DW_AT_TI_begin_line(0x5c1)
    2739                            .dwattr $C$DW$175, DW_AT_TI_begin_column(0x0d)
    2740                            .dwattr $C$DW$175, DW_AT_decl_file("C:/TI_ARM_Tiva_Projects/Source/tasks.c")
    2741                            .dwattr $C$DW$175, DW_AT_decl_line(0x5c1)
    2742                            .dwattr $C$DW$175, DW_AT_decl_column(0x0d)
    2743                            .dwattr $C$DW$175, DW_AT_TI_max_frame_size(0x18)
TI ARM Assembler PC v15.12.1 Tue Oct 18 10:42:35 2016

Tools Copyright (c) 1996-2015 Texas Instruments Incorporated
tasks.asm                                                            PAGE   51

    2744                            .dwpsn  file "C:/TI_ARM_Tiva_Projects/Source/tasks.c",line 1474,column 2,is_stmt,address xTask
    2745                    
    2746                            .dwfde $C$DW$CIE, xTaskResumeFromISR
    2747                    $C$DW$176       .dwtag  DW_TAG_formal_parameter
    2748                            .dwattr $C$DW$176, DW_AT_name("xTaskToResume")
    2749                            .dwattr $C$DW$176, DW_AT_TI_symbol_name("xTaskToResume")
    2750                            .dwattr $C$DW$176, DW_AT_type(*$C$DW$T$59)
    2751                            .dwattr $C$DW$176, DW_AT_location[DW_OP_reg0]
    2752                    
    2753                    
    2754                    ;*****************************************************************************
    2755                    ;* FUNCTION NAME: xTaskResumeFromISR                                         *
    2756                    ;*                                                                           *
    2757                    ;*   Regs Modified     : A1,A2,A3,A4,V1,V9,SP,LR,SR,D0,D0_hi,D1,D1_hi,D2,    *
    2758                    ;*                           D2_hi,D3,D3_hi,D4,D4_hi,D5,D5_hi,D6,D6_hi,D7,   *
    2759                    ;*                           D7_hi,FPEXC,FPSCR                               *
    2760                    ;*   Regs Used         : A1,A2,A3,A4,V1,V9,SP,LR,SR,D0,D0_hi,D1,D1_hi,D2,    *
    2761                    ;*                           D2_hi,D3,D3_hi,D4,D4_hi,D5,D5_hi,D6,D6_hi,D7,   *
    2762                    ;*                           D7_hi,FPEXC,FPSCR                               *
    2763                    ;*   Local Frame Size  : 0 Args + 16 Auto + 8 Save = 24 byte                 *
    2764                    ;*****************************************************************************
    2765 00000594           xTaskResumeFromISR:
    2766                    ;* --------------------------------------------------------------------------*
    2767                            .dwcfi  cfa_offset, 0
    2768 00000594 B51F              PUSH      {A1, A2, A3, A4, V1, LR} ; [DPU_3_PIPE]  ; [ORIG 16-BIT INS]
    2769                            .dwcfi  cfa_offset, 24
    2770                            .dwcfi  save_reg_to_mem, 14, -4
    2771                            .dwcfi  save_reg_to_mem, 4, -8
    2772                            .dwcfi  save_reg_to_mem, 3, -12
    2773                            .dwcfi  save_reg_to_mem, 2, -16
    2774                            .dwcfi  save_reg_to_mem, 1, -20
    2775                            .dwcfi  save_reg_to_mem, 0, -24
    2776                    $C$DW$177       .dwtag  DW_TAG_variable
    2777                            .dwattr $C$DW$177, DW_AT_name("xTaskToResume")
    2778                            .dwattr $C$DW$177, DW_AT_TI_symbol_name("xTaskToResume")
    2779                            .dwattr $C$DW$177, DW_AT_type(*$C$DW$T$59)
    2780                            .dwattr $C$DW$177, DW_AT_location[DW_OP_breg13 0]
    2781                    
    2782                    $C$DW$178       .dwtag  DW_TAG_variable
    2783                            .dwattr $C$DW$178, DW_AT_name("xYieldRequired")
    2784                            .dwattr $C$DW$178, DW_AT_TI_symbol_name("xYieldRequired")
    2785                            .dwattr $C$DW$178, DW_AT_type(*$C$DW$T$64)
    2786                            .dwattr $C$DW$178, DW_AT_location[DW_OP_breg13 4]
    2787                    
    2788                    $C$DW$179       .dwtag  DW_TAG_variable
    2789                            .dwattr $C$DW$179, DW_AT_name("pxTCB")
    2790                            .dwattr $C$DW$179, DW_AT_TI_symbol_name("pxTCB")
    2791                            .dwattr $C$DW$179, DW_AT_type(*$C$DW$T$121)
    2792                            .dwattr $C$DW$179, DW_AT_location[DW_OP_breg13 8]
    2793                    
    2794                    $C$DW$180       .dwtag  DW_TAG_variable
    2795                            .dwattr $C$DW$180, DW_AT_name("uxSavedInterruptStatus")
    2796                            .dwattr $C$DW$180, DW_AT_TI_symbol_name("uxSavedInterruptStatus")
    2797                            .dwattr $C$DW$180, DW_AT_type(*$C$DW$T$32)
    2798                            .dwattr $C$DW$180, DW_AT_location[DW_OP_breg13 12]
TI ARM Assembler PC v15.12.1 Tue Oct 18 10:42:35 2016

Tools Copyright (c) 1996-2015 Texas Instruments Incorporated
tasks.asm                                                            PAGE   52

    2799                    
    2800 00000596 9000              STR       A1, [SP, #0]          ; [DPU_3_PIPE] |1474|  ; [ORIG 16-BIT INS]
    2801                            .dwpsn  file "C:/TI_ARM_Tiva_Projects/Source/tasks.c",line 1475,column 28,is_stmt,isa 1
    2802 00000598 2000              MOVS      A1, #0                ; [DPU_3_PIPE] |1475|  ; [ORIG 16-BIT INS]
    2803 0000059a 9001              STR       A1, [SP, #4]          ; [DPU_3_PIPE] |1475|  ; [ORIG 16-BIT INS]
    2804                            .dwpsn  file "C:/TI_ARM_Tiva_Projects/Source/tasks.c",line 1476,column 22,is_stmt,isa 1
    2805 0000059c 9800              LDR       A1, [SP, #0]          ; [DPU_3_PIPE] |1476|  ; [ORIG 16-BIT INS]
    2806 0000059e 9002              STR       A1, [SP, #8]          ; [DPU_3_PIPE] |1476|  ; [ORIG 16-BIT INS]
    2807                            .dwpsn  file "C:/TI_ARM_Tiva_Projects/Source/tasks.c",line 1499,column 3,is_stmt,isa 1
    2808 000005a0 8111F3EF          MRS       A2, BASEPRI           ; [DPU_3_PIPE] |1499|  ; [KEEP 32-BIT INS]
