TI ARM Assembler PC v15.12.1 Tue Oct 18 10:42:36 2016

Tools Copyright (c) 1996-2015 Texas Instruments Incorporated
timers.asm                                                           PAGE    1

       1                    ;******************************************************************************
       2                    ;* TI ARM C/C++ Codegen                                       PC v15.12.1.LTS *
       3                    ;* Date/Time created: Tue Oct 18 10:42:36 2016                                *
       4                    ;******************************************************************************
       5                            .compiler_opts --abi=eabi --arm_vmrs_si_workaround=off --code_state=16 --diag_wrap=off --disab
       6 00000000                   .thumb
       7                    
       8                    $C$DW$CU        .dwtag  DW_TAG_compile_unit
       9                            .dwattr $C$DW$CU, DW_AT_name("C:/TI_ARM_Tiva_Projects/Source/timers.c")
      10                            .dwattr $C$DW$CU, DW_AT_producer("TI TI ARM C/C++ Codegen PC v15.12.1.LTS Copyright (c) 1996-2
      11                            .dwattr $C$DW$CU, DW_AT_TI_version(0x01)
      12                            .dwattr $C$DW$CU, DW_AT_comp_dir("C:\TI_ARM_Tiva_Projects\FreeRTOS82_TM4C1294_Base\Debug")
      13                    
      14                    $C$DW$1 .dwtag  DW_TAG_subprogram
      15                            .dwattr $C$DW$1, DW_AT_name("vPortEnterCritical")
      16                            .dwattr $C$DW$1, DW_AT_TI_symbol_name("vPortEnterCritical")
      17                            .dwattr $C$DW$1, DW_AT_declaration
      18                            .dwattr $C$DW$1, DW_AT_external
      19                            .dwattr $C$DW$1, DW_AT_decl_file("C:/TI_ARM_Tiva_Projects/Source/portable/CCS/ARM_CM4F/portmac
      20                            .dwattr $C$DW$1, DW_AT_decl_line(0xa7)
      21                            .dwattr $C$DW$1, DW_AT_decl_column(0x0d)
      22                            .dwendtag $C$DW$1
      23                    
      24                    
      25                    $C$DW$2 .dwtag  DW_TAG_subprogram
      26                            .dwattr $C$DW$2, DW_AT_name("vPortExitCritical")
      27                            .dwattr $C$DW$2, DW_AT_TI_symbol_name("vPortExitCritical")
      28                            .dwattr $C$DW$2, DW_AT_declaration
      29                            .dwattr $C$DW$2, DW_AT_external
      30                            .dwattr $C$DW$2, DW_AT_decl_file("C:/TI_ARM_Tiva_Projects/Source/portable/CCS/ARM_CM4F/portmac
      31                            .dwattr $C$DW$2, DW_AT_decl_line(0xa8)
      32                            .dwattr $C$DW$2, DW_AT_decl_column(0x0d)
      33                            .dwendtag $C$DW$2
      34                    
      35                    
      36                    $C$DW$3 .dwtag  DW_TAG_subprogram
      37                            .dwattr $C$DW$3, DW_AT_name("pvPortMalloc")
      38                            .dwattr $C$DW$3, DW_AT_TI_symbol_name("pvPortMalloc")
      39                            .dwattr $C$DW$3, DW_AT_type(*$C$DW$T$3)
      40                            .dwattr $C$DW$3, DW_AT_declaration
      41                            .dwattr $C$DW$3, DW_AT_external
      42                            .dwattr $C$DW$3, DW_AT_decl_file("C:\TI_ARM_Tiva_Projects\Source\include\portable.h")
      43                            .dwattr $C$DW$3, DW_AT_decl_line(0xab)
      44                            .dwattr $C$DW$3, DW_AT_decl_column(0x07)
      45                    $C$DW$4 .dwtag  DW_TAG_formal_parameter
      46                            .dwattr $C$DW$4, DW_AT_type(*$C$DW$T$26)
      47                    
      48                            .dwendtag $C$DW$3
      49                    
      50                    
      51                    $C$DW$5 .dwtag  DW_TAG_subprogram
      52                            .dwattr $C$DW$5, DW_AT_name("vPortFree")
      53                            .dwattr $C$DW$5, DW_AT_TI_symbol_name("vPortFree")
      54                            .dwattr $C$DW$5, DW_AT_declaration
      55                            .dwattr $C$DW$5, DW_AT_external
TI ARM Assembler PC v15.12.1 Tue Oct 18 10:42:36 2016

Tools Copyright (c) 1996-2015 Texas Instruments Incorporated
timers.asm                                                           PAGE    2

      56                            .dwattr $C$DW$5, DW_AT_decl_file("C:\TI_ARM_Tiva_Projects\Source\include\portable.h")
      57                            .dwattr $C$DW$5, DW_AT_decl_line(0xac)
      58                            .dwattr $C$DW$5, DW_AT_decl_column(0x06)
      59                    $C$DW$6 .dwtag  DW_TAG_formal_parameter
      60                            .dwattr $C$DW$6, DW_AT_type(*$C$DW$T$3)
      61                    
      62                            .dwendtag $C$DW$5
      63                    
      64                    
      65                    $C$DW$7 .dwtag  DW_TAG_subprogram
      66                            .dwattr $C$DW$7, DW_AT_name("vListInitialise")
      67                            .dwattr $C$DW$7, DW_AT_TI_symbol_name("vListInitialise")
      68                            .dwattr $C$DW$7, DW_AT_declaration
      69                            .dwattr $C$DW$7, DW_AT_external
      70                            .dwattr $C$DW$7, DW_AT_decl_file("C:\TI_ARM_Tiva_Projects\Source\include\list.h")
      71                            .dwattr $C$DW$7, DW_AT_decl_line(0x182)
      72                            .dwattr $C$DW$7, DW_AT_decl_column(0x06)
      73                    $C$DW$8 .dwtag  DW_TAG_formal_parameter
      74                            .dwattr $C$DW$8, DW_AT_type(*$C$DW$T$103)
      75                    
      76                            .dwendtag $C$DW$7
      77                    
      78                    
      79                    $C$DW$9 .dwtag  DW_TAG_subprogram
      80                            .dwattr $C$DW$9, DW_AT_name("vListInitialiseItem")
      81                            .dwattr $C$DW$9, DW_AT_TI_symbol_name("vListInitialiseItem")
      82                            .dwattr $C$DW$9, DW_AT_declaration
      83                            .dwattr $C$DW$9, DW_AT_external
      84                            .dwattr $C$DW$9, DW_AT_decl_file("C:\TI_ARM_Tiva_Projects\Source\include\list.h")
      85                            .dwattr $C$DW$9, DW_AT_decl_line(0x18d)
      86                            .dwattr $C$DW$9, DW_AT_decl_column(0x06)
      87                    $C$DW$10        .dwtag  DW_TAG_formal_parameter
      88                            .dwattr $C$DW$10, DW_AT_type(*$C$DW$T$106)
      89                    
      90                            .dwendtag $C$DW$9
      91                    
      92                    
      93                    $C$DW$11        .dwtag  DW_TAG_subprogram
      94                            .dwattr $C$DW$11, DW_AT_name("vListInsert")
      95                            .dwattr $C$DW$11, DW_AT_TI_symbol_name("vListInsert")
      96                            .dwattr $C$DW$11, DW_AT_declaration
      97                            .dwattr $C$DW$11, DW_AT_external
      98                            .dwattr $C$DW$11, DW_AT_decl_file("C:\TI_ARM_Tiva_Projects\Source\include\list.h")
      99                            .dwattr $C$DW$11, DW_AT_decl_line(0x19a)
     100                            .dwattr $C$DW$11, DW_AT_decl_column(0x06)
     101                    $C$DW$12        .dwtag  DW_TAG_formal_parameter
     102                            .dwattr $C$DW$12, DW_AT_type(*$C$DW$T$103)
     103                    
     104                    $C$DW$13        .dwtag  DW_TAG_formal_parameter
     105                            .dwattr $C$DW$13, DW_AT_type(*$C$DW$T$106)
     106                    
     107                            .dwendtag $C$DW$11
     108                    
     109                    
     110                    $C$DW$14        .dwtag  DW_TAG_subprogram
TI ARM Assembler PC v15.12.1 Tue Oct 18 10:42:36 2016

Tools Copyright (c) 1996-2015 Texas Instruments Incorporated
timers.asm                                                           PAGE    3

     111                            .dwattr $C$DW$14, DW_AT_name("uxListRemove")
     112                            .dwattr $C$DW$14, DW_AT_TI_symbol_name("uxListRemove")
     113                            .dwattr $C$DW$14, DW_AT_type(*$C$DW$T$39)
     114                            .dwattr $C$DW$14, DW_AT_declaration
     115                            .dwattr $C$DW$14, DW_AT_external
     116                            .dwattr $C$DW$14, DW_AT_decl_file("C:\TI_ARM_Tiva_Projects\Source\include\list.h")
     117                            .dwattr $C$DW$14, DW_AT_decl_line(0x1be)
     118                            .dwattr $C$DW$14, DW_AT_decl_column(0x0d)
     119                    $C$DW$15        .dwtag  DW_TAG_formal_parameter
     120                            .dwattr $C$DW$15, DW_AT_type(*$C$DW$T$106)
     121                    
     122                            .dwendtag $C$DW$14
     123                    
     124                    
     125                    $C$DW$16        .dwtag  DW_TAG_subprogram
     126                            .dwattr $C$DW$16, DW_AT_name("vTaskSuspendAll")
     127                            .dwattr $C$DW$16, DW_AT_TI_symbol_name("vTaskSuspendAll")
     128                            .dwattr $C$DW$16, DW_AT_declaration
     129                            .dwattr $C$DW$16, DW_AT_external
     130                            .dwattr $C$DW$16, DW_AT_decl_file("C:/TI_ARM_Tiva_Projects/Source/include/task.h")
     131                            .dwattr $C$DW$16, DW_AT_decl_line(0x3e6)
     132                            .dwattr $C$DW$16, DW_AT_decl_column(0x06)
     133                            .dwendtag $C$DW$16
     134                    
     135                    
     136                    $C$DW$17        .dwtag  DW_TAG_subprogram
     137                            .dwattr $C$DW$17, DW_AT_name("xTaskResumeAll")
     138                            .dwattr $C$DW$17, DW_AT_TI_symbol_name("xTaskResumeAll")
     139                            .dwattr $C$DW$17, DW_AT_type(*$C$DW$T$50)
     140                            .dwattr $C$DW$17, DW_AT_declaration
     141                            .dwattr $C$DW$17, DW_AT_external
     142                            .dwattr $C$DW$17, DW_AT_decl_file("C:/TI_ARM_Tiva_Projects/Source/include/task.h")
     143                            .dwattr $C$DW$17, DW_AT_decl_line(0x41c)
     144                            .dwattr $C$DW$17, DW_AT_decl_column(0x0c)
     145                            .dwendtag $C$DW$17
     146                    
     147                    
     148                    $C$DW$18        .dwtag  DW_TAG_subprogram
     149                            .dwattr $C$DW$18, DW_AT_name("xTaskGetTickCount")
     150                            .dwattr $C$DW$18, DW_AT_TI_symbol_name("xTaskGetTickCount")
     151                            .dwattr $C$DW$18, DW_AT_type(*$C$DW$T$38)
     152                            .dwattr $C$DW$18, DW_AT_declaration
     153                            .dwattr $C$DW$18, DW_AT_external
     154                            .dwattr $C$DW$18, DW_AT_decl_file("C:/TI_ARM_Tiva_Projects/Source/include/task.h")
     155                            .dwattr $C$DW$18, DW_AT_decl_line(0x42b)
     156                            .dwattr $C$DW$18, DW_AT_decl_column(0x0c)
     157                            .dwendtag $C$DW$18
     158                    
     159                    
     160                    $C$DW$19        .dwtag  DW_TAG_subprogram
     161                            .dwattr $C$DW$19, DW_AT_name("xTaskGetSchedulerState")
     162                            .dwattr $C$DW$19, DW_AT_TI_symbol_name("xTaskGetSchedulerState")
     163                            .dwattr $C$DW$19, DW_AT_type(*$C$DW$T$50)
     164                            .dwattr $C$DW$19, DW_AT_declaration
     165                            .dwattr $C$DW$19, DW_AT_external
TI ARM Assembler PC v15.12.1 Tue Oct 18 10:42:36 2016

Tools Copyright (c) 1996-2015 Texas Instruments Incorporated
timers.asm                                                           PAGE    4

     166                            .dwattr $C$DW$19, DW_AT_decl_file("C:/TI_ARM_Tiva_Projects/Source/include/task.h")
     167                            .dwattr $C$DW$19, DW_AT_decl_line(0x7b0)
     168                            .dwattr $C$DW$19, DW_AT_decl_column(0x0c)
     169                            .dwendtag $C$DW$19
     170                    
     171                    
     172                    $C$DW$20        .dwtag  DW_TAG_subprogram
     173                            .dwattr $C$DW$20, DW_AT_name("xTaskGenericCreate")
     174                            .dwattr $C$DW$20, DW_AT_TI_symbol_name("xTaskGenericCreate")
     175                            .dwattr $C$DW$20, DW_AT_type(*$C$DW$T$50)
     176                            .dwattr $C$DW$20, DW_AT_declaration
     177                            .dwattr $C$DW$20, DW_AT_external
     178                            .dwattr $C$DW$20, DW_AT_decl_file("C:/TI_ARM_Tiva_Projects/Source/include/task.h")
     179                            .dwattr $C$DW$20, DW_AT_decl_line(0x7c2)
     180                            .dwattr $C$DW$20, DW_AT_decl_column(0x0c)
     181                    $C$DW$21        .dwtag  DW_TAG_formal_parameter
     182                            .dwattr $C$DW$21, DW_AT_type(*$C$DW$T$61)
     183                    
     184                    $C$DW$22        .dwtag  DW_TAG_formal_parameter
     185                            .dwattr $C$DW$22, DW_AT_type(*$C$DW$T$62)
     186                    
     187                    $C$DW$23        .dwtag  DW_TAG_formal_parameter
     188                            .dwattr $C$DW$23, DW_AT_type(*$C$DW$T$131)
     189                    
     190                    $C$DW$24        .dwtag  DW_TAG_formal_parameter
     191                            .dwattr $C$DW$24, DW_AT_type(*$C$DW$T$93)
     192                    
     193                    $C$DW$25        .dwtag  DW_TAG_formal_parameter
     194                            .dwattr $C$DW$25, DW_AT_type(*$C$DW$T$39)
     195                    
     196                    $C$DW$26        .dwtag  DW_TAG_formal_parameter
     197                            .dwattr $C$DW$26, DW_AT_type(*$C$DW$T$90)
     198                    
     199                    $C$DW$27        .dwtag  DW_TAG_formal_parameter
     200                            .dwattr $C$DW$27, DW_AT_type(*$C$DW$T$139)
     201                    
     202                    $C$DW$28        .dwtag  DW_TAG_formal_parameter
     203                            .dwattr $C$DW$28, DW_AT_type(*$C$DW$T$142)
     204                    
     205                            .dwendtag $C$DW$20
     206                    
     207                    
     208                    $C$DW$29        .dwtag  DW_TAG_subprogram
     209                            .dwattr $C$DW$29, DW_AT_name("xQueueGenericSend")
     210                            .dwattr $C$DW$29, DW_AT_TI_symbol_name("xQueueGenericSend")
     211                            .dwattr $C$DW$29, DW_AT_type(*$C$DW$T$50)
     212                            .dwattr $C$DW$29, DW_AT_declaration
     213                            .dwattr $C$DW$29, DW_AT_external
     214                            .dwattr $C$DW$29, DW_AT_decl_file("C:/TI_ARM_Tiva_Projects/Source/include/queue.h")
     215                            .dwattr $C$DW$29, DW_AT_decl_line(0x250)
     216                            .dwattr $C$DW$29, DW_AT_decl_column(0x0c)
     217                    $C$DW$30        .dwtag  DW_TAG_formal_parameter
     218                            .dwattr $C$DW$30, DW_AT_type(*$C$DW$T$82)
     219                    
     220                    $C$DW$31        .dwtag  DW_TAG_formal_parameter
TI ARM Assembler PC v15.12.1 Tue Oct 18 10:42:36 2016

Tools Copyright (c) 1996-2015 Texas Instruments Incorporated
timers.asm                                                           PAGE    5

     221                            .dwattr $C$DW$31, DW_AT_type(*$C$DW$T$113)
     222                    
     223                    $C$DW$32        .dwtag  DW_TAG_formal_parameter
     224                            .dwattr $C$DW$32, DW_AT_type(*$C$DW$T$38)
     225                    
     226                    $C$DW$33        .dwtag  DW_TAG_formal_parameter
     227                            .dwattr $C$DW$33, DW_AT_type(*$C$DW$T$116)
     228                    
     229                            .dwendtag $C$DW$29
     230                    
     231                    
     232                    $C$DW$34        .dwtag  DW_TAG_subprogram
     233                            .dwattr $C$DW$34, DW_AT_name("xQueueGenericReceive")
     234                            .dwattr $C$DW$34, DW_AT_TI_symbol_name("xQueueGenericReceive")
     235                            .dwattr $C$DW$34, DW_AT_type(*$C$DW$T$50)
     236                            .dwattr $C$DW$34, DW_AT_declaration
     237                            .dwattr $C$DW$34, DW_AT_external
     238                            .dwattr $C$DW$34, DW_AT_decl_file("C:/TI_ARM_Tiva_Projects/Source/include/queue.h")
     239                            .dwattr $C$DW$34, DW_AT_decl_line(0x391)
     240                            .dwattr $C$DW$34, DW_AT_decl_column(0x0c)
     241                    $C$DW$35        .dwtag  DW_TAG_formal_parameter
     242                            .dwattr $C$DW$35, DW_AT_type(*$C$DW$T$82)
     243                    
     244                    $C$DW$36        .dwtag  DW_TAG_formal_parameter
     245                            .dwattr $C$DW$36, DW_AT_type(*$C$DW$T$93)
     246                    
     247                    $C$DW$37        .dwtag  DW_TAG_formal_parameter
     248                            .dwattr $C$DW$37, DW_AT_type(*$C$DW$T$38)
     249                    
     250                    $C$DW$38        .dwtag  DW_TAG_formal_parameter
     251                            .dwattr $C$DW$38, DW_AT_type(*$C$DW$T$116)
     252                    
     253                            .dwendtag $C$DW$34
     254                    
     255                    
     256                    $C$DW$39        .dwtag  DW_TAG_subprogram
     257                            .dwattr $C$DW$39, DW_AT_name("xQueueGenericSendFromISR")
     258                            .dwattr $C$DW$39, DW_AT_TI_symbol_name("xQueueGenericSendFromISR")
     259                            .dwattr $C$DW$39, DW_AT_type(*$C$DW$T$50)
     260                            .dwattr $C$DW$39, DW_AT_declaration
     261                            .dwattr $C$DW$39, DW_AT_external
     262                            .dwattr $C$DW$39, DW_AT_decl_file("C:/TI_ARM_Tiva_Projects/Source/include/queue.h")
     263                            .dwattr $C$DW$39, DW_AT_decl_line(0x53c)
     264                            .dwattr $C$DW$39, DW_AT_decl_column(0x0c)
     265                    $C$DW$40        .dwtag  DW_TAG_formal_parameter
     266                            .dwattr $C$DW$40, DW_AT_type(*$C$DW$T$82)
     267                    
     268                    $C$DW$41        .dwtag  DW_TAG_formal_parameter
     269                            .dwattr $C$DW$41, DW_AT_type(*$C$DW$T$113)
     270                    
     271                    $C$DW$42        .dwtag  DW_TAG_formal_parameter
     272                            .dwattr $C$DW$42, DW_AT_type(*$C$DW$T$150)
     273                    
     274                    $C$DW$43        .dwtag  DW_TAG_formal_parameter
     275                            .dwattr $C$DW$43, DW_AT_type(*$C$DW$T$116)
TI ARM Assembler PC v15.12.1 Tue Oct 18 10:42:36 2016

Tools Copyright (c) 1996-2015 Texas Instruments Incorporated
timers.asm                                                           PAGE    6

     276                    
     277                            .dwendtag $C$DW$39
     278                    
     279                    
     280                    $C$DW$44        .dwtag  DW_TAG_subprogram
     281                            .dwattr $C$DW$44, DW_AT_name("vQueueAddToRegistry")
     282                            .dwattr $C$DW$44, DW_AT_TI_symbol_name("vQueueAddToRegistry")
     283                            .dwattr $C$DW$44, DW_AT_declaration
     284                            .dwattr $C$DW$44, DW_AT_external
     285                            .dwattr $C$DW$44, DW_AT_decl_file("C:/TI_ARM_Tiva_Projects/Source/include/queue.h")
     286                            .dwattr $C$DW$44, DW_AT_decl_line(0x5f1)
     287                            .dwattr $C$DW$44, DW_AT_decl_column(0x07)
     288                    $C$DW$45        .dwtag  DW_TAG_formal_parameter
     289                            .dwattr $C$DW$45, DW_AT_type(*$C$DW$T$82)
     290                    
     291                    $C$DW$46        .dwtag  DW_TAG_formal_parameter
     292                            .dwattr $C$DW$46, DW_AT_type(*$C$DW$T$36)
     293                    
     294                            .dwendtag $C$DW$44
     295                    
     296                    
     297                    $C$DW$47        .dwtag  DW_TAG_subprogram
     298                            .dwattr $C$DW$47, DW_AT_name("xQueueGenericCreate")
     299                            .dwattr $C$DW$47, DW_AT_TI_symbol_name("xQueueGenericCreate")
     300                            .dwattr $C$DW$47, DW_AT_type(*$C$DW$T$82)
     301                            .dwattr $C$DW$47, DW_AT_declaration
     302                            .dwattr $C$DW$47, DW_AT_external
     303                            .dwattr $C$DW$47, DW_AT_decl_file("C:/TI_ARM_Tiva_Projects/Source/include/queue.h")
     304                            .dwattr $C$DW$47, DW_AT_decl_line(0x606)
     305                            .dwattr $C$DW$47, DW_AT_decl_column(0x0f)
     306                    $C$DW$48        .dwtag  DW_TAG_formal_parameter
     307                            .dwattr $C$DW$48, DW_AT_type(*$C$DW$T$83)
     308                    
     309                    $C$DW$49        .dwtag  DW_TAG_formal_parameter
     310                            .dwattr $C$DW$49, DW_AT_type(*$C$DW$T$83)
     311                    
     312                    $C$DW$50        .dwtag  DW_TAG_formal_parameter
     313                            .dwattr $C$DW$50, DW_AT_type(*$C$DW$T$84)
     314                    
     315                            .dwendtag $C$DW$47
     316                    
     317                    
     318                    $C$DW$51        .dwtag  DW_TAG_subprogram
     319                            .dwattr $C$DW$51, DW_AT_name("vQueueWaitForMessageRestricted")
     320                            .dwattr $C$DW$51, DW_AT_TI_symbol_name("vQueueWaitForMessageRestricted")
     321                            .dwattr $C$DW$51, DW_AT_declaration
     322                            .dwattr $C$DW$51, DW_AT_external
     323                            .dwattr $C$DW$51, DW_AT_decl_file("C:/TI_ARM_Tiva_Projects/Source/include/queue.h")
     324                            .dwattr $C$DW$51, DW_AT_decl_line(0x68f)
     325                            .dwattr $C$DW$51, DW_AT_decl_column(0x06)
     326                    $C$DW$52        .dwtag  DW_TAG_formal_parameter
     327                            .dwattr $C$DW$52, DW_AT_type(*$C$DW$T$82)
     328                    
     329                    $C$DW$53        .dwtag  DW_TAG_formal_parameter
     330                            .dwattr $C$DW$53, DW_AT_type(*$C$DW$T$38)
TI ARM Assembler PC v15.12.1 Tue Oct 18 10:42:36 2016

Tools Copyright (c) 1996-2015 Texas Instruments Incorporated
timers.asm                                                           PAGE    7

     331                    
     332                    $C$DW$54        .dwtag  DW_TAG_formal_parameter
     333                            .dwattr $C$DW$54, DW_AT_type(*$C$DW$T$116)
     334                    
     335                            .dwendtag $C$DW$51
     336                    
     337 00000000           xActiveTimerList1:      .usect  ".bss:xActiveTimerList1",20,4
     338                            .clink ".bss:xActiveTimerList1"
     339                    $C$DW$55        .dwtag  DW_TAG_variable
     340                            .dwattr $C$DW$55, DW_AT_name("xActiveTimerList1")
     341                            .dwattr $C$DW$55, DW_AT_TI_symbol_name("xActiveTimerList1")
     342                            .dwattr $C$DW$55, DW_AT_type(*$C$DW$T$101)
     343                            .dwattr $C$DW$55, DW_AT_location[DW_OP_addr xActiveTimerList1]
     344                            .dwattr $C$DW$55, DW_AT_decl_file("C:/TI_ARM_Tiva_Projects/Source/timers.c")
     345                            .dwattr $C$DW$55, DW_AT_decl_line(0xa3)
     346                            .dwattr $C$DW$55, DW_AT_decl_column(0x1f)
     347                    
     348 00000000           xActiveTimerList2:      .usect  ".bss:xActiveTimerList2",20,4
     349                            .clink ".bss:xActiveTimerList2"
     350                    $C$DW$56        .dwtag  DW_TAG_variable
     351                            .dwattr $C$DW$56, DW_AT_name("xActiveTimerList2")
     352                            .dwattr $C$DW$56, DW_AT_TI_symbol_name("xActiveTimerList2")
     353                            .dwattr $C$DW$56, DW_AT_type(*$C$DW$T$101)
     354                            .dwattr $C$DW$56, DW_AT_location[DW_OP_addr xActiveTimerList2]
     355                            .dwattr $C$DW$56, DW_AT_decl_file("C:/TI_ARM_Tiva_Projects/Source/timers.c")
     356                            .dwattr $C$DW$56, DW_AT_decl_line(0xa4)
     357                            .dwattr $C$DW$56, DW_AT_decl_column(0x1f)
     358                    
     359 00000000                   .bss    pxCurrentTimerList,4,4
     360                    $C$DW$57        .dwtag  DW_TAG_variable
     361                            .dwattr $C$DW$57, DW_AT_name("pxCurrentTimerList")
     362                            .dwattr $C$DW$57, DW_AT_TI_symbol_name("pxCurrentTimerList")
     363                            .dwattr $C$DW$57, DW_AT_type(*$C$DW$T$102)
     364                            .dwattr $C$DW$57, DW_AT_location[DW_OP_addr pxCurrentTimerList]
     365                            .dwattr $C$DW$57, DW_AT_decl_file("C:/TI_ARM_Tiva_Projects/Source/timers.c")
     366                            .dwattr $C$DW$57, DW_AT_decl_line(0xa5)
     367                            .dwattr $C$DW$57, DW_AT_decl_column(0x20)
     368                    
     369 00000004                   .bss    pxOverflowTimerList,4,4
     370                    $C$DW$58        .dwtag  DW_TAG_variable
     371                            .dwattr $C$DW$58, DW_AT_name("pxOverflowTimerList")
     372                            .dwattr $C$DW$58, DW_AT_TI_symbol_name("pxOverflowTimerList")
     373                            .dwattr $C$DW$58, DW_AT_type(*$C$DW$T$102)
     374                            .dwattr $C$DW$58, DW_AT_location[DW_OP_addr pxOverflowTimerList]
     375                            .dwattr $C$DW$58, DW_AT_decl_file("C:/TI_ARM_Tiva_Projects/Source/timers.c")
     376                            .dwattr $C$DW$58, DW_AT_decl_line(0xa6)
     377                            .dwattr $C$DW$58, DW_AT_decl_column(0x20)
     378                    
     379 00000000                   .data
     380                            .align  4
     381                            .elfsym xTimerQueue,SYM_SIZE(4)
     382 00000000           xTimerQueue:
     383 00000000 00000000          .bits   0,32                    ; xTimerQueue @ 0
     384                    
     385                    $C$DW$59        .dwtag  DW_TAG_variable
TI ARM Assembler PC v15.12.1 Tue Oct 18 10:42:36 2016

Tools Copyright (c) 1996-2015 Texas Instruments Incorporated
timers.asm                                                           PAGE    8

     386                            .dwattr $C$DW$59, DW_AT_name("xTimerQueue")
     387                            .dwattr $C$DW$59, DW_AT_TI_symbol_name("xTimerQueue")
     388                            .dwattr $C$DW$59, DW_AT_type(*$C$DW$T$82)
     389                            .dwattr $C$DW$59, DW_AT_location[DW_OP_addr xTimerQueue]
     390                            .dwattr $C$DW$59, DW_AT_decl_file("C:/TI_ARM_Tiva_Projects/Source/timers.c")
     391                            .dwattr $C$DW$59, DW_AT_decl_line(0xa9)
     392                            .dwattr $C$DW$59, DW_AT_decl_column(0x26)
     393                    
     394 00000004                   .data
     395                            .align  4
     396                            .elfsym xLastTime$1,SYM_SIZE(4)
     397 00000004           xLastTime$1:
     398 00000004 00000000          .bits   0,32                    ; xLastTime$1 @ 0
     399                    
     400                    ;       C:\TI_CodeComposer\ccsv6\tools\compiler\ti-cgt-arm_15.12.1.LTS\bin\armacpia.exe -@C:\\Users\\R
     401 00000000                   .sect   ".text"
     402                            .clink
     403                            .thumbfunc xTimerCreateTimerTask
     404 00000000                   .thumb
     405                            .global xTimerCreateTimerTask
     406                    
     407                    $C$DW$60        .dwtag  DW_TAG_subprogram
     408                            .dwattr $C$DW$60, DW_AT_name("xTimerCreateTimerTask")
     409                            .dwattr $C$DW$60, DW_AT_low_pc(xTimerCreateTimerTask)
     410                            .dwattr $C$DW$60, DW_AT_high_pc(0x00)
     411                            .dwattr $C$DW$60, DW_AT_TI_symbol_name("xTimerCreateTimerTask")
     412                            .dwattr $C$DW$60, DW_AT_external
     413                            .dwattr $C$DW$60, DW_AT_type(*$C$DW$T$50)
     414                            .dwattr $C$DW$60, DW_AT_TI_begin_file("C:/TI_ARM_Tiva_Projects/Source/timers.c")
     415                            .dwattr $C$DW$60, DW_AT_TI_begin_line(0xf0)
     416                            .dwattr $C$DW$60, DW_AT_TI_begin_column(0x0c)
     417                            .dwattr $C$DW$60, DW_AT_decl_file("C:/TI_ARM_Tiva_Projects/Source/timers.c")
     418                            .dwattr $C$DW$60, DW_AT_decl_line(0xf0)
     419                            .dwattr $C$DW$60, DW_AT_decl_column(0x0c)
     420                            .dwattr $C$DW$60, DW_AT_TI_max_frame_size(0x18)
     421                            .dwpsn  file "C:/TI_ARM_Tiva_Projects/Source/timers.c",line 241,column 1,is_stmt,address xTime
     422                    
     423                            .dwfde $C$DW$CIE, xTimerCreateTimerTask
     424                    
     425                    ;*****************************************************************************
     426                    ;* FUNCTION NAME: xTimerCreateTimerTask                                      *
     427                    ;*                                                                           *
     428                    ;*   Regs Modified     : A1,A2,A3,A4,V9,SP,LR,SR,D0,D0_hi,D1,D1_hi,D2,D2_hi, *
     429                    ;*                           D3,D3_hi,D4,D4_hi,D5,D5_hi,D6,D6_hi,D7,D7_hi,   *
     430                    ;*                           FPEXC,FPSCR                                     *
     431                    ;*   Regs Used         : A1,A2,A3,A4,V9,SP,LR,SR,D0,D0_hi,D1,D1_hi,D2,D2_hi, *
     432                    ;*                           D3,D3_hi,D4,D4_hi,D5,D5_hi,D6,D6_hi,D7,D7_hi,   *
     433                    ;*                           FPEXC,FPSCR                                     *
     434                    ;*   Local Frame Size  : 16 Args + 4 Auto + 4 Save = 24 byte                 *
     435                    ;*****************************************************************************
     436 00000000           xTimerCreateTimerTask:
     437                    ;* --------------------------------------------------------------------------*
     438                            .dwcfi  cfa_offset, 0
     439 00000000 B500              PUSH      {LR}                  ; [DPU_3_PIPE]  ; [ORIG 16-BIT INS]
     440                            .dwcfi  cfa_offset, 4
TI ARM Assembler PC v15.12.1 Tue Oct 18 10:42:36 2016

Tools Copyright (c) 1996-2015 Texas Instruments Incorporated
timers.asm                                                           PAGE    9

     441                            .dwcfi  save_reg_to_mem, 14, -4
     442 00000002 0D14F1AD          SUB       SP, SP, #20           ; [DPU_3_PIPE]  ; [KEEP 32-BIT INS]
     443                            .dwcfi  cfa_offset, 24
     444                    $C$DW$61        .dwtag  DW_TAG_variable
     445                            .dwattr $C$DW$61, DW_AT_name("xReturn")
     446                            .dwattr $C$DW$61, DW_AT_TI_symbol_name("xReturn")
     447                            .dwattr $C$DW$61, DW_AT_type(*$C$DW$T$50)
     448                            .dwattr $C$DW$61, DW_AT_location[DW_OP_breg13 16]
     449                    
     450                            .dwpsn  file "C:/TI_ARM_Tiva_Projects/Source/timers.c",line 242,column 20,is_stmt,isa 1
     451 00000006 2000              MOVS      A1, #0                ; [DPU_3_PIPE] |242|  ; [ORIG 16-BIT INS]
     452 00000008 9004              STR       A1, [SP, #16]         ; [DPU_3_PIPE] |242|  ; [ORIG 16-BIT INS]
     453                            .dwpsn  file "C:/TI_ARM_Tiva_Projects/Source/timers.c",line 248,column 2,is_stmt,isa 1
     454                    $C$DW$62        .dwtag  DW_TAG_TI_branch
     455                            .dwattr $C$DW$62, DW_AT_low_pc(0x00)
     456                            .dwattr $C$DW$62, DW_AT_name("prvCheckForValidListAndQueue")
     457                            .dwattr $C$DW$62, DW_AT_TI_call
     458                    
     459 0000000a FA2FF000          BL        prvCheckForValidListAndQueue ; [DPU_3_PIPE] |248|  ; [KEEP 32-BIT INS]
     460                            ; CALL OCCURS {prvCheckForValidListAndQueue }  ; [] |248| 
     461                            .dwpsn  file "C:/TI_ARM_Tiva_Projects/Source/timers.c",line 250,column 2,is_stmt,isa 1
     462 0000000e 4896              LDR       A1, $C$CON1           ; [DPU_3_PIPE] |250|  ; [ORIG 16-BIT INS]
     463 00000010 6800              LDR       A1, [A1, #0]          ; [DPU_3_PIPE] |250|  ; [ORIG 16-BIT INS]
     464 00000012 B178              CBZ       A1, ||$C$L1||         ; []  ; [ORIG 16-BIT INS]
     465                            ; BRANCHCC OCCURS {||$C$L1||}    ; [] |250| 
     466                    ;* --------------------------------------------------------------------------*
     467                            .dwpsn  file "C:/TI_ARM_Tiva_Projects/Source/timers.c",line 261,column 4,is_stmt,isa 1
     468 00000014 2004              MOVS      A1, #4                ; [DPU_3_PIPE] |261|  ; [ORIG 16-BIT INS]
     469 00000016 9000              STR       A1, [SP, #0]          ; [DPU_3_PIPE] |261|  ; [ORIG 16-BIT INS]
     470 00000018 2000              MOVS      A1, #0                ; [DPU_3_PIPE] |261|  ; [ORIG 16-BIT INS]
     471 0000001a 9001              STR       A1, [SP, #4]          ; [DPU_3_PIPE] |261|  ; [ORIG 16-BIT INS]
     472 0000001c 2000              MOVS      A1, #0                ; [DPU_3_PIPE] |261|  ; [ORIG 16-BIT INS]
     473 0000001e 9002              STR       A1, [SP, #8]          ; [DPU_3_PIPE] |261|  ; [ORIG 16-BIT INS]
     474 00000020 2000              MOVS      A1, #0                ; [DPU_3_PIPE] |261|  ; [ORIG 16-BIT INS]
     475 00000022 9003              STR       A1, [SP, #12]         ; [DPU_3_PIPE] |261|  ; [ORIG 16-BIT INS]
     476 00000024 4891              LDR       A1, $C$CON2           ; [DPU_3_PIPE] |261|  ; [ORIG 16-BIT INS]
     477 00000026 A18E              ADR       A2, $C$SL1            ; [DPU_3_PIPE] |261|  ; [ORIG 16-BIT INS]
     478 00000028 72C8F44F          MOV       A3, #400              ; [DPU_3_PIPE] |261|  ; [KEEP 32-BIT INS]
     479 0000002c 2300              MOVS      A4, #0                ; [DPU_3_PIPE] |261|  ; [ORIG 16-BIT INS]
     480                    $C$DW$63        .dwtag  DW_TAG_TI_branch
     481                            .dwattr $C$DW$63, DW_AT_low_pc(0x00)
     482                            .dwattr $C$DW$63, DW_AT_name("xTaskGenericCreate")
     483                            .dwattr $C$DW$63, DW_AT_TI_call
     484                    
     485 0000002e FFFEF7FF!         BL        xTaskGenericCreate    ; [DPU_3_PIPE] |261|  ; [KEEP 32-BIT INS]
     486                            ; CALL OCCURS {xTaskGenericCreate }  ; [] |261| 
     487 00000032 9004              STR       A1, [SP, #16]         ; [DPU_3_PIPE] |261|  ; [ORIG 16-BIT INS]
     488                            .dwpsn  file "C:/TI_ARM_Tiva_Projects/Source/timers.c",line 264,column 2,is_stmt,isa 1
     489                    ;* --------------------------------------------------------------------------*
     490 00000034           ||$C$L1||:    
     491                            .dwpsn  file "C:/TI_ARM_Tiva_Projects/Source/timers.c",line 271,column 2,is_stmt,isa 1
     492 00000034 9804              LDR       A1, [SP, #16]         ; [DPU_3_PIPE] |271|  ; [ORIG 16-BIT INS]
     493                            .dwpsn  file "C:/TI_ARM_Tiva_Projects/Source/timers.c",line 272,column 1,is_stmt,isa 1
     494 00000036 B005              ADD       SP, SP, #20           ; [DPU_3_PIPE]  ; [ORIG 16-BIT INS]
     495                            .dwcfi  cfa_offset, 4
TI ARM Assembler PC v15.12.1 Tue Oct 18 10:42:36 2016

Tools Copyright (c) 1996-2015 Texas Instruments Incorporated
timers.asm                                                           PAGE   10

     496                    $C$DW$64        .dwtag  DW_TAG_TI_branch
     497                            .dwattr $C$DW$64, DW_AT_low_pc(0x00)
     498                            .dwattr $C$DW$64, DW_AT_TI_return
     499                    
     500 00000038 BD00              POP       {PC}                  ; [DPU_3_PIPE]  ; [ORIG 16-BIT INS]
     501                            .dwcfi  cfa_offset, 0
     502                            ; BRANCH OCCURS                  ; [] 
     503                            .dwattr $C$DW$60, DW_AT_TI_end_file("C:/TI_ARM_Tiva_Projects/Source/timers.c")
     504                            .dwattr $C$DW$60, DW_AT_TI_end_line(0x110)
     505                            .dwattr $C$DW$60, DW_AT_TI_end_column(0x01)
     506                            .dwendentry
     507                            .dwendtag $C$DW$60
     508                    
     509 0000003a                   .sect   ".text"
     510                            .clink
     511                            .thumbfunc xTimerCreate
     512 0000003a                   .thumb
     513                            .global xTimerCreate
     514                    
     515                    $C$DW$65        .dwtag  DW_TAG_subprogram
     516                            .dwattr $C$DW$65, DW_AT_name("xTimerCreate")
     517                            .dwattr $C$DW$65, DW_AT_low_pc(xTimerCreate)
     518                            .dwattr $C$DW$65, DW_AT_high_pc(0x00)
     519                            .dwattr $C$DW$65, DW_AT_TI_symbol_name("xTimerCreate")
     520                            .dwattr $C$DW$65, DW_AT_external
     521                            .dwattr $C$DW$65, DW_AT_type(*$C$DW$T$40)
     522                            .dwattr $C$DW$65, DW_AT_TI_begin_file("C:/TI_ARM_Tiva_Projects/Source/timers.c")
     523                            .dwattr $C$DW$65, DW_AT_TI_begin_line(0x113)
     524                            .dwattr $C$DW$65, DW_AT_TI_begin_column(0x0f)
     525                            .dwattr $C$DW$65, DW_AT_decl_file("C:/TI_ARM_Tiva_Projects/Source/timers.c")
     526                            .dwattr $C$DW$65, DW_AT_decl_line(0x113)
     527                            .dwattr $C$DW$65, DW_AT_decl_column(0x0f)
     528                            .dwattr $C$DW$65, DW_AT_TI_max_frame_size(0x18)
     529                            .dwpsn  file "C:/TI_ARM_Tiva_Projects/Source/timers.c",line 276,column 1,is_stmt,address xTime
     530                    
     531                            .dwfde $C$DW$CIE, xTimerCreate
     532                    $C$DW$66        .dwtag  DW_TAG_formal_parameter
     533                            .dwattr $C$DW$66, DW_AT_name("pcTimerName")
     534                            .dwattr $C$DW$66, DW_AT_TI_symbol_name("pcTimerName")
     535                            .dwattr $C$DW$66, DW_AT_type(*$C$DW$T$62)
     536                            .dwattr $C$DW$66, DW_AT_location[DW_OP_reg0]
     537                    
     538                    $C$DW$67        .dwtag  DW_TAG_formal_parameter
     539                            .dwattr $C$DW$67, DW_AT_name("xTimerPeriodInTicks")
     540                            .dwattr $C$DW$67, DW_AT_TI_symbol_name("xTimerPeriodInTicks")
     541                            .dwattr $C$DW$67, DW_AT_type(*$C$DW$T$92)
     542                            .dwattr $C$DW$67, DW_AT_location[DW_OP_reg1]
     543                    
     544                    $C$DW$68        .dwtag  DW_TAG_formal_parameter
     545                            .dwattr $C$DW$68, DW_AT_name("uxAutoReload")
     546                            .dwattr $C$DW$68, DW_AT_TI_symbol_name("uxAutoReload")
     547                            .dwattr $C$DW$68, DW_AT_type(*$C$DW$T$83)
     548                            .dwattr $C$DW$68, DW_AT_location[DW_OP_reg2]
     549                    
     550                    $C$DW$69        .dwtag  DW_TAG_formal_parameter
TI ARM Assembler PC v15.12.1 Tue Oct 18 10:42:36 2016

Tools Copyright (c) 1996-2015 Texas Instruments Incorporated
timers.asm                                                           PAGE   11

     551                            .dwattr $C$DW$69, DW_AT_name("pvTimerID")
     552                            .dwattr $C$DW$69, DW_AT_TI_symbol_name("pvTimerID")
     553                            .dwattr $C$DW$69, DW_AT_type(*$C$DW$T$93)
     554                            .dwattr $C$DW$69, DW_AT_location[DW_OP_reg3]
     555                    
     556                    $C$DW$70        .dwtag  DW_TAG_formal_parameter
     557                            .dwattr $C$DW$70, DW_AT_name("pxCallbackFunction")
     558                            .dwattr $C$DW$70, DW_AT_TI_symbol_name("pxCallbackFunction")
     559                            .dwattr $C$DW$70, DW_AT_type(*$C$DW$T$43)
     560                            .dwattr $C$DW$70, DW_AT_location[DW_OP_breg13 24]
     561                    
     562                    
     563                    ;*****************************************************************************
     564                    ;* FUNCTION NAME: xTimerCreate                                               *
     565                    ;*                                                                           *
     566                    ;*   Regs Modified     : A1,A2,A3,A4,V9,SP,LR,SR,D0,D0_hi,D1,D1_hi,D2,D2_hi, *
     567                    ;*                           D3,D3_hi,D4,D4_hi,D5,D5_hi,D6,D6_hi,D7,D7_hi,   *
     568                    ;*                           FPEXC,FPSCR                                     *
     569                    ;*   Regs Used         : A1,A2,A3,A4,V9,SP,LR,SR,D0,D0_hi,D1,D1_hi,D2,D2_hi, *
     570                    ;*                           D3,D3_hi,D4,D4_hi,D5,D5_hi,D6,D6_hi,D7,D7_hi,   *
     571                    ;*                           FPEXC,FPSCR                                     *
     572                    ;*   Local Frame Size  : 0 Args + 20 Auto + 4 Save = 24 byte                 *
     573                    ;*****************************************************************************
     574 0000003a           xTimerCreate:
     575                    ;* --------------------------------------------------------------------------*
     576                            .dwcfi  cfa_offset, 0
     577 0000003a B500              PUSH      {LR}                  ; [DPU_3_PIPE]  ; [ORIG 16-BIT INS]
     578                            .dwcfi  cfa_offset, 4
     579                            .dwcfi  save_reg_to_mem, 14, -4
     580 0000003c 0D14F1AD          SUB       SP, SP, #20           ; [DPU_3_PIPE]  ; [KEEP 32-BIT INS]
     581                            .dwcfi  cfa_offset, 24
     582                    $C$DW$71        .dwtag  DW_TAG_variable
     583                            .dwattr $C$DW$71, DW_AT_name("pcTimerName")
     584                            .dwattr $C$DW$71, DW_AT_TI_symbol_name("pcTimerName")
     585                            .dwattr $C$DW$71, DW_AT_type(*$C$DW$T$62)
     586                            .dwattr $C$DW$71, DW_AT_location[DW_OP_breg13 0]
     587                    
     588                    $C$DW$72        .dwtag  DW_TAG_variable
     589                            .dwattr $C$DW$72, DW_AT_name("xTimerPeriodInTicks")
     590                            .dwattr $C$DW$72, DW_AT_TI_symbol_name("xTimerPeriodInTicks")
     591                            .dwattr $C$DW$72, DW_AT_type(*$C$DW$T$92)
     592                            .dwattr $C$DW$72, DW_AT_location[DW_OP_breg13 4]
     593                    
     594                    $C$DW$73        .dwtag  DW_TAG_variable
     595                            .dwattr $C$DW$73, DW_AT_name("uxAutoReload")
     596                            .dwattr $C$DW$73, DW_AT_TI_symbol_name("uxAutoReload")
     597                            .dwattr $C$DW$73, DW_AT_type(*$C$DW$T$83)
     598                            .dwattr $C$DW$73, DW_AT_location[DW_OP_breg13 8]
     599                    
     600                    $C$DW$74        .dwtag  DW_TAG_variable
     601                            .dwattr $C$DW$74, DW_AT_name("pvTimerID")
     602                            .dwattr $C$DW$74, DW_AT_TI_symbol_name("pvTimerID")
     603                            .dwattr $C$DW$74, DW_AT_type(*$C$DW$T$93)
     604                            .dwattr $C$DW$74, DW_AT_location[DW_OP_breg13 12]
     605                    
TI ARM Assembler PC v15.12.1 Tue Oct 18 10:42:36 2016

Tools Copyright (c) 1996-2015 Texas Instruments Incorporated
timers.asm                                                           PAGE   12

     606                    $C$DW$75        .dwtag  DW_TAG_variable
     607                            .dwattr $C$DW$75, DW_AT_name("pxNewTimer")
     608                            .dwattr $C$DW$75, DW_AT_TI_symbol_name("pxNewTimer")
     609                            .dwattr $C$DW$75, DW_AT_type(*$C$DW$T$47)
     610                            .dwattr $C$DW$75, DW_AT_location[DW_OP_breg13 16]
     611                    
     612 00000040 9303              STR       A4, [SP, #12]         ; [DPU_3_PIPE] |276|  ; [ORIG 16-BIT INS]
     613 00000042 9202              STR       A3, [SP, #8]          ; [DPU_3_PIPE] |276|  ; [ORIG 16-BIT INS]
     614 00000044 9101              STR       A2, [SP, #4]          ; [DPU_3_PIPE] |276|  ; [ORIG 16-BIT INS]
     615 00000046 9000              STR       A1, [SP, #0]          ; [DPU_3_PIPE] |276|  ; [ORIG 16-BIT INS]
     616                            .dwpsn  file "C:/TI_ARM_Tiva_Projects/Source/timers.c",line 280,column 2,is_stmt,isa 1
     617 00000048 9801              LDR       A1, [SP, #4]          ; [DPU_3_PIPE] |280|  ; [ORIG 16-BIT INS]
     618 0000004a B910              CBNZ      A1, ||$C$L2||         ; []  ; [ORIG 16-BIT INS]
     619                            ; BRANCHCC OCCURS {||$C$L2||}    ; [] |280| 
     620                    ;* --------------------------------------------------------------------------*
     621                            .dwpsn  file "C:/TI_ARM_Tiva_Projects/Source/timers.c",line 282,column 3,is_stmt,isa 1
     622 0000004c 2000              MOVS      A1, #0                ; [DPU_3_PIPE] |282|  ; [ORIG 16-BIT INS]
     623 0000004e 9004              STR       A1, [SP, #16]         ; [DPU_3_PIPE] |282|  ; [ORIG 16-BIT INS]
     624                            .dwpsn  file "C:/TI_ARM_Tiva_Projects/Source/timers.c",line 283,column 2,is_stmt,isa 1
     625 00000050 E01A              B         ||$C$L3||             ; [DPU_3_PIPE] |283|  ; [ORIG 16-BIT INS]
     626                            ; BRANCH OCCURS {||$C$L3||}      ; [] |283| 
     627                    ;* --------------------------------------------------------------------------*
     628 00000052           ||$C$L2||:    
     629                            .dwpsn  file "C:/TI_ARM_Tiva_Projects/Source/timers.c",line 286,column 3,is_stmt,isa 1
     630 00000052 202C              MOVS      A1, #44               ; [DPU_3_PIPE] |286|  ; [ORIG 16-BIT INS]
     631                    $C$DW$76        .dwtag  DW_TAG_TI_branch
     632                            .dwattr $C$DW$76, DW_AT_low_pc(0x00)
     633                            .dwattr $C$DW$76, DW_AT_name("pvPortMalloc")
     634                            .dwattr $C$DW$76, DW_AT_TI_call
     635                    
     636 00000054 FFFEF7FF!         BL        pvPortMalloc          ; [DPU_3_PIPE] |286|  ; [KEEP 32-BIT INS]
     637                            ; CALL OCCURS {pvPortMalloc }    ; [] |286| 
     638 00000058 9004              STR       A1, [SP, #16]         ; [DPU_3_PIPE] |286|  ; [ORIG 16-BIT INS]
     639                            .dwpsn  file "C:/TI_ARM_Tiva_Projects/Source/timers.c",line 287,column 3,is_stmt,isa 1
     640 0000005a 9804              LDR       A1, [SP, #16]         ; [DPU_3_PIPE] |287|  ; [ORIG 16-BIT INS]
     641 0000005c B1A0              CBZ       A1, ||$C$L3||         ; []  ; [ORIG 16-BIT INS]
     642                            ; BRANCHCC OCCURS {||$C$L3||}    ; [] |287| 
     643                    ;* --------------------------------------------------------------------------*
     644                            .dwpsn  file "C:/TI_ARM_Tiva_Projects/Source/timers.c",line 291,column 4,is_stmt,isa 1
     645                    $C$DW$77        .dwtag  DW_TAG_TI_branch
     646                            .dwattr $C$DW$77, DW_AT_low_pc(0x00)
     647                            .dwattr $C$DW$77, DW_AT_name("prvCheckForValidListAndQueue")
     648                            .dwattr $C$DW$77, DW_AT_TI_call
     649                    
     650 0000005e FA05F000          BL        prvCheckForValidListAndQueue ; [DPU_3_PIPE] |291|  ; [KEEP 32-BIT INS]
     651                            ; CALL OCCURS {prvCheckForValidListAndQueue }  ; [] |291| 
     652                            .dwpsn  file "C:/TI_ARM_Tiva_Projects/Source/timers.c",line 294,column 4,is_stmt,isa 1
     653 00000062 9800              LDR       A1, [SP, #0]          ; [DPU_3_PIPE] |294|  ; [ORIG 16-BIT INS]
     654 00000064 9904              LDR       A2, [SP, #16]         ; [DPU_3_PIPE] |294|  ; [ORIG 16-BIT INS]
     655 00000066 6008              STR       A1, [A2, #0]          ; [DPU_3_PIPE] |294|  ; [ORIG 16-BIT INS]
     656                            .dwpsn  file "C:/TI_ARM_Tiva_Projects/Source/timers.c",line 295,column 4,is_stmt,isa 1
     657 00000068 9801              LDR       A1, [SP, #4]          ; [DPU_3_PIPE] |295|  ; [ORIG 16-BIT INS]
     658 0000006a 9904              LDR       A2, [SP, #16]         ; [DPU_3_PIPE] |295|  ; [ORIG 16-BIT INS]
     659 0000006c 6188              STR       A1, [A2, #24]         ; [DPU_3_PIPE] |295|  ; [ORIG 16-BIT INS]
     660                            .dwpsn  file "C:/TI_ARM_Tiva_Projects/Source/timers.c",line 296,column 4,is_stmt,isa 1
TI ARM Assembler PC v15.12.1 Tue Oct 18 10:42:36 2016

Tools Copyright (c) 1996-2015 Texas Instruments Incorporated
timers.asm                                                           PAGE   13

     661 0000006e 9802              LDR       A1, [SP, #8]          ; [DPU_3_PIPE] |296|  ; [ORIG 16-BIT INS]
     662 00000070 9904              LDR       A2, [SP, #16]         ; [DPU_3_PIPE] |296|  ; [ORIG 16-BIT INS]
     663 00000072 61C8              STR       A1, [A2, #28]         ; [DPU_3_PIPE] |296|  ; [ORIG 16-BIT INS]
     664                            .dwpsn  file "C:/TI_ARM_Tiva_Projects/Source/timers.c",line 297,column 4,is_stmt,isa 1
     665 00000074 9803              LDR       A1, [SP, #12]         ; [DPU_3_PIPE] |297|  ; [ORIG 16-BIT INS]
     666 00000076 9904              LDR       A2, [SP, #16]         ; [DPU_3_PIPE] |297|  ; [ORIG 16-BIT INS]
     667 00000078 6208              STR       A1, [A2, #32]         ; [DPU_3_PIPE] |297|  ; [ORIG 16-BIT INS]
     668                            .dwpsn  file "C:/TI_ARM_Tiva_Projects/Source/timers.c",line 298,column 4,is_stmt,isa 1
     669 0000007a 9806              LDR       A1, [SP, #24]         ; [DPU_3_PIPE] |298|  ; [ORIG 16-BIT INS]
     670 0000007c 9904              LDR       A2, [SP, #16]         ; [DPU_3_PIPE] |298|  ; [ORIG 16-BIT INS]
     671 0000007e 6248              STR       A1, [A2, #36]         ; [DPU_3_PIPE] |298|  ; [ORIG 16-BIT INS]
     672                            .dwpsn  file "C:/TI_ARM_Tiva_Projects/Source/timers.c",line 299,column 4,is_stmt,isa 1
     673 00000080 9804              LDR       A1, [SP, #16]         ; [DPU_3_PIPE] |299|  ; [ORIG 16-BIT INS]
     674 00000082 1D00              ADDS      A1, A1, #4            ; [DPU_3_PIPE] |299|  ; [ORIG 16-BIT INS]
     675                    $C$DW$78        .dwtag  DW_TAG_TI_branch
     676                            .dwattr $C$DW$78, DW_AT_low_pc(0x00)
     677                            .dwattr $C$DW$78, DW_AT_name("vListInitialiseItem")
     678                            .dwattr $C$DW$78, DW_AT_TI_call
     679                    
     680 00000084 FFFEF7FF!         BL        vListInitialiseItem   ; [DPU_3_PIPE] |299|  ; [KEEP 32-BIT INS]
     681                            ; CALL OCCURS {vListInitialiseItem }  ; [] |299| 
     682                            .dwpsn  file "C:/TI_ARM_Tiva_Projects/Source/timers.c",line 302,column 3,is_stmt,isa 1
     683                    ;* --------------------------------------------------------------------------*
     684 00000088           ||$C$L3||:    
     685                            .dwpsn  file "C:/TI_ARM_Tiva_Projects/Source/timers.c",line 312,column 2,is_stmt,isa 1
     686 00000088 9804              LDR       A1, [SP, #16]         ; [DPU_3_PIPE] |312|  ; [ORIG 16-BIT INS]
     687                            .dwpsn  file "C:/TI_ARM_Tiva_Projects/Source/timers.c",line 313,column 1,is_stmt,isa 1
     688 0000008a B005              ADD       SP, SP, #20           ; [DPU_3_PIPE]  ; [ORIG 16-BIT INS]
     689                            .dwcfi  cfa_offset, 4
     690                    $C$DW$79        .dwtag  DW_TAG_TI_branch
     691                            .dwattr $C$DW$79, DW_AT_low_pc(0x00)
     692                            .dwattr $C$DW$79, DW_AT_TI_return
     693                    
     694 0000008c BD00              POP       {PC}                  ; [DPU_3_PIPE]  ; [ORIG 16-BIT INS]
     695                            .dwcfi  cfa_offset, 0
     696                            ; BRANCH OCCURS                  ; [] 
     697                            .dwattr $C$DW$65, DW_AT_TI_end_file("C:/TI_ARM_Tiva_Projects/Source/timers.c")
     698                            .dwattr $C$DW$65, DW_AT_TI_end_line(0x139)
     699                            .dwattr $C$DW$65, DW_AT_TI_end_column(0x01)
     700                            .dwendentry
     701                            .dwendtag $C$DW$65
     702                    
     703 0000008e                   .sect   ".text"
     704                            .clink
     705                            .thumbfunc xTimerGenericCommand
     706 0000008e                   .thumb
     707                            .global xTimerGenericCommand
     708                    
     709                    $C$DW$80        .dwtag  DW_TAG_subprogram
     710                            .dwattr $C$DW$80, DW_AT_name("xTimerGenericCommand")
     711                            .dwattr $C$DW$80, DW_AT_low_pc(xTimerGenericCommand)
     712                            .dwattr $C$DW$80, DW_AT_high_pc(0x00)
     713                            .dwattr $C$DW$80, DW_AT_TI_symbol_name("xTimerGenericCommand")
     714                            .dwattr $C$DW$80, DW_AT_external
     715                            .dwattr $C$DW$80, DW_AT_type(*$C$DW$T$50)
TI ARM Assembler PC v15.12.1 Tue Oct 18 10:42:36 2016

Tools Copyright (c) 1996-2015 Texas Instruments Incorporated
timers.asm                                                           PAGE   14

     716                            .dwattr $C$DW$80, DW_AT_TI_begin_file("C:/TI_ARM_Tiva_Projects/Source/timers.c")
     717                            .dwattr $C$DW$80, DW_AT_TI_begin_line(0x13c)
     718                            .dwattr $C$DW$80, DW_AT_TI_begin_column(0x0c)
     719                            .dwattr $C$DW$80, DW_AT_decl_file("C:/TI_ARM_Tiva_Projects/Source/timers.c")
     720                            .dwattr $C$DW$80, DW_AT_decl_line(0x13c)
     721                            .dwattr $C$DW$80, DW_AT_decl_column(0x0c)
     722                            .dwattr $C$DW$80, DW_AT_TI_max_frame_size(0x28)
     723                            .dwpsn  file "C:/TI_ARM_Tiva_Projects/Source/timers.c",line 317,column 1,is_stmt,address xTime
     724                    
     725                            .dwfde $C$DW$CIE, xTimerGenericCommand
     726                    $C$DW$81        .dwtag  DW_TAG_formal_parameter
     727                            .dwattr $C$DW$81, DW_AT_name("xTimer")
     728                            .dwattr $C$DW$81, DW_AT_TI_symbol_name("xTimer")
     729                            .dwattr $C$DW$81, DW_AT_type(*$C$DW$T$40)
     730                            .dwattr $C$DW$81, DW_AT_location[DW_OP_reg0]
     731                    
     732                    $C$DW$82        .dwtag  DW_TAG_formal_parameter
     733                            .dwattr $C$DW$82, DW_AT_name("xCommandID")
     734                            .dwattr $C$DW$82, DW_AT_TI_symbol_name("xCommandID")
     735                            .dwattr $C$DW$82, DW_AT_type(*$C$DW$T$116)
     736                            .dwattr $C$DW$82, DW_AT_location[DW_OP_reg1]
     737                    
     738                    $C$DW$83        .dwtag  DW_TAG_formal_parameter
     739                            .dwattr $C$DW$83, DW_AT_name("xOptionalValue")
     740                            .dwattr $C$DW$83, DW_AT_TI_symbol_name("xOptionalValue")
     741                            .dwattr $C$DW$83, DW_AT_type(*$C$DW$T$92)
     742                            .dwattr $C$DW$83, DW_AT_location[DW_OP_reg2]
     743                    
     744                    $C$DW$84        .dwtag  DW_TAG_formal_parameter
     745                            .dwattr $C$DW$84, DW_AT_name("pxHigherPriorityTaskWoken")
     746                            .dwattr $C$DW$84, DW_AT_TI_symbol_name("pxHigherPriorityTaskWoken")
     747                            .dwattr $C$DW$84, DW_AT_type(*$C$DW$T$150)
     748                            .dwattr $C$DW$84, DW_AT_location[DW_OP_reg3]
     749                    
     750                    $C$DW$85        .dwtag  DW_TAG_formal_parameter
     751                            .dwattr $C$DW$85, DW_AT_name("xTicksToWait")
     752                            .dwattr $C$DW$85, DW_AT_TI_symbol_name("xTicksToWait")
     753                            .dwattr $C$DW$85, DW_AT_type(*$C$DW$T$92)
     754                            .dwattr $C$DW$85, DW_AT_location[DW_OP_breg13 40]
     755                    
     756                    
     757                    ;*****************************************************************************
     758                    ;* FUNCTION NAME: xTimerGenericCommand                                       *
     759                    ;*                                                                           *
     760                    ;*   Regs Modified     : A1,A2,A3,A4,V9,SP,LR,SR,D0,D0_hi,D1,D1_hi,D2,D2_hi, *
     761                    ;*                           D3,D3_hi,D4,D4_hi,D5,D5_hi,D6,D6_hi,D7,D7_hi,   *
     762                    ;*                           FPEXC,FPSCR                                     *
     763                    ;*   Regs Used         : A1,A2,A3,A4,V9,SP,LR,SR,D0,D0_hi,D1,D1_hi,D2,D2_hi, *
     764                    ;*                           D3,D3_hi,D4,D4_hi,D5,D5_hi,D6,D6_hi,D7,D7_hi,   *
     765                    ;*                           FPEXC,FPSCR                                     *
     766                    ;*   Local Frame Size  : 0 Args + 32 Auto + 4 Save = 36 byte                 *
     767                    ;*****************************************************************************
     768 0000008e           xTimerGenericCommand:
     769                    ;* --------------------------------------------------------------------------*
     770                            .dwcfi  cfa_offset, 0
TI ARM Assembler PC v15.12.1 Tue Oct 18 10:42:36 2016

Tools Copyright (c) 1996-2015 Texas Instruments Incorporated
timers.asm                                                           PAGE   15

     771 0000008e B500              PUSH      {LR}                  ; [DPU_3_PIPE]  ; [ORIG 16-BIT INS]
     772                            .dwcfi  cfa_offset, 4
     773                            .dwcfi  save_reg_to_mem, 14, -4
     774 00000090 0D24F1AD          SUB       SP, SP, #36           ; [DPU_3_PIPE]  ; [KEEP 32-BIT INS]
     775                            .dwcfi  cfa_offset, 40
     776                    $C$DW$86        .dwtag  DW_TAG_variable
     777                            .dwattr $C$DW$86, DW_AT_name("xTimer")
     778                            .dwattr $C$DW$86, DW_AT_TI_symbol_name("xTimer")
     779                            .dwattr $C$DW$86, DW_AT_type(*$C$DW$T$40)
     780                            .dwattr $C$DW$86, DW_AT_location[DW_OP_breg13 0]
     781                    
     782                    $C$DW$87        .dwtag  DW_TAG_variable
     783                            .dwattr $C$DW$87, DW_AT_name("xCommandID")
     784                            .dwattr $C$DW$87, DW_AT_TI_symbol_name("xCommandID")
     785                            .dwattr $C$DW$87, DW_AT_type(*$C$DW$T$116)
     786                            .dwattr $C$DW$87, DW_AT_location[DW_OP_breg13 4]
     787                    
     788                    $C$DW$88        .dwtag  DW_TAG_variable
     789                            .dwattr $C$DW$88, DW_AT_name("xOptionalValue")
     790                            .dwattr $C$DW$88, DW_AT_TI_symbol_name("xOptionalValue")
     791                            .dwattr $C$DW$88, DW_AT_type(*$C$DW$T$92)
     792                            .dwattr $C$DW$88, DW_AT_location[DW_OP_breg13 8]
     793                    
     794                    $C$DW$89        .dwtag  DW_TAG_variable
     795                            .dwattr $C$DW$89, DW_AT_name("pxHigherPriorityTaskWoken")
     796                            .dwattr $C$DW$89, DW_AT_TI_symbol_name("pxHigherPriorityTaskWoken")
     797                            .dwattr $C$DW$89, DW_AT_type(*$C$DW$T$150)
     798                            .dwattr $C$DW$89, DW_AT_location[DW_OP_breg13 12]
     799                    
     800                    $C$DW$90        .dwtag  DW_TAG_variable
     801                            .dwattr $C$DW$90, DW_AT_name("xReturn")
     802                            .dwattr $C$DW$90, DW_AT_TI_symbol_name("xReturn")
     803                            .dwattr $C$DW$90, DW_AT_type(*$C$DW$T$50)
     804                            .dwattr $C$DW$90, DW_AT_location[DW_OP_breg13 16]
     805                    
     806                    $C$DW$91        .dwtag  DW_TAG_variable
     807                            .dwattr $C$DW$91, DW_AT_name("xMessage")
     808                            .dwattr $C$DW$91, DW_AT_TI_symbol_name("xMessage")
     809                            .dwattr $C$DW$91, DW_AT_type(*$C$DW$T$200)
     810                            .dwattr $C$DW$91, DW_AT_location[DW_OP_breg13 20]
     811                    
     812 00000094 9303              STR       A4, [SP, #12]         ; [DPU_3_PIPE] |317|  ; [ORIG 16-BIT INS]
     813 00000096 9202              STR       A3, [SP, #8]          ; [DPU_3_PIPE] |317|  ; [ORIG 16-BIT INS]
     814 00000098 9101              STR       A2, [SP, #4]          ; [DPU_3_PIPE] |317|  ; [ORIG 16-BIT INS]
     815 0000009a 9000              STR       A1, [SP, #0]          ; [DPU_3_PIPE] |317|  ; [ORIG 16-BIT INS]
     816                            .dwpsn  file "C:/TI_ARM_Tiva_Projects/Source/timers.c",line 318,column 20,is_stmt,isa 1
     817 0000009c 2000              MOVS      A1, #0                ; [DPU_3_PIPE] |318|  ; [ORIG 16-BIT INS]
     818 0000009e 9004              STR       A1, [SP, #16]         ; [DPU_3_PIPE] |318|  ; [ORIG 16-BIT INS]
     819                            .dwpsn  file "C:/TI_ARM_Tiva_Projects/Source/timers.c",line 325,column 2,is_stmt,isa 1
     820 000000a0 4871              LDR       A1, $C$CON1           ; [DPU_3_PIPE] |325|  ; [ORIG 16-BIT INS]
     821 000000a2 6800              LDR       A1, [A1, #0]          ; [DPU_3_PIPE] |325|  ; [ORIG 16-BIT INS]
     822 000000a4 2800              CMP       A1, #0                ; [DPU_3_PIPE] |325|  ; [ORIG 16-BIT INS]
     823 000000a6 D026              BEQ       ||$C$L6||             ; [DPU_3_PIPE] |325|  ; [ORIG 16-BIT INS]
     824                            ; BRANCHCC OCCURS {||$C$L6||}    ; [] |325| 
     825                    ;* --------------------------------------------------------------------------*
TI ARM Assembler PC v15.12.1 Tue Oct 18 10:42:36 2016

Tools Copyright (c) 1996-2015 Texas Instruments Incorporated
timers.asm                                                           PAGE   16

     826                            .dwpsn  file "C:/TI_ARM_Tiva_Projects/Source/timers.c",line 328,column 3,is_stmt,isa 1
     827 000000a8 9801              LDR       A1, [SP, #4]          ; [DPU_3_PIPE] |328|  ; [ORIG 16-BIT INS]
     828 000000aa 9005              STR       A1, [SP, #20]         ; [DPU_3_PIPE] |328|  ; [ORIG 16-BIT INS]
     829                            .dwpsn  file "C:/TI_ARM_Tiva_Projects/Source/timers.c",line 329,column 3,is_stmt,isa 1
     830 000000ac 9802              LDR       A1, [SP, #8]          ; [DPU_3_PIPE] |329|  ; [ORIG 16-BIT INS]
     831 000000ae 9006              STR       A1, [SP, #24]         ; [DPU_3_PIPE] |329|  ; [ORIG 16-BIT INS]
     832                            .dwpsn  file "C:/TI_ARM_Tiva_Projects/Source/timers.c",line 330,column 3,is_stmt,isa 1
     833 000000b0 9800              LDR       A1, [SP, #0]          ; [DPU_3_PIPE] |330|  ; [ORIG 16-BIT INS]
     834 000000b2 9007              STR       A1, [SP, #28]         ; [DPU_3_PIPE] |330|  ; [ORIG 16-BIT INS]
     835                            .dwpsn  file "C:/TI_ARM_Tiva_Projects/Source/timers.c",line 332,column 3,is_stmt,isa 1
     836 000000b4 9801              LDR       A1, [SP, #4]          ; [DPU_3_PIPE] |332|  ; [ORIG 16-BIT INS]
     837 000000b6 2806              CMP       A1, #6                ; [DPU_3_PIPE] |332|  ; [ORIG 16-BIT INS]
     838 000000b8 DA15              BGE       ||$C$L5||             ; [DPU_3_PIPE] |332|  ; [ORIG 16-BIT INS]
     839                            ; BRANCHCC OCCURS {||$C$L5||}    ; [] |332| 
     840                    ;* --------------------------------------------------------------------------*
     841                            .dwpsn  file "C:/TI_ARM_Tiva_Projects/Source/timers.c",line 334,column 4,is_stmt,isa 1
     842                    $C$DW$92        .dwtag  DW_TAG_TI_branch
     843                            .dwattr $C$DW$92, DW_AT_low_pc(0x00)
     844                            .dwattr $C$DW$92, DW_AT_name("xTaskGetSchedulerState")
     845                            .dwattr $C$DW$92, DW_AT_TI_call
     846                    
     847 000000ba FFFEF7FF!         BL        xTaskGetSchedulerState ; [DPU_3_PIPE] |334|  ; [KEEP 32-BIT INS]
     848                            ; CALL OCCURS {xTaskGetSchedulerState }  ; [] |334| 
     849 000000be 2802              CMP       A1, #2                ; [DPU_3_PIPE] |334|  ; [ORIG 16-BIT INS]
     850 000000c0 D108              BNE       ||$C$L4||             ; [DPU_3_PIPE] |334|  ; [ORIG 16-BIT INS]
     851                            ; BRANCHCC OCCURS {||$C$L4||}    ; [] |334| 
     852                    ;* --------------------------------------------------------------------------*
     853                            .dwpsn  file "C:/TI_ARM_Tiva_Projects/Source/timers.c",line 336,column 5,is_stmt,isa 1
     854 000000c2 4869              LDR       A1, $C$CON1           ; [DPU_3_PIPE] |336|  ; [ORIG 16-BIT INS]
     855 000000c4 9A0A              LDR       A3, [SP, #40]         ; [DPU_3_PIPE] |336|  ; [ORIG 16-BIT INS]
     856 000000c6 6800              LDR       A1, [A1, #0]          ; [DPU_3_PIPE] |336|  ; [ORIG 16-BIT INS]
     857 000000c8 A905              ADD       A2, SP, #20           ; [DPU_3_PIPE] |336|  ; [ORIG 16-BIT INS]
     858 000000ca 2300              MOVS      A4, #0                ; [DPU_3_PIPE] |336|  ; [ORIG 16-BIT INS]
     859                    $C$DW$93        .dwtag  DW_TAG_TI_branch
     860                            .dwattr $C$DW$93, DW_AT_low_pc(0x00)
     861                            .dwattr $C$DW$93, DW_AT_name("xQueueGenericSend")
     862                            .dwattr $C$DW$93, DW_AT_TI_call
     863                    
     864 000000cc FFFEF7FF!         BL        xQueueGenericSend     ; [DPU_3_PIPE] |336|  ; [KEEP 32-BIT INS]
     865                            ; CALL OCCURS {xQueueGenericSend }  ; [] |336| 
     866 000000d0 9004              STR       A1, [SP, #16]         ; [DPU_3_PIPE] |336|  ; [ORIG 16-BIT INS]
     867                            .dwpsn  file "C:/TI_ARM_Tiva_Projects/Source/timers.c",line 337,column 4,is_stmt,isa 1
     868 000000d2 E010              B         ||$C$L6||             ; [DPU_3_PIPE] |337|  ; [ORIG 16-BIT INS]
     869                            ; BRANCH OCCURS {||$C$L6||}      ; [] |337| 
     870                    ;* --------------------------------------------------------------------------*
     871 000000d4           ||$C$L4||:    
     872                            .dwpsn  file "C:/TI_ARM_Tiva_Projects/Source/timers.c",line 340,column 5,is_stmt,isa 1
     873 000000d4 4864              LDR       A1, $C$CON1           ; [DPU_3_PIPE] |340|  ; [ORIG 16-BIT INS]
     874 000000d6 6800              LDR       A1, [A1, #0]          ; [DPU_3_PIPE] |340|  ; [ORIG 16-BIT INS]
     875 000000d8 A905              ADD       A2, SP, #20           ; [DPU_3_PIPE] |340|  ; [ORIG 16-BIT INS]
     876 000000da 2200              MOVS      A3, #0                ; [DPU_3_PIPE] |340|  ; [ORIG 16-BIT INS]
     877 000000dc 2300              MOVS      A4, #0                ; [DPU_3_PIPE] |340|  ; [ORIG 16-BIT INS]
     878                    $C$DW$94        .dwtag  DW_TAG_TI_branch
     879                            .dwattr $C$DW$94, DW_AT_low_pc(0x00)
     880                            .dwattr $C$DW$94, DW_AT_name("xQueueGenericSend")
TI ARM Assembler PC v15.12.1 Tue Oct 18 10:42:36 2016

Tools Copyright (c) 1996-2015 Texas Instruments Incorporated
timers.asm                                                           PAGE   17

     881                            .dwattr $C$DW$94, DW_AT_TI_call
     882                    
     883 000000de FFFEF7FF!         BL        xQueueGenericSend     ; [DPU_3_PIPE] |340|  ; [KEEP 32-BIT INS]
     884                            ; CALL OCCURS {xQueueGenericSend }  ; [] |340| 
     885 000000e2 9004              STR       A1, [SP, #16]         ; [DPU_3_PIPE] |340|  ; [ORIG 16-BIT INS]
     886                            .dwpsn  file "C:/TI_ARM_Tiva_Projects/Source/timers.c",line 342,column 3,is_stmt,isa 1
     887 000000e4 E007              B         ||$C$L6||             ; [DPU_3_PIPE] |342|  ; [ORIG 16-BIT INS]
     888                            ; BRANCH OCCURS {||$C$L6||}      ; [] |342| 
     889                    ;* --------------------------------------------------------------------------*
     890 000000e6           ||$C$L5||:    
     891                            .dwpsn  file "C:/TI_ARM_Tiva_Projects/Source/timers.c",line 345,column 4,is_stmt,isa 1
     892 000000e6 4860              LDR       A1, $C$CON1           ; [DPU_3_PIPE] |345|  ; [ORIG 16-BIT INS]
     893 000000e8 9A03              LDR       A3, [SP, #12]         ; [DPU_3_PIPE] |345|  ; [ORIG 16-BIT INS]
     894 000000ea 6800              LDR       A1, [A1, #0]          ; [DPU_3_PIPE] |345|  ; [ORIG 16-BIT INS]
     895 000000ec A905              ADD       A2, SP, #20           ; [DPU_3_PIPE] |345|  ; [ORIG 16-BIT INS]
     896 000000ee 2300              MOVS      A4, #0                ; [DPU_3_PIPE] |345|  ; [ORIG 16-BIT INS]
     897                    $C$DW$95        .dwtag  DW_TAG_TI_branch
     898                            .dwattr $C$DW$95, DW_AT_low_pc(0x00)
     899                            .dwattr $C$DW$95, DW_AT_name("xQueueGenericSendFromISR")
     900                            .dwattr $C$DW$95, DW_AT_TI_call
     901                    
     902 000000f0 FFFEF7FF!         BL        xQueueGenericSendFromISR ; [DPU_3_PIPE] |345|  ; [KEEP 32-BIT INS]
     903                            ; CALL OCCURS {xQueueGenericSendFromISR }  ; [] |345| 
     904 000000f4 9004              STR       A1, [SP, #16]         ; [DPU_3_PIPE] |345|  ; [ORIG 16-BIT INS]
     905                            .dwpsn  file "C:/TI_ARM_Tiva_Projects/Source/timers.c",line 349,column 2,is_stmt,isa 1
     906                    ;* --------------------------------------------------------------------------*
     907 000000f6           ||$C$L6||:    
     908                            .dwpsn  file "C:/TI_ARM_Tiva_Projects/Source/timers.c",line 355,column 2,is_stmt,isa 1
     909 000000f6 9804              LDR       A1, [SP, #16]         ; [DPU_3_PIPE] |355|  ; [ORIG 16-BIT INS]
     910                            .dwpsn  file "C:/TI_ARM_Tiva_Projects/Source/timers.c",line 356,column 1,is_stmt,isa 1
     911 000000f8 B009              ADD       SP, SP, #36           ; [DPU_3_PIPE]  ; [ORIG 16-BIT INS]
     912                            .dwcfi  cfa_offset, 4
     913                    $C$DW$96        .dwtag  DW_TAG_TI_branch
     914                            .dwattr $C$DW$96, DW_AT_low_pc(0x00)
     915                            .dwattr $C$DW$96, DW_AT_TI_return
     916                    
     917 000000fa BD00              POP       {PC}                  ; [DPU_3_PIPE]  ; [ORIG 16-BIT INS]
     918                            .dwcfi  cfa_offset, 0
     919                            ; BRANCH OCCURS                  ; [] 
     920                            .dwattr $C$DW$80, DW_AT_TI_end_file("C:/TI_ARM_Tiva_Projects/Source/timers.c")
     921                            .dwattr $C$DW$80, DW_AT_TI_end_line(0x164)
     922                            .dwattr $C$DW$80, DW_AT_TI_end_column(0x01)
     923                            .dwendentry
     924                            .dwendtag $C$DW$80
     925                    
     926 000000fc                   .sect   ".text"
     927                            .clink
     928                            .thumbfunc pcTimerGetTimerName
     929 000000fc                   .thumb
     930                            .global pcTimerGetTimerName
     931                    
     932                    $C$DW$97        .dwtag  DW_TAG_subprogram
     933                            .dwattr $C$DW$97, DW_AT_name("pcTimerGetTimerName")
     934                            .dwattr $C$DW$97, DW_AT_low_pc(pcTimerGetTimerName)
     935                            .dwattr $C$DW$97, DW_AT_high_pc(0x00)
TI ARM Assembler PC v15.12.1 Tue Oct 18 10:42:36 2016

Tools Copyright (c) 1996-2015 Texas Instruments Incorporated
timers.asm                                                           PAGE   18

     936                            .dwattr $C$DW$97, DW_AT_TI_symbol_name("pcTimerGetTimerName")
     937                            .dwattr $C$DW$97, DW_AT_external
     938                            .dwattr $C$DW$97, DW_AT_type(*$C$DW$T$36)
     939                            .dwattr $C$DW$97, DW_AT_TI_begin_file("C:/TI_ARM_Tiva_Projects/Source/timers.c")
     940                            .dwattr $C$DW$97, DW_AT_TI_begin_line(0x174)
     941                            .dwattr $C$DW$97, DW_AT_TI_begin_column(0x0e)
     942                            .dwattr $C$DW$97, DW_AT_decl_file("C:/TI_ARM_Tiva_Projects/Source/timers.c")
     943                            .dwattr $C$DW$97, DW_AT_decl_line(0x174)
     944                            .dwattr $C$DW$97, DW_AT_decl_column(0x0e)
     945                            .dwattr $C$DW$97, DW_AT_TI_max_frame_size(0x08)
     946                            .dwpsn  file "C:/TI_ARM_Tiva_Projects/Source/timers.c",line 373,column 1,is_stmt,address pcTim
     947                    
     948                            .dwfde $C$DW$CIE, pcTimerGetTimerName
     949                    $C$DW$98        .dwtag  DW_TAG_formal_parameter
     950                            .dwattr $C$DW$98, DW_AT_name("xTimer")
     951                            .dwattr $C$DW$98, DW_AT_TI_symbol_name("xTimer")
     952                            .dwattr $C$DW$98, DW_AT_type(*$C$DW$T$40)
     953                            .dwattr $C$DW$98, DW_AT_location[DW_OP_reg0]
     954                    
     955                    
     956                    ;*****************************************************************************
     957                    ;* FUNCTION NAME: pcTimerGetTimerName                                        *
     958                    ;*                                                                           *
     959                    ;*   Regs Modified     : A1,SP                                               *
     960                    ;*   Regs Used         : A1,SP,LR                                            *
     961                    ;*   Local Frame Size  : 0 Args + 8 Auto + 0 Save = 8 byte                   *
     962                    ;*****************************************************************************
     963 000000fc           pcTimerGetTimerName:
     964                    ;* --------------------------------------------------------------------------*
     965                            .dwcfi  cfa_offset, 0
     966 000000fc 0D08F1AD          SUB       SP, SP, #8            ; [DPU_3_PIPE]  ; [KEEP 32-BIT INS]
     967                            .dwcfi  cfa_offset, 8
     968                    $C$DW$99        .dwtag  DW_TAG_variable
     969                            .dwattr $C$DW$99, DW_AT_name("xTimer")
     970                            .dwattr $C$DW$99, DW_AT_TI_symbol_name("xTimer")
     971                            .dwattr $C$DW$99, DW_AT_type(*$C$DW$T$40)
     972                            .dwattr $C$DW$99, DW_AT_location[DW_OP_breg13 0]
     973                    
     974                    $C$DW$100       .dwtag  DW_TAG_variable
     975                            .dwattr $C$DW$100, DW_AT_name("pxTimer")
     976                            .dwattr $C$DW$100, DW_AT_TI_symbol_name("pxTimer")
     977                            .dwattr $C$DW$100, DW_AT_type(*$C$DW$T$47)
     978                            .dwattr $C$DW$100, DW_AT_location[DW_OP_breg13 4]
     979                    
     980 00000100 9000              STR       A1, [SP, #0]          ; [DPU_3_PIPE] |373|  ; [ORIG 16-BIT INS]
     981                            .dwpsn  file "C:/TI_ARM_Tiva_Projects/Source/timers.c",line 374,column 18,is_stmt,isa 1
     982 00000102 9800              LDR       A1, [SP, #0]          ; [DPU_3_PIPE] |374|  ; [ORIG 16-BIT INS]
     983 00000104 9001              STR       A1, [SP, #4]          ; [DPU_3_PIPE] |374|  ; [ORIG 16-BIT INS]
     984                            .dwpsn  file "C:/TI_ARM_Tiva_Projects/Source/timers.c",line 377,column 2,is_stmt,isa 1
     985 00000106 9801              LDR       A1, [SP, #4]          ; [DPU_3_PIPE] |377|  ; [ORIG 16-BIT INS]
     986 00000108 6800              LDR       A1, [A1, #0]          ; [DPU_3_PIPE] |377|  ; [ORIG 16-BIT INS]
     987                            .dwpsn  file "C:/TI_ARM_Tiva_Projects/Source/timers.c",line 378,column 1,is_stmt,isa 1
     988 0000010a B002              ADD       SP, SP, #8            ; [DPU_3_PIPE]  ; [ORIG 16-BIT INS]
     989                            .dwcfi  cfa_offset, 0
     990                    $C$DW$101       .dwtag  DW_TAG_TI_branch
TI ARM Assembler PC v15.12.1 Tue Oct 18 10:42:36 2016

Tools Copyright (c) 1996-2015 Texas Instruments Incorporated
timers.asm                                                           PAGE   19

     991                            .dwattr $C$DW$101, DW_AT_low_pc(0x00)
     992                            .dwattr $C$DW$101, DW_AT_TI_return
     993                    
     994 0000010c 4770              BX        LR                    ; [DPU_3_PIPE]  ; [ORIG 16-BIT INS]
     995                            ; BRANCH OCCURS                  ; [] 
     996                            .dwattr $C$DW$97, DW_AT_TI_end_file("C:/TI_ARM_Tiva_Projects/Source/timers.c")
     997                            .dwattr $C$DW$97, DW_AT_TI_end_line(0x17a)
     998                            .dwattr $C$DW$97, DW_AT_TI_end_column(0x01)
     999                            .dwendentry
    1000                            .dwendtag $C$DW$97
    1001                    
    1002 0000010e                   .sect   ".text"
    1003                            .clink
    1004                            .thumbfunc prvProcessExpiredTimer
    1005 0000010e                   .thumb
    1006                    
    1007                    $C$DW$102       .dwtag  DW_TAG_subprogram
    1008                            .dwattr $C$DW$102, DW_AT_name("prvProcessExpiredTimer")
    1009                            .dwattr $C$DW$102, DW_AT_low_pc(prvProcessExpiredTimer)
    1010                            .dwattr $C$DW$102, DW_AT_high_pc(0x00)
    1011                            .dwattr $C$DW$102, DW_AT_TI_symbol_name("prvProcessExpiredTimer")
    1012                            .dwattr $C$DW$102, DW_AT_TI_begin_file("C:/TI_ARM_Tiva_Projects/Source/timers.c")
    1013                            .dwattr $C$DW$102, DW_AT_TI_begin_line(0x17d)
    1014                            .dwattr $C$DW$102, DW_AT_TI_begin_column(0x0d)
    1015                            .dwattr $C$DW$102, DW_AT_decl_file("C:/TI_ARM_Tiva_Projects/Source/timers.c")
    1016                            .dwattr $C$DW$102, DW_AT_decl_line(0x17d)
    1017                            .dwattr $C$DW$102, DW_AT_decl_column(0x0d)
    1018                            .dwattr $C$DW$102, DW_AT_TI_max_frame_size(0x18)
    1019                            .dwpsn  file "C:/TI_ARM_Tiva_Projects/Source/timers.c",line 382,column 1,is_stmt,address prvPr
    1020                    
    1021                            .dwfde $C$DW$CIE, prvProcessExpiredTimer
    1022                    $C$DW$103       .dwtag  DW_TAG_formal_parameter
    1023                            .dwattr $C$DW$103, DW_AT_name("xNextExpireTime")
    1024                            .dwattr $C$DW$103, DW_AT_TI_symbol_name("xNextExpireTime")
    1025                            .dwattr $C$DW$103, DW_AT_type(*$C$DW$T$92)
    1026                            .dwattr $C$DW$103, DW_AT_location[DW_OP_reg0]
    1027                    
    1028                    $C$DW$104       .dwtag  DW_TAG_formal_parameter
    1029                            .dwattr $C$DW$104, DW_AT_name("xTimeNow")
    1030                            .dwattr $C$DW$104, DW_AT_TI_symbol_name("xTimeNow")
    1031                            .dwattr $C$DW$104, DW_AT_type(*$C$DW$T$92)
    1032                            .dwattr $C$DW$104, DW_AT_location[DW_OP_reg1]
    1033                    
    1034                    
    1035                    ;*****************************************************************************
    1036                    ;* FUNCTION NAME: prvProcessExpiredTimer                                     *
    1037                    ;*                                                                           *
    1038                    ;*   Regs Modified     : A1,A2,A3,A4,V9,SP,LR,SR,D0,D0_hi,D1,D1_hi,D2,D2_hi, *
    1039                    ;*                           D3,D3_hi,D4,D4_hi,D5,D5_hi,D6,D6_hi,D7,D7_hi,   *
    1040                    ;*                           FPEXC,FPSCR                                     *
    1041                    ;*   Regs Used         : A1,A2,A3,A4,V9,SP,LR,SR,D0,D0_hi,D1,D1_hi,D2,D2_hi, *
    1042                    ;*                           D3,D3_hi,D4,D4_hi,D5,D5_hi,D6,D6_hi,D7,D7_hi,   *
    1043                    ;*                           FPEXC,FPSCR                                     *
    1044                    ;*   Local Frame Size  : 4 Args + 16 Auto + 4 Save = 24 byte                 *
    1045                    ;*****************************************************************************
TI ARM Assembler PC v15.12.1 Tue Oct 18 10:42:36 2016

Tools Copyright (c) 1996-2015 Texas Instruments Incorporated
timers.asm                                                           PAGE   20

    1046 0000010e           prvProcessExpiredTimer:
    1047                    ;* --------------------------------------------------------------------------*
    1048                            .dwcfi  cfa_offset, 0
    1049 0000010e B500              PUSH      {LR}                  ; [DPU_3_PIPE]  ; [ORIG 16-BIT INS]
    1050                            .dwcfi  cfa_offset, 4
    1051                            .dwcfi  save_reg_to_mem, 14, -4
    1052 00000110 0D14F1AD          SUB       SP, SP, #20           ; [DPU_3_PIPE]  ; [KEEP 32-BIT INS]
    1053                            .dwcfi  cfa_offset, 24
    1054                    $C$DW$105       .dwtag  DW_TAG_variable
    1055                            .dwattr $C$DW$105, DW_AT_name("xNextExpireTime")
    1056                            .dwattr $C$DW$105, DW_AT_TI_symbol_name("xNextExpireTime")
    1057                            .dwattr $C$DW$105, DW_AT_type(*$C$DW$T$92)
    1058                            .dwattr $C$DW$105, DW_AT_location[DW_OP_breg13 4]
    1059                    
    1060                    $C$DW$106       .dwtag  DW_TAG_variable
    1061                            .dwattr $C$DW$106, DW_AT_name("xTimeNow")
    1062                            .dwattr $C$DW$106, DW_AT_TI_symbol_name("xTimeNow")
    1063                            .dwattr $C$DW$106, DW_AT_type(*$C$DW$T$92)
    1064                            .dwattr $C$DW$106, DW_AT_location[DW_OP_breg13 8]
    1065                    
    1066                    $C$DW$107       .dwtag  DW_TAG_variable
    1067                            .dwattr $C$DW$107, DW_AT_name("xResult")
    1068                            .dwattr $C$DW$107, DW_AT_TI_symbol_name("xResult")
    1069                            .dwattr $C$DW$107, DW_AT_type(*$C$DW$T$50)
    1070                            .dwattr $C$DW$107, DW_AT_location[DW_OP_breg13 12]
    1071                    
    1072                    $C$DW$108       .dwtag  DW_TAG_variable
    1073                            .dwattr $C$DW$108, DW_AT_name("pxTimer")
    1074                            .dwattr $C$DW$108, DW_AT_TI_symbol_name("pxTimer")
    1075                            .dwattr $C$DW$108, DW_AT_type(*$C$DW$T$155)
    1076                            .dwattr $C$DW$108, DW_AT_location[DW_OP_breg13 16]
    1077                    
    1078 00000114 9102              STR       A2, [SP, #8]          ; [DPU_3_PIPE] |382|  ; [ORIG 16-BIT INS]
    1079 00000116 9001              STR       A1, [SP, #4]          ; [DPU_3_PIPE] |382|  ; [ORIG 16-BIT INS]
    1080                            .dwpsn  file "C:/TI_ARM_Tiva_Projects/Source/timers.c",line 384,column 25,is_stmt,isa 1
    1081 00000118 4871              LDR       A1, $C$CON3           ; [DPU_3_PIPE] |384|  ; [ORIG 16-BIT INS]
    1082 0000011a 6800              LDR       A1, [A1, #0]          ; [DPU_3_PIPE] |384|  ; [ORIG 16-BIT INS]
    1083 0000011c 68C0              LDR       A1, [A1, #12]         ; [DPU_3_PIPE] |384|  ; [ORIG 16-BIT INS]
    1084 0000011e 68C0              LDR       A1, [A1, #12]         ; [DPU_3_PIPE] |384|  ; [ORIG 16-BIT INS]
    1085 00000120 9004              STR       A1, [SP, #16]         ; [DPU_3_PIPE] |384|  ; [ORIG 16-BIT INS]
    1086                            .dwpsn  file "C:/TI_ARM_Tiva_Projects/Source/timers.c",line 388,column 2,is_stmt,isa 1
    1087 00000122 9804              LDR       A1, [SP, #16]         ; [DPU_3_PIPE] |388|  ; [ORIG 16-BIT INS]
    1088 00000124 1D00              ADDS      A1, A1, #4            ; [DPU_3_PIPE] |388|  ; [ORIG 16-BIT INS]
    1089                    $C$DW$109       .dwtag  DW_TAG_TI_branch
    1090                            .dwattr $C$DW$109, DW_AT_low_pc(0x00)
    1091                            .dwattr $C$DW$109, DW_AT_name("uxListRemove")
    1092                            .dwattr $C$DW$109, DW_AT_TI_call
    1093                    
    1094 00000126 FFFEF7FF!         BL        uxListRemove          ; [DPU_3_PIPE] |388|  ; [KEEP 32-BIT INS]
    1095                            ; CALL OCCURS {uxListRemove }    ; [] |388| 
    1096                            .dwpsn  file "C:/TI_ARM_Tiva_Projects/Source/timers.c",line 393,column 2,is_stmt,isa 1
    1097 0000012a 9804              LDR       A1, [SP, #16]         ; [DPU_3_PIPE] |393|  ; [ORIG 16-BIT INS]
    1098 0000012c 69C0              LDR       A1, [A1, #28]         ; [DPU_3_PIPE] |393|  ; [ORIG 16-BIT INS]
    1099 0000012e 2801              CMP       A1, #1                ; [DPU_3_PIPE] |393|  ; [ORIG 16-BIT INS]
    1100 00000130 D114              BNE       ||$C$L7||             ; [DPU_3_PIPE] |393|  ; [ORIG 16-BIT INS]
TI ARM Assembler PC v15.12.1 Tue Oct 18 10:42:36 2016

Tools Copyright (c) 1996-2015 Texas Instruments Incorporated
timers.asm                                                           PAGE   21

    1101                            ; BRANCHCC OCCURS {||$C$L7||}    ; [] |393| 
    1102                    ;* --------------------------------------------------------------------------*
    1103                            .dwpsn  file "C:/TI_ARM_Tiva_Projects/Source/timers.c",line 398,column 3,is_stmt,isa 1
    1104 00000132 9904              LDR       A2, [SP, #16]         ; [DPU_3_PIPE] |398|  ; [ORIG 16-BIT INS]
    1105 00000134 9801              LDR       A1, [SP, #4]          ; [DPU_3_PIPE] |398|  ; [ORIG 16-BIT INS]
    1106 00000136 9A02              LDR       A3, [SP, #8]          ; [DPU_3_PIPE] |398|  ; [ORIG 16-BIT INS]
    1107 00000138 9B01              LDR       A4, [SP, #4]          ; [DPU_3_PIPE] |398|  ; [ORIG 16-BIT INS]
    1108 0000013a 6989              LDR       A2, [A2, #24]         ; [DPU_3_PIPE] |398|  ; [ORIG 16-BIT INS]
    1109 0000013c 1809              ADDS      A2, A2, A1            ; [DPU_3_PIPE] |398|  ; [ORIG 16-BIT INS]
    1110 0000013e 9804              LDR       A1, [SP, #16]         ; [DPU_3_PIPE] |398|  ; [ORIG 16-BIT INS]
    1111                    $C$DW$110       .dwtag  DW_TAG_TI_branch
    1112                            .dwattr $C$DW$110, DW_AT_low_pc(0x00)
    1113                            .dwattr $C$DW$110, DW_AT_name("prvInsertTimerInActiveList")
    1114                            .dwattr $C$DW$110, DW_AT_TI_call
    1115                    
    1116 00000140 F896F000          BL        prvInsertTimerInActiveList ; [DPU_3_PIPE] |398|  ; [KEEP 32-BIT INS]
    1117                            ; CALL OCCURS {prvInsertTimerInActiveList }  ; [] |398| 
    1118 00000144 2801              CMP       A1, #1                ; [DPU_3_PIPE] |398|  ; [ORIG 16-BIT INS]
    1119 00000146 D109              BNE       ||$C$L7||             ; [DPU_3_PIPE] |398|  ; [ORIG 16-BIT INS]
    1120                            ; BRANCHCC OCCURS {||$C$L7||}    ; [] |398| 
    1121                    ;* --------------------------------------------------------------------------*
    1122                            .dwpsn  file "C:/TI_ARM_Tiva_Projects/Source/timers.c",line 402,column 4,is_stmt,isa 1
    1123 00000148 2000              MOVS      A1, #0                ; [DPU_3_PIPE] |402|  ; [ORIG 16-BIT INS]
    1124 0000014a 9000              STR       A1, [SP, #0]          ; [DPU_3_PIPE] |402|  ; [ORIG 16-BIT INS]
    1125 0000014c 9A01              LDR       A3, [SP, #4]          ; [DPU_3_PIPE] |402|  ; [ORIG 16-BIT INS]
    1126 0000014e 9804              LDR       A1, [SP, #16]         ; [DPU_3_PIPE] |402|  ; [ORIG 16-BIT INS]
    1127 00000150 2100              MOVS      A2, #0                ; [DPU_3_PIPE] |402|  ; [ORIG 16-BIT INS]
    1128 00000152 2300              MOVS      A4, #0                ; [DPU_3_PIPE] |402|  ; [ORIG 16-BIT INS]
    1129                    $C$DW$111       .dwtag  DW_TAG_TI_branch
    1130                            .dwattr $C$DW$111, DW_AT_low_pc(0x00)
    1131                            .dwattr $C$DW$111, DW_AT_name("xTimerGenericCommand")
    1132                            .dwattr $C$DW$111, DW_AT_TI_call
    1133                    
    1134 00000154 FF9BF7FF          BL        xTimerGenericCommand  ; [DPU_3_PIPE] |402|  ; [KEEP 32-BIT INS]
    1135                            ; CALL OCCURS {xTimerGenericCommand }  ; [] |402| 
    1136 00000158 9003              STR       A1, [SP, #12]         ; [DPU_3_PIPE] |402|  ; [ORIG 16-BIT INS]
    1137                            .dwpsn  file "C:/TI_ARM_Tiva_Projects/Source/timers.c",line 404,column 4,is_stmt,isa 1
    1138                            .dwpsn  file "C:/TI_ARM_Tiva_Projects/Source/timers.c",line 405,column 3,is_stmt,isa 1
    1139 0000015a E7FF              B         ||$C$L7||             ; [DPU_3_PIPE] |405|  ; [ORIG 16-BIT INS]
    1140                            ; BRANCH OCCURS {||$C$L7||}      ; [] |405| 
    1141                    ;* --------------------------------------------------------------------------*
    1142                    ;* --------------------------------------------------------------------------*
    1143 0000015c           ||$C$L7||:    
    1144                            .dwpsn  file "C:/TI_ARM_Tiva_Projects/Source/timers.c",line 417,column 2,is_stmt,isa 1
    1145 0000015c 9804              LDR       A1, [SP, #16]         ; [DPU_3_PIPE] |417|  ; [ORIG 16-BIT INS]
    1146 0000015e 6A40              LDR       A1, [A1, #36]         ; [DPU_3_PIPE] |417|  ; [ORIG 16-BIT INS]
    1147 00000160 4601              MOV       A2, A1                ; [DPU_3_PIPE] |417|  ; [ORIG 16-BIT INS]
    1148 00000162 9804              LDR       A1, [SP, #16]         ; [DPU_3_PIPE] |417|  ; [ORIG 16-BIT INS]
    1149                    $C$DW$112       .dwtag  DW_TAG_TI_branch
    1150                            .dwattr $C$DW$112, DW_AT_low_pc(0x00)
    1151                            .dwattr $C$DW$112, DW_AT_TI_call
    1152                            .dwattr $C$DW$112, DW_AT_TI_indirect
    1153                    
    1154 00000164 4788              BLX       A2                    ; [DPU_3_PIPE] |417|  ; [ORIG 16-BIT INS]
    1155                            ; CALL OCCURS {}                 ; [] |417| 
TI ARM Assembler PC v15.12.1 Tue Oct 18 10:42:36 2016

Tools Copyright (c) 1996-2015 Texas Instruments Incorporated
timers.asm                                                           PAGE   22

    1156                            .dwpsn  file "C:/TI_ARM_Tiva_Projects/Source/timers.c",line 418,column 1,is_stmt,isa 1
    1157 00000166 B005              ADD       SP, SP, #20           ; [DPU_3_PIPE]  ; [ORIG 16-BIT INS]
    1158                            .dwcfi  cfa_offset, 4
    1159                    $C$DW$113       .dwtag  DW_TAG_TI_branch
    1160                            .dwattr $C$DW$113, DW_AT_low_pc(0x00)
    1161                            .dwattr $C$DW$113, DW_AT_TI_return
    1162                    
    1163 00000168 BD00              POP       {PC}                  ; [DPU_3_PIPE]  ; [ORIG 16-BIT INS]
    1164                            .dwcfi  cfa_offset, 0
    1165                            ; BRANCH OCCURS                  ; [] 
    1166                            .dwattr $C$DW$102, DW_AT_TI_end_file("C:/TI_ARM_Tiva_Projects/Source/timers.c")
    1167                            .dwattr $C$DW$102, DW_AT_TI_end_line(0x1a2)
    1168                            .dwattr $C$DW$102, DW_AT_TI_end_column(0x01)
    1169                            .dwendentry
    1170                            .dwendtag $C$DW$102
    1171                    
    1172 0000016a                   .sect   ".text"
    1173                            .clink
    1174                            .thumbfunc prvTimerTask
    1175 0000016a                   .thumb
    1176                    
    1177                    $C$DW$114       .dwtag  DW_TAG_subprogram
    1178                            .dwattr $C$DW$114, DW_AT_name("prvTimerTask")
    1179                            .dwattr $C$DW$114, DW_AT_low_pc(prvTimerTask)
    1180                            .dwattr $C$DW$114, DW_AT_high_pc(0x00)
    1181                            .dwattr $C$DW$114, DW_AT_TI_symbol_name("prvTimerTask")
    1182                            .dwattr $C$DW$114, DW_AT_TI_begin_file("C:/TI_ARM_Tiva_Projects/Source/timers.c")
    1183                            .dwattr $C$DW$114, DW_AT_TI_begin_line(0x1a5)
    1184                            .dwattr $C$DW$114, DW_AT_TI_begin_column(0x0d)
    1185                            .dwattr $C$DW$114, DW_AT_decl_file("C:/TI_ARM_Tiva_Projects/Source/timers.c")
    1186                            .dwattr $C$DW$114, DW_AT_decl_line(0x1a5)
    1187                            .dwattr $C$DW$114, DW_AT_decl_column(0x0d)
    1188                            .dwattr $C$DW$114, DW_AT_TI_max_frame_size(0x10)
    1189                            .dwpsn  file "C:/TI_ARM_Tiva_Projects/Source/timers.c",line 422,column 1,is_stmt,address prvTi
    1190                    
    1191                            .dwfde $C$DW$CIE, prvTimerTask
    1192                    $C$DW$115       .dwtag  DW_TAG_formal_parameter
    1193                            .dwattr $C$DW$115, DW_AT_name("pvParameters")
    1194                            .dwattr $C$DW$115, DW_AT_TI_symbol_name("pvParameters")
    1195                            .dwattr $C$DW$115, DW_AT_type(*$C$DW$T$3)
    1196                            .dwattr $C$DW$115, DW_AT_location[DW_OP_reg0]
    1197                    
    1198                    
    1199                    ;*****************************************************************************
    1200                    ;* FUNCTION NAME: prvTimerTask                                               *
    1201                    ;*                                                                           *
    1202                    ;*   Regs Modified     : A1,A2,A3,A4,V9,SP,LR,SR,D0,D0_hi,D1,D1_hi,D2,D2_hi, *
    1203                    ;*                           D3,D3_hi,D4,D4_hi,D5,D5_hi,D6,D6_hi,D7,D7_hi,   *
    1204                    ;*                           FPEXC,FPSCR                                     *
    1205                    ;*   Regs Used         : A1,A2,A3,A4,V9,SP,LR,SR,D0,D0_hi,D1,D1_hi,D2,D2_hi, *
    1206                    ;*                           D3,D3_hi,D4,D4_hi,D5,D5_hi,D6,D6_hi,D7,D7_hi,   *
    1207                    ;*                           FPEXC,FPSCR                                     *
    1208                    ;*   Local Frame Size  : 0 Args + 12 Auto + 4 Save = 16 byte                 *
    1209                    ;*****************************************************************************
    1210 0000016a           prvTimerTask:
TI ARM Assembler PC v15.12.1 Tue Oct 18 10:42:36 2016

Tools Copyright (c) 1996-2015 Texas Instruments Incorporated
timers.asm                                                           PAGE   23

    1211                    ;* --------------------------------------------------------------------------*
    1212                            .dwcfi  cfa_offset, 0
    1213 0000016a B50E              PUSH      {A2, A3, A4, LR}      ; [DPU_3_PIPE]  ; [ORIG 16-BIT INS]
    1214                            .dwcfi  cfa_offset, 16
    1215                            .dwcfi  save_reg_to_mem, 14, -4
    1216                            .dwcfi  save_reg_to_mem, 3, -8
    1217                            .dwcfi  save_reg_to_mem, 2, -12
    1218                            .dwcfi  save_reg_to_mem, 1, -16
    1219                    $C$DW$116       .dwtag  DW_TAG_variable
    1220                            .dwattr $C$DW$116, DW_AT_name("pvParameters")
    1221                            .dwattr $C$DW$116, DW_AT_TI_symbol_name("pvParameters")
    1222                            .dwattr $C$DW$116, DW_AT_type(*$C$DW$T$3)
    1223                            .dwattr $C$DW$116, DW_AT_location[DW_OP_breg13 0]
    1224                    
    1225                    $C$DW$117       .dwtag  DW_TAG_variable
    1226                            .dwattr $C$DW$117, DW_AT_name("xNextExpireTime")
    1227                            .dwattr $C$DW$117, DW_AT_TI_symbol_name("xNextExpireTime")
    1228                            .dwattr $C$DW$117, DW_AT_type(*$C$DW$T$38)
    1229                            .dwattr $C$DW$117, DW_AT_location[DW_OP_breg13 4]
    1230                    
    1231                    $C$DW$118       .dwtag  DW_TAG_variable
    1232                            .dwattr $C$DW$118, DW_AT_name("xListWasEmpty")
    1233                            .dwattr $C$DW$118, DW_AT_TI_symbol_name("xListWasEmpty")
    1234                            .dwattr $C$DW$118, DW_AT_type(*$C$DW$T$50)
    1235                            .dwattr $C$DW$118, DW_AT_location[DW_OP_breg13 8]
    1236                    
    1237 0000016c 9000              STR       A1, [SP, #0]          ; [DPU_3_PIPE] |422|  ; [ORIG 16-BIT INS]
    1238                            .dwpsn  file "C:/TI_ARM_Tiva_Projects/Source/timers.c",line 427,column 2,is_stmt,isa 1
    1239                    ;* --------------------------------------------------------------------------*
    1240                    ;*   BEGIN LOOP ||$C$L8||
    1241                    ;*
    1242                    ;*   Loop source line                : 429
    1243                    ;*   Loop closing brace source line  : 441
    1244                    ;*   Known Minimum Trip Count        : 1
    1245                    ;*   Known Maximum Trip Count        : 4294967295
    1246                    ;*   Known Max Trip Count Factor     : 1
    1247                    ;* --------------------------------------------------------------------------*
    1248 0000016e           ||$C$L8||:    
    1249                            .dwpsn  file "C:/TI_ARM_Tiva_Projects/Source/timers.c",line 433,column 3,is_stmt,isa 1
    1250 0000016e A802              ADD       A1, SP, #8            ; [DPU_3_PIPE] |433|  ; [ORIG 16-BIT INS]
    1251                    $C$DW$119       .dwtag  DW_TAG_TI_branch
    1252                            .dwattr $C$DW$119, DW_AT_low_pc(0x00)
    1253                            .dwattr $C$DW$119, DW_AT_name("prvGetNextExpireTime")
    1254                            .dwattr $C$DW$119, DW_AT_TI_call
    1255                    
    1256 00000170 F844F000          BL        prvGetNextExpireTime  ; [DPU_3_PIPE] |433|  ; [KEEP 32-BIT INS]
    1257                            ; CALL OCCURS {prvGetNextExpireTime }  ; [] |433| 
    1258 00000174 9001              STR       A1, [SP, #4]          ; [DPU_3_PIPE] |433|  ; [ORIG 16-BIT INS]
    1259                            .dwpsn  file "C:/TI_ARM_Tiva_Projects/Source/timers.c",line 437,column 3,is_stmt,isa 1
    1260 00000176 9902              LDR       A2, [SP, #8]          ; [DPU_3_PIPE] |437|  ; [ORIG 16-BIT INS]
    1261 00000178 9801              LDR       A1, [SP, #4]          ; [DPU_3_PIPE] |437|  ; [ORIG 16-BIT INS]
    1262                    $C$DW$120       .dwtag  DW_TAG_TI_branch
    1263                            .dwattr $C$DW$120, DW_AT_low_pc(0x00)
    1264                            .dwattr $C$DW$120, DW_AT_name("prvProcessTimerOrBlockTask")
    1265                            .dwattr $C$DW$120, DW_AT_TI_call
TI ARM Assembler PC v15.12.1 Tue Oct 18 10:42:36 2016

Tools Copyright (c) 1996-2015 Texas Instruments Incorporated
timers.asm                                                           PAGE   24

    1266                    
    1267 0000017a F803F000          BL        prvProcessTimerOrBlockTask ; [DPU_3_PIPE] |437|  ; [KEEP 32-BIT INS]
    1268                            ; CALL OCCURS {prvProcessTimerOrBlockTask }  ; [] |437| 
    1269                            .dwpsn  file "C:/TI_ARM_Tiva_Projects/Source/timers.c",line 440,column 3,is_stmt,isa 1
    1270                    $C$DW$121       .dwtag  DW_TAG_TI_branch
    1271                            .dwattr $C$DW$121, DW_AT_low_pc(0x00)
    1272                            .dwattr $C$DW$121, DW_AT_name("prvProcessReceivedCommands")
    1273                            .dwattr $C$DW$121, DW_AT_TI_call
    1274                    
    1275 0000017e F8B1F000          BL        prvProcessReceivedCommands ; [DPU_3_PIPE] |440|  ; [KEEP 32-BIT INS]
    1276                            ; CALL OCCURS {prvProcessReceivedCommands }  ; [] |440| 
    1277                            .dwpsn  file "C:/TI_ARM_Tiva_Projects/Source/timers.c",line 441,column 2,is_stmt,isa 1
    1278 00000182 E7F4              B         ||$C$L8||             ; [DPU_3_PIPE] |441|  ; [ORIG 16-BIT INS]
    1279                            ; BRANCH OCCURS {||$C$L8||}      ; [] |441| 
    1280                    ;* --------------------------------------------------------------------------*
    1281                            .dwattr $C$DW$114, DW_AT_TI_end_file("C:/TI_ARM_Tiva_Projects/Source/timers.c")
    1282                            .dwattr $C$DW$114, DW_AT_TI_end_line(0x1ba)
    1283                            .dwattr $C$DW$114, DW_AT_TI_end_column(0x01)
    1284                            .dwendentry
    1285                            .dwendtag $C$DW$114
    1286                    
    1287 00000184                   .sect   ".text"
    1288                            .clink
    1289                            .thumbfunc prvProcessTimerOrBlockTask
    1290 00000184                   .thumb
    1291                    
    1292                    $C$DW$122       .dwtag  DW_TAG_subprogram
    1293                            .dwattr $C$DW$122, DW_AT_name("prvProcessTimerOrBlockTask")
    1294                            .dwattr $C$DW$122, DW_AT_low_pc(prvProcessTimerOrBlockTask)
    1295                            .dwattr $C$DW$122, DW_AT_high_pc(0x00)
    1296                            .dwattr $C$DW$122, DW_AT_TI_symbol_name("prvProcessTimerOrBlockTask")
    1297                            .dwattr $C$DW$122, DW_AT_TI_begin_file("C:/TI_ARM_Tiva_Projects/Source/timers.c")
    1298                            .dwattr $C$DW$122, DW_AT_TI_begin_line(0x1bd)
    1299                            .dwattr $C$DW$122, DW_AT_TI_begin_column(0x0d)
    1300                            .dwattr $C$DW$122, DW_AT_decl_file("C:/TI_ARM_Tiva_Projects/Source/timers.c")
    1301                            .dwattr $C$DW$122, DW_AT_decl_line(0x1bd)
    1302                            .dwattr $C$DW$122, DW_AT_decl_column(0x0d)
    1303                            .dwattr $C$DW$122, DW_AT_TI_max_frame_size(0x18)
    1304                            .dwpsn  file "C:/TI_ARM_Tiva_Projects/Source/timers.c",line 446,column 1,is_stmt,address prvPr
    1305                    
    1306                            .dwfde $C$DW$CIE, prvProcessTimerOrBlockTask
    1307                    $C$DW$123       .dwtag  DW_TAG_formal_parameter
    1308                            .dwattr $C$DW$123, DW_AT_name("xNextExpireTime")
    1309                            .dwattr $C$DW$123, DW_AT_TI_symbol_name("xNextExpireTime")
    1310                            .dwattr $C$DW$123, DW_AT_type(*$C$DW$T$92)
    1311                            .dwattr $C$DW$123, DW_AT_location[DW_OP_reg0]
    1312                    
    1313                    $C$DW$124       .dwtag  DW_TAG_formal_parameter
    1314                            .dwattr $C$DW$124, DW_AT_name("xListWasEmpty")
    1315                            .dwattr $C$DW$124, DW_AT_TI_symbol_name("xListWasEmpty")
    1316                            .dwattr $C$DW$124, DW_AT_type(*$C$DW$T$50)
    1317                            .dwattr $C$DW$124, DW_AT_location[DW_OP_reg1]
    1318                    
    1319                    
    1320                    ;*****************************************************************************
TI ARM Assembler PC v15.12.1 Tue Oct 18 10:42:36 2016

Tools Copyright (c) 1996-2015 Texas Instruments Incorporated
timers.asm                                                           PAGE   25

    1321                    ;* FUNCTION NAME: prvProcessTimerOrBlockTask                                 *
    1322                    ;*                                                                           *
    1323                    ;*   Regs Modified     : A1,A2,A3,A4,V9,SP,LR,SR,D0,D0_hi,D1,D1_hi,D2,D2_hi, *
    1324                    ;*                           D3,D3_hi,D4,D4_hi,D5,D5_hi,D6,D6_hi,D7,D7_hi,   *
    1325                    ;*                           FPEXC,FPSCR                                     *
    1326                    ;*   Regs Used         : A1,A2,A3,A4,V9,SP,LR,SR,D0,D0_hi,D1,D1_hi,D2,D2_hi, *
    1327                    ;*                           D3,D3_hi,D4,D4_hi,D5,D5_hi,D6,D6_hi,D7,D7_hi,   *
    1328                    ;*                           FPEXC,FPSCR                                     *
    1329                    ;*   Local Frame Size  : 0 Args + 16 Auto + 4 Save = 20 byte                 *
    1330                    ;*****************************************************************************
    1331 00000184           prvProcessTimerOrBlockTask:
    1332                    ;* --------------------------------------------------------------------------*
    1333                            .dwcfi  cfa_offset, 0
    1334 00000184 B500              PUSH      {LR}                  ; [DPU_3_PIPE]  ; [ORIG 16-BIT INS]
    1335                            .dwcfi  cfa_offset, 4
    1336                            .dwcfi  save_reg_to_mem, 14, -4
    1337 00000186 0D14F1AD          SUB       SP, SP, #20           ; [DPU_3_PIPE]  ; [KEEP 32-BIT INS]
    1338                            .dwcfi  cfa_offset, 24
    1339                    $C$DW$125       .dwtag  DW_TAG_variable
    1340                            .dwattr $C$DW$125, DW_AT_name("xNextExpireTime")
    1341                            .dwattr $C$DW$125, DW_AT_TI_symbol_name("xNextExpireTime")
    1342                            .dwattr $C$DW$125, DW_AT_type(*$C$DW$T$92)
    1343                            .dwattr $C$DW$125, DW_AT_location[DW_OP_breg13 0]
    1344                    
    1345                    $C$DW$126       .dwtag  DW_TAG_variable
    1346                            .dwattr $C$DW$126, DW_AT_name("xListWasEmpty")
    1347                            .dwattr $C$DW$126, DW_AT_TI_symbol_name("xListWasEmpty")
    1348                            .dwattr $C$DW$126, DW_AT_type(*$C$DW$T$50)
    1349                            .dwattr $C$DW$126, DW_AT_location[DW_OP_breg13 4]
    1350                    
    1351                    $C$DW$127       .dwtag  DW_TAG_variable
    1352                            .dwattr $C$DW$127, DW_AT_name("xTimeNow")
    1353                            .dwattr $C$DW$127, DW_AT_TI_symbol_name("xTimeNow")
    1354                            .dwattr $C$DW$127, DW_AT_type(*$C$DW$T$38)
    1355                            .dwattr $C$DW$127, DW_AT_location[DW_OP_breg13 8]
    1356                    
    1357                    $C$DW$128       .dwtag  DW_TAG_variable
    1358                            .dwattr $C$DW$128, DW_AT_name("xTimerListsWereSwitched")
    1359                            .dwattr $C$DW$128, DW_AT_TI_symbol_name("xTimerListsWereSwitched")
    1360                            .dwattr $C$DW$128, DW_AT_type(*$C$DW$T$50)
    1361                            .dwattr $C$DW$128, DW_AT_location[DW_OP_breg13 12]
    1362                    
    1363 0000018a 9101              STR       A2, [SP, #4]          ; [DPU_3_PIPE] |446|  ; [ORIG 16-BIT INS]
    1364 0000018c 9000              STR       A1, [SP, #0]          ; [DPU_3_PIPE] |446|  ; [ORIG 16-BIT INS]
    1365                            .dwpsn  file "C:/TI_ARM_Tiva_Projects/Source/timers.c",line 450,column 2,is_stmt,isa 1
    1366                    $C$DW$129       .dwtag  DW_TAG_TI_branch
    1367                            .dwattr $C$DW$129, DW_AT_low_pc(0x00)
    1368                            .dwattr $C$DW$129, DW_AT_name("vTaskSuspendAll")
    1369                            .dwattr $C$DW$129, DW_AT_TI_call
    1370                    
    1371 0000018e FFFEF7FF!         BL        vTaskSuspendAll       ; [DPU_3_PIPE] |450|  ; [KEEP 32-BIT INS]
    1372                            ; CALL OCCURS {vTaskSuspendAll }  ; [] |450| 
    1373                            .dwpsn  file "C:/TI_ARM_Tiva_Projects/Source/timers.c",line 457,column 3,is_stmt,isa 1
    1374 00000192 A803              ADD       A1, SP, #12           ; [DPU_3_PIPE] |457|  ; [ORIG 16-BIT INS]
    1375                    $C$DW$130       .dwtag  DW_TAG_TI_branch
TI ARM Assembler PC v15.12.1 Tue Oct 18 10:42:36 2016

Tools Copyright (c) 1996-2015 Texas Instruments Incorporated
timers.asm                                                           PAGE   26

    1376                            .dwattr $C$DW$130, DW_AT_low_pc(0x00)
    1377                            .dwattr $C$DW$130, DW_AT_name("prvSampleTimeNow")
    1378                            .dwattr $C$DW$130, DW_AT_TI_call
    1379                    
    1380 00000194 F84BF000          BL        prvSampleTimeNow      ; [DPU_3_PIPE] |457|  ; [KEEP 32-BIT INS]
    1381                            ; CALL OCCURS {prvSampleTimeNow }  ; [] |457| 
    1382 00000198 9002              STR       A1, [SP, #8]          ; [DPU_3_PIPE] |457|  ; [ORIG 16-BIT INS]
    1383                            .dwpsn  file "C:/TI_ARM_Tiva_Projects/Source/timers.c",line 458,column 3,is_stmt,isa 1
    1384 0000019a 9803              LDR       A1, [SP, #12]         ; [DPU_3_PIPE] |458|  ; [ORIG 16-BIT INS]
    1385 0000019c 2800              CMP       A1, #0                ; [DPU_3_PIPE] |458|  ; [ORIG 16-BIT INS]
    1386 0000019e D129              BNE       ||$C$L12||            ; [DPU_3_PIPE] |458|  ; [ORIG 16-BIT INS]
    1387                            ; BRANCHCC OCCURS {||$C$L12||}   ; [] |458| 
    1388                    ;* --------------------------------------------------------------------------*
    1389                            .dwpsn  file "C:/TI_ARM_Tiva_Projects/Source/timers.c",line 461,column 4,is_stmt,isa 1
    1390 000001a0 9801              LDR       A1, [SP, #4]          ; [DPU_3_PIPE] |461|  ; [ORIG 16-BIT INS]
    1391 000001a2 B950              CBNZ      A1, ||$C$L9||         ; []  ; [ORIG 16-BIT INS]
    1392                            ; BRANCHCC OCCURS {||$C$L9||}    ; [] |461| 
    1393                    ;* --------------------------------------------------------------------------*
    1394 000001a4 9802              LDR       A1, [SP, #8]          ; [DPU_3_PIPE] |461|  ; [ORIG 16-BIT INS]
    1395 000001a6 9900              LDR       A2, [SP, #0]          ; [DPU_3_PIPE] |461|  ; [ORIG 16-BIT INS]
    1396 000001a8 4288              CMP       A1, A2                ; [DPU_3_PIPE] |461|  ; [ORIG 16-BIT INS]
    1397 000001aa D306              BCC       ||$C$L9||             ; [DPU_3_PIPE] |461|  ; [ORIG 16-BIT INS]
    1398                            ; BRANCHCC OCCURS {||$C$L9||}    ; [] |461| 
    1399                    ;* --------------------------------------------------------------------------*
    1400                            .dwpsn  file "C:/TI_ARM_Tiva_Projects/Source/timers.c",line 463,column 5,is_stmt,isa 1
    1401                    $C$DW$131       .dwtag  DW_TAG_TI_branch
    1402                            .dwattr $C$DW$131, DW_AT_low_pc(0x00)
    1403                            .dwattr $C$DW$131, DW_AT_name("xTaskResumeAll")
    1404                            .dwattr $C$DW$131, DW_AT_TI_call
    1405                    
    1406 000001ac FFFEF7FF!         BL        xTaskResumeAll        ; [DPU_3_PIPE] |463|  ; [KEEP 32-BIT INS]
    1407                            ; CALL OCCURS {xTaskResumeAll }  ; [] |463| 
    1408                            .dwpsn  file "C:/TI_ARM_Tiva_Projects/Source/timers.c",line 464,column 5,is_stmt,isa 1
    1409 000001b0 9800              LDR       A1, [SP, #0]          ; [DPU_3_PIPE] |464|  ; [ORIG 16-BIT INS]
    1410 000001b2 9902              LDR       A2, [SP, #8]          ; [DPU_3_PIPE] |464|  ; [ORIG 16-BIT INS]
    1411                    $C$DW$132       .dwtag  DW_TAG_TI_branch
    1412                            .dwattr $C$DW$132, DW_AT_low_pc(0x00)
    1413                            .dwattr $C$DW$132, DW_AT_name("prvProcessExpiredTimer")
    1414                            .dwattr $C$DW$132, DW_AT_TI_call
    1415                    
    1416 000001b4 FFABF7FF          BL        prvProcessExpiredTimer ; [DPU_3_PIPE] |464|  ; [KEEP 32-BIT INS]
    1417                            ; CALL OCCURS {prvProcessExpiredTimer }  ; [] |464| 
    1418                            .dwpsn  file "C:/TI_ARM_Tiva_Projects/Source/timers.c",line 465,column 4,is_stmt,isa 1
    1419 000001b8 E01E              B         ||$C$L13||            ; [DPU_3_PIPE] |465|  ; [ORIG 16-BIT INS]
    1420                            ; BRANCH OCCURS {||$C$L13||}     ; [] |465| 
    1421                    ;* --------------------------------------------------------------------------*
    1422 000001ba           ||$C$L9||:    
    1423                            .dwpsn  file "C:/TI_ARM_Tiva_Projects/Source/timers.c",line 474,column 5,is_stmt,isa 1
    1424 000001ba 9801              LDR       A1, [SP, #4]          ; [DPU_3_PIPE] |474|  ; [ORIG 16-BIT INS]
    1425 000001bc B130              CBZ       A1, ||$C$L11||        ; []  ; [ORIG 16-BIT INS]
    1426                            ; BRANCHCC OCCURS {||$C$L11||}   ; [] |474| 
    1427                    ;* --------------------------------------------------------------------------*
    1428                            .dwpsn  file "C:/TI_ARM_Tiva_Projects/Source/timers.c",line 478,column 6,is_stmt,isa 1
    1429 000001be 4882              LDR       A1, $C$CON4           ; [DPU_3_PIPE] |478|  ; [ORIG 16-BIT INS]
    1430 000001c0 6800              LDR       A1, [A1, #0]          ; [DPU_3_PIPE] |478|  ; [ORIG 16-BIT INS]
TI ARM Assembler PC v15.12.1 Tue Oct 18 10:42:36 2016

Tools Copyright (c) 1996-2015 Texas Instruments Incorporated
timers.asm                                                           PAGE   27

    1431 000001c2 6800              LDR       A1, [A1, #0]          ; [DPU_3_PIPE] |478|  ; [ORIG 16-BIT INS]
    1432 000001c4 2100              MOVS      A2, #0                ; [DPU_3_PIPE] |478|  ; [ORIG 16-BIT INS]
    1433 000001c6 B900              CBNZ      A1, ||$C$L10||        ; []  ; [ORIG 16-BIT INS]
    1434                            ; BRANCHCC OCCURS {||$C$L10||}   ; [] |478| 
    1435                    ;* --------------------------------------------------------------------------*
    1436 000001c8 2101              MOVS      A2, #1                ; [DPU_3_PIPE] |478|  ; [ORIG 16-BIT INS]
    1437                    ;* --------------------------------------------------------------------------*
    1438 000001ca           ||$C$L10||:    
    1439 000001ca 9101              STR       A2, [SP, #4]          ; [DPU_3_PIPE] |478|  ; [ORIG 16-BIT INS]
    1440                    ;* --------------------------------------------------------------------------*
    1441 000001cc           ||$C$L11||:    
    1442                            .dwpsn  file "C:/TI_ARM_Tiva_Projects/Source/timers.c",line 481,column 5,is_stmt,isa 1
    1443 000001cc 4826              LDR       A1, $C$CON1           ; [DPU_3_PIPE] |481|  ; [ORIG 16-BIT INS]
    1444 000001ce 9A02              LDR       A3, [SP, #8]          ; [DPU_3_PIPE] |481|  ; [ORIG 16-BIT INS]
    1445 000001d0 9900              LDR       A2, [SP, #0]          ; [DPU_3_PIPE] |481|  ; [ORIG 16-BIT INS]
    1446 000001d2 6800              LDR       A1, [A1, #0]          ; [DPU_3_PIPE] |481|  ; [ORIG 16-BIT INS]
    1447 000001d4 1A89              SUBS      A2, A2, A3            ; [DPU_3_PIPE] |481|  ; [ORIG 16-BIT INS]
    1448 000001d6 9A01              LDR       A3, [SP, #4]          ; [DPU_3_PIPE] |481|  ; [ORIG 16-BIT INS]
    1449                    $C$DW$133       .dwtag  DW_TAG_TI_branch
    1450                            .dwattr $C$DW$133, DW_AT_low_pc(0x00)
    1451                            .dwattr $C$DW$133, DW_AT_name("vQueueWaitForMessageRestricted")
    1452                            .dwattr $C$DW$133, DW_AT_TI_call
    1453                    
    1454 000001d8 FFFEF7FF!         BL        vQueueWaitForMessageRestricted ; [DPU_3_PIPE] |481|  ; [KEEP 32-BIT INS]
    1455                            ; CALL OCCURS {vQueueWaitForMessageRestricted }  ; [] |481| 
    1456                            .dwpsn  file "C:/TI_ARM_Tiva_Projects/Source/timers.c",line 483,column 5,is_stmt,isa 1
    1457                    $C$DW$134       .dwtag  DW_TAG_TI_branch
    1458                            .dwattr $C$DW$134, DW_AT_low_pc(0x00)
    1459                            .dwattr $C$DW$134, DW_AT_name("xTaskResumeAll")
    1460                            .dwattr $C$DW$134, DW_AT_TI_call
    1461                    
    1462 000001dc FFFEF7FF!         BL        xTaskResumeAll        ; [DPU_3_PIPE] |483|  ; [KEEP 32-BIT INS]
    1463                            ; CALL OCCURS {xTaskResumeAll }  ; [] |483| 
    1464 000001e0 B950              CBNZ      A1, ||$C$L13||        ; []  ; [ORIG 16-BIT INS]
    1465                            ; BRANCHCC OCCURS {||$C$L13||}   ; [] |483| 
    1466                    ;* --------------------------------------------------------------------------*
    1467                            .dwpsn  file "C:/TI_ARM_Tiva_Projects/Source/timers.c",line 489,column 6,is_stmt,isa 1
    1468 000001e2 49A1              LDR       A2, $C$CON5           ; [DPU_3_PIPE] |489|  ; [ORIG 16-BIT INS]
    1469 000001e4 5080F04F          MOV       A1, #268435456        ; [DPU_3_PIPE] |489|  ; [KEEP 32-BIT INS]
    1470 000001e8 6008              STR       A1, [A2, #0]          ; [DPU_3_PIPE] |489|  ; [ORIG 16-BIT INS]
    1471 000001ea 8F4FF3BF          dsb ; [KEEP 32-BIT INS]
    1472 000001ee 8F6FF3BF          isb ; [KEEP 32-BIT INS]
    1473                            .dwpsn  file "C:/TI_ARM_Tiva_Projects/Source/timers.c",line 490,column 5,is_stmt,isa 1
    1474 000001f2 E001              B         ||$C$L13||            ; [DPU_3_PIPE] |490|  ; [ORIG 16-BIT INS]
    1475                            ; BRANCH OCCURS {||$C$L13||}     ; [] |490| 
    1476                    ;* --------------------------------------------------------------------------*
    1477                    ;* --------------------------------------------------------------------------*
    1478 000001f4           ||$C$L12||:    
    1479                            .dwpsn  file "C:/TI_ARM_Tiva_Projects/Source/timers.c",line 499,column 4,is_stmt,isa 1
    1480                    $C$DW$135       .dwtag  DW_TAG_TI_branch
    1481                            .dwattr $C$DW$135, DW_AT_low_pc(0x00)
    1482                            .dwattr $C$DW$135, DW_AT_name("xTaskResumeAll")
    1483                            .dwattr $C$DW$135, DW_AT_TI_call
    1484                    
    1485 000001f4 FFFEF7FF!         BL        xTaskResumeAll        ; [DPU_3_PIPE] |499|  ; [KEEP 32-BIT INS]
TI ARM Assembler PC v15.12.1 Tue Oct 18 10:42:36 2016

Tools Copyright (c) 1996-2015 Texas Instruments Incorporated
timers.asm                                                           PAGE   28

    1486                            ; CALL OCCURS {xTaskResumeAll }  ; [] |499| 
    1487                            .dwpsn  file "C:/TI_ARM_Tiva_Projects/Source/timers.c",line 502,column 1,is_stmt,isa 1
    1488                    ;* --------------------------------------------------------------------------*
    1489 000001f8           ||$C$L13||:    
    1490 000001f8 B005              ADD       SP, SP, #20           ; [DPU_3_PIPE]  ; [ORIG 16-BIT INS]
    1491                            .dwcfi  cfa_offset, 4
    1492                    $C$DW$136       .dwtag  DW_TAG_TI_branch
    1493                            .dwattr $C$DW$136, DW_AT_low_pc(0x00)
    1494                            .dwattr $C$DW$136, DW_AT_TI_return
    1495                    
    1496 000001fa BD00              POP       {PC}                  ; [DPU_3_PIPE]  ; [ORIG 16-BIT INS]
    1497                            .dwcfi  cfa_offset, 0
    1498                            ; BRANCH OCCURS                  ; [] 
    1499                            .dwattr $C$DW$122, DW_AT_TI_end_file("C:/TI_ARM_Tiva_Projects/Source/timers.c")
    1500                            .dwattr $C$DW$122, DW_AT_TI_end_line(0x1f6)
    1501                            .dwattr $C$DW$122, DW_AT_TI_end_column(0x01)
    1502                            .dwendentry
    1503                            .dwendtag $C$DW$122
    1504                    
    1505 000001fc                   .sect   ".text"
    1506                            .clink
    1507                            .thumbfunc prvGetNextExpireTime
    1508 000001fc                   .thumb
    1509                    
    1510                    $C$DW$137       .dwtag  DW_TAG_subprogram
    1511                            .dwattr $C$DW$137, DW_AT_name("prvGetNextExpireTime")
    1512                            .dwattr $C$DW$137, DW_AT_low_pc(prvGetNextExpireTime)
    1513                            .dwattr $C$DW$137, DW_AT_high_pc(0x00)
    1514                            .dwattr $C$DW$137, DW_AT_TI_symbol_name("prvGetNextExpireTime")
    1515                            .dwattr $C$DW$137, DW_AT_type(*$C$DW$T$38)
    1516                            .dwattr $C$DW$137, DW_AT_TI_begin_file("C:/TI_ARM_Tiva_Projects/Source/timers.c")
    1517                            .dwattr $C$DW$137, DW_AT_TI_begin_line(0x1f9)
    1518                            .dwattr $C$DW$137, DW_AT_TI_begin_column(0x13)
    1519                            .dwattr $C$DW$137, DW_AT_decl_file("C:/TI_ARM_Tiva_Projects/Source/timers.c")
    1520                            .dwattr $C$DW$137, DW_AT_decl_line(0x1f9)
    1521                            .dwattr $C$DW$137, DW_AT_decl_column(0x13)
    1522                            .dwattr $C$DW$137, DW_AT_TI_max_frame_size(0x08)
    1523                            .dwpsn  file "C:/TI_ARM_Tiva_Projects/Source/timers.c",line 506,column 1,is_stmt,address prvGe
    1524                    
    1525                            .dwfde $C$DW$CIE, prvGetNextExpireTime
    1526                    $C$DW$138       .dwtag  DW_TAG_formal_parameter
    1527                            .dwattr $C$DW$138, DW_AT_name("pxListWasEmpty")
    1528                            .dwattr $C$DW$138, DW_AT_TI_symbol_name("pxListWasEmpty")
    1529                            .dwattr $C$DW$138, DW_AT_type(*$C$DW$T$150)
    1530                            .dwattr $C$DW$138, DW_AT_location[DW_OP_reg0]
    1531                    
    1532                    
    1533                    ;*****************************************************************************
    1534                    ;* FUNCTION NAME: prvGetNextExpireTime                                       *
    1535                    ;*                                                                           *
    1536                    ;*   Regs Modified     : A1,A2,SP,SR                                         *
    1537                    ;*   Regs Used         : A1,A2,SP,LR,SR                                      *
    1538                    ;*   Local Frame Size  : 0 Args + 8 Auto + 0 Save = 8 byte                   *
    1539                    ;*****************************************************************************
    1540 000001fc           prvGetNextExpireTime:
TI ARM Assembler PC v15.12.1 Tue Oct 18 10:42:36 2016

Tools Copyright (c) 1996-2015 Texas Instruments Incorporated
timers.asm                                                           PAGE   29

    1541                    ;* --------------------------------------------------------------------------*
    1542                            .dwcfi  cfa_offset, 0
    1543 000001fc 0D08F1AD          SUB       SP, SP, #8            ; [DPU_3_PIPE]  ; [KEEP 32-BIT INS]
    1544                            .dwcfi  cfa_offset, 8
    1545                    $C$DW$139       .dwtag  DW_TAG_variable
    1546                            .dwattr $C$DW$139, DW_AT_name("pxListWasEmpty")
    1547                            .dwattr $C$DW$139, DW_AT_TI_symbol_name("pxListWasEmpty")
    1548                            .dwattr $C$DW$139, DW_AT_type(*$C$DW$T$150)
    1549                            .dwattr $C$DW$139, DW_AT_location[DW_OP_breg13 0]
    1550                    
    1551                    $C$DW$140       .dwtag  DW_TAG_variable
    1552                            .dwattr $C$DW$140, DW_AT_name("xNextExpireTime")
    1553                            .dwattr $C$DW$140, DW_AT_TI_symbol_name("xNextExpireTime")
    1554                            .dwattr $C$DW$140, DW_AT_type(*$C$DW$T$38)
    1555                            .dwattr $C$DW$140, DW_AT_location[DW_OP_breg13 4]
    1556                    
    1557 00000200 9000              STR       A1, [SP, #0]          ; [DPU_3_PIPE] |506|  ; [ORIG 16-BIT INS]
    1558                            .dwpsn  file "C:/TI_ARM_Tiva_Projects/Source/timers.c",line 516,column 2,is_stmt,isa 1
    1559 00000202 4837              LDR       A1, $C$CON3           ; [DPU_3_PIPE] |516|  ; [ORIG 16-BIT INS]
    1560 00000204 6800              LDR       A1, [A1, #0]          ; [DPU_3_PIPE] |516|  ; [ORIG 16-BIT INS]
    1561 00000206 6800              LDR       A1, [A1, #0]          ; [DPU_3_PIPE] |516|  ; [ORIG 16-BIT INS]
    1562 00000208 2100              MOVS      A2, #0                ; [DPU_3_PIPE] |516|  ; [ORIG 16-BIT INS]
    1563 0000020a B900              CBNZ      A1, ||$C$L14||        ; []  ; [ORIG 16-BIT INS]
    1564                            ; BRANCHCC OCCURS {||$C$L14||}   ; [] |516| 
    1565                    ;* --------------------------------------------------------------------------*
    1566 0000020c 2101              MOVS      A2, #1                ; [DPU_3_PIPE] |516|  ; [ORIG 16-BIT INS]
    1567                    ;* --------------------------------------------------------------------------*
    1568 0000020e           ||$C$L14||:    
    1569 0000020e 9800              LDR       A1, [SP, #0]          ; [DPU_3_PIPE] |516|  ; [ORIG 16-BIT INS]
    1570 00000210 6001              STR       A2, [A1, #0]          ; [DPU_3_PIPE] |516|  ; [ORIG 16-BIT INS]
    1571                            .dwpsn  file "C:/TI_ARM_Tiva_Projects/Source/timers.c",line 517,column 2,is_stmt,isa 1
    1572 00000212 9800              LDR       A1, [SP, #0]          ; [DPU_3_PIPE] |517|  ; [ORIG 16-BIT INS]
    1573 00000214 6800              LDR       A1, [A1, #0]          ; [DPU_3_PIPE] |517|  ; [ORIG 16-BIT INS]
    1574 00000216 B928              CBNZ      A1, ||$C$L15||        ; []  ; [ORIG 16-BIT INS]
    1575                            ; BRANCHCC OCCURS {||$C$L15||}   ; [] |517| 
    1576                    ;* --------------------------------------------------------------------------*
    1577                            .dwpsn  file "C:/TI_ARM_Tiva_Projects/Source/timers.c",line 519,column 3,is_stmt,isa 1
    1578 00000218 4831              LDR       A1, $C$CON3           ; [DPU_3_PIPE] |519|  ; [ORIG 16-BIT INS]
    1579 0000021a 6800              LDR       A1, [A1, #0]          ; [DPU_3_PIPE] |519|  ; [ORIG 16-BIT INS]
    1580 0000021c 68C0              LDR       A1, [A1, #12]         ; [DPU_3_PIPE] |519|  ; [ORIG 16-BIT INS]
    1581 0000021e 6800              LDR       A1, [A1, #0]          ; [DPU_3_PIPE] |519|  ; [ORIG 16-BIT INS]
    1582 00000220 9001              STR       A1, [SP, #4]          ; [DPU_3_PIPE] |519|  ; [ORIG 16-BIT INS]
    1583                            .dwpsn  file "C:/TI_ARM_Tiva_Projects/Source/timers.c",line 520,column 2,is_stmt,isa 1
    1584 00000222 E001              B         ||$C$L16||            ; [DPU_3_PIPE] |520|  ; [ORIG 16-BIT INS]
    1585                            ; BRANCH OCCURS {||$C$L16||}     ; [] |520| 
    1586                    ;* --------------------------------------------------------------------------*
    1587 00000224           ||$C$L15||:    
    1588                            .dwpsn  file "C:/TI_ARM_Tiva_Projects/Source/timers.c",line 524,column 3,is_stmt,isa 1
    1589 00000224 2000              MOVS      A1, #0                ; [DPU_3_PIPE] |524|  ; [ORIG 16-BIT INS]
    1590 00000226 9001              STR       A1, [SP, #4]          ; [DPU_3_PIPE] |524|  ; [ORIG 16-BIT INS]
    1591                    ;* --------------------------------------------------------------------------*
    1592 00000228           ||$C$L16||:    
    1593                            .dwpsn  file "C:/TI_ARM_Tiva_Projects/Source/timers.c",line 527,column 2,is_stmt,isa 1
    1594 00000228 9801              LDR       A1, [SP, #4]          ; [DPU_3_PIPE] |527|  ; [ORIG 16-BIT INS]
    1595                            .dwpsn  file "C:/TI_ARM_Tiva_Projects/Source/timers.c",line 528,column 1,is_stmt,isa 1
TI ARM Assembler PC v15.12.1 Tue Oct 18 10:42:36 2016

Tools Copyright (c) 1996-2015 Texas Instruments Incorporated
timers.asm                                                           PAGE   30

    1596 0000022a B002              ADD       SP, SP, #8            ; [DPU_3_PIPE]  ; [ORIG 16-BIT INS]
    1597                            .dwcfi  cfa_offset, 0
    1598                    $C$DW$141       .dwtag  DW_TAG_TI_branch
    1599                            .dwattr $C$DW$141, DW_AT_low_pc(0x00)
    1600                            .dwattr $C$DW$141, DW_AT_TI_return
    1601                    
    1602 0000022c 4770              BX        LR                    ; [DPU_3_PIPE]  ; [ORIG 16-BIT INS]
    1603                            ; BRANCH OCCURS                  ; [] 
    1604                            .dwattr $C$DW$137, DW_AT_TI_end_file("C:/TI_ARM_Tiva_Projects/Source/timers.c")
    1605                            .dwattr $C$DW$137, DW_AT_TI_end_line(0x210)
    1606                            .dwattr $C$DW$137, DW_AT_TI_end_column(0x01)
    1607                            .dwendentry
    1608                            .dwendtag $C$DW$137
    1609                    
    1610 0000022e                   .sect   ".text"
    1611                            .clink
    1612                            .thumbfunc prvSampleTimeNow
    1613 0000022e                   .thumb
    1614                    
    1615                    $C$DW$142       .dwtag  DW_TAG_subprogram
    1616                            .dwattr $C$DW$142, DW_AT_name("prvSampleTimeNow")
    1617                            .dwattr $C$DW$142, DW_AT_low_pc(prvSampleTimeNow)
    1618                            .dwattr $C$DW$142, DW_AT_high_pc(0x00)
    1619                            .dwattr $C$DW$142, DW_AT_TI_symbol_name("prvSampleTimeNow")
    1620                            .dwattr $C$DW$142, DW_AT_type(*$C$DW$T$38)
    1621                            .dwattr $C$DW$142, DW_AT_TI_begin_file("C:/TI_ARM_Tiva_Projects/Source/timers.c")
    1622                            .dwattr $C$DW$142, DW_AT_TI_begin_line(0x213)
    1623                            .dwattr $C$DW$142, DW_AT_TI_begin_column(0x13)
    1624                            .dwattr $C$DW$142, DW_AT_decl_file("C:/TI_ARM_Tiva_Projects/Source/timers.c")
    1625                            .dwattr $C$DW$142, DW_AT_decl_line(0x213)
    1626                            .dwattr $C$DW$142, DW_AT_decl_column(0x13)
    1627                            .dwattr $C$DW$142, DW_AT_TI_max_frame_size(0x10)
    1628                            .dwpsn  file "C:/TI_ARM_Tiva_Projects/Source/timers.c",line 532,column 1,is_stmt,address prvSa
    1629                    
    1630                            .dwfde $C$DW$CIE, prvSampleTimeNow
    1631                    $C$DW$143       .dwtag  DW_TAG_variable
    1632                            .dwattr $C$DW$143, DW_AT_name("xLastTime")
    1633                            .dwattr $C$DW$143, DW_AT_TI_symbol_name("xLastTime$1")
    1634                            .dwattr $C$DW$143, DW_AT_type(*$C$DW$T$38)
    1635                            .dwattr $C$DW$143, DW_AT_location[DW_OP_addr xLastTime$1]
    1636                    
    1637                    $C$DW$144       .dwtag  DW_TAG_formal_parameter
    1638                            .dwattr $C$DW$144, DW_AT_name("pxTimerListsWereSwitched")
    1639                            .dwattr $C$DW$144, DW_AT_TI_symbol_name("pxTimerListsWereSwitched")
    1640                            .dwattr $C$DW$144, DW_AT_type(*$C$DW$T$150)
    1641                            .dwattr $C$DW$144, DW_AT_location[DW_OP_reg0]
    1642                    
    1643                    
    1644                    ;*****************************************************************************
    1645                    ;* FUNCTION NAME: prvSampleTimeNow                                           *
    1646                    ;*                                                                           *
    1647                    ;*   Regs Modified     : A1,A2,A3,A4,V9,SP,LR,SR,D0,D0_hi,D1,D1_hi,D2,D2_hi, *
    1648                    ;*                           D3,D3_hi,D4,D4_hi,D5,D5_hi,D6,D6_hi,D7,D7_hi,   *
    1649                    ;*                           FPEXC,FPSCR                                     *
    1650                    ;*   Regs Used         : A1,A2,A3,A4,V9,SP,LR,SR,D0,D0_hi,D1,D1_hi,D2,D2_hi, *
TI ARM Assembler PC v15.12.1 Tue Oct 18 10:42:36 2016

Tools Copyright (c) 1996-2015 Texas Instruments Incorporated
timers.asm                                                           PAGE   31

    1651                    ;*                           D3,D3_hi,D4,D4_hi,D5,D5_hi,D6,D6_hi,D7,D7_hi,   *
    1652                    ;*                           FPEXC,FPSCR                                     *
    1653                    ;*   Local Frame Size  : 0 Args + 8 Auto + 4 Save = 12 byte                  *
    1654                    ;*****************************************************************************
    1655 0000022e           prvSampleTimeNow:
    1656                    ;* --------------------------------------------------------------------------*
    1657                            .dwcfi  cfa_offset, 0
    1658 0000022e B50E              PUSH      {A2, A3, A4, LR}      ; [DPU_3_PIPE]  ; [ORIG 16-BIT INS]
    1659                            .dwcfi  cfa_offset, 16
    1660                            .dwcfi  save_reg_to_mem, 14, -4
    1661                            .dwcfi  save_reg_to_mem, 3, -8
    1662                            .dwcfi  save_reg_to_mem, 2, -12
    1663                            .dwcfi  save_reg_to_mem, 1, -16
    1664                    $C$DW$145       .dwtag  DW_TAG_variable
    1665                            .dwattr $C$DW$145, DW_AT_name("pxTimerListsWereSwitched")
    1666                            .dwattr $C$DW$145, DW_AT_TI_symbol_name("pxTimerListsWereSwitched")
    1667                            .dwattr $C$DW$145, DW_AT_type(*$C$DW$T$150)
    1668                            .dwattr $C$DW$145, DW_AT_location[DW_OP_breg13 0]
    1669                    
    1670                    $C$DW$146       .dwtag  DW_TAG_variable
    1671                            .dwattr $C$DW$146, DW_AT_name("xTimeNow")
    1672                            .dwattr $C$DW$146, DW_AT_TI_symbol_name("xTimeNow")
    1673                            .dwattr $C$DW$146, DW_AT_type(*$C$DW$T$38)
    1674                            .dwattr $C$DW$146, DW_AT_location[DW_OP_breg13 4]
    1675                    
    1676 00000230 9000              STR       A1, [SP, #0]          ; [DPU_3_PIPE] |532|  ; [ORIG 16-BIT INS]
    1677                            .dwpsn  file "C:/TI_ARM_Tiva_Projects/Source/timers.c",line 536,column 2,is_stmt,isa 1
    1678                    $C$DW$147       .dwtag  DW_TAG_TI_branch
    1679                            .dwattr $C$DW$147, DW_AT_low_pc(0x00)
    1680                            .dwattr $C$DW$147, DW_AT_name("xTaskGetTickCount")
    1681                            .dwattr $C$DW$147, DW_AT_TI_call
    1682                    
    1683 00000232 FFFEF7FF!         BL        xTaskGetTickCount     ; [DPU_3_PIPE] |536|  ; [KEEP 32-BIT INS]
    1684                            ; CALL OCCURS {xTaskGetTickCount }  ; [] |536| 
    1685 00000236 9001              STR       A1, [SP, #4]          ; [DPU_3_PIPE] |536|  ; [ORIG 16-BIT INS]
    1686                            .dwpsn  file "C:/TI_ARM_Tiva_Projects/Source/timers.c",line 538,column 2,is_stmt,isa 1
    1687 00000238 489F              LDR       A1, $C$CON6           ; [DPU_3_PIPE] |538|  ; [ORIG 16-BIT INS]
    1688 0000023a 9901              LDR       A2, [SP, #4]          ; [DPU_3_PIPE] |538|  ; [ORIG 16-BIT INS]
    1689 0000023c 6800              LDR       A1, [A1, #0]          ; [DPU_3_PIPE] |538|  ; [ORIG 16-BIT INS]
    1690 0000023e 4288              CMP       A1, A2                ; [DPU_3_PIPE] |538|  ; [ORIG 16-BIT INS]
    1691 00000240 D905              BLS       ||$C$L17||            ; [DPU_3_PIPE] |538|  ; [ORIG 16-BIT INS]
    1692                            ; BRANCHCC OCCURS {||$C$L17||}   ; [] |538| 
    1693                    ;* --------------------------------------------------------------------------*
    1694                            .dwpsn  file "C:/TI_ARM_Tiva_Projects/Source/timers.c",line 540,column 3,is_stmt,isa 1
    1695                    $C$DW$148       .dwtag  DW_TAG_TI_branch
    1696                            .dwattr $C$DW$148, DW_AT_low_pc(0x00)
    1697                            .dwattr $C$DW$148, DW_AT_name("prvSwitchTimerLists")
    1698                            .dwattr $C$DW$148, DW_AT_TI_call
    1699                    
    1700 00000242 F8C3F000          BL        prvSwitchTimerLists   ; [DPU_3_PIPE] |540|  ; [KEEP 32-BIT INS]
    1701                            ; CALL OCCURS {prvSwitchTimerLists }  ; [] |540| 
    1702                            .dwpsn  file "C:/TI_ARM_Tiva_Projects/Source/timers.c",line 541,column 3,is_stmt,isa 1
    1703 00000246 9800              LDR       A1, [SP, #0]          ; [DPU_3_PIPE] |541|  ; [ORIG 16-BIT INS]
    1704 00000248 2101              MOVS      A2, #1                ; [DPU_3_PIPE] |541|  ; [ORIG 16-BIT INS]
    1705 0000024a 6001              STR       A2, [A1, #0]          ; [DPU_3_PIPE] |541|  ; [ORIG 16-BIT INS]
TI ARM Assembler PC v15.12.1 Tue Oct 18 10:42:36 2016

Tools Copyright (c) 1996-2015 Texas Instruments Incorporated
timers.asm                                                           PAGE   32

    1706                            .dwpsn  file "C:/TI_ARM_Tiva_Projects/Source/timers.c",line 542,column 2,is_stmt,isa 1
    1707 0000024c E002              B         ||$C$L18||            ; [DPU_3_PIPE] |542|  ; [ORIG 16-BIT INS]
    1708                            ; BRANCH OCCURS {||$C$L18||}     ; [] |542| 
    1709                    ;* --------------------------------------------------------------------------*
    1710 0000024e           ||$C$L17||:    
    1711                            .dwpsn  file "C:/TI_ARM_Tiva_Projects/Source/timers.c",line 545,column 3,is_stmt,isa 1
    1712 0000024e 9800              LDR       A1, [SP, #0]          ; [DPU_3_PIPE] |545|  ; [ORIG 16-BIT INS]
    1713 00000250 2100              MOVS      A2, #0                ; [DPU_3_PIPE] |545|  ; [ORIG 16-BIT INS]
    1714 00000252 6001              STR       A2, [A1, #0]          ; [DPU_3_PIPE] |545|  ; [ORIG 16-BIT INS]
    1715                    ;* --------------------------------------------------------------------------*
    1716 00000254           ||$C$L18||:    
    1717                            .dwpsn  file "C:/TI_ARM_Tiva_Projects/Source/timers.c",line 548,column 2,is_stmt,isa 1
    1718 00000254 9801              LDR       A1, [SP, #4]          ; [DPU_3_PIPE] |548|  ; [ORIG 16-BIT INS]
    1719 00000256 4998              LDR       A2, $C$CON6           ; [DPU_3_PIPE] |548|  ; [ORIG 16-BIT INS]
    1720 00000258 6008              STR       A1, [A2, #0]          ; [DPU_3_PIPE] |548|  ; [ORIG 16-BIT INS]
    1721                            .dwpsn  file "C:/TI_ARM_Tiva_Projects/Source/timers.c",line 550,column 2,is_stmt,isa 1
    1722 0000025a 9801              LDR       A1, [SP, #4]          ; [DPU_3_PIPE] |550|  ; [ORIG 16-BIT INS]
    1723                            .dwpsn  file "C:/TI_ARM_Tiva_Projects/Source/timers.c",line 551,column 1,is_stmt,isa 1
    1724                    $C$DW$149       .dwtag  DW_TAG_TI_branch
    1725                            .dwattr $C$DW$149, DW_AT_low_pc(0x00)
    1726                            .dwattr $C$DW$149, DW_AT_TI_return
    1727                    
    1728 0000025c BD0E              POP       {A2, A3, A4, PC}      ; [DPU_3_PIPE]  ; [ORIG 16-BIT INS]
    1729                            .dwcfi  cfa_offset, 0
    1730                            ; BRANCH OCCURS                  ; [] 
    1731                            .dwattr $C$DW$142, DW_AT_TI_end_file("C:/TI_ARM_Tiva_Projects/Source/timers.c")
    1732                            .dwattr $C$DW$142, DW_AT_TI_end_line(0x227)
    1733                            .dwattr $C$DW$142, DW_AT_TI_end_column(0x01)
    1734                            .dwendentry
    1735                            .dwendtag $C$DW$142
    1736                    
    1737                    ;******************************************************************************
    1738                    ;* STRINGS                                                                    *
    1739                    ;******************************************************************************
    1740 0000025e                   .sect   ".text"
    1741                            .align  4
    1742 00000260 54        ||$C$SL1||:     .string "Tmr Svc",0
         00000261 6D       
         00000262 72       
         00000263 20       
         00000264 53       
         00000265 76       
         00000266 63       
         00000267 00       
    1743                    ;******************************************************************************
    1744                    ;* CONSTANT TABLE                                                             *
    1745                    ;******************************************************************************
    1746 00000268                   .sect   ".text"
    1747                            .align  4
    1748 00000266 00000063! ||$C$CON1||:    .bits   xTimerQueue,32
         0000026a 00000000 
    1749                            .align  4
    1750 0000026a 00000000! ||$C$CON2||:    .bits   prvTimerTask,32
         0000026e 00000000 
    1751 00000270                   .sect   ".text"
TI ARM Assembler PC v15.12.1 Tue Oct 18 10:42:36 2016

Tools Copyright (c) 1996-2015 Texas Instruments Incorporated
timers.asm                                                           PAGE   33

    1752                            .clink
    1753                            .thumbfunc prvInsertTimerInActiveList
    1754 00000270                   .thumb
    1755                    
    1756                    $C$DW$150       .dwtag  DW_TAG_subprogram
    1757                            .dwattr $C$DW$150, DW_AT_name("prvInsertTimerInActiveList")
    1758                            .dwattr $C$DW$150, DW_AT_low_pc(prvInsertTimerInActiveList)
    1759                            .dwattr $C$DW$150, DW_AT_high_pc(0x00)
    1760                            .dwattr $C$DW$150, DW_AT_TI_symbol_name("prvInsertTimerInActiveList")
    1761                            .dwattr $C$DW$150, DW_AT_type(*$C$DW$T$50)
    1762                            .dwattr $C$DW$150, DW_AT_TI_begin_file("C:/TI_ARM_Tiva_Projects/Source/timers.c")
    1763                            .dwattr $C$DW$150, DW_AT_TI_begin_line(0x22a)
    1764                            .dwattr $C$DW$150, DW_AT_TI_begin_column(0x13)
    1765                            .dwattr $C$DW$150, DW_AT_decl_file("C:/TI_ARM_Tiva_Projects/Source/timers.c")
    1766                            .dwattr $C$DW$150, DW_AT_decl_line(0x22a)
    1767                            .dwattr $C$DW$150, DW_AT_decl_column(0x13)
    1768                            .dwattr $C$DW$150, DW_AT_TI_max_frame_size(0x18)
    1769                            .dwpsn  file "C:/TI_ARM_Tiva_Projects/Source/timers.c",line 555,column 1,is_stmt,address prvIn
    1770                    
    1771                            .dwfde $C$DW$CIE, prvInsertTimerInActiveList
    1772                    $C$DW$151       .dwtag  DW_TAG_formal_parameter
    1773                            .dwattr $C$DW$151, DW_AT_name("pxTimer")
    1774                            .dwattr $C$DW$151, DW_AT_TI_symbol_name("pxTimer")
    1775                            .dwattr $C$DW$151, DW_AT_type(*$C$DW$T$155)
    1776                            .dwattr $C$DW$151, DW_AT_location[DW_OP_reg0]
    1777                    
    1778                    $C$DW$152       .dwtag  DW_TAG_formal_parameter
    1779                            .dwattr $C$DW$152, DW_AT_name("xNextExpiryTime")
    1780                            .dwattr $C$DW$152, DW_AT_TI_symbol_name("xNextExpiryTime")
    1781                            .dwattr $C$DW$152, DW_AT_type(*$C$DW$T$92)
    1782                            .dwattr $C$DW$152, DW_AT_location[DW_OP_reg1]
    1783                    
    1784                    $C$DW$153       .dwtag  DW_TAG_formal_parameter
    1785                            .dwattr $C$DW$153, DW_AT_name("xTimeNow")
    1786                            .dwattr $C$DW$153, DW_AT_TI_symbol_name("xTimeNow")
    1787                            .dwattr $C$DW$153, DW_AT_type(*$C$DW$T$92)
    1788                            .dwattr $C$DW$153, DW_AT_location[DW_OP_reg2]
    1789                    
    1790                    $C$DW$154       .dwtag  DW_TAG_formal_parameter
    1791                            .dwattr $C$DW$154, DW_AT_name("xCommandTime")
    1792                            .dwattr $C$DW$154, DW_AT_TI_symbol_name("xCommandTime")
    1793                            .dwattr $C$DW$154, DW_AT_type(*$C$DW$T$92)
    1794                            .dwattr $C$DW$154, DW_AT_location[DW_OP_reg3]
    1795                    
    1796                    
    1797                    ;*****************************************************************************
    1798                    ;* FUNCTION NAME: prvInsertTimerInActiveList                                 *
    1799                    ;*                                                                           *
    1800                    ;*   Regs Modified     : A1,A2,A3,A4,V9,SP,LR,SR,D0,D0_hi,D1,D1_hi,D2,D2_hi, *
    1801                    ;*                           D3,D3_hi,D4,D4_hi,D5,D5_hi,D6,D6_hi,D7,D7_hi,   *
    1802                    ;*                           FPEXC,FPSCR                                     *
    1803                    ;*   Regs Used         : A1,A2,A3,A4,V9,SP,LR,SR,D0,D0_hi,D1,D1_hi,D2,D2_hi, *
    1804                    ;*                           D3,D3_hi,D4,D4_hi,D5,D5_hi,D6,D6_hi,D7,D7_hi,   *
    1805                    ;*                           FPEXC,FPSCR                                     *
    1806                    ;*   Local Frame Size  : 0 Args + 20 Auto + 4 Save = 24 byte                 *
TI ARM Assembler PC v15.12.1 Tue Oct 18 10:42:36 2016

Tools Copyright (c) 1996-2015 Texas Instruments Incorporated
timers.asm                                                           PAGE   34

    1807                    ;*****************************************************************************
    1808 00000270           prvInsertTimerInActiveList:
    1809                    ;* --------------------------------------------------------------------------*
    1810                            .dwcfi  cfa_offset, 0
    1811 00000270 B500              PUSH      {LR}                  ; [DPU_3_PIPE]  ; [ORIG 16-BIT INS]
    1812                            .dwcfi  cfa_offset, 4
    1813                            .dwcfi  save_reg_to_mem, 14, -4
    1814 00000272 0D14F1AD          SUB       SP, SP, #20           ; [DPU_3_PIPE]  ; [KEEP 32-BIT INS]
    1815                            .dwcfi  cfa_offset, 24
    1816                    $C$DW$155       .dwtag  DW_TAG_variable
    1817                            .dwattr $C$DW$155, DW_AT_name("pxTimer")
    1818                            .dwattr $C$DW$155, DW_AT_TI_symbol_name("pxTimer")
    1819                            .dwattr $C$DW$155, DW_AT_type(*$C$DW$T$155)
    1820                            .dwattr $C$DW$155, DW_AT_location[DW_OP_breg13 0]
    1821                    
    1822                    $C$DW$156       .dwtag  DW_TAG_variable
    1823                            .dwattr $C$DW$156, DW_AT_name("xNextExpiryTime")
    1824                            .dwattr $C$DW$156, DW_AT_TI_symbol_name("xNextExpiryTime")
    1825                            .dwattr $C$DW$156, DW_AT_type(*$C$DW$T$92)
    1826                            .dwattr $C$DW$156, DW_AT_location[DW_OP_breg13 4]
    1827                    
    1828                    $C$DW$157       .dwtag  DW_TAG_variable
    1829                            .dwattr $C$DW$157, DW_AT_name("xTimeNow")
    1830                            .dwattr $C$DW$157, DW_AT_TI_symbol_name("xTimeNow")
    1831                            .dwattr $C$DW$157, DW_AT_type(*$C$DW$T$92)
    1832                            .dwattr $C$DW$157, DW_AT_location[DW_OP_breg13 8]
    1833                    
    1834                    $C$DW$158       .dwtag  DW_TAG_variable
    1835                            .dwattr $C$DW$158, DW_AT_name("xCommandTime")
    1836                            .dwattr $C$DW$158, DW_AT_TI_symbol_name("xCommandTime")
    1837                            .dwattr $C$DW$158, DW_AT_type(*$C$DW$T$92)
    1838                            .dwattr $C$DW$158, DW_AT_location[DW_OP_breg13 12]
    1839                    
    1840                    $C$DW$159       .dwtag  DW_TAG_variable
    1841                            .dwattr $C$DW$159, DW_AT_name("xProcessTimerNow")
    1842                            .dwattr $C$DW$159, DW_AT_TI_symbol_name("xProcessTimerNow")
    1843                            .dwattr $C$DW$159, DW_AT_type(*$C$DW$T$50)
    1844                            .dwattr $C$DW$159, DW_AT_location[DW_OP_breg13 16]
    1845                    
    1846 00000276 9303              STR       A4, [SP, #12]         ; [DPU_3_PIPE] |555|  ; [ORIG 16-BIT INS]
    1847 00000278 9202              STR       A3, [SP, #8]          ; [DPU_3_PIPE] |555|  ; [ORIG 16-BIT INS]
    1848 0000027a 9101              STR       A2, [SP, #4]          ; [DPU_3_PIPE] |555|  ; [ORIG 16-BIT INS]
    1849 0000027c 9000              STR       A1, [SP, #0]          ; [DPU_3_PIPE] |555|  ; [ORIG 16-BIT INS]
    1850                            .dwpsn  file "C:/TI_ARM_Tiva_Projects/Source/timers.c",line 556,column 29,is_stmt,isa 1
    1851 0000027e 2000              MOVS      A1, #0                ; [DPU_3_PIPE] |556|  ; [ORIG 16-BIT INS]
    1852 00000280 9004              STR       A1, [SP, #16]         ; [DPU_3_PIPE] |556|  ; [ORIG 16-BIT INS]
    1853                            .dwpsn  file "C:/TI_ARM_Tiva_Projects/Source/timers.c",line 558,column 2,is_stmt,isa 1
    1854 00000282 9900              LDR       A2, [SP, #0]          ; [DPU_3_PIPE] |558|  ; [ORIG 16-BIT INS]
    1855 00000284 9801              LDR       A1, [SP, #4]          ; [DPU_3_PIPE] |558|  ; [ORIG 16-BIT INS]
    1856 00000286 6048              STR       A1, [A2, #4]          ; [DPU_3_PIPE] |558|  ; [ORIG 16-BIT INS]
    1857                            .dwpsn  file "C:/TI_ARM_Tiva_Projects/Source/timers.c",line 559,column 2,is_stmt,isa 1
    1858 00000288 9800              LDR       A1, [SP, #0]          ; [DPU_3_PIPE] |559|  ; [ORIG 16-BIT INS]
    1859 0000028a 9900              LDR       A2, [SP, #0]          ; [DPU_3_PIPE] |559|  ; [ORIG 16-BIT INS]
    1860 0000028c 6108              STR       A1, [A2, #16]         ; [DPU_3_PIPE] |559|  ; [ORIG 16-BIT INS]
    1861                            .dwpsn  file "C:/TI_ARM_Tiva_Projects/Source/timers.c",line 561,column 2,is_stmt,isa 1
TI ARM Assembler PC v15.12.1 Tue Oct 18 10:42:36 2016

Tools Copyright (c) 1996-2015 Texas Instruments Incorporated
timers.asm                                                           PAGE   35

    1862 0000028e 9802              LDR       A1, [SP, #8]          ; [DPU_3_PIPE] |561|  ; [ORIG 16-BIT INS]
    1863 00000290 9901              LDR       A2, [SP, #4]          ; [DPU_3_PIPE] |561|  ; [ORIG 16-BIT INS]
    1864 00000292 4288              CMP       A1, A2                ; [DPU_3_PIPE] |561|  ; [ORIG 16-BIT INS]
    1865 00000294 D310              BCC       ||$C$L20||            ; [DPU_3_PIPE] |561|  ; [ORIG 16-BIT INS]
    1866                            ; BRANCHCC OCCURS {||$C$L20||}   ; [] |561| 
    1867                    ;* --------------------------------------------------------------------------*
    1868                            .dwpsn  file "C:/TI_ARM_Tiva_Projects/Source/timers.c",line 565,column 3,is_stmt,isa 1
    1869 00000296 9900              LDR       A2, [SP, #0]          ; [DPU_3_PIPE] |565|  ; [ORIG 16-BIT INS]
    1870 00000298 9A03              LDR       A3, [SP, #12]         ; [DPU_3_PIPE] |565|  ; [ORIG 16-BIT INS]
    1871 0000029a 9802              LDR       A1, [SP, #8]          ; [DPU_3_PIPE] |565|  ; [ORIG 16-BIT INS]
    1872 0000029c 6989              LDR       A2, [A2, #24]         ; [DPU_3_PIPE] |565|  ; [ORIG 16-BIT INS]
    1873 0000029e 1A80              SUBS      A1, A1, A3            ; [DPU_3_PIPE] |565|  ; [ORIG 16-BIT INS]
    1874 000002a0 4281              CMP       A2, A1                ; [DPU_3_PIPE] |565|  ; [ORIG 16-BIT INS]
    1875 000002a2 D802              BHI       ||$C$L19||            ; [DPU_3_PIPE] |565|  ; [ORIG 16-BIT INS]
    1876                            ; BRANCHCC OCCURS {||$C$L19||}   ; [] |565| 
    1877                    ;* --------------------------------------------------------------------------*
    1878                            .dwpsn  file "C:/TI_ARM_Tiva_Projects/Source/timers.c",line 569,column 4,is_stmt,isa 1
    1879 000002a4 2001              MOVS      A1, #1                ; [DPU_3_PIPE] |569|  ; [ORIG 16-BIT INS]
    1880 000002a6 9004              STR       A1, [SP, #16]         ; [DPU_3_PIPE] |569|  ; [ORIG 16-BIT INS]
    1881                            .dwpsn  file "C:/TI_ARM_Tiva_Projects/Source/timers.c",line 570,column 3,is_stmt,isa 1
    1882 000002a8 E017              B         ||$C$L22||            ; [DPU_3_PIPE] |570|  ; [ORIG 16-BIT INS]
    1883                            ; BRANCH OCCURS {||$C$L22||}     ; [] |570| 
    1884                    ;* --------------------------------------------------------------------------*
    1885 000002aa           ||$C$L19||:    
    1886                            .dwpsn  file "C:/TI_ARM_Tiva_Projects/Source/timers.c",line 573,column 4,is_stmt,isa 1
    1887 000002aa 4847              LDR       A1, $C$CON4           ; [DPU_3_PIPE] |573|  ; [ORIG 16-BIT INS]
    1888 000002ac 9900              LDR       A2, [SP, #0]          ; [DPU_3_PIPE] |573|  ; [ORIG 16-BIT INS]
    1889 000002ae 6800              LDR       A1, [A1, #0]          ; [DPU_3_PIPE] |573|  ; [ORIG 16-BIT INS]
    1890 000002b0 1D09              ADDS      A2, A2, #4            ; [DPU_3_PIPE] |573|  ; [ORIG 16-BIT INS]
    1891                    $C$DW$160       .dwtag  DW_TAG_TI_branch
    1892                            .dwattr $C$DW$160, DW_AT_low_pc(0x00)
    1893                            .dwattr $C$DW$160, DW_AT_name("vListInsert")
    1894                            .dwattr $C$DW$160, DW_AT_TI_call
    1895                    
    1896 000002b2 FFFEF7FF!         BL        vListInsert           ; [DPU_3_PIPE] |573|  ; [KEEP 32-BIT INS]
    1897                            ; CALL OCCURS {vListInsert }     ; [] |573| 
    1898                            .dwpsn  file "C:/TI_ARM_Tiva_Projects/Source/timers.c",line 575,column 2,is_stmt,isa 1
    1899 000002b6 E010              B         ||$C$L22||            ; [DPU_3_PIPE] |575|  ; [ORIG 16-BIT INS]
    1900                            ; BRANCH OCCURS {||$C$L22||}     ; [] |575| 
    1901                    ;* --------------------------------------------------------------------------*
    1902 000002b8           ||$C$L20||:    
    1903                            .dwpsn  file "C:/TI_ARM_Tiva_Projects/Source/timers.c",line 578,column 3,is_stmt,isa 1
    1904 000002b8 9803              LDR       A1, [SP, #12]         ; [DPU_3_PIPE] |578|  ; [ORIG 16-BIT INS]
    1905 000002ba 9902              LDR       A2, [SP, #8]          ; [DPU_3_PIPE] |578|  ; [ORIG 16-BIT INS]
    1906 000002bc 4288              CMP       A1, A2                ; [DPU_3_PIPE] |578|  ; [ORIG 16-BIT INS]
    1907 000002be D906              BLS       ||$C$L21||            ; [DPU_3_PIPE] |578|  ; [ORIG 16-BIT INS]
    1908                            ; BRANCHCC OCCURS {||$C$L21||}   ; [] |578| 
    1909                    ;* --------------------------------------------------------------------------*
    1910 000002c0 9803              LDR       A1, [SP, #12]         ; [DPU_3_PIPE] |578|  ; [ORIG 16-BIT INS]
    1911 000002c2 9901              LDR       A2, [SP, #4]          ; [DPU_3_PIPE] |578|  ; [ORIG 16-BIT INS]
    1912 000002c4 4288              CMP       A1, A2                ; [DPU_3_PIPE] |578|  ; [ORIG 16-BIT INS]
    1913 000002c6 D802              BHI       ||$C$L21||            ; [DPU_3_PIPE] |578|  ; [ORIG 16-BIT INS]
    1914                            ; BRANCHCC OCCURS {||$C$L21||}   ; [] |578| 
    1915                    ;* --------------------------------------------------------------------------*
    1916                            .dwpsn  file "C:/TI_ARM_Tiva_Projects/Source/timers.c",line 583,column 4,is_stmt,isa 1
TI ARM Assembler PC v15.12.1 Tue Oct 18 10:42:36 2016

Tools Copyright (c) 1996-2015 Texas Instruments Incorporated
timers.asm                                                           PAGE   36

    1917 000002c8 2001              MOVS      A1, #1                ; [DPU_3_PIPE] |583|  ; [ORIG 16-BIT INS]
    1918 000002ca 9004              STR       A1, [SP, #16]         ; [DPU_3_PIPE] |583|  ; [ORIG 16-BIT INS]
    1919                            .dwpsn  file "C:/TI_ARM_Tiva_Projects/Source/timers.c",line 584,column 3,is_stmt,isa 1
    1920 000002cc E005              B         ||$C$L22||            ; [DPU_3_PIPE] |584|  ; [ORIG 16-BIT INS]
    1921                            ; BRANCH OCCURS {||$C$L22||}     ; [] |584| 
    1922                    ;* --------------------------------------------------------------------------*
    1923 000002ce           ||$C$L21||:    
    1924                            .dwpsn  file "C:/TI_ARM_Tiva_Projects/Source/timers.c",line 587,column 4,is_stmt,isa 1
    1925 000002ce 4804              LDR       A1, $C$CON3           ; [DPU_3_PIPE] |587|  ; [ORIG 16-BIT INS]
    1926 000002d0 9900              LDR       A2, [SP, #0]          ; [DPU_3_PIPE] |587|  ; [ORIG 16-BIT INS]
    1927 000002d2 6800              LDR       A1, [A1, #0]          ; [DPU_3_PIPE] |587|  ; [ORIG 16-BIT INS]
    1928 000002d4 1D09              ADDS      A2, A2, #4            ; [DPU_3_PIPE] |587|  ; [ORIG 16-BIT INS]
    1929                    $C$DW$161       .dwtag  DW_TAG_TI_branch
    1930                            .dwattr $C$DW$161, DW_AT_low_pc(0x00)
    1931                            .dwattr $C$DW$161, DW_AT_name("vListInsert")
    1932                            .dwattr $C$DW$161, DW_AT_TI_call
    1933                    
    1934 000002d6 FFFEF7FF!         BL        vListInsert           ; [DPU_3_PIPE] |587|  ; [KEEP 32-BIT INS]
    1935                            ; CALL OCCURS {vListInsert }     ; [] |587| 
    1936                    ;* --------------------------------------------------------------------------*
    1937 000002da           ||$C$L22||:    
    1938                            .dwpsn  file "C:/TI_ARM_Tiva_Projects/Source/timers.c",line 591,column 2,is_stmt,isa 1
    1939 000002da 9804              LDR       A1, [SP, #16]         ; [DPU_3_PIPE] |591|  ; [ORIG 16-BIT INS]
    1940                            .dwpsn  file "C:/TI_ARM_Tiva_Projects/Source/timers.c",line 592,column 1,is_stmt,isa 1
    1941 000002dc B005              ADD       SP, SP, #20           ; [DPU_3_PIPE]  ; [ORIG 16-BIT INS]
    1942                            .dwcfi  cfa_offset, 4
    1943                    $C$DW$162       .dwtag  DW_TAG_TI_branch
    1944                            .dwattr $C$DW$162, DW_AT_low_pc(0x00)
    1945                            .dwattr $C$DW$162, DW_AT_TI_return
    1946                    
    1947 000002de BD00              POP       {PC}                  ; [DPU_3_PIPE]  ; [ORIG 16-BIT INS]
    1948                            .dwcfi  cfa_offset, 0
    1949                            ; BRANCH OCCURS                  ; [] 
    1950                            .dwattr $C$DW$150, DW_AT_TI_end_file("C:/TI_ARM_Tiva_Projects/Source/timers.c")
    1951                            .dwattr $C$DW$150, DW_AT_TI_end_line(0x250)
    1952                            .dwattr $C$DW$150, DW_AT_TI_end_column(0x01)
    1953                            .dwendentry
    1954                            .dwendtag $C$DW$150
    1955                    
    1956                    ;******************************************************************************
    1957                    ;* CONSTANT TABLE                                                             *
    1958                    ;******************************************************************************
    1959 000002e0                   .sect   ".text"
    1960                            .align  4
    1961 000002e0 00000000! ||$C$CON3||:    .bits   pxCurrentTimerList,32
    1962 000002e4                   .sect   ".text"
    1963                            .clink
    1964                            .thumbfunc prvProcessReceivedCommands
    1965 000002e4                   .thumb
    1966                    
    1967                    $C$DW$163       .dwtag  DW_TAG_subprogram
    1968                            .dwattr $C$DW$163, DW_AT_name("prvProcessReceivedCommands")
    1969                            .dwattr $C$DW$163, DW_AT_low_pc(prvProcessReceivedCommands)
    1970                            .dwattr $C$DW$163, DW_AT_high_pc(0x00)
    1971                            .dwattr $C$DW$163, DW_AT_TI_symbol_name("prvProcessReceivedCommands")
TI ARM Assembler PC v15.12.1 Tue Oct 18 10:42:36 2016

Tools Copyright (c) 1996-2015 Texas Instruments Incorporated
timers.asm                                                           PAGE   37

    1972                            .dwattr $C$DW$163, DW_AT_TI_begin_file("C:/TI_ARM_Tiva_Projects/Source/timers.c")
    1973                            .dwattr $C$DW$163, DW_AT_TI_begin_line(0x253)
    1974                            .dwattr $C$DW$163, DW_AT_TI_begin_column(0x0d)
    1975                            .dwattr $C$DW$163, DW_AT_decl_file("C:/TI_ARM_Tiva_Projects/Source/timers.c")
    1976                            .dwattr $C$DW$163, DW_AT_decl_line(0x253)
    1977                            .dwattr $C$DW$163, DW_AT_decl_column(0x0d)
    1978                            .dwattr $C$DW$163, DW_AT_TI_max_frame_size(0x28)
    1979                            .dwpsn  file "C:/TI_ARM_Tiva_Projects/Source/timers.c",line 596,column 1,is_stmt,address prvPr
    1980                    
    1981                            .dwfde $C$DW$CIE, prvProcessReceivedCommands
    1982                    
    1983                    ;*****************************************************************************
    1984                    ;* FUNCTION NAME: prvProcessReceivedCommands                                 *
    1985                    ;*                                                                           *
    1986                    ;*   Regs Modified     : A1,A2,A3,A4,V9,SP,LR,SR,D0,D0_hi,D1,D1_hi,D2,D2_hi, *
    1987                    ;*                           D3,D3_hi,D4,D4_hi,D5,D5_hi,D6,D6_hi,D7,D7_hi,   *
    1988                    ;*                           FPEXC,FPSCR                                     *
    1989                    ;*   Regs Used         : A1,A2,A3,A4,V9,SP,LR,SR,D0,D0_hi,D1,D1_hi,D2,D2_hi, *
    1990                    ;*                           D3,D3_hi,D4,D4_hi,D5,D5_hi,D6,D6_hi,D7,D7_hi,   *
    1991                    ;*                           FPEXC,FPSCR                                     *
    1992                    ;*   Local Frame Size  : 4 Args + 28 Auto + 4 Save = 36 byte                 *
    1993                    ;*****************************************************************************
    1994 000002e4           prvProcessReceivedCommands:
    1995                    ;* --------------------------------------------------------------------------*
    1996                            .dwcfi  cfa_offset, 0
    1997 000002e4 B500              PUSH      {LR}                  ; [DPU_3_PIPE]  ; [ORIG 16-BIT INS]
    1998                            .dwcfi  cfa_offset, 4
    1999                            .dwcfi  save_reg_to_mem, 14, -4
    2000 000002e6 0D24F1AD          SUB       SP, SP, #36           ; [DPU_3_PIPE]  ; [KEEP 32-BIT INS]
    2001                            .dwcfi  cfa_offset, 40
    2002                    $C$DW$164       .dwtag  DW_TAG_variable
    2003                            .dwattr $C$DW$164, DW_AT_name("xMessage")
    2004                            .dwattr $C$DW$164, DW_AT_TI_symbol_name("xMessage")
    2005                            .dwattr $C$DW$164, DW_AT_type(*$C$DW$T$200)
    2006                            .dwattr $C$DW$164, DW_AT_location[DW_OP_breg13 4]
    2007                    
    2008                    $C$DW$165       .dwtag  DW_TAG_variable
    2009                            .dwattr $C$DW$165, DW_AT_name("pxTimer")
    2010                            .dwattr $C$DW$165, DW_AT_TI_symbol_name("pxTimer")
    2011                            .dwattr $C$DW$165, DW_AT_type(*$C$DW$T$47)
    2012                            .dwattr $C$DW$165, DW_AT_location[DW_OP_breg13 16]
    2013                    
    2014                    $C$DW$166       .dwtag  DW_TAG_variable
    2015                            .dwattr $C$DW$166, DW_AT_name("xTimerListsWereSwitched")
    2016                            .dwattr $C$DW$166, DW_AT_TI_symbol_name("xTimerListsWereSwitched")
    2017                            .dwattr $C$DW$166, DW_AT_type(*$C$DW$T$50)
    2018                            .dwattr $C$DW$166, DW_AT_location[DW_OP_breg13 20]
    2019                    
    2020                    $C$DW$167       .dwtag  DW_TAG_variable
    2021                            .dwattr $C$DW$167, DW_AT_name("xResult")
    2022                            .dwattr $C$DW$167, DW_AT_TI_symbol_name("xResult")
    2023                            .dwattr $C$DW$167, DW_AT_type(*$C$DW$T$50)
    2024                            .dwattr $C$DW$167, DW_AT_location[DW_OP_breg13 24]
    2025                    
    2026                    $C$DW$168       .dwtag  DW_TAG_variable
TI ARM Assembler PC v15.12.1 Tue Oct 18 10:42:36 2016

Tools Copyright (c) 1996-2015 Texas Instruments Incorporated
timers.asm                                                           PAGE   38

    2027                            .dwattr $C$DW$168, DW_AT_name("xTimeNow")
    2028                            .dwattr $C$DW$168, DW_AT_TI_symbol_name("xTimeNow")
    2029                            .dwattr $C$DW$168, DW_AT_type(*$C$DW$T$38)
    2030                            .dwattr $C$DW$168, DW_AT_location[DW_OP_breg13 28]
    2031                    
    2032                            .dwpsn  file "C:/TI_ARM_Tiva_Projects/Source/timers.c",line 602,column 2,is_stmt,isa 1
    2033 000002ea E061              B         ||$C$L30||            ; [DPU_3_PIPE] |602|  ; [ORIG 16-BIT INS]
    2034                            ; BRANCH OCCURS {||$C$L30||}     ; [] |602| 
    2035                    ;* --------------------------------------------------------------------------*
    2036 000002ec           ||$C$L23||:    
    2037                            .dwpsn  file "C:/TI_ARM_Tiva_Projects/Source/timers.c",line 628,column 3,is_stmt,isa 1
    2038 000002ec 9801              LDR       A1, [SP, #4]          ; [DPU_3_PIPE] |628|  ; [ORIG 16-BIT INS]
    2039 000002ee 2800              CMP       A1, #0                ; [DPU_3_PIPE] |628|  ; [ORIG 16-BIT INS]
    2040 000002f0 D45E              BMI       ||$C$L30||            ; [DPU_3_PIPE] |628|  ; [ORIG 16-BIT INS]
    2041                            ; BRANCHCC OCCURS {||$C$L30||}   ; [] |628| 
    2042                    ;* --------------------------------------------------------------------------*
    2043                            .dwpsn  file "C:/TI_ARM_Tiva_Projects/Source/timers.c",line 632,column 4,is_stmt,isa 1
    2044 000002f2 9803              LDR       A1, [SP, #12]         ; [DPU_3_PIPE] |632|  ; [ORIG 16-BIT INS]
    2045 000002f4 9004              STR       A1, [SP, #16]         ; [DPU_3_PIPE] |632|  ; [ORIG 16-BIT INS]
    2046                            .dwpsn  file "C:/TI_ARM_Tiva_Projects/Source/timers.c",line 634,column 4,is_stmt,isa 1
    2047 000002f6 9804              LDR       A1, [SP, #16]         ; [DPU_3_PIPE] |634|  ; [ORIG 16-BIT INS]
    2048 000002f8 6941              LDR       A2, [A1, #20]         ; [DPU_3_PIPE] |634|  ; [ORIG 16-BIT INS]
    2049 000002fa 2000              MOVS      A1, #0                ; [DPU_3_PIPE] |634|  ; [ORIG 16-BIT INS]
    2050 000002fc B901              CBNZ      A2, ||$C$L24||        ; []  ; [ORIG 16-BIT INS]
    2051                            ; BRANCHCC OCCURS {||$C$L24||}   ; [] |634| 
    2052                    ;* --------------------------------------------------------------------------*
    2053 000002fe 2001              MOVS      A1, #1                ; [DPU_3_PIPE] |634|  ; [ORIG 16-BIT INS]
    2054                    ;* --------------------------------------------------------------------------*
    2055 00000300           ||$C$L24||:    
    2056 00000300 B918              CBNZ      A1, ||$C$L25||        ; []  ; [ORIG 16-BIT INS]
    2057                            ; BRANCHCC OCCURS {||$C$L25||}   ; [] |634| 
    2058                    ;* --------------------------------------------------------------------------*
    2059                            .dwpsn  file "C:/TI_ARM_Tiva_Projects/Source/timers.c",line 637,column 5,is_stmt,isa 1
    2060 00000302 9804              LDR       A1, [SP, #16]         ; [DPU_3_PIPE] |637|  ; [ORIG 16-BIT INS]
    2061 00000304 1D00              ADDS      A1, A1, #4            ; [DPU_3_PIPE] |637|  ; [ORIG 16-BIT INS]
    2062                    $C$DW$169       .dwtag  DW_TAG_TI_branch
    2063                            .dwattr $C$DW$169, DW_AT_low_pc(0x00)
    2064                            .dwattr $C$DW$169, DW_AT_name("uxListRemove")
    2065                            .dwattr $C$DW$169, DW_AT_TI_call
    2066                    
    2067 00000306 FFFEF7FF!         BL        uxListRemove          ; [DPU_3_PIPE] |637|  ; [KEEP 32-BIT INS]
    2068                            ; CALL OCCURS {uxListRemove }    ; [] |637| 
    2069                            .dwpsn  file "C:/TI_ARM_Tiva_Projects/Source/timers.c",line 638,column 4,is_stmt,isa 1
    2070                    ;* --------------------------------------------------------------------------*
    2071 0000030a           ||$C$L25||:    
    2072                            .dwpsn  file "C:/TI_ARM_Tiva_Projects/Source/timers.c",line 652,column 4,is_stmt,isa 1
    2073 0000030a A805              ADD       A1, SP, #20           ; [DPU_3_PIPE] |652|  ; [ORIG 16-BIT INS]
    2074                    $C$DW$170       .dwtag  DW_TAG_TI_branch
    2075                            .dwattr $C$DW$170, DW_AT_low_pc(0x00)
    2076                            .dwattr $C$DW$170, DW_AT_name("prvSampleTimeNow")
    2077                            .dwattr $C$DW$170, DW_AT_TI_call
    2078                    
    2079 0000030c FF8FF7FF          BL        prvSampleTimeNow      ; [DPU_3_PIPE] |652|  ; [KEEP 32-BIT INS]
    2080                            ; CALL OCCURS {prvSampleTimeNow }  ; [] |652| 
    2081 00000310 9007              STR       A1, [SP, #28]         ; [DPU_3_PIPE] |652|  ; [ORIG 16-BIT INS]
TI ARM Assembler PC v15.12.1 Tue Oct 18 10:42:36 2016

Tools Copyright (c) 1996-2015 Texas Instruments Incorporated
timers.asm                                                           PAGE   39

    2082                            .dwpsn  file "C:/TI_ARM_Tiva_Projects/Source/timers.c",line 654,column 4,is_stmt,isa 1
    2083 00000312 E031              B         ||$C$L29||            ; [DPU_3_PIPE] |654|  ; [ORIG 16-BIT INS]
    2084                            ; BRANCH OCCURS {||$C$L29||}     ; [] |654| 
    2085                    ;* --------------------------------------------------------------------------*
    2086 00000314           ||$C$L26||:    
    2087                            .dwpsn  file "C:/TI_ARM_Tiva_Projects/Source/timers.c",line 662,column 6,is_stmt,isa 1
    2088 00000314 9904              LDR       A2, [SP, #16]         ; [DPU_3_PIPE] |662|  ; [ORIG 16-BIT INS]
    2089 00000316 9802              LDR       A1, [SP, #8]          ; [DPU_3_PIPE] |662|  ; [ORIG 16-BIT INS]
    2090 00000318 9A07              LDR       A3, [SP, #28]         ; [DPU_3_PIPE] |662|  ; [ORIG 16-BIT INS]
    2091 0000031a 9B02              LDR       A4, [SP, #8]          ; [DPU_3_PIPE] |662|  ; [ORIG 16-BIT INS]
    2092 0000031c 6989              LDR       A2, [A2, #24]         ; [DPU_3_PIPE] |662|  ; [ORIG 16-BIT INS]
    2093 0000031e 1809              ADDS      A2, A2, A1            ; [DPU_3_PIPE] |662|  ; [ORIG 16-BIT INS]
    2094 00000320 9804              LDR       A1, [SP, #16]         ; [DPU_3_PIPE] |662|  ; [ORIG 16-BIT INS]
    2095                    $C$DW$171       .dwtag  DW_TAG_TI_branch
    2096                            .dwattr $C$DW$171, DW_AT_low_pc(0x00)
    2097                            .dwattr $C$DW$171, DW_AT_name("prvInsertTimerInActiveList")
    2098                            .dwattr $C$DW$171, DW_AT_TI_call
    2099                    
    2100 00000322 FFA5F7FF          BL        prvInsertTimerInActiveList ; [DPU_3_PIPE] |662|  ; [KEEP 32-BIT INS]
    2101                            ; CALL OCCURS {prvInsertTimerInActiveList }  ; [] |662| 
    2102 00000326 2801              CMP       A1, #1                ; [DPU_3_PIPE] |662|  ; [ORIG 16-BIT INS]
    2103 00000328 D142              BNE       ||$C$L30||            ; [DPU_3_PIPE] |662|  ; [ORIG 16-BIT INS]
    2104                            ; BRANCHCC OCCURS {||$C$L30||}   ; [] |662| 
    2105                    ;* --------------------------------------------------------------------------*
    2106                            .dwpsn  file "C:/TI_ARM_Tiva_Projects/Source/timers.c",line 666,column 7,is_stmt,isa 1
    2107 0000032a 9804              LDR       A1, [SP, #16]         ; [DPU_3_PIPE] |666|  ; [ORIG 16-BIT INS]
    2108 0000032c 6A40              LDR       A1, [A1, #36]         ; [DPU_3_PIPE] |666|  ; [ORIG 16-BIT INS]
    2109 0000032e 4601              MOV       A2, A1                ; [DPU_3_PIPE] |666|  ; [ORIG 16-BIT INS]
    2110 00000330 9804              LDR       A1, [SP, #16]         ; [DPU_3_PIPE] |666|  ; [ORIG 16-BIT INS]
    2111                    $C$DW$172       .dwtag  DW_TAG_TI_branch
    2112                            .dwattr $C$DW$172, DW_AT_low_pc(0x00)
    2113                            .dwattr $C$DW$172, DW_AT_TI_call
    2114                            .dwattr $C$DW$172, DW_AT_TI_indirect
    2115                    
    2116 00000332 4788              BLX       A2                    ; [DPU_3_PIPE] |666|  ; [ORIG 16-BIT INS]
    2117                            ; CALL OCCURS {}                 ; [] |666| 
    2118                            .dwpsn  file "C:/TI_ARM_Tiva_Projects/Source/timers.c",line 669,column 7,is_stmt,isa 1
    2119 00000334 9804              LDR       A1, [SP, #16]         ; [DPU_3_PIPE] |669|  ; [ORIG 16-BIT INS]
    2120 00000336 69C0              LDR       A1, [A1, #28]         ; [DPU_3_PIPE] |669|  ; [ORIG 16-BIT INS]
    2121 00000338 2801              CMP       A1, #1                ; [DPU_3_PIPE] |669|  ; [ORIG 16-BIT INS]
    2122 0000033a D139              BNE       ||$C$L30||            ; [DPU_3_PIPE] |669|  ; [ORIG 16-BIT INS]
    2123                            ; BRANCHCC OCCURS {||$C$L30||}   ; [] |669| 
    2124                    ;* --------------------------------------------------------------------------*
    2125                            .dwpsn  file "C:/TI_ARM_Tiva_Projects/Source/timers.c",line 671,column 8,is_stmt,isa 1
    2126 0000033c 2000              MOVS      A1, #0                ; [DPU_3_PIPE] |671|  ; [ORIG 16-BIT INS]
    2127 0000033e 9000              STR       A1, [SP, #0]          ; [DPU_3_PIPE] |671|  ; [ORIG 16-BIT INS]
    2128 00000340 9904              LDR       A2, [SP, #16]         ; [DPU_3_PIPE] |671|  ; [ORIG 16-BIT INS]
    2129 00000342 9802              LDR       A1, [SP, #8]          ; [DPU_3_PIPE] |671|  ; [ORIG 16-BIT INS]
    2130 00000344 698A              LDR       A3, [A2, #24]         ; [DPU_3_PIPE] |671|  ; [ORIG 16-BIT INS]
    2131 00000346 1812              ADDS      A3, A3, A1            ; [DPU_3_PIPE] |671|  ; [ORIG 16-BIT INS]
    2132 00000348 9804              LDR       A1, [SP, #16]         ; [DPU_3_PIPE] |671|  ; [ORIG 16-BIT INS]
    2133 0000034a 2300              MOVS      A4, #0                ; [DPU_3_PIPE] |671|  ; [ORIG 16-BIT INS]
    2134 0000034c 2100              MOVS      A2, #0                ; [DPU_3_PIPE] |671|  ; [ORIG 16-BIT INS]
    2135                    $C$DW$173       .dwtag  DW_TAG_TI_branch
    2136                            .dwattr $C$DW$173, DW_AT_low_pc(0x00)
TI ARM Assembler PC v15.12.1 Tue Oct 18 10:42:36 2016

Tools Copyright (c) 1996-2015 Texas Instruments Incorporated
timers.asm                                                           PAGE   40

    2137                            .dwattr $C$DW$173, DW_AT_name("xTimerGenericCommand")
    2138                            .dwattr $C$DW$173, DW_AT_TI_call
    2139                    
    2140 0000034e FE9EF7FF          BL        xTimerGenericCommand  ; [DPU_3_PIPE] |671|  ; [KEEP 32-BIT INS]
    2141                            ; CALL OCCURS {xTimerGenericCommand }  ; [] |671| 
    2142 00000352 9006              STR       A1, [SP, #24]         ; [DPU_3_PIPE] |671|  ; [ORIG 16-BIT INS]
    2143                            .dwpsn  file "C:/TI_ARM_Tiva_Projects/Source/timers.c",line 673,column 8,is_stmt,isa 1
    2144                            .dwpsn  file "C:/TI_ARM_Tiva_Projects/Source/timers.c",line 674,column 7,is_stmt,isa 1
    2145 00000354 E02C              B         ||$C$L30||            ; [DPU_3_PIPE] |674|  ; [ORIG 16-BIT INS]
    2146                            ; BRANCH OCCURS {||$C$L30||}     ; [] |674| 
    2147                    ;* --------------------------------------------------------------------------*
    2148                    ;* --------------------------------------------------------------------------*
    2149 00000356           ||$C$L27||:    
    2150                            .dwpsn  file "C:/TI_ARM_Tiva_Projects/Source/timers.c",line 694,column 6,is_stmt,isa 1
    2151 00000356 9802              LDR       A1, [SP, #8]          ; [DPU_3_PIPE] |694|  ; [ORIG 16-BIT INS]
    2152 00000358 9904              LDR       A2, [SP, #16]         ; [DPU_3_PIPE] |694|  ; [ORIG 16-BIT INS]
    2153 0000035a 6188              STR       A1, [A2, #24]         ; [DPU_3_PIPE] |694|  ; [ORIG 16-BIT INS]
    2154                            .dwpsn  file "C:/TI_ARM_Tiva_Projects/Source/timers.c",line 703,column 6,is_stmt,isa 1
    2155 0000035c 9904              LDR       A2, [SP, #16]         ; [DPU_3_PIPE] |703|  ; [ORIG 16-BIT INS]
    2156 0000035e 9807              LDR       A1, [SP, #28]         ; [DPU_3_PIPE] |703|  ; [ORIG 16-BIT INS]
    2157 00000360 9A07              LDR       A3, [SP, #28]         ; [DPU_3_PIPE] |703|  ; [ORIG 16-BIT INS]
    2158 00000362 9B07              LDR       A4, [SP, #28]         ; [DPU_3_PIPE] |703|  ; [ORIG 16-BIT INS]
    2159 00000364 6989              LDR       A2, [A2, #24]         ; [DPU_3_PIPE] |703|  ; [ORIG 16-BIT INS]
    2160 00000366 1809              ADDS      A2, A2, A1            ; [DPU_3_PIPE] |703|  ; [ORIG 16-BIT INS]
    2161 00000368 9804              LDR       A1, [SP, #16]         ; [DPU_3_PIPE] |703|  ; [ORIG 16-BIT INS]
    2162                    $C$DW$174       .dwtag  DW_TAG_TI_branch
    2163                            .dwattr $C$DW$174, DW_AT_low_pc(0x00)
    2164                            .dwattr $C$DW$174, DW_AT_name("prvInsertTimerInActiveList")
    2165                            .dwattr $C$DW$174, DW_AT_TI_call
    2166                    
    2167 0000036a FF81F7FF          BL        prvInsertTimerInActiveList ; [DPU_3_PIPE] |703|  ; [KEEP 32-BIT INS]
    2168                            ; CALL OCCURS {prvInsertTimerInActiveList }  ; [] |703| 
    2169                            .dwpsn  file "C:/TI_ARM_Tiva_Projects/Source/timers.c",line 704,column 6,is_stmt,isa 1
    2170 0000036e E01F              B         ||$C$L30||            ; [DPU_3_PIPE] |704|  ; [ORIG 16-BIT INS]
    2171                            ; BRANCH OCCURS {||$C$L30||}     ; [] |704| 
    2172                    ;* --------------------------------------------------------------------------*
    2173 00000370           ||$C$L28||:    
    2174                            .dwpsn  file "C:/TI_ARM_Tiva_Projects/Source/timers.c",line 709,column 6,is_stmt,isa 1
    2175 00000370 9804              LDR       A1, [SP, #16]         ; [DPU_3_PIPE] |709|  ; [ORIG 16-BIT INS]
    2176                    $C$DW$175       .dwtag  DW_TAG_TI_branch
    2177                            .dwattr $C$DW$175, DW_AT_low_pc(0x00)
    2178                            .dwattr $C$DW$175, DW_AT_name("vPortFree")
    2179                            .dwattr $C$DW$175, DW_AT_TI_call
    2180                    
    2181 00000372 FFFEF7FF!         BL        vPortFree             ; [DPU_3_PIPE] |709|  ; [KEEP 32-BIT INS]
    2182                            ; CALL OCCURS {vPortFree }       ; [] |709| 
    2183                            .dwpsn  file "C:/TI_ARM_Tiva_Projects/Source/timers.c",line 710,column 6,is_stmt,isa 1
    2184 00000376 E01B              B         ||$C$L30||            ; [DPU_3_PIPE] |710|  ; [ORIG 16-BIT INS]
    2185                            ; BRANCH OCCURS {||$C$L30||}     ; [] |710| 
    2186                    ;* --------------------------------------------------------------------------*
    2187                    ;* --------------------------------------------------------------------------*
    2188 00000378           ||$C$L29||:    
    2189                            .dwpsn  file "C:/TI_ARM_Tiva_Projects/Source/timers.c",line 654,column 4,is_stmt,isa 1
    2190 00000378 9801              LDR       A1, [SP, #4]          ; [DPU_3_PIPE] |654|  ; [ORIG 16-BIT INS]
    2191 0000037a 2809              CMP       A1, #9                ; [DPU_3_PIPE] |654|  ; [ORIG 16-BIT INS]
TI ARM Assembler PC v15.12.1 Tue Oct 18 10:42:36 2016

Tools Copyright (c) 1996-2015 Texas Instruments Incorporated
timers.asm                                                           PAGE   41

    2192 0000037c D818              BHI       ||$C$L30||            ; [DPU_3_PIPE] |654|  ; [ORIG 16-BIT INS]
    2193                            ; BRANCHCC OCCURS {||$C$L30||}   ; [] |654| 
    2194                    ;* --------------------------------------------------------------------------*
    2195 0000037e A102              ADR       A2, ||$C$SW1||        ; [DPU_3_PIPE] |654|  ; [ORIG 16-BIT INS]
    2196 00000380 0020F851          LDR       A1, [A2, +A1, LSL #2] ; [DPU_3_PIPE] |654|  ; [KEEP 32-BIT INS]
    2197 00000384 4687              MOV       PC, A1                ; [DPU_3_PIPE] |654|  ; [ORIG 16-BIT INS]
    2198                            ; BRANCH OCCURS                  ; [] |654| 
    2199 00000388 00000000! ||$C$SW1||:     .word   ||$C$L26||      ; 0
    2200 0000038c 00000000!         .word   ||$C$L26||      ; 1
    2201 00000390 00000000!         .word   ||$C$L26||      ; 2
    2202 00000394 00000000!         .word   ||$C$L30||      ; 3
    2203 00000398 00000000!         .word   ||$C$L27||      ; 4
    2204 0000039c 00000000!         .word   ||$C$L28||      ; 5
    2205 000003a0 00000000!         .word   ||$C$L26||      ; 6
    2206 000003a4 00000000!         .word   ||$C$L26||      ; 7
    2207 000003a8 00000000!         .word   ||$C$L30||      ; 8
    2208 000003ac 00000000!         .word   ||$C$L27||      ; 9
    2209                    ;* --------------------------------------------------------------------------*
    2210                    ;*   BEGIN LOOP ||$C$L30||
    2211                    ;* --------------------------------------------------------------------------*
    2212 000003b0           ||$C$L30||:    
    2213                            .dwpsn  file "C:/TI_ARM_Tiva_Projects/Source/timers.c",line 602,column 9,is_stmt,isa 1
    2214 000003b0 485C              LDR       A1, $C$CON7           ; [DPU_3_PIPE] |602|  ; [ORIG 16-BIT INS]
    2215 000003b2 6800              LDR       A1, [A1, #0]          ; [DPU_3_PIPE] |602|  ; [ORIG 16-BIT INS]
    2216 000003b4 A901              ADD       A2, SP, #4            ; [DPU_3_PIPE] |602|  ; [ORIG 16-BIT INS]
    2217 000003b6 2200              MOVS      A3, #0                ; [DPU_3_PIPE] |602|  ; [ORIG 16-BIT INS]
    2218 000003b8 2300              MOVS      A4, #0                ; [DPU_3_PIPE] |602|  ; [ORIG 16-BIT INS]
    2219                    $C$DW$176       .dwtag  DW_TAG_TI_branch
    2220                            .dwattr $C$DW$176, DW_AT_low_pc(0x00)
    2221                            .dwattr $C$DW$176, DW_AT_name("xQueueGenericReceive")
    2222                            .dwattr $C$DW$176, DW_AT_TI_call
    2223                    
    2224 000003ba FFFEF7FF!         BL        xQueueGenericReceive  ; [DPU_3_PIPE] |602|  ; [KEEP 32-BIT INS]
    2225                            ; CALL OCCURS {xQueueGenericReceive }  ; [] |602| 
    2226 000003be 2800              CMP       A1, #0                ; [DPU_3_PIPE] |602|  ; [ORIG 16-BIT INS]
    2227 000003c0 D194              BNE       ||$C$L23||            ; [DPU_3_PIPE] |602|  ; [ORIG 16-BIT INS]
    2228                            ; BRANCHCC OCCURS {||$C$L23||}   ; [] |602| 
    2229                    ;* --------------------------------------------------------------------------*
    2230                            .dwpsn  file "C:/TI_ARM_Tiva_Projects/Source/timers.c",line 718,column 1,is_stmt,isa 1
    2231 000003c2 B009              ADD       SP, SP, #36           ; [DPU_3_PIPE]  ; [ORIG 16-BIT INS]
    2232                            .dwcfi  cfa_offset, 4
    2233                    $C$DW$177       .dwtag  DW_TAG_TI_branch
    2234                            .dwattr $C$DW$177, DW_AT_low_pc(0x00)
    2235                            .dwattr $C$DW$177, DW_AT_TI_return
    2236                    
    2237 000003c4 BD00              POP       {PC}                  ; [DPU_3_PIPE]  ; [ORIG 16-BIT INS]
    2238                            .dwcfi  cfa_offset, 0
    2239                            ; BRANCH OCCURS                  ; [] 
    2240                            .dwattr $C$DW$163, DW_AT_TI_end_file("C:/TI_ARM_Tiva_Projects/Source/timers.c")
    2241                            .dwattr $C$DW$163, DW_AT_TI_end_line(0x2ce)
    2242                            .dwattr $C$DW$163, DW_AT_TI_end_column(0x01)
    2243                            .dwendentry
    2244                            .dwendtag $C$DW$163
    2245                    
    2246                    ;******************************************************************************
TI ARM Assembler PC v15.12.1 Tue Oct 18 10:42:36 2016

Tools Copyright (c) 1996-2015 Texas Instruments Incorporated
timers.asm                                                           PAGE   42

    2247                    ;* CONSTANT TABLE                                                             *
    2248                    ;******************************************************************************
    2249 000003c6                   .sect   ".text"
    2250                            .align  4
    2251 000003c6 000046C0! ||$C$CON4||:    .bits   pxOverflowTimerList,32
         000003ca 00000000 
    2252 000003cc                   .sect   ".text"
    2253                            .clink
    2254                            .thumbfunc prvSwitchTimerLists
    2255 000003cc                   .thumb
    2256                    
    2257                    $C$DW$178       .dwtag  DW_TAG_subprogram
    2258                            .dwattr $C$DW$178, DW_AT_name("prvSwitchTimerLists")
    2259                            .dwattr $C$DW$178, DW_AT_low_pc(prvSwitchTimerLists)
    2260                            .dwattr $C$DW$178, DW_AT_high_pc(0x00)
    2261                            .dwattr $C$DW$178, DW_AT_TI_symbol_name("prvSwitchTimerLists")
    2262                            .dwattr $C$DW$178, DW_AT_TI_begin_file("C:/TI_ARM_Tiva_Projects/Source/timers.c")
    2263                            .dwattr $C$DW$178, DW_AT_TI_begin_line(0x2d1)
    2264                            .dwattr $C$DW$178, DW_AT_TI_begin_column(0x0d)
    2265                            .dwattr $C$DW$178, DW_AT_decl_file("C:/TI_ARM_Tiva_Projects/Source/timers.c")
    2266                            .dwattr $C$DW$178, DW_AT_decl_line(0x2d1)
    2267                            .dwattr $C$DW$178, DW_AT_decl_column(0x0d)
    2268                            .dwattr $C$DW$178, DW_AT_TI_max_frame_size(0x20)
    2269                            .dwpsn  file "C:/TI_ARM_Tiva_Projects/Source/timers.c",line 722,column 1,is_stmt,address prvSw
    2270                    
    2271                            .dwfde $C$DW$CIE, prvSwitchTimerLists
    2272                    
    2273                    ;*****************************************************************************
    2274                    ;* FUNCTION NAME: prvSwitchTimerLists                                        *
    2275                    ;*                                                                           *
    2276                    ;*   Regs Modified     : A1,A2,A3,A4,V9,SP,LR,SR,D0,D0_hi,D1,D1_hi,D2,D2_hi, *
    2277                    ;*                           D3,D3_hi,D4,D4_hi,D5,D5_hi,D6,D6_hi,D7,D7_hi,   *
    2278                    ;*                           FPEXC,FPSCR                                     *
    2279                    ;*   Regs Used         : A1,A2,A3,A4,V9,SP,LR,SR,D0,D0_hi,D1,D1_hi,D2,D2_hi, *
    2280                    ;*                           D3,D3_hi,D4,D4_hi,D5,D5_hi,D6,D6_hi,D7,D7_hi,   *
    2281                    ;*                           FPEXC,FPSCR                                     *
    2282                    ;*   Local Frame Size  : 4 Args + 20 Auto + 4 Save = 28 byte                 *
    2283                    ;*****************************************************************************
    2284 000003cc           prvSwitchTimerLists:
    2285                    ;* --------------------------------------------------------------------------*
    2286                            .dwcfi  cfa_offset, 0
    2287 000003cc B500              PUSH      {LR}                  ; [DPU_3_PIPE]  ; [ORIG 16-BIT INS]
    2288                            .dwcfi  cfa_offset, 4
    2289                            .dwcfi  save_reg_to_mem, 14, -4
    2290 000003ce 0D1CF1AD          SUB       SP, SP, #28           ; [DPU_3_PIPE]  ; [KEEP 32-BIT INS]
    2291                            .dwcfi  cfa_offset, 32
    2292                    $C$DW$179       .dwtag  DW_TAG_variable
    2293                            .dwattr $C$DW$179, DW_AT_name("xNextExpireTime")
    2294                            .dwattr $C$DW$179, DW_AT_TI_symbol_name("xNextExpireTime")
    2295                            .dwattr $C$DW$179, DW_AT_type(*$C$DW$T$38)
    2296                            .dwattr $C$DW$179, DW_AT_location[DW_OP_breg13 4]
    2297                    
    2298                    $C$DW$180       .dwtag  DW_TAG_variable
    2299                            .dwattr $C$DW$180, DW_AT_name("xReloadTime")
    2300                            .dwattr $C$DW$180, DW_AT_TI_symbol_name("xReloadTime")
TI ARM Assembler PC v15.12.1 Tue Oct 18 10:42:36 2016

Tools Copyright (c) 1996-2015 Texas Instruments Incorporated
timers.asm                                                           PAGE   43

    2301                            .dwattr $C$DW$180, DW_AT_type(*$C$DW$T$38)
    2302                            .dwattr $C$DW$180, DW_AT_location[DW_OP_breg13 8]
    2303                    
    2304                    $C$DW$181       .dwtag  DW_TAG_variable
    2305                            .dwattr $C$DW$181, DW_AT_name("pxTemp")
    2306                            .dwattr $C$DW$181, DW_AT_TI_symbol_name("pxTemp")
    2307                            .dwattr $C$DW$181, DW_AT_type(*$C$DW$T$102)
    2308                            .dwattr $C$DW$181, DW_AT_location[DW_OP_breg13 12]
    2309                    
    2310                    $C$DW$182       .dwtag  DW_TAG_variable
    2311                            .dwattr $C$DW$182, DW_AT_name("pxTimer")
    2312                            .dwattr $C$DW$182, DW_AT_TI_symbol_name("pxTimer")
    2313                            .dwattr $C$DW$182, DW_AT_type(*$C$DW$T$47)
    2314                            .dwattr $C$DW$182, DW_AT_location[DW_OP_breg13 16]
    2315                    
    2316                    $C$DW$183       .dwtag  DW_TAG_variable
    2317                            .dwattr $C$DW$183, DW_AT_name("xResult")
    2318                            .dwattr $C$DW$183, DW_AT_TI_symbol_name("xResult")
    2319                            .dwattr $C$DW$183, DW_AT_type(*$C$DW$T$50)
    2320                            .dwattr $C$DW$183, DW_AT_location[DW_OP_breg13 20]
    2321                    
    2322                            .dwpsn  file "C:/TI_ARM_Tiva_Projects/Source/timers.c",line 732,column 2,is_stmt,isa 1
    2323 000003d2 E035              B         ||$C$L33||            ; [DPU_3_PIPE] |732|  ; [ORIG 16-BIT INS]
    2324                            ; BRANCH OCCURS {||$C$L33||}     ; [] |732| 
    2325                    ;* --------------------------------------------------------------------------*
    2326 000003d4           ||$C$L31||:    
    2327                            .dwpsn  file "C:/TI_ARM_Tiva_Projects/Source/timers.c",line 734,column 3,is_stmt,isa 1
    2328 000003d4 4854              LDR       A1, $C$CON8           ; [DPU_3_PIPE] |734|  ; [ORIG 16-BIT INS]
    2329 000003d6 6800              LDR       A1, [A1, #0]          ; [DPU_3_PIPE] |734|  ; [ORIG 16-BIT INS]
    2330 000003d8 68C0              LDR       A1, [A1, #12]         ; [DPU_3_PIPE] |734|  ; [ORIG 16-BIT INS]
    2331 000003da 6800              LDR       A1, [A1, #0]          ; [DPU_3_PIPE] |734|  ; [ORIG 16-BIT INS]
    2332 000003dc 9001              STR       A1, [SP, #4]          ; [DPU_3_PIPE] |734|  ; [ORIG 16-BIT INS]
    2333                            .dwpsn  file "C:/TI_ARM_Tiva_Projects/Source/timers.c",line 737,column 3,is_stmt,isa 1
    2334 000003de 4852              LDR       A1, $C$CON8           ; [DPU_3_PIPE] |737|  ; [ORIG 16-BIT INS]
    2335 000003e0 6800              LDR       A1, [A1, #0]          ; [DPU_3_PIPE] |737|  ; [ORIG 16-BIT INS]
    2336 000003e2 68C0              LDR       A1, [A1, #12]         ; [DPU_3_PIPE] |737|  ; [ORIG 16-BIT INS]
    2337 000003e4 68C0              LDR       A1, [A1, #12]         ; [DPU_3_PIPE] |737|  ; [ORIG 16-BIT INS]
    2338 000003e6 9004              STR       A1, [SP, #16]         ; [DPU_3_PIPE] |737|  ; [ORIG 16-BIT INS]
    2339                            .dwpsn  file "C:/TI_ARM_Tiva_Projects/Source/timers.c",line 738,column 3,is_stmt,isa 1
    2340 000003e8 9804              LDR       A1, [SP, #16]         ; [DPU_3_PIPE] |738|  ; [ORIG 16-BIT INS]
    2341 000003ea 1D00              ADDS      A1, A1, #4            ; [DPU_3_PIPE] |738|  ; [ORIG 16-BIT INS]
    2342                    $C$DW$184       .dwtag  DW_TAG_TI_branch
    2343                            .dwattr $C$DW$184, DW_AT_low_pc(0x00)
    2344                            .dwattr $C$DW$184, DW_AT_name("uxListRemove")
    2345                            .dwattr $C$DW$184, DW_AT_TI_call
    2346                    
    2347 000003ec FFFEF7FF!         BL        uxListRemove          ; [DPU_3_PIPE] |738|  ; [KEEP 32-BIT INS]
    2348                            ; CALL OCCURS {uxListRemove }    ; [] |738| 
    2349                            .dwpsn  file "C:/TI_ARM_Tiva_Projects/Source/timers.c",line 744,column 3,is_stmt,isa 1
    2350 000003f0 9804              LDR       A1, [SP, #16]         ; [DPU_3_PIPE] |744|  ; [ORIG 16-BIT INS]
    2351 000003f2 6A40              LDR       A1, [A1, #36]         ; [DPU_3_PIPE] |744|  ; [ORIG 16-BIT INS]
    2352 000003f4 4601              MOV       A2, A1                ; [DPU_3_PIPE] |744|  ; [ORIG 16-BIT INS]
    2353 000003f6 9804              LDR       A1, [SP, #16]         ; [DPU_3_PIPE] |744|  ; [ORIG 16-BIT INS]
    2354                    $C$DW$185       .dwtag  DW_TAG_TI_branch
    2355                            .dwattr $C$DW$185, DW_AT_low_pc(0x00)
TI ARM Assembler PC v15.12.1 Tue Oct 18 10:42:36 2016

Tools Copyright (c) 1996-2015 Texas Instruments Incorporated
timers.asm                                                           PAGE   44

    2356                            .dwattr $C$DW$185, DW_AT_TI_call
    2357                            .dwattr $C$DW$185, DW_AT_TI_indirect
    2358                    
    2359 000003f8 4788              BLX       A2                    ; [DPU_3_PIPE] |744|  ; [ORIG 16-BIT INS]
    2360                            ; CALL OCCURS {}                 ; [] |744| 
    2361                            .dwpsn  file "C:/TI_ARM_Tiva_Projects/Source/timers.c",line 746,column 3,is_stmt,isa 1
    2362 000003fa 9804              LDR       A1, [SP, #16]         ; [DPU_3_PIPE] |746|  ; [ORIG 16-BIT INS]
    2363 000003fc 69C0              LDR       A1, [A1, #28]         ; [DPU_3_PIPE] |746|  ; [ORIG 16-BIT INS]
    2364 000003fe 2801              CMP       A1, #1                ; [DPU_3_PIPE] |746|  ; [ORIG 16-BIT INS]
    2365 00000400 D11E              BNE       ||$C$L33||            ; [DPU_3_PIPE] |746|  ; [ORIG 16-BIT INS]
    2366                            ; BRANCHCC OCCURS {||$C$L33||}   ; [] |746| 
    2367                    ;* --------------------------------------------------------------------------*
    2368                            .dwpsn  file "C:/TI_ARM_Tiva_Projects/Source/timers.c",line 754,column 4,is_stmt,isa 1
    2369 00000402 9804              LDR       A1, [SP, #16]         ; [DPU_3_PIPE] |754|  ; [ORIG 16-BIT INS]
    2370 00000404 9901              LDR       A2, [SP, #4]          ; [DPU_3_PIPE] |754|  ; [ORIG 16-BIT INS]
    2371 00000406 6980              LDR       A1, [A1, #24]         ; [DPU_3_PIPE] |754|  ; [ORIG 16-BIT INS]
    2372 00000408 1840              ADDS      A1, A1, A2            ; [DPU_3_PIPE] |754|  ; [ORIG 16-BIT INS]
    2373 0000040a 9002              STR       A1, [SP, #8]          ; [DPU_3_PIPE] |754|  ; [ORIG 16-BIT INS]
    2374                            .dwpsn  file "C:/TI_ARM_Tiva_Projects/Source/timers.c",line 755,column 4,is_stmt,isa 1
    2375 0000040c 9801              LDR       A1, [SP, #4]          ; [DPU_3_PIPE] |755|  ; [ORIG 16-BIT INS]
    2376 0000040e 9902              LDR       A2, [SP, #8]          ; [DPU_3_PIPE] |755|  ; [ORIG 16-BIT INS]
    2377 00000410 4288              CMP       A1, A2                ; [DPU_3_PIPE] |755|  ; [ORIG 16-BIT INS]
    2378 00000412 D20C              BCS       ||$C$L32||            ; [DPU_3_PIPE] |755|  ; [ORIG 16-BIT INS]
    2379                            ; BRANCHCC OCCURS {||$C$L32||}   ; [] |755| 
    2380                    ;* --------------------------------------------------------------------------*
    2381                            .dwpsn  file "C:/TI_ARM_Tiva_Projects/Source/timers.c",line 757,column 5,is_stmt,isa 1
    2382 00000414 9802              LDR       A1, [SP, #8]          ; [DPU_3_PIPE] |757|  ; [ORIG 16-BIT INS]
    2383 00000416 9904              LDR       A2, [SP, #16]         ; [DPU_3_PIPE] |757|  ; [ORIG 16-BIT INS]
    2384 00000418 6048              STR       A1, [A2, #4]          ; [DPU_3_PIPE] |757|  ; [ORIG 16-BIT INS]
    2385                            .dwpsn  file "C:/TI_ARM_Tiva_Projects/Source/timers.c",line 758,column 5,is_stmt,isa 1
    2386 0000041a 9804              LDR       A1, [SP, #16]         ; [DPU_3_PIPE] |758|  ; [ORIG 16-BIT INS]
    2387 0000041c 9904              LDR       A2, [SP, #16]         ; [DPU_3_PIPE] |758|  ; [ORIG 16-BIT INS]
    2388 0000041e 6108              STR       A1, [A2, #16]         ; [DPU_3_PIPE] |758|  ; [ORIG 16-BIT INS]
    2389                            .dwpsn  file "C:/TI_ARM_Tiva_Projects/Source/timers.c",line 759,column 5,is_stmt,isa 1
    2390 00000420 4841              LDR       A1, $C$CON8           ; [DPU_3_PIPE] |759|  ; [ORIG 16-BIT INS]
    2391 00000422 9904              LDR       A2, [SP, #16]         ; [DPU_3_PIPE] |759|  ; [ORIG 16-BIT INS]
    2392 00000424 6800              LDR       A1, [A1, #0]          ; [DPU_3_PIPE] |759|  ; [ORIG 16-BIT INS]
    2393 00000426 1D09              ADDS      A2, A2, #4            ; [DPU_3_PIPE] |759|  ; [ORIG 16-BIT INS]
    2394                    $C$DW$186       .dwtag  DW_TAG_TI_branch
    2395                            .dwattr $C$DW$186, DW_AT_low_pc(0x00)
    2396                            .dwattr $C$DW$186, DW_AT_name("vListInsert")
    2397                            .dwattr $C$DW$186, DW_AT_TI_call
    2398                    
    2399 00000428 FFFEF7FF!         BL        vListInsert           ; [DPU_3_PIPE] |759|  ; [KEEP 32-BIT INS]
    2400                            ; CALL OCCURS {vListInsert }     ; [] |759| 
    2401                            .dwpsn  file "C:/TI_ARM_Tiva_Projects/Source/timers.c",line 760,column 4,is_stmt,isa 1
    2402 0000042c E008              B         ||$C$L33||            ; [DPU_3_PIPE] |760|  ; [ORIG 16-BIT INS]
    2403                            ; BRANCH OCCURS {||$C$L33||}     ; [] |760| 
    2404                    ;* --------------------------------------------------------------------------*
    2405 0000042e           ||$C$L32||:    
    2406                            .dwpsn  file "C:/TI_ARM_Tiva_Projects/Source/timers.c",line 763,column 5,is_stmt,isa 1
    2407 0000042e 2000              MOVS      A1, #0                ; [DPU_3_PIPE] |763|  ; [ORIG 16-BIT INS]
    2408 00000430 9000              STR       A1, [SP, #0]          ; [DPU_3_PIPE] |763|  ; [ORIG 16-BIT INS]
    2409 00000432 9A01              LDR       A3, [SP, #4]          ; [DPU_3_PIPE] |763|  ; [ORIG 16-BIT INS]
    2410 00000434 9804              LDR       A1, [SP, #16]         ; [DPU_3_PIPE] |763|  ; [ORIG 16-BIT INS]
TI ARM Assembler PC v15.12.1 Tue Oct 18 10:42:36 2016

Tools Copyright (c) 1996-2015 Texas Instruments Incorporated
timers.asm                                                           PAGE   45

    2411 00000436 2100              MOVS      A2, #0                ; [DPU_3_PIPE] |763|  ; [ORIG 16-BIT INS]
    2412 00000438 2300              MOVS      A4, #0                ; [DPU_3_PIPE] |763|  ; [ORIG 16-BIT INS]
    2413                    $C$DW$187       .dwtag  DW_TAG_TI_branch
    2414                            .dwattr $C$DW$187, DW_AT_low_pc(0x00)
    2415                            .dwattr $C$DW$187, DW_AT_name("xTimerGenericCommand")
    2416                            .dwattr $C$DW$187, DW_AT_TI_call
    2417                    
    2418 0000043a FE28F7FF          BL        xTimerGenericCommand  ; [DPU_3_PIPE] |763|  ; [KEEP 32-BIT INS]
    2419                            ; CALL OCCURS {xTimerGenericCommand }  ; [] |763| 
    2420 0000043e 9005              STR       A1, [SP, #20]         ; [DPU_3_PIPE] |763|  ; [ORIG 16-BIT INS]
    2421                            .dwpsn  file "C:/TI_ARM_Tiva_Projects/Source/timers.c",line 765,column 5,is_stmt,isa 1
    2422                            .dwpsn  file "C:/TI_ARM_Tiva_Projects/Source/timers.c",line 767,column 3,is_stmt,isa 1
    2423                    ;* --------------------------------------------------------------------------*
    2424                    ;*   BEGIN LOOP ||$C$L33||
    2425                    ;* --------------------------------------------------------------------------*
    2426 00000440           ||$C$L33||:    
    2427                            .dwpsn  file "C:/TI_ARM_Tiva_Projects/Source/timers.c",line 732,column 9,is_stmt,isa 1
    2428 00000440 4839              LDR       A1, $C$CON8           ; [DPU_3_PIPE] |732|  ; [ORIG 16-BIT INS]
    2429 00000442 6800              LDR       A1, [A1, #0]          ; [DPU_3_PIPE] |732|  ; [ORIG 16-BIT INS]
    2430 00000444 6800              LDR       A1, [A1, #0]          ; [DPU_3_PIPE] |732|  ; [ORIG 16-BIT INS]
    2431 00000446 2100              MOVS      A2, #0                ; [DPU_3_PIPE] |732|  ; [ORIG 16-BIT INS]
    2432 00000448 B900              CBNZ      A1, ||$C$L34||        ; []  ; [ORIG 16-BIT INS]
    2433                            ; BRANCHCC OCCURS {||$C$L34||}   ; [] |732| 
    2434                    ;* --------------------------------------------------------------------------*
    2435 0000044a 2101              MOVS      A2, #1                ; [DPU_3_PIPE] |732|  ; [ORIG 16-BIT INS]
    2436                    ;* --------------------------------------------------------------------------*
    2437 0000044c           ||$C$L34||:    
    2438 0000044c 2900              CMP       A2, #0                ; [DPU_3_PIPE] |732|  ; [ORIG 16-BIT INS]
    2439 0000044e D0C1              BEQ       ||$C$L31||            ; [DPU_3_PIPE] |732|  ; [ORIG 16-BIT INS]
    2440                            ; BRANCHCC OCCURS {||$C$L31||}   ; [] |732| 
    2441                    ;* --------------------------------------------------------------------------*
    2442                            .dwpsn  file "C:/TI_ARM_Tiva_Projects/Source/timers.c",line 774,column 2,is_stmt,isa 1
    2443 00000450 4835              LDR       A1, $C$CON8           ; [DPU_3_PIPE] |774|  ; [ORIG 16-BIT INS]
    2444 00000452 6800              LDR       A1, [A1, #0]          ; [DPU_3_PIPE] |774|  ; [ORIG 16-BIT INS]
    2445 00000454 9003              STR       A1, [SP, #12]         ; [DPU_3_PIPE] |774|  ; [ORIG 16-BIT INS]
    2446                            .dwpsn  file "C:/TI_ARM_Tiva_Projects/Source/timers.c",line 775,column 2,is_stmt,isa 1
    2447 00000456 4835              LDR       A1, $C$CON9           ; [DPU_3_PIPE] |775|  ; [ORIG 16-BIT INS]
    2448 00000458 4933              LDR       A2, $C$CON8           ; [DPU_3_PIPE] |775|  ; [ORIG 16-BIT INS]
    2449 0000045a 6800              LDR       A1, [A1, #0]          ; [DPU_3_PIPE] |775|  ; [ORIG 16-BIT INS]
    2450 0000045c 6008              STR       A1, [A2, #0]          ; [DPU_3_PIPE] |775|  ; [ORIG 16-BIT INS]
    2451                            .dwpsn  file "C:/TI_ARM_Tiva_Projects/Source/timers.c",line 776,column 2,is_stmt,isa 1
    2452 0000045e 4933              LDR       A2, $C$CON9           ; [DPU_3_PIPE] |776|  ; [ORIG 16-BIT INS]
    2453 00000460 9803              LDR       A1, [SP, #12]         ; [DPU_3_PIPE] |776|  ; [ORIG 16-BIT INS]
    2454 00000462 6008              STR       A1, [A2, #0]          ; [DPU_3_PIPE] |776|  ; [ORIG 16-BIT INS]
    2455                            .dwpsn  file "C:/TI_ARM_Tiva_Projects/Source/timers.c",line 777,column 1,is_stmt,isa 1
    2456 00000464 B007              ADD       SP, SP, #28           ; [DPU_3_PIPE]  ; [ORIG 16-BIT INS]
    2457                            .dwcfi  cfa_offset, 4
    2458                    $C$DW$188       .dwtag  DW_TAG_TI_branch
    2459                            .dwattr $C$DW$188, DW_AT_low_pc(0x00)
    2460                            .dwattr $C$DW$188, DW_AT_TI_return
    2461                    
    2462 00000466 BD00              POP       {PC}                  ; [DPU_3_PIPE]  ; [ORIG 16-BIT INS]
    2463                            .dwcfi  cfa_offset, 0
    2464                            ; BRANCH OCCURS                  ; [] 
    2465                            .dwattr $C$DW$178, DW_AT_TI_end_file("C:/TI_ARM_Tiva_Projects/Source/timers.c")
TI ARM Assembler PC v15.12.1 Tue Oct 18 10:42:36 2016

Tools Copyright (c) 1996-2015 Texas Instruments Incorporated
timers.asm                                                           PAGE   46

    2466                            .dwattr $C$DW$178, DW_AT_TI_end_line(0x309)
    2467                            .dwattr $C$DW$178, DW_AT_TI_end_column(0x01)
    2468                            .dwendentry
    2469                            .dwendtag $C$DW$178
    2470                    
    2471                    ;******************************************************************************
    2472                    ;* CONSTANT TABLE                                                             *
    2473                    ;******************************************************************************
    2474 00000468                   .sect   ".text"
    2475                            .align  4
    2476 00000468 E000ED04  ||$C$CON5||:    .bits   -536810236,32
    2477 0000046c                   .sect   ".text"
    2478                            .clink
    2479                            .thumbfunc prvCheckForValidListAndQueue
    2480 0000046c                   .thumb
    2481                    
    2482                    $C$DW$189       .dwtag  DW_TAG_subprogram
    2483                            .dwattr $C$DW$189, DW_AT_name("prvCheckForValidListAndQueue")
    2484                            .dwattr $C$DW$189, DW_AT_low_pc(prvCheckForValidListAndQueue)
    2485                            .dwattr $C$DW$189, DW_AT_high_pc(0x00)
    2486                            .dwattr $C$DW$189, DW_AT_TI_symbol_name("prvCheckForValidListAndQueue")
    2487                            .dwattr $C$DW$189, DW_AT_TI_begin_file("C:/TI_ARM_Tiva_Projects/Source/timers.c")
    2488                            .dwattr $C$DW$189, DW_AT_TI_begin_line(0x30c)
    2489                            .dwattr $C$DW$189, DW_AT_TI_begin_column(0x0d)
    2490                            .dwattr $C$DW$189, DW_AT_decl_file("C:/TI_ARM_Tiva_Projects/Source/timers.c")
    2491                            .dwattr $C$DW$189, DW_AT_decl_line(0x30c)
    2492                            .dwattr $C$DW$189, DW_AT_decl_column(0x0d)
    2493                            .dwattr $C$DW$189, DW_AT_TI_max_frame_size(0x08)
    2494                            .dwpsn  file "C:/TI_ARM_Tiva_Projects/Source/timers.c",line 781,column 1,is_stmt,address prvCh
    2495                    
    2496                            .dwfde $C$DW$CIE, prvCheckForValidListAndQueue
    2497                    
    2498                    ;*****************************************************************************
    2499                    ;* FUNCTION NAME: prvCheckForValidListAndQueue                               *
    2500                    ;*                                                                           *
    2501                    ;*   Regs Modified     : A1,A2,A3,A4,V9,SP,LR,SR,D0,D0_hi,D1,D1_hi,D2,D2_hi, *
    2502                    ;*                           D3,D3_hi,D4,D4_hi,D5,D5_hi,D6,D6_hi,D7,D7_hi,   *
    2503                    ;*                           FPEXC,FPSCR                                     *
    2504                    ;*   Regs Used         : A1,A2,A3,A4,V9,SP,LR,SR,D0,D0_hi,D1,D1_hi,D2,D2_hi, *
    2505                    ;*                           D3,D3_hi,D4,D4_hi,D5,D5_hi,D6,D6_hi,D7,D7_hi,   *
    2506                    ;*                           FPEXC,FPSCR                                     *
    2507                    ;*   Local Frame Size  : 0 Args + 0 Auto + 4 Save = 4 byte                   *
    2508                    ;*****************************************************************************
    2509 0000046c           prvCheckForValidListAndQueue:
    2510                    ;* --------------------------------------------------------------------------*
    2511                            .dwcfi  cfa_offset, 0
    2512 0000046c B508              PUSH      {A4, LR}              ; [DPU_3_PIPE]  ; [ORIG 16-BIT INS]
    2513                            .dwcfi  cfa_offset, 8
    2514                            .dwcfi  save_reg_to_mem, 14, -4
    2515                            .dwcfi  save_reg_to_mem, 3, -8
    2516                            .dwpsn  file "C:/TI_ARM_Tiva_Projects/Source/timers.c",line 785,column 2,is_stmt,isa 1
    2517                    $C$DW$190       .dwtag  DW_TAG_TI_branch
    2518                            .dwattr $C$DW$190, DW_AT_low_pc(0x00)
    2519                            .dwattr $C$DW$190, DW_AT_name("vPortEnterCritical")
    2520                            .dwattr $C$DW$190, DW_AT_TI_call
TI ARM Assembler PC v15.12.1 Tue Oct 18 10:42:36 2016

Tools Copyright (c) 1996-2015 Texas Instruments Incorporated
timers.asm                                                           PAGE   47

    2521                    
    2522 0000046e FFFEF7FF!         BL        vPortEnterCritical    ; [DPU_3_PIPE] |785|  ; [KEEP 32-BIT INS]
    2523                            ; CALL OCCURS {vPortEnterCritical }  ; [] |785| 
    2524                            .dwpsn  file "C:/TI_ARM_Tiva_Projects/Source/timers.c",line 787,column 3,is_stmt,isa 1
    2525 00000472 482C              LDR       A1, $C$CON7           ; [DPU_3_PIPE] |787|  ; [ORIG 16-BIT INS]
    2526 00000474 6800              LDR       A1, [A1, #0]          ; [DPU_3_PIPE] |787|  ; [ORIG 16-BIT INS]
    2527 00000476 B9D8              CBNZ      A1, ||$C$L35||        ; []  ; [ORIG 16-BIT INS]
    2528                            ; BRANCHCC OCCURS {||$C$L35||}   ; [] |787| 
    2529                    ;* --------------------------------------------------------------------------*
    2530                            .dwpsn  file "C:/TI_ARM_Tiva_Projects/Source/timers.c",line 789,column 4,is_stmt,isa 1
    2531 00000478 482D              LDR       A1, $C$CON10          ; [DPU_3_PIPE] |789|  ; [ORIG 16-BIT INS]
    2532                    $C$DW$191       .dwtag  DW_TAG_TI_branch
    2533                            .dwattr $C$DW$191, DW_AT_low_pc(0x00)
    2534                            .dwattr $C$DW$191, DW_AT_name("vListInitialise")
    2535                            .dwattr $C$DW$191, DW_AT_TI_call
    2536                    
    2537 0000047a FFFEF7FF!         BL        vListInitialise       ; [DPU_3_PIPE] |789|  ; [KEEP 32-BIT INS]
    2538                            ; CALL OCCURS {vListInitialise }  ; [] |789| 
    2539                            .dwpsn  file "C:/TI_ARM_Tiva_Projects/Source/timers.c",line 790,column 4,is_stmt,isa 1
    2540 0000047e 482D              LDR       A1, $C$CON11          ; [DPU_3_PIPE] |790|  ; [ORIG 16-BIT INS]
    2541                    $C$DW$192       .dwtag  DW_TAG_TI_branch
    2542                            .dwattr $C$DW$192, DW_AT_low_pc(0x00)
    2543                            .dwattr $C$DW$192, DW_AT_name("vListInitialise")
    2544                            .dwattr $C$DW$192, DW_AT_TI_call
    2545                    
    2546 00000480 FFFEF7FF!         BL        vListInitialise       ; [DPU_3_PIPE] |790|  ; [KEEP 32-BIT INS]
    2547                            ; CALL OCCURS {vListInitialise }  ; [] |790| 
    2548                            .dwpsn  file "C:/TI_ARM_Tiva_Projects/Source/timers.c",line 791,column 4,is_stmt,isa 1
    2549 00000484 482A              LDR       A1, $C$CON10          ; [DPU_3_PIPE] |791|  ; [ORIG 16-BIT INS]
    2550 00000486 4928              LDR       A2, $C$CON8           ; [DPU_3_PIPE] |791|  ; [ORIG 16-BIT INS]
    2551 00000488 6008              STR       A1, [A2, #0]          ; [DPU_3_PIPE] |791|  ; [ORIG 16-BIT INS]
    2552                            .dwpsn  file "C:/TI_ARM_Tiva_Projects/Source/timers.c",line 792,column 4,is_stmt,isa 1
    2553 0000048a 482A              LDR       A1, $C$CON11          ; [DPU_3_PIPE] |792|  ; [ORIG 16-BIT INS]
    2554 0000048c 4927              LDR       A2, $C$CON9           ; [DPU_3_PIPE] |792|  ; [ORIG 16-BIT INS]
    2555 0000048e 6008              STR       A1, [A2, #0]          ; [DPU_3_PIPE] |792|  ; [ORIG 16-BIT INS]
    2556                            .dwpsn  file "C:/TI_ARM_Tiva_Projects/Source/timers.c",line 793,column 4,is_stmt,isa 1
    2557 00000490 2200              MOVS      A3, #0                ; [DPU_3_PIPE] |793|  ; [ORIG 16-BIT INS]
    2558 00000492 2005              MOVS      A1, #5                ; [DPU_3_PIPE] |793|  ; [ORIG 16-BIT INS]
    2559 00000494 210C              MOVS      A2, #12               ; [DPU_3_PIPE] |793|  ; [ORIG 16-BIT INS]
    2560                    $C$DW$193       .dwtag  DW_TAG_TI_branch
    2561                            .dwattr $C$DW$193, DW_AT_low_pc(0x00)
    2562                            .dwattr $C$DW$193, DW_AT_name("xQueueGenericCreate")
    2563                            .dwattr $C$DW$193, DW_AT_TI_call
    2564                    
    2565 00000496 FFFEF7FF!         BL        xQueueGenericCreate   ; [DPU_3_PIPE] |793|  ; [KEEP 32-BIT INS]
    2566                            ; CALL OCCURS {xQueueGenericCreate }  ; [] |793| 
    2567 0000049a 4922              LDR       A2, $C$CON7           ; [DPU_3_PIPE] |793|  ; [ORIG 16-BIT INS]
    2568 0000049c 6008              STR       A1, [A2, #0]          ; [DPU_3_PIPE] |793|  ; [ORIG 16-BIT INS]
    2569                            .dwpsn  file "C:/TI_ARM_Tiva_Projects/Source/timers.c",line 798,column 5,is_stmt,isa 1
    2570 0000049e 4821              LDR       A1, $C$CON7           ; [DPU_3_PIPE] |798|  ; [ORIG 16-BIT INS]
    2571 000004a0 6800              LDR       A1, [A1, #0]          ; [DPU_3_PIPE] |798|  ; [ORIG 16-BIT INS]
    2572 000004a2 B128              CBZ       A1, ||$C$L35||        ; []  ; [ORIG 16-BIT INS]
    2573                            ; BRANCHCC OCCURS {||$C$L35||}   ; [] |798| 
    2574                    ;* --------------------------------------------------------------------------*
    2575                            .dwpsn  file "C:/TI_ARM_Tiva_Projects/Source/timers.c",line 800,column 6,is_stmt,isa 1
TI ARM Assembler PC v15.12.1 Tue Oct 18 10:42:36 2016

Tools Copyright (c) 1996-2015 Texas Instruments Incorporated
timers.asm                                                           PAGE   48

    2576 000004a4 481F              LDR       A1, $C$CON7           ; [DPU_3_PIPE] |800|  ; [ORIG 16-BIT INS]
    2577 000004a6 6800              LDR       A1, [A1, #0]          ; [DPU_3_PIPE] |800|  ; [ORIG 16-BIT INS]
    2578 000004a8 A11C              ADR       A2, $C$SL2            ; [DPU_3_PIPE] |800|  ; [ORIG 16-BIT INS]
    2579                    $C$DW$194       .dwtag  DW_TAG_TI_branch
    2580                            .dwattr $C$DW$194, DW_AT_low_pc(0x00)
    2581                            .dwattr $C$DW$194, DW_AT_name("vQueueAddToRegistry")
    2582                            .dwattr $C$DW$194, DW_AT_TI_call
    2583                    
    2584 000004aa FFFEF7FF!         BL        vQueueAddToRegistry   ; [DPU_3_PIPE] |800|  ; [KEEP 32-BIT INS]
    2585                            ; CALL OCCURS {vQueueAddToRegistry }  ; [] |800| 
    2586                            .dwpsn  file "C:/TI_ARM_Tiva_Projects/Source/timers.c",line 801,column 5,is_stmt,isa 1
    2587 000004ae E7FF              B         ||$C$L35||            ; [DPU_3_PIPE] |801|  ; [ORIG 16-BIT INS]
    2588                            ; BRANCH OCCURS {||$C$L35||}     ; [] |801| 
    2589                    ;* --------------------------------------------------------------------------*
    2590                    ;* --------------------------------------------------------------------------*
    2591 000004b0           ||$C$L35||:    
    2592                            .dwpsn  file "C:/TI_ARM_Tiva_Projects/Source/timers.c",line 814,column 2,is_stmt,isa 1
    2593                    $C$DW$195       .dwtag  DW_TAG_TI_branch
    2594                            .dwattr $C$DW$195, DW_AT_low_pc(0x00)
    2595                            .dwattr $C$DW$195, DW_AT_name("vPortExitCritical")
    2596                            .dwattr $C$DW$195, DW_AT_TI_call
    2597                    
    2598 000004b0 FFFEF7FF!         BL        vPortExitCritical     ; [DPU_3_PIPE] |814|  ; [KEEP 32-BIT INS]
    2599                            ; CALL OCCURS {vPortExitCritical }  ; [] |814| 
    2600                            .dwpsn  file "C:/TI_ARM_Tiva_Projects/Source/timers.c",line 815,column 1,is_stmt,isa 1
    2601                    $C$DW$196       .dwtag  DW_TAG_TI_branch
    2602                            .dwattr $C$DW$196, DW_AT_low_pc(0x00)
    2603                            .dwattr $C$DW$196, DW_AT_TI_return
    2604                    
    2605 000004b4 BD08              POP       {A4, PC}              ; [DPU_3_PIPE]  ; [ORIG 16-BIT INS]
    2606                            .dwcfi  cfa_offset, 0
    2607                            ; BRANCH OCCURS                  ; [] 
    2608                            .dwattr $C$DW$189, DW_AT_TI_end_file("C:/TI_ARM_Tiva_Projects/Source/timers.c")
    2609                            .dwattr $C$DW$189, DW_AT_TI_end_line(0x32f)
    2610                            .dwattr $C$DW$189, DW_AT_TI_end_column(0x01)
    2611                            .dwendentry
    2612                            .dwendtag $C$DW$189
    2613                    
    2614                    ;******************************************************************************
    2615                    ;* CONSTANT TABLE                                                             *
    2616                    ;******************************************************************************
    2617 000004b6                   .sect   ".text"
    2618                            .align  4
    2619 000004b6 000046C0! ||$C$CON6||:    .bits   xLastTime$1,32
         000004ba 00000000 
    2620 000004bc                   .sect   ".text"
    2621                            .clink
    2622                            .thumbfunc xTimerIsTimerActive
    2623 000004bc                   .thumb
    2624                            .global xTimerIsTimerActive
    2625                    
    2626                    $C$DW$197       .dwtag  DW_TAG_subprogram
    2627                            .dwattr $C$DW$197, DW_AT_name("xTimerIsTimerActive")
    2628                            .dwattr $C$DW$197, DW_AT_low_pc(xTimerIsTimerActive)
    2629                            .dwattr $C$DW$197, DW_AT_high_pc(0x00)
TI ARM Assembler PC v15.12.1 Tue Oct 18 10:42:36 2016

Tools Copyright (c) 1996-2015 Texas Instruments Incorporated
timers.asm                                                           PAGE   49

    2630                            .dwattr $C$DW$197, DW_AT_TI_symbol_name("xTimerIsTimerActive")
    2631                            .dwattr $C$DW$197, DW_AT_external
    2632                            .dwattr $C$DW$197, DW_AT_type(*$C$DW$T$50)
    2633                            .dwattr $C$DW$197, DW_AT_TI_begin_file("C:/TI_ARM_Tiva_Projects/Source/timers.c")
    2634                            .dwattr $C$DW$197, DW_AT_TI_begin_line(0x332)
    2635                            .dwattr $C$DW$197, DW_AT_TI_begin_column(0x0c)
    2636                            .dwattr $C$DW$197, DW_AT_decl_file("C:/TI_ARM_Tiva_Projects/Source/timers.c")
    2637                            .dwattr $C$DW$197, DW_AT_decl_line(0x332)
    2638                            .dwattr $C$DW$197, DW_AT_decl_column(0x0c)
    2639                            .dwattr $C$DW$197, DW_AT_TI_max_frame_size(0x10)
    2640                            .dwpsn  file "C:/TI_ARM_Tiva_Projects/Source/timers.c",line 819,column 1,is_stmt,address xTime
    2641                    
    2642                            .dwfde $C$DW$CIE, xTimerIsTimerActive
    2643                    $C$DW$198       .dwtag  DW_TAG_formal_parameter
    2644                            .dwattr $C$DW$198, DW_AT_name("xTimer")
    2645                            .dwattr $C$DW$198, DW_AT_TI_symbol_name("xTimer")
    2646                            .dwattr $C$DW$198, DW_AT_type(*$C$DW$T$40)
    2647                            .dwattr $C$DW$198, DW_AT_location[DW_OP_reg0]
    2648                    
    2649                    
    2650                    ;*****************************************************************************
    2651                    ;* FUNCTION NAME: xTimerIsTimerActive                                        *
    2652                    ;*                                                                           *
    2653                    ;*   Regs Modified     : A1,A2,A3,A4,V9,SP,LR,SR,D0,D0_hi,D1,D1_hi,D2,D2_hi, *
    2654                    ;*                           D3,D3_hi,D4,D4_hi,D5,D5_hi,D6,D6_hi,D7,D7_hi,   *
    2655                    ;*                           FPEXC,FPSCR                                     *
    2656                    ;*   Regs Used         : A1,A2,A3,A4,V9,SP,LR,SR,D0,D0_hi,D1,D1_hi,D2,D2_hi, *
    2657                    ;*                           D3,D3_hi,D4,D4_hi,D5,D5_hi,D6,D6_hi,D7,D7_hi,   *
    2658                    ;*                           FPEXC,FPSCR                                     *
    2659                    ;*   Local Frame Size  : 0 Args + 12 Auto + 4 Save = 16 byte                 *
    2660                    ;*****************************************************************************
    2661 000004bc           xTimerIsTimerActive:
    2662                    ;* --------------------------------------------------------------------------*
    2663                            .dwcfi  cfa_offset, 0
    2664 000004bc B50E              PUSH      {A2, A3, A4, LR}      ; [DPU_3_PIPE]  ; [ORIG 16-BIT INS]
    2665                            .dwcfi  cfa_offset, 16
    2666                            .dwcfi  save_reg_to_mem, 14, -4
    2667                            .dwcfi  save_reg_to_mem, 3, -8
    2668                            .dwcfi  save_reg_to_mem, 2, -12
    2669                            .dwcfi  save_reg_to_mem, 1, -16
    2670                    $C$DW$199       .dwtag  DW_TAG_variable
    2671                            .dwattr $C$DW$199, DW_AT_name("xTimer")
    2672                            .dwattr $C$DW$199, DW_AT_TI_symbol_name("xTimer")
    2673                            .dwattr $C$DW$199, DW_AT_type(*$C$DW$T$40)
    2674                            .dwattr $C$DW$199, DW_AT_location[DW_OP_breg13 0]
    2675                    
    2676                    $C$DW$200       .dwtag  DW_TAG_variable
    2677                            .dwattr $C$DW$200, DW_AT_name("xTimerIsInActiveList")
    2678                            .dwattr $C$DW$200, DW_AT_TI_symbol_name("xTimerIsInActiveList")
    2679                            .dwattr $C$DW$200, DW_AT_type(*$C$DW$T$50)
    2680                            .dwattr $C$DW$200, DW_AT_location[DW_OP_breg13 4]
    2681                    
    2682                    $C$DW$201       .dwtag  DW_TAG_variable
    2683                            .dwattr $C$DW$201, DW_AT_name("pxTimer")
    2684                            .dwattr $C$DW$201, DW_AT_TI_symbol_name("pxTimer")
TI ARM Assembler PC v15.12.1 Tue Oct 18 10:42:36 2016

Tools Copyright (c) 1996-2015 Texas Instruments Incorporated
timers.asm                                                           PAGE   50

    2685                            .dwattr $C$DW$201, DW_AT_type(*$C$DW$T$47)
    2686                            .dwattr $C$DW$201, DW_AT_location[DW_OP_breg13 8]
    2687                    
    2688 000004be 9000              STR       A1, [SP, #0]          ; [DPU_3_PIPE] |819|  ; [ORIG 16-BIT INS]
    2689                            .dwpsn  file "C:/TI_ARM_Tiva_Projects/Source/timers.c",line 821,column 18,is_stmt,isa 1
    2690 000004c0 9800              LDR       A1, [SP, #0]          ; [DPU_3_PIPE] |821|  ; [ORIG 16-BIT INS]
    2691 000004c2 9002              STR       A1, [SP, #8]          ; [DPU_3_PIPE] |821|  ; [ORIG 16-BIT INS]
    2692                            .dwpsn  file "C:/TI_ARM_Tiva_Projects/Source/timers.c",line 826,column 2,is_stmt,isa 1
    2693                    $C$DW$202       .dwtag  DW_TAG_TI_branch
    2694                            .dwattr $C$DW$202, DW_AT_low_pc(0x00)
    2695                            .dwattr $C$DW$202, DW_AT_name("vPortEnterCritical")
    2696                            .dwattr $C$DW$202, DW_AT_TI_call
    2697                    
    2698 000004c4 FFFEF7FF!         BL        vPortEnterCritical    ; [DPU_3_PIPE] |826|  ; [KEEP 32-BIT INS]
    2699                            ; CALL OCCURS {vPortEnterCritical }  ; [] |826| 
    2700                            .dwpsn  file "C:/TI_ARM_Tiva_Projects/Source/timers.c",line 831,column 3,is_stmt,isa 1
    2701 000004c8 9802              LDR       A1, [SP, #8]          ; [DPU_3_PIPE] |831|  ; [ORIG 16-BIT INS]
    2702 000004ca 6942              LDR       A3, [A1, #20]         ; [DPU_3_PIPE] |831|  ; [ORIG 16-BIT INS]
    2703 000004cc 2300              MOVS      A4, #0                ; [DPU_3_PIPE] |831|  ; [ORIG 16-BIT INS]
    2704 000004ce 2100              MOVS      A2, #0                ; [DPU_3_PIPE] |831|  ; [ORIG 16-BIT INS]
    2705 000004d0 2000              MOVS      A1, #0                ; [DPU_3_PIPE] |831|  ; [ORIG 16-BIT INS]
    2706 000004d2 B902              CBNZ      A3, ||$C$L36||        ; []  ; [ORIG 16-BIT INS]
    2707                            ; BRANCHCC OCCURS {||$C$L36||}   ; [] |831| 
    2708                    ;* --------------------------------------------------------------------------*
    2709 000004d4 2101              MOVS      A2, #1                ; [DPU_3_PIPE] |831|  ; [ORIG 16-BIT INS]
    2710                    ;* --------------------------------------------------------------------------*
    2711 000004d6           ||$C$L36||:    
    2712 000004d6 B101              CBZ       A2, ||$C$L37||        ; []  ; [ORIG 16-BIT INS]
    2713                            ; BRANCHCC OCCURS {||$C$L37||}   ; [] |831| 
    2714                    ;* --------------------------------------------------------------------------*
    2715 000004d8 2001              MOVS      A1, #1                ; [DPU_3_PIPE] |831|  ; [ORIG 16-BIT INS]
    2716                    ;* --------------------------------------------------------------------------*
    2717 000004da           ||$C$L37||:    
    2718 000004da B900              CBNZ      A1, ||$C$L38||        ; []  ; [ORIG 16-BIT INS]
    2719                            ; BRANCHCC OCCURS {||$C$L38||}   ; [] |831| 
    2720                    ;* --------------------------------------------------------------------------*
    2721 000004dc 2301              MOVS      A4, #1                ; [DPU_3_PIPE] |831|  ; [ORIG 16-BIT INS]
    2722                    ;* --------------------------------------------------------------------------*
    2723 000004de           ||$C$L38||:    
    2724 000004de 9301              STR       A4, [SP, #4]          ; [DPU_3_PIPE] |831|  ; [ORIG 16-BIT INS]
    2725                            .dwpsn  file "C:/TI_ARM_Tiva_Projects/Source/timers.c",line 833,column 2,is_stmt,isa 1
    2726                    $C$DW$203       .dwtag  DW_TAG_TI_branch
    2727                            .dwattr $C$DW$203, DW_AT_low_pc(0x00)
    2728                            .dwattr $C$DW$203, DW_AT_name("vPortExitCritical")
    2729                            .dwattr $C$DW$203, DW_AT_TI_call
    2730                    
    2731 000004e0 FFFEF7FF!         BL        vPortExitCritical     ; [DPU_3_PIPE] |833|  ; [KEEP 32-BIT INS]
    2732                            ; CALL OCCURS {vPortExitCritical }  ; [] |833| 
    2733                            .dwpsn  file "C:/TI_ARM_Tiva_Projects/Source/timers.c",line 835,column 2,is_stmt,isa 1
    2734 000004e4 9801              LDR       A1, [SP, #4]          ; [DPU_3_PIPE] |835|  ; [ORIG 16-BIT INS]
    2735                            .dwpsn  file "C:/TI_ARM_Tiva_Projects/Source/timers.c",line 836,column 1,is_stmt,isa 1
    2736                    $C$DW$204       .dwtag  DW_TAG_TI_branch
    2737                            .dwattr $C$DW$204, DW_AT_low_pc(0x00)
    2738                            .dwattr $C$DW$204, DW_AT_TI_return
    2739                    
TI ARM Assembler PC v15.12.1 Tue Oct 18 10:42:36 2016

Tools Copyright (c) 1996-2015 Texas Instruments Incorporated
timers.asm                                                           PAGE   51

    2740 000004e6 BD0E              POP       {A2, A3, A4, PC}      ; [DPU_3_PIPE]  ; [ORIG 16-BIT INS]
    2741                            .dwcfi  cfa_offset, 0
    2742                            ; BRANCH OCCURS                  ; [] 
    2743                            .dwattr $C$DW$197, DW_AT_TI_end_file("C:/TI_ARM_Tiva_Projects/Source/timers.c")
    2744                            .dwattr $C$DW$197, DW_AT_TI_end_line(0x344)
    2745                            .dwattr $C$DW$197, DW_AT_TI_end_column(0x01)
    2746                            .dwendentry
    2747                            .dwendtag $C$DW$197
    2748                    
    2749 000004e8                   .sect   ".text"
    2750                            .clink
    2751                            .thumbfunc pvTimerGetTimerID
    2752 000004e8                   .thumb
    2753                            .global pvTimerGetTimerID
    2754                    
    2755                    $C$DW$205       .dwtag  DW_TAG_subprogram
    2756                            .dwattr $C$DW$205, DW_AT_name("pvTimerGetTimerID")
    2757                            .dwattr $C$DW$205, DW_AT_low_pc(pvTimerGetTimerID)
    2758                            .dwattr $C$DW$205, DW_AT_high_pc(0x00)
    2759                            .dwattr $C$DW$205, DW_AT_TI_symbol_name("pvTimerGetTimerID")
    2760                            .dwattr $C$DW$205, DW_AT_external
    2761                            .dwattr $C$DW$205, DW_AT_type(*$C$DW$T$3)
    2762                            .dwattr $C$DW$205, DW_AT_TI_begin_file("C:/TI_ARM_Tiva_Projects/Source/timers.c")
    2763                            .dwattr $C$DW$205, DW_AT_TI_begin_line(0x347)
    2764                            .dwattr $C$DW$205, DW_AT_TI_begin_column(0x07)
    2765                            .dwattr $C$DW$205, DW_AT_decl_file("C:/TI_ARM_Tiva_Projects/Source/timers.c")
    2766                            .dwattr $C$DW$205, DW_AT_decl_line(0x347)
    2767                            .dwattr $C$DW$205, DW_AT_decl_column(0x07)
    2768                            .dwattr $C$DW$205, DW_AT_TI_max_frame_size(0x10)
    2769                            .dwpsn  file "C:/TI_ARM_Tiva_Projects/Source/timers.c",line 840,column 1,is_stmt,address pvTim
    2770                    
    2771                            .dwfde $C$DW$CIE, pvTimerGetTimerID
    2772                    $C$DW$206       .dwtag  DW_TAG_formal_parameter
    2773                            .dwattr $C$DW$206, DW_AT_name("xTimer")
    2774                            .dwattr $C$DW$206, DW_AT_TI_symbol_name("xTimer")
    2775                            .dwattr $C$DW$206, DW_AT_type(*$C$DW$T$91)
    2776                            .dwattr $C$DW$206, DW_AT_location[DW_OP_reg0]
    2777                    
    2778                    
    2779                    ;*****************************************************************************
    2780                    ;* FUNCTION NAME: pvTimerGetTimerID                                          *
    2781                    ;*                                                                           *
    2782                    ;*   Regs Modified     : A1,A2,A3,A4,V9,SP,LR,SR,D0,D0_hi,D1,D1_hi,D2,D2_hi, *
    2783                    ;*                           D3,D3_hi,D4,D4_hi,D5,D5_hi,D6,D6_hi,D7,D7_hi,   *
    2784                    ;*                           FPEXC,FPSCR                                     *
    2785                    ;*   Regs Used         : A1,A2,A3,A4,V9,SP,LR,SR,D0,D0_hi,D1,D1_hi,D2,D2_hi, *
    2786                    ;*                           D3,D3_hi,D4,D4_hi,D5,D5_hi,D6,D6_hi,D7,D7_hi,   *
    2787                    ;*                           FPEXC,FPSCR                                     *
    2788                    ;*   Local Frame Size  : 0 Args + 12 Auto + 4 Save = 16 byte                 *
    2789                    ;*****************************************************************************
    2790 000004e8           pvTimerGetTimerID:
    2791                    ;* --------------------------------------------------------------------------*
    2792                            .dwcfi  cfa_offset, 0
    2793 000004e8 B50E              PUSH      {A2, A3, A4, LR}      ; [DPU_3_PIPE]  ; [ORIG 16-BIT INS]
    2794                            .dwcfi  cfa_offset, 16
TI ARM Assembler PC v15.12.1 Tue Oct 18 10:42:36 2016

Tools Copyright (c) 1996-2015 Texas Instruments Incorporated
timers.asm                                                           PAGE   52

    2795                            .dwcfi  save_reg_to_mem, 14, -4
    2796                            .dwcfi  save_reg_to_mem, 3, -8
    2797                            .dwcfi  save_reg_to_mem, 2, -12
    2798                            .dwcfi  save_reg_to_mem, 1, -16
    2799                    $C$DW$207       .dwtag  DW_TAG_variable
    2800                            .dwattr $C$DW$207, DW_AT_name("xTimer")
    2801                            .dwattr $C$DW$207, DW_AT_TI_symbol_name("xTimer")
    2802                            .dwattr $C$DW$207, DW_AT_type(*$C$DW$T$91)
    2803                            .dwattr $C$DW$207, DW_AT_location[DW_OP_breg13 0]
    2804                    
    2805                    $C$DW$208       .dwtag  DW_TAG_variable
    2806                            .dwattr $C$DW$208, DW_AT_name("pxTimer")
    2807                            .dwattr $C$DW$208, DW_AT_TI_symbol_name("pxTimer")
    2808                            .dwattr $C$DW$208, DW_AT_type(*$C$DW$T$155)
    2809                            .dwattr $C$DW$208, DW_AT_location[DW_OP_breg13 4]
    2810                    
    2811                    $C$DW$209       .dwtag  DW_TAG_variable
    2812                            .dwattr $C$DW$209, DW_AT_name("pvReturn")
    2813                            .dwattr $C$DW$209, DW_AT_TI_symbol_name("pvReturn")
    2814                            .dwattr $C$DW$209, DW_AT_type(*$C$DW$T$3)
    2815                            .dwattr $C$DW$209, DW_AT_location[DW_OP_breg13 8]
    2816                    
    2817 000004ea 9000              STR       A1, [SP, #0]          ; [DPU_3_PIPE] |840|  ; [ORIG 16-BIT INS]
    2818                            .dwpsn  file "C:/TI_ARM_Tiva_Projects/Source/timers.c",line 841,column 25,is_stmt,isa 1
    2819 000004ec 9800              LDR       A1, [SP, #0]          ; [DPU_3_PIPE] |841|  ; [ORIG 16-BIT INS]
    2820 000004ee 9001              STR       A1, [SP, #4]          ; [DPU_3_PIPE] |841|  ; [ORIG 16-BIT INS]
    2821                            .dwpsn  file "C:/TI_ARM_Tiva_Projects/Source/timers.c",line 846,column 2,is_stmt,isa 1
    2822                    $C$DW$210       .dwtag  DW_TAG_TI_branch
    2823                            .dwattr $C$DW$210, DW_AT_low_pc(0x00)
    2824                            .dwattr $C$DW$210, DW_AT_name("vPortEnterCritical")
    2825                            .dwattr $C$DW$210, DW_AT_TI_call
    2826                    
    2827 000004f0 FFFEF7FF!         BL        vPortEnterCritical    ; [DPU_3_PIPE] |846|  ; [KEEP 32-BIT INS]
    2828                            ; CALL OCCURS {vPortEnterCritical }  ; [] |846| 
    2829                            .dwpsn  file "C:/TI_ARM_Tiva_Projects/Source/timers.c",line 848,column 3,is_stmt,isa 1
    2830 000004f4 9801              LDR       A1, [SP, #4]          ; [DPU_3_PIPE] |848|  ; [ORIG 16-BIT INS]
    2831 000004f6 6A00              LDR       A1, [A1, #32]         ; [DPU_3_PIPE] |848|  ; [ORIG 16-BIT INS]
    2832 000004f8 9002              STR       A1, [SP, #8]          ; [DPU_3_PIPE] |848|  ; [ORIG 16-BIT INS]
    2833                            .dwpsn  file "C:/TI_ARM_Tiva_Projects/Source/timers.c",line 850,column 2,is_stmt,isa 1
    2834                    $C$DW$211       .dwtag  DW_TAG_TI_branch
    2835                            .dwattr $C$DW$211, DW_AT_low_pc(0x00)
    2836                            .dwattr $C$DW$211, DW_AT_name("vPortExitCritical")
    2837                            .dwattr $C$DW$211, DW_AT_TI_call
    2838                    
    2839 000004fa FFFEF7FF!         BL        vPortExitCritical     ; [DPU_3_PIPE] |850|  ; [KEEP 32-BIT INS]
    2840                            ; CALL OCCURS {vPortExitCritical }  ; [] |850| 
    2841                            .dwpsn  file "C:/TI_ARM_Tiva_Projects/Source/timers.c",line 852,column 2,is_stmt,isa 1
    2842 000004fe 9802              LDR       A1, [SP, #8]          ; [DPU_3_PIPE] |852|  ; [ORIG 16-BIT INS]
    2843                            .dwpsn  file "C:/TI_ARM_Tiva_Projects/Source/timers.c",line 853,column 1,is_stmt,isa 1
    2844                    $C$DW$212       .dwtag  DW_TAG_TI_branch
    2845                            .dwattr $C$DW$212, DW_AT_low_pc(0x00)
    2846                            .dwattr $C$DW$212, DW_AT_TI_return
    2847                    
    2848 00000500 BD0E              POP       {A2, A3, A4, PC}      ; [DPU_3_PIPE]  ; [ORIG 16-BIT INS]
    2849                            .dwcfi  cfa_offset, 0
TI ARM Assembler PC v15.12.1 Tue Oct 18 10:42:36 2016

Tools Copyright (c) 1996-2015 Texas Instruments Incorporated
timers.asm                                                           PAGE   53

    2850                            ; BRANCH OCCURS                  ; [] 
