TI ARM Assembler PC v15.12.1 Tue Oct 18 10:42:37 2016

Tools Copyright (c) 1996-2015 Texas Instruments Incorporated
Task_Blinky.asm                                                      PAGE    1

       1                    ;******************************************************************************
       2                    ;* TI ARM C/C++ Codegen                                       PC v15.12.1.LTS *
       3                    ;* Date/Time created: Tue Oct 18 10:42:37 2016                                *
       4                    ;******************************************************************************
       5                            .compiler_opts --abi=eabi --arm_vmrs_si_workaround=off --code_state=16 --diag_wrap=off --disab
       6 00000000                   .thumb
       7                    
       8                    $C$DW$CU        .dwtag  DW_TAG_compile_unit
       9                            .dwattr $C$DW$CU, DW_AT_name("../Tasks/Task_Blinky.c")
      10                            .dwattr $C$DW$CU, DW_AT_producer("TI TI ARM C/C++ Codegen PC v15.12.1.LTS Copyright (c) 1996-2
      11                            .dwattr $C$DW$CU, DW_AT_TI_version(0x01)
      12                            .dwattr $C$DW$CU, DW_AT_comp_dir("C:\TI_ARM_Tiva_Projects\FreeRTOS82_TM4C1294_Base\Debug")
      13                    
      14                    $C$DW$1 .dwtag  DW_TAG_subprogram
      15                            .dwattr $C$DW$1, DW_AT_name("SysCtlPeripheralEnable")
      16                            .dwattr $C$DW$1, DW_AT_TI_symbol_name("SysCtlPeripheralEnable")
      17                            .dwattr $C$DW$1, DW_AT_declaration
      18                            .dwattr $C$DW$1, DW_AT_external
      19                            .dwattr $C$DW$1, DW_AT_decl_file("C:/TI_CodeComposer/TivaWare/driverlib/sysctl.h")
      20                            .dwattr $C$DW$1, DW_AT_decl_line(0x24e)
      21                            .dwattr $C$DW$1, DW_AT_decl_column(0x0d)
      22                    $C$DW$2 .dwtag  DW_TAG_formal_parameter
      23                            .dwattr $C$DW$2, DW_AT_type(*$C$DW$T$24)
      24                    
      25                            .dwendtag $C$DW$1
      26                    
      27                    
      28                    $C$DW$3 .dwtag  DW_TAG_subprogram
      29                            .dwattr $C$DW$3, DW_AT_name("GPIOPadConfigSet")
      30                            .dwattr $C$DW$3, DW_AT_TI_symbol_name("GPIOPadConfigSet")
      31                            .dwattr $C$DW$3, DW_AT_declaration
      32                            .dwattr $C$DW$3, DW_AT_external
      33                            .dwattr $C$DW$3, DW_AT_decl_file("C:/TI_CodeComposer/TivaWare/driverlib/gpio.h")
      34                            .dwattr $C$DW$3, DW_AT_decl_line(0x93)
      35                            .dwattr $C$DW$3, DW_AT_decl_column(0x0d)
      36                    $C$DW$4 .dwtag  DW_TAG_formal_parameter
      37                            .dwattr $C$DW$4, DW_AT_type(*$C$DW$T$24)
      38                    
      39                    $C$DW$5 .dwtag  DW_TAG_formal_parameter
      40                            .dwattr $C$DW$5, DW_AT_type(*$C$DW$T$19)
      41                    
      42                    $C$DW$6 .dwtag  DW_TAG_formal_parameter
      43                            .dwattr $C$DW$6, DW_AT_type(*$C$DW$T$24)
      44                    
      45                    $C$DW$7 .dwtag  DW_TAG_formal_parameter
      46                            .dwattr $C$DW$7, DW_AT_type(*$C$DW$T$24)
      47                    
      48                            .dwendtag $C$DW$3
      49                    
      50                    
      51                    $C$DW$8 .dwtag  DW_TAG_subprogram
      52                            .dwattr $C$DW$8, DW_AT_name("GPIOPinRead")
      53                            .dwattr $C$DW$8, DW_AT_TI_symbol_name("GPIOPinRead")
      54                            .dwattr $C$DW$8, DW_AT_type(*$C$DW$T$52)
      55                            .dwattr $C$DW$8, DW_AT_declaration
TI ARM Assembler PC v15.12.1 Tue Oct 18 10:42:37 2016

Tools Copyright (c) 1996-2015 Texas Instruments Incorporated
Task_Blinky.asm                                                      PAGE    2

      56                            .dwattr $C$DW$8, DW_AT_external
      57                            .dwattr $C$DW$8, DW_AT_decl_file("C:/TI_CodeComposer/TivaWare/driverlib/gpio.h")
      58                            .dwattr $C$DW$8, DW_AT_decl_line(0x9d)
      59                            .dwattr $C$DW$8, DW_AT_decl_column(0x10)
      60                    $C$DW$9 .dwtag  DW_TAG_formal_parameter
      61                            .dwattr $C$DW$9, DW_AT_type(*$C$DW$T$24)
      62                    
      63                    $C$DW$10        .dwtag  DW_TAG_formal_parameter
      64                            .dwattr $C$DW$10, DW_AT_type(*$C$DW$T$19)
      65                    
      66                            .dwendtag $C$DW$8
      67                    
      68                    
      69                    $C$DW$11        .dwtag  DW_TAG_subprogram
      70                            .dwattr $C$DW$11, DW_AT_name("GPIOPinWrite")
      71                            .dwattr $C$DW$11, DW_AT_TI_symbol_name("GPIOPinWrite")
      72                            .dwattr $C$DW$11, DW_AT_declaration
      73                            .dwattr $C$DW$11, DW_AT_external
      74                            .dwattr $C$DW$11, DW_AT_decl_file("C:/TI_CodeComposer/TivaWare/driverlib/gpio.h")
      75                            .dwattr $C$DW$11, DW_AT_decl_line(0x9e)
      76                            .dwattr $C$DW$11, DW_AT_decl_column(0x0d)
      77                    $C$DW$12        .dwtag  DW_TAG_formal_parameter
      78                            .dwattr $C$DW$12, DW_AT_type(*$C$DW$T$24)
      79                    
      80                    $C$DW$13        .dwtag  DW_TAG_formal_parameter
      81                            .dwattr $C$DW$13, DW_AT_type(*$C$DW$T$19)
      82                    
      83                    $C$DW$14        .dwtag  DW_TAG_formal_parameter
      84                            .dwattr $C$DW$14, DW_AT_type(*$C$DW$T$19)
      85                    
      86                            .dwendtag $C$DW$11
      87                    
      88                    
      89                    $C$DW$15        .dwtag  DW_TAG_subprogram
      90                            .dwattr $C$DW$15, DW_AT_name("GPIOPinTypeGPIOOutput")
      91                            .dwattr $C$DW$15, DW_AT_TI_symbol_name("GPIOPinTypeGPIOOutput")
      92                            .dwattr $C$DW$15, DW_AT_declaration
      93                            .dwattr $C$DW$15, DW_AT_external
      94                            .dwattr $C$DW$15, DW_AT_decl_file("C:/TI_CodeComposer/TivaWare/driverlib/gpio.h")
      95                            .dwattr $C$DW$15, DW_AT_decl_line(0xa9)
      96                            .dwattr $C$DW$15, DW_AT_decl_column(0x0d)
      97                    $C$DW$16        .dwtag  DW_TAG_formal_parameter
      98                            .dwattr $C$DW$16, DW_AT_type(*$C$DW$T$24)
      99                    
     100                    $C$DW$17        .dwtag  DW_TAG_formal_parameter
     101                            .dwattr $C$DW$17, DW_AT_type(*$C$DW$T$19)
     102                    
     103                            .dwendtag $C$DW$15
     104                    
     105                    
     106                    $C$DW$18        .dwtag  DW_TAG_subprogram
     107                            .dwattr $C$DW$18, DW_AT_name("vTaskDelay")
     108                            .dwattr $C$DW$18, DW_AT_TI_symbol_name("vTaskDelay")
     109                            .dwattr $C$DW$18, DW_AT_declaration
     110                            .dwattr $C$DW$18, DW_AT_external
TI ARM Assembler PC v15.12.1 Tue Oct 18 10:42:37 2016

Tools Copyright (c) 1996-2015 Texas Instruments Incorporated
Task_Blinky.asm                                                      PAGE    3

     111                            .dwattr $C$DW$18, DW_AT_decl_file("C:/TI_ARM_Tiva_Projects/Source/include/task.h")
     112                            .dwattr $C$DW$18, DW_AT_decl_line(0x22b)
     113                            .dwattr $C$DW$18, DW_AT_decl_column(0x06)
     114                    $C$DW$19        .dwtag  DW_TAG_formal_parameter
     115                            .dwattr $C$DW$19, DW_AT_type(*$C$DW$T$68)
     116                    
     117                            .dwendtag $C$DW$18
     118                    
     119                    ;       C:\TI_CodeComposer\ccsv6\tools\compiler\ti-cgt-arm_15.12.1.LTS\bin\armacpia.exe -@C:\\Users\\R
     120 00000000                   .sect   ".text"
     121                            .clink
     122                            .thumbfunc Task_Blink_LED_D1
     123 00000000                   .thumb
     124                            .global Task_Blink_LED_D1
     125                    
     126                    $C$DW$20        .dwtag  DW_TAG_subprogram
     127                            .dwattr $C$DW$20, DW_AT_name("Task_Blink_LED_D1")
     128                            .dwattr $C$DW$20, DW_AT_low_pc(Task_Blink_LED_D1)
     129                            .dwattr $C$DW$20, DW_AT_high_pc(0x00)
     130                            .dwattr $C$DW$20, DW_AT_TI_symbol_name("Task_Blink_LED_D1")
     131                            .dwattr $C$DW$20, DW_AT_external
     132                            .dwattr $C$DW$20, DW_AT_TI_begin_file("../Tasks/Task_Blinky.c")
     133                            .dwattr $C$DW$20, DW_AT_TI_begin_line(0x1c)
     134                            .dwattr $C$DW$20, DW_AT_TI_begin_column(0x0d)
     135                            .dwattr $C$DW$20, DW_AT_decl_file("../Tasks/Task_Blinky.c")
     136                            .dwattr $C$DW$20, DW_AT_decl_line(0x1c)
     137                            .dwattr $C$DW$20, DW_AT_decl_column(0x0d)
     138                            .dwattr $C$DW$20, DW_AT_TI_max_frame_size(0x10)
     139                            .dwpsn  file "../Tasks/Task_Blinky.c",line 28,column 53,is_stmt,address Task_Blink_LED_D1,isa 
     140                    
     141                            .dwfde $C$DW$CIE, Task_Blink_LED_D1
     142                    $C$DW$21        .dwtag  DW_TAG_formal_parameter
     143                            .dwattr $C$DW$21, DW_AT_name("pvParameters")
     144                            .dwattr $C$DW$21, DW_AT_TI_symbol_name("pvParameters")
     145                            .dwattr $C$DW$21, DW_AT_type(*$C$DW$T$3)
     146                            .dwattr $C$DW$21, DW_AT_location[DW_OP_reg0]
     147                    
     148                    
     149                    ;*****************************************************************************
     150                    ;* FUNCTION NAME: Task_Blink_LED_D1                                          *
     151                    ;*                                                                           *
     152                    ;*   Regs Modified     : A1,A2,A3,A4,V9,SP,LR,SR,D0,D0_hi,D1,D1_hi,D2,D2_hi, *
     153                    ;*                           D3,D3_hi,D4,D4_hi,D5,D5_hi,D6,D6_hi,D7,D7_hi,   *
     154                    ;*                           FPEXC,FPSCR                                     *
     155                    ;*   Regs Used         : A1,A2,A3,A4,V9,SP,LR,SR,D0,D0_hi,D1,D1_hi,D2,D2_hi, *
     156                    ;*                           D3,D3_hi,D4,D4_hi,D5,D5_hi,D6,D6_hi,D7,D7_hi,   *
     157                    ;*                           FPEXC,FPSCR                                     *
     158                    ;*   Local Frame Size  : 0 Args + 8 Auto + 4 Save = 12 byte                  *
     159                    ;*****************************************************************************
     160 00000000           Task_Blink_LED_D1:
     161                    ;* --------------------------------------------------------------------------*
     162                            .dwcfi  cfa_offset, 0
     163 00000000 B50E              PUSH      {A2, A3, A4, LR}      ; [DPU_3_PIPE]  ; [ORIG 16-BIT INS]
     164                            .dwcfi  cfa_offset, 16
     165                            .dwcfi  save_reg_to_mem, 14, -4
TI ARM Assembler PC v15.12.1 Tue Oct 18 10:42:37 2016

Tools Copyright (c) 1996-2015 Texas Instruments Incorporated
Task_Blinky.asm                                                      PAGE    4

     166                            .dwcfi  save_reg_to_mem, 3, -8
     167                            .dwcfi  save_reg_to_mem, 2, -12
     168                            .dwcfi  save_reg_to_mem, 1, -16
     169                    $C$DW$22        .dwtag  DW_TAG_variable
     170                            .dwattr $C$DW$22, DW_AT_name("pvParameters")
     171                            .dwattr $C$DW$22, DW_AT_TI_symbol_name("pvParameters")
     172                            .dwattr $C$DW$22, DW_AT_type(*$C$DW$T$3)
     173                            .dwattr $C$DW$22, DW_AT_location[DW_OP_breg13 0]
     174                    
     175                    $C$DW$23        .dwtag  DW_TAG_variable
     176                            .dwattr $C$DW$23, DW_AT_name("LED_Data")
     177                            .dwattr $C$DW$23, DW_AT_TI_symbol_name("LED_Data")
     178                            .dwattr $C$DW$23, DW_AT_type(*$C$DW$T$24)
     179                            .dwattr $C$DW$23, DW_AT_location[DW_OP_breg13 4]
     180                    
     181 00000002 9000              STR       A1, [SP, #0]          ; [DPU_3_PIPE] |28|  ; [ORIG 16-BIT INS]
     182                            .dwpsn  file "../Tasks/Task_Blinky.c",line 35,column 5,is_stmt,isa 1
     183 00000004 4810              LDR       A1, $C$CON1           ; [DPU_3_PIPE] |35|  ; [ORIG 16-BIT INS]
     184                    $C$DW$24        .dwtag  DW_TAG_TI_branch
     185                            .dwattr $C$DW$24, DW_AT_low_pc(0x00)
     186                            .dwattr $C$DW$24, DW_AT_name("SysCtlPeripheralEnable")
     187                            .dwattr $C$DW$24, DW_AT_TI_call
     188                    
     189 00000006 FFFEF7FF!         BL        SysCtlPeripheralEnable ; [DPU_3_PIPE] |35|  ; [KEEP 32-BIT INS]
     190                            ; CALL OCCURS {SysCtlPeripheralEnable }  ; [] |35| 
     191                            .dwpsn  file "../Tasks/Task_Blinky.c",line 40,column 5,is_stmt,isa 1
     192 0000000a 4810              LDR       A1, $C$CON2           ; [DPU_3_PIPE] |40|  ; [ORIG 16-BIT INS]
     193 0000000c 2102              MOVS      A2, #2                ; [DPU_3_PIPE] |40|  ; [ORIG 16-BIT INS]
     194                    $C$DW$25        .dwtag  DW_TAG_TI_branch
     195                            .dwattr $C$DW$25, DW_AT_low_pc(0x00)
     196                            .dwattr $C$DW$25, DW_AT_name("GPIOPinTypeGPIOOutput")
     197                            .dwattr $C$DW$25, DW_AT_TI_call
     198                    
     199 0000000e FFFEF7FF!         BL        GPIOPinTypeGPIOOutput ; [DPU_3_PIPE] |40|  ; [KEEP 32-BIT INS]
     200                            ; CALL OCCURS {GPIOPinTypeGPIOOutput }  ; [] |40| 
     201                            .dwpsn  file "../Tasks/Task_Blinky.c",line 41,column 5,is_stmt,isa 1
     202 00000012 480E              LDR       A1, $C$CON2           ; [DPU_3_PIPE] |41|  ; [ORIG 16-BIT INS]
     203 00000014 2102              MOVS      A2, #2                ; [DPU_3_PIPE] |41|  ; [ORIG 16-BIT INS]
     204 00000016 2201              MOVS      A3, #1                ; [DPU_3_PIPE] |41|  ; [ORIG 16-BIT INS]
     205 00000018 2308              MOVS      A4, #8                ; [DPU_3_PIPE] |41|  ; [ORIG 16-BIT INS]
     206                    $C$DW$26        .dwtag  DW_TAG_TI_branch
     207                            .dwattr $C$DW$26, DW_AT_low_pc(0x00)
     208                            .dwattr $C$DW$26, DW_AT_name("GPIOPadConfigSet")
     209                            .dwattr $C$DW$26, DW_AT_TI_call
     210                    
     211 0000001a FFFEF7FF!         BL        GPIOPadConfigSet      ; [DPU_3_PIPE] |41|  ; [KEEP 32-BIT INS]
     212                            ; CALL OCCURS {GPIOPadConfigSet }  ; [] |41| 
     213                            .dwpsn  file "../Tasks/Task_Blinky.c",line 44,column 10,is_stmt,isa 1
     214                    ;* --------------------------------------------------------------------------*
     215                    ;*   BEGIN LOOP ||$C$L1||
     216                    ;*
     217                    ;*   Loop source line                : 44
     218                    ;*   Loop closing brace source line  : 53
     219                    ;*   Known Minimum Trip Count        : 1
     220                    ;*   Known Maximum Trip Count        : 4294967295
TI ARM Assembler PC v15.12.1 Tue Oct 18 10:42:37 2016

Tools Copyright (c) 1996-2015 Texas Instruments Incorporated
Task_Blinky.asm                                                      PAGE    5

     221                    ;*   Known Max Trip Count Factor     : 1
     222                    ;* --------------------------------------------------------------------------*
     223 0000001e           ||$C$L1||:    
     224                            .dwpsn  file "../Tasks/Task_Blinky.c",line 48,column 3,is_stmt,isa 1
     225 0000001e 480B              LDR       A1, $C$CON2           ; [DPU_3_PIPE] |48|  ; [ORIG 16-BIT INS]
     226 00000020 2102              MOVS      A2, #2                ; [DPU_3_PIPE] |48|  ; [ORIG 16-BIT INS]
     227                    $C$DW$27        .dwtag  DW_TAG_TI_branch
     228                            .dwattr $C$DW$27, DW_AT_low_pc(0x00)
     229                            .dwattr $C$DW$27, DW_AT_name("GPIOPinRead")
     230                            .dwattr $C$DW$27, DW_AT_TI_call
     231                    
     232 00000022 FFFEF7FF!         BL        GPIOPinRead           ; [DPU_3_PIPE] |48|  ; [KEEP 32-BIT INS]
     233                            ; CALL OCCURS {GPIOPinRead }     ; [] |48| 
     234 00000026 9001              STR       A1, [SP, #4]          ; [DPU_3_PIPE] |48|  ; [ORIG 16-BIT INS]
     235                            .dwpsn  file "../Tasks/Task_Blinky.c",line 49,column 3,is_stmt,isa 1
     236 00000028 9801              LDR       A1, [SP, #4]          ; [DPU_3_PIPE] |49|  ; [ORIG 16-BIT INS]
     237 0000002a 0002F080          EOR       A1, A1, #2            ; [DPU_3_PIPE] |49|  ; [KEEP 32-BIT INS]
     238 0000002e 9001              STR       A1, [SP, #4]          ; [DPU_3_PIPE] |49|  ; [ORIG 16-BIT INS]
     239                            .dwpsn  file "../Tasks/Task_Blinky.c",line 50,column 9,is_stmt,isa 1
     240 00000030 4806              LDR       A1, $C$CON2           ; [DPU_3_PIPE] |50|  ; [ORIG 16-BIT INS]
     241 00000032 2004F89D          LDRB      A3, [SP, #4]          ; [DPU_3_PIPE] |50|  ; [KEEP 32-BIT INS]
     242 00000036 2102              MOVS      A2, #2                ; [DPU_3_PIPE] |50|  ; [ORIG 16-BIT INS]
     243                    $C$DW$28        .dwtag  DW_TAG_TI_branch
     244                            .dwattr $C$DW$28, DW_AT_low_pc(0x00)
     245                            .dwattr $C$DW$28, DW_AT_name("GPIOPinWrite")
     246                            .dwattr $C$DW$28, DW_AT_TI_call
     247                    
     248 00000038 FFFEF7FF!         BL        GPIOPinWrite          ; [DPU_3_PIPE] |50|  ; [KEEP 32-BIT INS]
     249                            ; CALL OCCURS {GPIOPinWrite }    ; [] |50| 
     250                            .dwpsn  file "../Tasks/Task_Blinky.c",line 52,column 3,is_stmt,isa 1
     251 0000003c 707AF44F          MOV       A1, #1000             ; [DPU_3_PIPE] |52|  ; [KEEP 32-BIT INS]
     252                    $C$DW$29        .dwtag  DW_TAG_TI_branch
     253                            .dwattr $C$DW$29, DW_AT_low_pc(0x00)
     254                            .dwattr $C$DW$29, DW_AT_name("vTaskDelay")
     255                            .dwattr $C$DW$29, DW_AT_TI_call
     256                    
     257 00000040 FFFEF7FF!         BL        vTaskDelay            ; [DPU_3_PIPE] |52|  ; [KEEP 32-BIT INS]
     258                            ; CALL OCCURS {vTaskDelay }      ; [] |52| 
     259                            .dwpsn  file "../Tasks/Task_Blinky.c",line 44,column 10,is_stmt,isa 1
     260 00000044 E7EB              B         ||$C$L1||             ; [DPU_3_PIPE] |44|  ; [ORIG 16-BIT INS]
     261                            ; BRANCH OCCURS {||$C$L1||}      ; [] |44| 
     262                    ;* --------------------------------------------------------------------------*
     263                            .dwattr $C$DW$20, DW_AT_TI_end_file("../Tasks/Task_Blinky.c")
     264                            .dwattr $C$DW$20, DW_AT_TI_end_line(0x36)
     265                            .dwattr $C$DW$20, DW_AT_TI_end_column(0x01)
     266                            .dwendentry
     267                            .dwendtag $C$DW$20
     268                    
     269                    ;******************************************************************************
     270                    ;* CONSTANT TABLE                                                             *
     271                    ;******************************************************************************
     272 00000046                   .sect   ".text"
     273                            .align  4
     274 00000046 080C46C0  ||$C$CON1||:    .bits   -268433396,32
         0000004a 0000F000 
TI ARM Assembler PC v15.12.1 Tue Oct 18 10:42:37 2016

Tools Copyright (c) 1996-2015 Texas Instruments Incorporated
Task_Blinky.asm                                                      PAGE    6

     275                            .align  4
     276 0000004a 4000F000  ||$C$CON2||:    .bits   1074151424,32
         0000004e 00004006 
     277                    ;*****************************************************************************
     278                    ;* UNDEFINED EXTERNAL REFERENCES                                             *
     279                    ;*****************************************************************************
     280                            .global SysCtlPeripheralEnable
     281                            .global GPIOPadConfigSet
     282                            .global GPIOPinRead
     283                            .global GPIOPinWrite
     284                            .global GPIOPinTypeGPIOOutput
     285                            .global vTaskDelay
     286                    
     287                    ;******************************************************************************
     288                    ;* BUILD ATTRIBUTES                                                           *
     289                    ;******************************************************************************
     290                            .battr "aeabi", Tag_File, 1, Tag_ABI_PCS_wchar_t(2)
     291                            .battr "aeabi", Tag_File, 1, Tag_ABI_FP_rounding(0)
     292                            .battr "aeabi", Tag_File, 1, Tag_ABI_FP_denormal(0)
     293                            .battr "aeabi", Tag_File, 1, Tag_ABI_FP_exceptions(0)
     294                            .battr "aeabi", Tag_File, 1, Tag_ABI_FP_number_model(1)
     295                            .battr "aeabi", Tag_File, 1, Tag_ABI_enum_size(1)
     296                            .battr "aeabi", Tag_File, 1, Tag_ABI_optimization_goals(5)
     297                            .battr "aeabi", Tag_File, 1, Tag_ABI_FP_optimization_goals(0)
     298                            .battr "TI", Tag_File, 1, Tag_Bitfield_layout(2)
     299                            .battr "TI", Tag_File, 1, Tag_FP_interface(1)
     300                    
     301                    ;******************************************************************************
     302                    ;* TYPE INFORMATION                                                           *
     303                    ;******************************************************************************
     304                    
     305                    $C$DW$T$49      .dwtag  DW_TAG_enumeration_type
     306                            .dwattr $C$DW$T$49, DW_AT_byte_size(0x01)
     307                    $C$DW$30        .dwtag  DW_TAG_enumerator
     308                            .dwattr $C$DW$30, DW_AT_name("eRunning")
     309                            .dwattr $C$DW$30, DW_AT_const_value(0x00)
     310                            .dwattr $C$DW$30, DW_AT_decl_file("C:/TI_ARM_Tiva_Projects/Source/include/task.h")
     311                            .dwattr $C$DW$30, DW_AT_decl_line(0x72)
     312                            .dwattr $C$DW$30, DW_AT_decl_column(0x02)
     313                    
     314                    $C$DW$31        .dwtag  DW_TAG_enumerator
     315                            .dwattr $C$DW$31, DW_AT_name("eReady")
     316                            .dwattr $C$DW$31, DW_AT_const_value(0x01)
     317                            .dwattr $C$DW$31, DW_AT_decl_file("C:/TI_ARM_Tiva_Projects/Source/include/task.h")
     318                            .dwattr $C$DW$31, DW_AT_decl_line(0x73)
     319                            .dwattr $C$DW$31, DW_AT_decl_column(0x02)
     320                    
     321                    $C$DW$32        .dwtag  DW_TAG_enumerator
     322                            .dwattr $C$DW$32, DW_AT_name("eBlocked")
     323                            .dwattr $C$DW$32, DW_AT_const_value(0x02)
     324                            .dwattr $C$DW$32, DW_AT_decl_file("C:/TI_ARM_Tiva_Projects/Source/include/task.h")
     325                            .dwattr $C$DW$32, DW_AT_decl_line(0x74)
     326                            .dwattr $C$DW$32, DW_AT_decl_column(0x02)
     327                    
     328                    $C$DW$33        .dwtag  DW_TAG_enumerator
TI ARM Assembler PC v15.12.1 Tue Oct 18 10:42:37 2016

Tools Copyright (c) 1996-2015 Texas Instruments Incorporated
Task_Blinky.asm                                                      PAGE    7

     329                            .dwattr $C$DW$33, DW_AT_name("eSuspended")
     330                            .dwattr $C$DW$33, DW_AT_const_value(0x03)
     331                            .dwattr $C$DW$33, DW_AT_decl_file("C:/TI_ARM_Tiva_Projects/Source/include/task.h")
     332                            .dwattr $C$DW$33, DW_AT_decl_line(0x75)
     333                            .dwattr $C$DW$33, DW_AT_decl_column(0x02)
     334                    
     335                    $C$DW$34        .dwtag  DW_TAG_enumerator
     336                            .dwattr $C$DW$34, DW_AT_name("eDeleted")
     337                            .dwattr $C$DW$34, DW_AT_const_value(0x04)
     338                            .dwattr $C$DW$34, DW_AT_decl_file("C:/TI_ARM_Tiva_Projects/Source/include/task.h")
     339                            .dwattr $C$DW$34, DW_AT_decl_line(0x76)
     340                            .dwattr $C$DW$34, DW_AT_decl_column(0x02)
     341                    
     342                            .dwattr $C$DW$T$49, DW_AT_decl_file("C:/TI_ARM_Tiva_Projects/Source/include/task.h")
     343                            .dwattr $C$DW$T$49, DW_AT_decl_line(0x71)
     344                            .dwattr $C$DW$T$49, DW_AT_decl_column(0x01)
     345                            .dwendtag $C$DW$T$49
     346                    
     347                    $C$DW$T$50      .dwtag  DW_TAG_typedef
     348                            .dwattr $C$DW$T$50, DW_AT_name("eTaskState")
     349                            .dwattr $C$DW$T$50, DW_AT_type(*$C$DW$T$49)
     350                            .dwattr $C$DW$T$50, DW_AT_language(DW_LANG_C)
     351                            .dwattr $C$DW$T$50, DW_AT_decl_file("C:/TI_ARM_Tiva_Projects/Source/include/task.h")
     352                            .dwattr $C$DW$T$50, DW_AT_decl_line(0x77)
     353                            .dwattr $C$DW$T$50, DW_AT_decl_column(0x03)
     354                    
     355                    
     356                    $C$DW$T$55      .dwtag  DW_TAG_enumeration_type
     357                            .dwattr $C$DW$T$55, DW_AT_byte_size(0x01)
     358                    $C$DW$35        .dwtag  DW_TAG_enumerator
     359                            .dwattr $C$DW$35, DW_AT_name("eNoAction")
     360                            .dwattr $C$DW$35, DW_AT_const_value(0x00)
     361                            .dwattr $C$DW$35, DW_AT_decl_file("C:/TI_ARM_Tiva_Projects/Source/include/task.h")
     362                            .dwattr $C$DW$35, DW_AT_decl_line(0x7c)
     363                            .dwattr $C$DW$35, DW_AT_decl_column(0x02)
     364                    
     365                    $C$DW$36        .dwtag  DW_TAG_enumerator
     366                            .dwattr $C$DW$36, DW_AT_name("eSetBits")
     367                            .dwattr $C$DW$36, DW_AT_const_value(0x01)
     368                            .dwattr $C$DW$36, DW_AT_decl_file("C:/TI_ARM_Tiva_Projects/Source/include/task.h")
     369                            .dwattr $C$DW$36, DW_AT_decl_line(0x7d)
     370                            .dwattr $C$DW$36, DW_AT_decl_column(0x02)
     371                    
     372                    $C$DW$37        .dwtag  DW_TAG_enumerator
     373                            .dwattr $C$DW$37, DW_AT_name("eIncrement")
     374                            .dwattr $C$DW$37, DW_AT_const_value(0x02)
     375                            .dwattr $C$DW$37, DW_AT_decl_file("C:/TI_ARM_Tiva_Projects/Source/include/task.h")
     376                            .dwattr $C$DW$37, DW_AT_decl_line(0x7e)
     377                            .dwattr $C$DW$37, DW_AT_decl_column(0x02)
     378                    
     379                    $C$DW$38        .dwtag  DW_TAG_enumerator
     380                            .dwattr $C$DW$38, DW_AT_name("eSetValueWithOverwrite")
     381                            .dwattr $C$DW$38, DW_AT_const_value(0x03)
     382                            .dwattr $C$DW$38, DW_AT_decl_file("C:/TI_ARM_Tiva_Projects/Source/include/task.h")
     383                            .dwattr $C$DW$38, DW_AT_decl_line(0x7f)
TI ARM Assembler PC v15.12.1 Tue Oct 18 10:42:37 2016

Tools Copyright (c) 1996-2015 Texas Instruments Incorporated
Task_Blinky.asm                                                      PAGE    8

     384                            .dwattr $C$DW$38, DW_AT_decl_column(0x02)
     385                    
     386                    $C$DW$39        .dwtag  DW_TAG_enumerator
     387                            .dwattr $C$DW$39, DW_AT_name("eSetValueWithoutOverwrite")
     388                            .dwattr $C$DW$39, DW_AT_const_value(0x04)
     389                            .dwattr $C$DW$39, DW_AT_decl_file("C:/TI_ARM_Tiva_Projects/Source/include/task.h")
     390                            .dwattr $C$DW$39, DW_AT_decl_line(0x80)
     391                            .dwattr $C$DW$39, DW_AT_decl_column(0x02)
     392                    
     393                            .dwattr $C$DW$T$55, DW_AT_decl_file("C:/TI_ARM_Tiva_Projects/Source/include/task.h")
     394                            .dwattr $C$DW$T$55, DW_AT_decl_line(0x7b)
     395                            .dwattr $C$DW$T$55, DW_AT_decl_column(0x01)
     396                            .dwendtag $C$DW$T$55
     397                    
     398                    $C$DW$T$56      .dwtag  DW_TAG_typedef
     399                            .dwattr $C$DW$T$56, DW_AT_name("eNotifyAction")
     400                            .dwattr $C$DW$T$56, DW_AT_type(*$C$DW$T$55)
     401                            .dwattr $C$DW$T$56, DW_AT_language(DW_LANG_C)
     402                            .dwattr $C$DW$T$56, DW_AT_decl_file("C:/TI_ARM_Tiva_Projects/Source/include/task.h")
     403                            .dwattr $C$DW$T$56, DW_AT_decl_line(0x81)
     404                            .dwattr $C$DW$T$56, DW_AT_decl_column(0x03)
     405                    
     406                    
     407                    $C$DW$T$57      .dwtag  DW_TAG_enumeration_type
     408                            .dwattr $C$DW$T$57, DW_AT_byte_size(0x01)
     409                    $C$DW$40        .dwtag  DW_TAG_enumerator
     410                            .dwattr $C$DW$40, DW_AT_name("eAbortSleep")
     411                            .dwattr $C$DW$40, DW_AT_const_value(0x00)
     412                            .dwattr $C$DW$40, DW_AT_decl_file("C:/TI_ARM_Tiva_Projects/Source/include/task.h")
     413                            .dwattr $C$DW$40, DW_AT_decl_line(0xb5)
     414                            .dwattr $C$DW$40, DW_AT_decl_column(0x02)
     415                    
     416                    $C$DW$41        .dwtag  DW_TAG_enumerator
     417                            .dwattr $C$DW$41, DW_AT_name("eStandardSleep")
     418                            .dwattr $C$DW$41, DW_AT_const_value(0x01)
     419                            .dwattr $C$DW$41, DW_AT_decl_file("C:/TI_ARM_Tiva_Projects/Source/include/task.h")
     420                            .dwattr $C$DW$41, DW_AT_decl_line(0xb6)
     421                            .dwattr $C$DW$41, DW_AT_decl_column(0x02)
     422                    
     423                    $C$DW$42        .dwtag  DW_TAG_enumerator
     424                            .dwattr $C$DW$42, DW_AT_name("eNoTasksWaitingTimeout")
     425                            .dwattr $C$DW$42, DW_AT_const_value(0x02)
     426                            .dwattr $C$DW$42, DW_AT_decl_file("C:/TI_ARM_Tiva_Projects/Source/include/task.h")
     427                            .dwattr $C$DW$42, DW_AT_decl_line(0xb7)
     428                            .dwattr $C$DW$42, DW_AT_decl_column(0x02)
     429                    
     430                            .dwattr $C$DW$T$57, DW_AT_decl_file("C:/TI_ARM_Tiva_Projects/Source/include/task.h")
     431                            .dwattr $C$DW$T$57, DW_AT_decl_line(0xb4)
     432                            .dwattr $C$DW$T$57, DW_AT_decl_column(0x01)
     433                            .dwendtag $C$DW$T$57
     434                    
     435                    $C$DW$T$58      .dwtag  DW_TAG_typedef
     436                            .dwattr $C$DW$T$58, DW_AT_name("eSleepModeStatus")
     437                            .dwattr $C$DW$T$58, DW_AT_type(*$C$DW$T$57)
     438                            .dwattr $C$DW$T$58, DW_AT_language(DW_LANG_C)
TI ARM Assembler PC v15.12.1 Tue Oct 18 10:42:37 2016

Tools Copyright (c) 1996-2015 Texas Instruments Incorporated
Task_Blinky.asm                                                      PAGE    9

     439                            .dwattr $C$DW$T$58, DW_AT_decl_file("C:/TI_ARM_Tiva_Projects/Source/include/task.h")
     440                            .dwattr $C$DW$T$58, DW_AT_decl_line(0xb8)
     441                            .dwattr $C$DW$T$58, DW_AT_decl_column(0x03)
     442                    
     443                    
     444                    $C$DW$T$22      .dwtag  DW_TAG_structure_type
     445                            .dwattr $C$DW$T$22, DW_AT_name("HeapRegion")
     446                            .dwattr $C$DW$T$22, DW_AT_byte_size(0x08)
     447                    $C$DW$43        .dwtag  DW_TAG_member
     448                            .dwattr $C$DW$43, DW_AT_type(*$C$DW$T$20)
     449                            .dwattr $C$DW$43, DW_AT_name("pucStartAddress")
     450                            .dwattr $C$DW$43, DW_AT_TI_symbol_name("pucStartAddress")
     451                            .dwattr $C$DW$43, DW_AT_data_member_location[DW_OP_plus_uconst 0x0]
     452                            .dwattr $C$DW$43, DW_AT_accessibility(DW_ACCESS_public)
     453                            .dwattr $C$DW$43, DW_AT_decl_file("C:\TI_ARM_Tiva_Projects\Source\include\portable.h")
     454                            .dwattr $C$DW$43, DW_AT_decl_line(0x96)
     455                            .dwattr $C$DW$43, DW_AT_decl_column(0x0b)
     456                    
     457                    $C$DW$44        .dwtag  DW_TAG_member
     458                            .dwattr $C$DW$44, DW_AT_type(*$C$DW$T$21)
     459                            .dwattr $C$DW$44, DW_AT_name("xSizeInBytes")
     460                            .dwattr $C$DW$44, DW_AT_TI_symbol_name("xSizeInBytes")
     461                            .dwattr $C$DW$44, DW_AT_data_member_location[DW_OP_plus_uconst 0x4]
     462                            .dwattr $C$DW$44, DW_AT_accessibility(DW_ACCESS_public)
     463                            .dwattr $C$DW$44, DW_AT_decl_file("C:\TI_ARM_Tiva_Projects\Source\include\portable.h")
     464                            .dwattr $C$DW$44, DW_AT_decl_line(0x97)
     465                            .dwattr $C$DW$44, DW_AT_decl_column(0x09)
     466                    
     467                            .dwattr $C$DW$T$22, DW_AT_decl_file("C:\TI_ARM_Tiva_Projects\Source\include\portable.h")
     468                            .dwattr $C$DW$T$22, DW_AT_decl_line(0x94)
     469                            .dwattr $C$DW$T$22, DW_AT_decl_column(0x10)
     470                            .dwendtag $C$DW$T$22
     471                    
     472                    $C$DW$T$59      .dwtag  DW_TAG_typedef
     473                            .dwattr $C$DW$T$59, DW_AT_name("HeapRegion_t")
     474                            .dwattr $C$DW$T$59, DW_AT_type(*$C$DW$T$22)
     475                            .dwattr $C$DW$T$59, DW_AT_language(DW_LANG_C)
     476                            .dwattr $C$DW$T$59, DW_AT_decl_file("C:\TI_ARM_Tiva_Projects\Source\include\portable.h")
     477                            .dwattr $C$DW$T$59, DW_AT_decl_line(0x98)
     478                            .dwattr $C$DW$T$59, DW_AT_decl_column(0x03)
     479                    
     480                    $C$DW$T$2       .dwtag  DW_TAG_unspecified_type
     481                            .dwattr $C$DW$T$2, DW_AT_name("void")
     482                    
     483                    $C$DW$T$3       .dwtag  DW_TAG_pointer_type
     484                            .dwattr $C$DW$T$3, DW_AT_type(*$C$DW$T$2)
     485                            .dwattr $C$DW$T$3, DW_AT_address_class(0x20)
     486                    
     487                    $C$DW$T$48      .dwtag  DW_TAG_typedef
     488                            .dwattr $C$DW$T$48, DW_AT_name("TaskHandle_t")
     489                            .dwattr $C$DW$T$48, DW_AT_type(*$C$DW$T$3)
     490                            .dwattr $C$DW$T$48, DW_AT_language(DW_LANG_C)
     491                            .dwattr $C$DW$T$48, DW_AT_decl_file("C:/TI_ARM_Tiva_Projects/Source/include/task.h")
     492                            .dwattr $C$DW$T$48, DW_AT_decl_line(0x67)
     493                            .dwattr $C$DW$T$48, DW_AT_decl_column(0x10)
TI ARM Assembler PC v15.12.1 Tue Oct 18 10:42:37 2016

Tools Copyright (c) 1996-2015 Texas Instruments Incorporated
Task_Blinky.asm                                                      PAGE   10

     494                    
     495                    
     496                    $C$DW$T$35      .dwtag  DW_TAG_subroutine_type
     497                            .dwattr $C$DW$T$35, DW_AT_language(DW_LANG_C)
     498                    $C$DW$45        .dwtag  DW_TAG_formal_parameter
     499                            .dwattr $C$DW$45, DW_AT_type(*$C$DW$T$3)
     500                    
     501                            .dwendtag $C$DW$T$35
     502                    
     503                    $C$DW$T$36      .dwtag  DW_TAG_pointer_type
     504                            .dwattr $C$DW$T$36, DW_AT_type(*$C$DW$T$35)
     505                            .dwattr $C$DW$T$36, DW_AT_address_class(0x20)
     506                    
     507                    $C$DW$T$37      .dwtag  DW_TAG_typedef
     508                            .dwattr $C$DW$T$37, DW_AT_name("TaskFunction_t")
     509                            .dwattr $C$DW$T$37, DW_AT_type(*$C$DW$T$36)
     510                            .dwattr $C$DW$T$37, DW_AT_language(DW_LANG_C)
     511                            .dwattr $C$DW$T$37, DW_AT_decl_file("C:\TI_ARM_Tiva_Projects\Source\include\projdefs.h")
     512                            .dwattr $C$DW$T$37, DW_AT_decl_line(0x4d)
     513                            .dwattr $C$DW$T$37, DW_AT_decl_column(0x10)
     514                    
     515                    $C$DW$T$4       .dwtag  DW_TAG_base_type
     516                            .dwattr $C$DW$T$4, DW_AT_encoding(DW_ATE_boolean)
     517                            .dwattr $C$DW$T$4, DW_AT_name("bool")
     518                            .dwattr $C$DW$T$4, DW_AT_byte_size(0x01)
     519                    
     520                    $C$DW$T$5       .dwtag  DW_TAG_base_type
     521                            .dwattr $C$DW$T$5, DW_AT_encoding(DW_ATE_signed_char)
     522                            .dwattr $C$DW$T$5, DW_AT_name("signed char")
     523                            .dwattr $C$DW$T$5, DW_AT_byte_size(0x01)
     524                    
     525                    $C$DW$T$71      .dwtag  DW_TAG_typedef
     526                            .dwattr $C$DW$T$71, DW_AT_name("int8_t")
     527                            .dwattr $C$DW$T$71, DW_AT_type(*$C$DW$T$5)
     528                            .dwattr $C$DW$T$71, DW_AT_language(DW_LANG_C)
     529                            .dwattr $C$DW$T$71, DW_AT_decl_file("C:/TI_CodeComposer/ccsv6/tools/compiler/ti-cgt-arm_15.12.
     530                            .dwattr $C$DW$T$71, DW_AT_decl_line(0x2a)
     531                            .dwattr $C$DW$T$71, DW_AT_decl_column(0x1d)
     532                    
     533                    $C$DW$T$72      .dwtag  DW_TAG_typedef
     534                            .dwattr $C$DW$T$72, DW_AT_name("int_least8_t")
     535                            .dwattr $C$DW$T$72, DW_AT_type(*$C$DW$T$71)
     536                            .dwattr $C$DW$T$72, DW_AT_language(DW_LANG_C)
     537                            .dwattr $C$DW$T$72, DW_AT_decl_file("C:/TI_CodeComposer/ccsv6/tools/compiler/ti-cgt-arm_15.12.
     538                            .dwattr $C$DW$T$72, DW_AT_decl_line(0x37)
     539                            .dwattr $C$DW$T$72, DW_AT_decl_column(0x17)
     540                    
     541                    $C$DW$T$6       .dwtag  DW_TAG_base_type
     542                            .dwattr $C$DW$T$6, DW_AT_encoding(DW_ATE_unsigned_char)
     543                            .dwattr $C$DW$T$6, DW_AT_name("unsigned char")
     544                            .dwattr $C$DW$T$6, DW_AT_byte_size(0x01)
     545                    
     546                    $C$DW$T$19      .dwtag  DW_TAG_typedef
     547                            .dwattr $C$DW$T$19, DW_AT_name("uint8_t")
     548                            .dwattr $C$DW$T$19, DW_AT_type(*$C$DW$T$6)
TI ARM Assembler PC v15.12.1 Tue Oct 18 10:42:37 2016

Tools Copyright (c) 1996-2015 Texas Instruments Incorporated
Task_Blinky.asm                                                      PAGE   11

     549                            .dwattr $C$DW$T$19, DW_AT_language(DW_LANG_C)
     550                            .dwattr $C$DW$T$19, DW_AT_decl_file("C:/TI_CodeComposer/ccsv6/tools/compiler/ti-cgt-arm_15.12.
     551                            .dwattr $C$DW$T$19, DW_AT_decl_line(0x2b)
     552                            .dwattr $C$DW$T$19, DW_AT_decl_column(0x1c)
     553                    
     554                    $C$DW$T$20      .dwtag  DW_TAG_pointer_type
     555                            .dwattr $C$DW$T$20, DW_AT_type(*$C$DW$T$19)
     556                            .dwattr $C$DW$T$20, DW_AT_address_class(0x20)
     557                    
     558                    $C$DW$T$73      .dwtag  DW_TAG_typedef
     559                            .dwattr $C$DW$T$73, DW_AT_name("portCHAR")
     560                            .dwattr $C$DW$T$73, DW_AT_type(*$C$DW$T$19)
     561                            .dwattr $C$DW$T$73, DW_AT_language(DW_LANG_C)
     562                            .dwattr $C$DW$T$73, DW_AT_decl_file("C:/TI_ARM_Tiva_Projects/Source/portable/CCS/ARM_CM4F/port
     563                            .dwattr $C$DW$T$73, DW_AT_decl_line(0x60)
     564                            .dwattr $C$DW$T$73, DW_AT_decl_column(0x12)
     565                    
     566                    $C$DW$T$74      .dwtag  DW_TAG_typedef
     567                            .dwattr $C$DW$T$74, DW_AT_name("uint_least8_t")
     568                            .dwattr $C$DW$T$74, DW_AT_type(*$C$DW$T$19)
     569                            .dwattr $C$DW$T$74, DW_AT_language(DW_LANG_C)
     570                            .dwattr $C$DW$T$74, DW_AT_decl_file("C:/TI_CodeComposer/ccsv6/tools/compiler/ti-cgt-arm_15.12.
     571                            .dwattr $C$DW$T$74, DW_AT_decl_line(0x38)
     572                            .dwattr $C$DW$T$74, DW_AT_decl_column(0x16)
     573                    
     574                    $C$DW$T$7       .dwtag  DW_TAG_base_type
     575                            .dwattr $C$DW$T$7, DW_AT_encoding(DW_ATE_signed_char)
     576                            .dwattr $C$DW$T$7, DW_AT_name("wchar_t")
     577                            .dwattr $C$DW$T$7, DW_AT_byte_size(0x02)
     578                    
     579                    $C$DW$T$8       .dwtag  DW_TAG_base_type
     580                            .dwattr $C$DW$T$8, DW_AT_encoding(DW_ATE_signed)
     581                            .dwattr $C$DW$T$8, DW_AT_name("short")
     582                            .dwattr $C$DW$T$8, DW_AT_byte_size(0x02)
     583                    
     584                    $C$DW$T$75      .dwtag  DW_TAG_typedef
     585                            .dwattr $C$DW$T$75, DW_AT_name("int16_t")
     586                            .dwattr $C$DW$T$75, DW_AT_type(*$C$DW$T$8)
     587                            .dwattr $C$DW$T$75, DW_AT_language(DW_LANG_C)
     588                            .dwattr $C$DW$T$75, DW_AT_decl_file("C:/TI_CodeComposer/ccsv6/tools/compiler/ti-cgt-arm_15.12.
     589                            .dwattr $C$DW$T$75, DW_AT_decl_line(0x2c)
     590                            .dwattr $C$DW$T$75, DW_AT_decl_column(0x1d)
     591                    
     592                    $C$DW$T$76      .dwtag  DW_TAG_typedef
     593                            .dwattr $C$DW$T$76, DW_AT_name("int_least16_t")
     594                            .dwattr $C$DW$T$76, DW_AT_type(*$C$DW$T$75)
     595                            .dwattr $C$DW$T$76, DW_AT_language(DW_LANG_C)
     596                            .dwattr $C$DW$T$76, DW_AT_decl_file("C:/TI_CodeComposer/ccsv6/tools/compiler/ti-cgt-arm_15.12.
     597                            .dwattr $C$DW$T$76, DW_AT_decl_line(0x3a)
     598                            .dwattr $C$DW$T$76, DW_AT_decl_column(0x17)
     599                    
     600                    $C$DW$T$77      .dwtag  DW_TAG_typedef
     601                            .dwattr $C$DW$T$77, DW_AT_name("portSHORT")
     602                            .dwattr $C$DW$T$77, DW_AT_type(*$C$DW$T$75)
     603                            .dwattr $C$DW$T$77, DW_AT_language(DW_LANG_C)
TI ARM Assembler PC v15.12.1 Tue Oct 18 10:42:37 2016

Tools Copyright (c) 1996-2015 Texas Instruments Incorporated
Task_Blinky.asm                                                      PAGE   12

     604                            .dwattr $C$DW$T$77, DW_AT_decl_file("C:/TI_ARM_Tiva_Projects/Source/portable/CCS/ARM_CM4F/port
     605                            .dwattr $C$DW$T$77, DW_AT_decl_line(0x64)
     606                            .dwattr $C$DW$T$77, DW_AT_decl_column(0x12)
     607                    
     608                    $C$DW$T$9       .dwtag  DW_TAG_base_type
     609                            .dwattr $C$DW$T$9, DW_AT_encoding(DW_ATE_unsigned)
     610                            .dwattr $C$DW$T$9, DW_AT_name("unsigned short")
     611                            .dwattr $C$DW$T$9, DW_AT_byte_size(0x02)
     612                    
     613                    $C$DW$T$42      .dwtag  DW_TAG_typedef
     614                            .dwattr $C$DW$T$42, DW_AT_name("uint16_t")
     615                            .dwattr $C$DW$T$42, DW_AT_type(*$C$DW$T$9)
     616                            .dwattr $C$DW$T$42, DW_AT_language(DW_LANG_C)
     617                            .dwattr $C$DW$T$42, DW_AT_decl_file("C:/TI_CodeComposer/ccsv6/tools/compiler/ti-cgt-arm_15.12.
     618                            .dwattr $C$DW$T$42, DW_AT_decl_line(0x2d)
     619                            .dwattr $C$DW$T$42, DW_AT_decl_column(0x1c)
     620                    
     621                    $C$DW$T$78      .dwtag  DW_TAG_typedef
     622                            .dwattr $C$DW$T$78, DW_AT_name("uint_least16_t")
     623                            .dwattr $C$DW$T$78, DW_AT_type(*$C$DW$T$42)
     624                            .dwattr $C$DW$T$78, DW_AT_language(DW_LANG_C)
     625                            .dwattr $C$DW$T$78, DW_AT_decl_file("C:/TI_CodeComposer/ccsv6/tools/compiler/ti-cgt-arm_15.12.
     626                            .dwattr $C$DW$T$78, DW_AT_decl_line(0x3b)
     627                            .dwattr $C$DW$T$78, DW_AT_decl_column(0x16)
     628                    
     629                    $C$DW$T$79      .dwtag  DW_TAG_typedef
     630                            .dwattr $C$DW$T$79, DW_AT_name("wchar_t")
     631                            .dwattr $C$DW$T$79, DW_AT_type(*$C$DW$T$9)
     632                            .dwattr $C$DW$T$79, DW_AT_language(DW_LANG_C)
     633                            .dwattr $C$DW$T$79, DW_AT_decl_file("C:/TI_CodeComposer/ccsv6/tools/compiler/ti-cgt-arm_15.12.
     634                            .dwattr $C$DW$T$79, DW_AT_decl_line(0x41)
     635                            .dwattr $C$DW$T$79, DW_AT_decl_column(0x1a)
     636                    
     637                    $C$DW$T$10      .dwtag  DW_TAG_base_type
     638                            .dwattr $C$DW$T$10, DW_AT_encoding(DW_ATE_signed)
     639                            .dwattr $C$DW$T$10, DW_AT_name("int")
     640                            .dwattr $C$DW$T$10, DW_AT_byte_size(0x04)
     641                    
     642                    $C$DW$T$52      .dwtag  DW_TAG_typedef
     643                            .dwattr $C$DW$T$52, DW_AT_name("int32_t")
     644                            .dwattr $C$DW$T$52, DW_AT_type(*$C$DW$T$10)
     645                            .dwattr $C$DW$T$52, DW_AT_language(DW_LANG_C)
     646                            .dwattr $C$DW$T$52, DW_AT_decl_file("C:/TI_CodeComposer/ccsv6/tools/compiler/ti-cgt-arm_15.12.
     647                            .dwattr $C$DW$T$52, DW_AT_decl_line(0x2e)
     648                            .dwattr $C$DW$T$52, DW_AT_decl_column(0x1d)
     649                    
     650                    $C$DW$T$53      .dwtag  DW_TAG_typedef
     651                            .dwattr $C$DW$T$53, DW_AT_name("BaseType_t")
     652                            .dwattr $C$DW$T$53, DW_AT_type(*$C$DW$T$52)
     653                            .dwattr $C$DW$T$53, DW_AT_language(DW_LANG_C)
     654                            .dwattr $C$DW$T$53, DW_AT_decl_file("C:/TI_ARM_Tiva_Projects/Source/portable/CCS/ARM_CM4F/port
     655                            .dwattr $C$DW$T$53, DW_AT_decl_line(0x69)
     656                            .dwattr $C$DW$T$53, DW_AT_decl_column(0x12)
     657                    
     658                    
TI ARM Assembler PC v15.12.1 Tue Oct 18 10:42:37 2016

Tools Copyright (c) 1996-2015 Texas Instruments Incorporated
Task_Blinky.asm                                                      PAGE   13

     659                    $C$DW$T$80      .dwtag  DW_TAG_subroutine_type
     660                            .dwattr $C$DW$T$80, DW_AT_type(*$C$DW$T$53)
     661                            .dwattr $C$DW$T$80, DW_AT_language(DW_LANG_C)
     662                    $C$DW$46        .dwtag  DW_TAG_formal_parameter
     663                            .dwattr $C$DW$46, DW_AT_type(*$C$DW$T$3)
     664                    
     665                            .dwendtag $C$DW$T$80
     666                    
     667                    $C$DW$T$81      .dwtag  DW_TAG_pointer_type
     668                            .dwattr $C$DW$T$81, DW_AT_type(*$C$DW$T$80)
     669                            .dwattr $C$DW$T$81, DW_AT_address_class(0x20)
     670                    
     671                    $C$DW$T$82      .dwtag  DW_TAG_typedef
     672                            .dwattr $C$DW$T$82, DW_AT_name("TaskHookFunction_t")
     673                            .dwattr $C$DW$T$82, DW_AT_type(*$C$DW$T$81)
     674                            .dwattr $C$DW$T$82, DW_AT_language(DW_LANG_C)
     675                            .dwattr $C$DW$T$82, DW_AT_decl_file("C:/TI_ARM_Tiva_Projects/Source/include/task.h")
     676                            .dwattr $C$DW$T$82, DW_AT_decl_line(0x6d)
     677                            .dwattr $C$DW$T$82, DW_AT_decl_column(0x16)
     678                    
     679                    $C$DW$T$85      .dwtag  DW_TAG_typedef
     680                            .dwattr $C$DW$T$85, DW_AT_name("int_fast16_t")
     681                            .dwattr $C$DW$T$85, DW_AT_type(*$C$DW$T$52)
     682                            .dwattr $C$DW$T$85, DW_AT_language(DW_LANG_C)
     683                            .dwattr $C$DW$T$85, DW_AT_decl_file("C:/TI_CodeComposer/ccsv6/tools/compiler/ti-cgt-arm_15.12.
     684                            .dwattr $C$DW$T$85, DW_AT_decl_line(0x47)
     685                            .dwattr $C$DW$T$85, DW_AT_decl_column(0x17)
     686                    
     687                    $C$DW$T$86      .dwtag  DW_TAG_typedef
     688                            .dwattr $C$DW$T$86, DW_AT_name("int_fast32_t")
     689                            .dwattr $C$DW$T$86, DW_AT_type(*$C$DW$T$52)
     690                            .dwattr $C$DW$T$86, DW_AT_language(DW_LANG_C)
     691                            .dwattr $C$DW$T$86, DW_AT_decl_file("C:/TI_CodeComposer/ccsv6/tools/compiler/ti-cgt-arm_15.12.
     692                            .dwattr $C$DW$T$86, DW_AT_decl_line(0x4a)
     693                            .dwattr $C$DW$T$86, DW_AT_decl_column(0x17)
     694                    
     695                    $C$DW$T$87      .dwtag  DW_TAG_typedef
     696                            .dwattr $C$DW$T$87, DW_AT_name("int_fast8_t")
     697                            .dwattr $C$DW$T$87, DW_AT_type(*$C$DW$T$52)
     698                            .dwattr $C$DW$T$87, DW_AT_language(DW_LANG_C)
     699                            .dwattr $C$DW$T$87, DW_AT_decl_file("C:/TI_CodeComposer/ccsv6/tools/compiler/ti-cgt-arm_15.12.
     700                            .dwattr $C$DW$T$87, DW_AT_decl_line(0x45)
     701                            .dwattr $C$DW$T$87, DW_AT_decl_column(0x17)
     702                    
     703                    $C$DW$T$88      .dwtag  DW_TAG_typedef
     704                            .dwattr $C$DW$T$88, DW_AT_name("int_least32_t")
     705                            .dwattr $C$DW$T$88, DW_AT_type(*$C$DW$T$52)
     706                            .dwattr $C$DW$T$88, DW_AT_language(DW_LANG_C)
     707                            .dwattr $C$DW$T$88, DW_AT_decl_file("C:/TI_CodeComposer/ccsv6/tools/compiler/ti-cgt-arm_15.12.
     708                            .dwattr $C$DW$T$88, DW_AT_decl_line(0x3c)
     709                            .dwattr $C$DW$T$88, DW_AT_decl_column(0x17)
     710                    
     711                    $C$DW$T$89      .dwtag  DW_TAG_typedef
     712                            .dwattr $C$DW$T$89, DW_AT_name("portBASE_TYPE")
     713                            .dwattr $C$DW$T$89, DW_AT_type(*$C$DW$T$52)
TI ARM Assembler PC v15.12.1 Tue Oct 18 10:42:37 2016

Tools Copyright (c) 1996-2015 Texas Instruments Incorporated
Task_Blinky.asm                                                      PAGE   14

     714                            .dwattr $C$DW$T$89, DW_AT_language(DW_LANG_C)
     715                            .dwattr $C$DW$T$89, DW_AT_decl_file("C:/TI_ARM_Tiva_Projects/Source/portable/CCS/ARM_CM4F/port
     716                            .dwattr $C$DW$T$89, DW_AT_decl_line(0x66)
     717                            .dwattr $C$DW$T$89, DW_AT_decl_column(0x12)
     718                    
     719                    $C$DW$T$90      .dwtag  DW_TAG_typedef
     720                            .dwattr $C$DW$T$90, DW_AT_name("portLONG")
     721                            .dwattr $C$DW$T$90, DW_AT_type(*$C$DW$T$52)
     722                            .dwattr $C$DW$T$90, DW_AT_language(DW_LANG_C)
     723                            .dwattr $C$DW$T$90, DW_AT_decl_file("C:/TI_ARM_Tiva_Projects/Source/portable/CCS/ARM_CM4F/port
     724                            .dwattr $C$DW$T$90, DW_AT_decl_line(0x63)
     725                            .dwattr $C$DW$T$90, DW_AT_decl_column(0x12)
     726                    
     727                    $C$DW$T$91      .dwtag  DW_TAG_typedef
     728                            .dwattr $C$DW$T$91, DW_AT_name("intptr_t")
     729                            .dwattr $C$DW$T$91, DW_AT_type(*$C$DW$T$10)
     730                            .dwattr $C$DW$T$91, DW_AT_language(DW_LANG_C)
     731                            .dwattr $C$DW$T$91, DW_AT_decl_file("C:/TI_CodeComposer/ccsv6/tools/compiler/ti-cgt-arm_15.12.
     732                            .dwattr $C$DW$T$91, DW_AT_decl_line(0x52)
     733                            .dwattr $C$DW$T$91, DW_AT_decl_column(0x1a)
     734                    
     735                    $C$DW$T$92      .dwtag  DW_TAG_typedef
     736                            .dwattr $C$DW$T$92, DW_AT_name("ptrdiff_t")
     737                            .dwattr $C$DW$T$92, DW_AT_type(*$C$DW$T$10)
     738                            .dwattr $C$DW$T$92, DW_AT_language(DW_LANG_C)
     739                            .dwattr $C$DW$T$92, DW_AT_decl_file("C:/TI_CodeComposer/ccsv6/tools/compiler/ti-cgt-arm_15.12.
     740                            .dwattr $C$DW$T$92, DW_AT_decl_line(0x36)
     741                            .dwattr $C$DW$T$92, DW_AT_decl_column(0x1c)
     742                    
     743                    $C$DW$T$11      .dwtag  DW_TAG_base_type
     744                            .dwattr $C$DW$T$11, DW_AT_encoding(DW_ATE_unsigned)
     745                            .dwattr $C$DW$T$11, DW_AT_name("unsigned int")
     746                            .dwattr $C$DW$T$11, DW_AT_byte_size(0x04)
     747                    
     748                    $C$DW$T$21      .dwtag  DW_TAG_typedef
     749                            .dwattr $C$DW$T$21, DW_AT_name("size_t")
     750                            .dwattr $C$DW$T$21, DW_AT_type(*$C$DW$T$11)
     751                            .dwattr $C$DW$T$21, DW_AT_language(DW_LANG_C)
     752                            .dwattr $C$DW$T$21, DW_AT_decl_file("C:/TI_CodeComposer/ccsv6/tools/compiler/ti-cgt-arm_15.12.
     753                            .dwattr $C$DW$T$21, DW_AT_decl_line(0x3a)
     754                            .dwattr $C$DW$T$21, DW_AT_decl_column(0x19)
     755                    
     756                    $C$DW$T$24      .dwtag  DW_TAG_typedef
     757                            .dwattr $C$DW$T$24, DW_AT_name("uint32_t")
     758                            .dwattr $C$DW$T$24, DW_AT_type(*$C$DW$T$11)
     759                            .dwattr $C$DW$T$24, DW_AT_language(DW_LANG_C)
     760                            .dwattr $C$DW$T$24, DW_AT_decl_file("C:/TI_CodeComposer/ccsv6/tools/compiler/ti-cgt-arm_15.12.
     761                            .dwattr $C$DW$T$24, DW_AT_decl_line(0x2f)
     762                            .dwattr $C$DW$T$24, DW_AT_decl_column(0x1c)
     763                    
     764                    $C$DW$T$43      .dwtag  DW_TAG_typedef
     765                            .dwattr $C$DW$T$43, DW_AT_name("StackType_t")
     766                            .dwattr $C$DW$T$43, DW_AT_type(*$C$DW$T$24)
     767                            .dwattr $C$DW$T$43, DW_AT_language(DW_LANG_C)
     768                            .dwattr $C$DW$T$43, DW_AT_decl_file("C:/TI_ARM_Tiva_Projects/Source/portable/CCS/ARM_CM4F/port
TI ARM Assembler PC v15.12.1 Tue Oct 18 10:42:37 2016

Tools Copyright (c) 1996-2015 Texas Instruments Incorporated
Task_Blinky.asm                                                      PAGE   15

     769                            .dwattr $C$DW$T$43, DW_AT_decl_line(0x68)
     770                            .dwattr $C$DW$T$43, DW_AT_decl_column(0x12)
     771                    
     772                    $C$DW$T$44      .dwtag  DW_TAG_pointer_type
     773                            .dwattr $C$DW$T$44, DW_AT_type(*$C$DW$T$43)
     774                            .dwattr $C$DW$T$44, DW_AT_address_class(0x20)
     775                    
     776                    $C$DW$T$30      .dwtag  DW_TAG_typedef
     777                            .dwattr $C$DW$T$30, DW_AT_name("TickType_t")
     778                            .dwattr $C$DW$T$30, DW_AT_type(*$C$DW$T$24)
     779                            .dwattr $C$DW$T$30, DW_AT_language(DW_LANG_C)
     780                            .dwattr $C$DW$T$30, DW_AT_decl_file("C:/TI_ARM_Tiva_Projects/Source/portable/CCS/ARM_CM4F/port
     781                            .dwattr $C$DW$T$30, DW_AT_decl_line(0x70)
     782                            .dwattr $C$DW$T$30, DW_AT_decl_column(0x13)
     783                    
     784                    $C$DW$T$68      .dwtag  DW_TAG_const_type
     785                            .dwattr $C$DW$T$68, DW_AT_type(*$C$DW$T$30)
     786                    
     787                    $C$DW$T$25      .dwtag  DW_TAG_typedef
     788                            .dwattr $C$DW$T$25, DW_AT_name("UBaseType_t")
     789                            .dwattr $C$DW$T$25, DW_AT_type(*$C$DW$T$24)
     790                            .dwattr $C$DW$T$25, DW_AT_language(DW_LANG_C)
     791                            .dwattr $C$DW$T$25, DW_AT_decl_file("C:/TI_ARM_Tiva_Projects/Source/portable/CCS/ARM_CM4F/port
     792                            .dwattr $C$DW$T$25, DW_AT_decl_line(0x6a)
     793                            .dwattr $C$DW$T$25, DW_AT_decl_column(0x12)
     794                    
     795                    $C$DW$T$93      .dwtag  DW_TAG_typedef
     796                            .dwattr $C$DW$T$93, DW_AT_name("portSTACK_TYPE")
     797                            .dwattr $C$DW$T$93, DW_AT_type(*$C$DW$T$24)
     798                            .dwattr $C$DW$T$93, DW_AT_language(DW_LANG_C)
     799                            .dwattr $C$DW$T$93, DW_AT_decl_file("C:/TI_ARM_Tiva_Projects/Source/portable/CCS/ARM_CM4F/port
     800                            .dwattr $C$DW$T$93, DW_AT_decl_line(0x65)
     801                            .dwattr $C$DW$T$93, DW_AT_decl_column(0x12)
     802                    
     803                    $C$DW$T$94      .dwtag  DW_TAG_typedef
     804                            .dwattr $C$DW$T$94, DW_AT_name("uint_fast16_t")
     805                            .dwattr $C$DW$T$94, DW_AT_type(*$C$DW$T$24)
     806                            .dwattr $C$DW$T$94, DW_AT_language(DW_LANG_C)
     807                            .dwattr $C$DW$T$94, DW_AT_decl_file("C:/TI_CodeComposer/ccsv6/tools/compiler/ti-cgt-arm_15.12.
     808                            .dwattr $C$DW$T$94, DW_AT_decl_line(0x48)
     809                            .dwattr $C$DW$T$94, DW_AT_decl_column(0x16)
     810                    
     811                    $C$DW$T$95      .dwtag  DW_TAG_typedef
     812                            .dwattr $C$DW$T$95, DW_AT_name("uint_fast32_t")
     813                            .dwattr $C$DW$T$95, DW_AT_type(*$C$DW$T$24)
     814                            .dwattr $C$DW$T$95, DW_AT_language(DW_LANG_C)
     815                            .dwattr $C$DW$T$95, DW_AT_decl_file("C:/TI_CodeComposer/ccsv6/tools/compiler/ti-cgt-arm_15.12.
     816                            .dwattr $C$DW$T$95, DW_AT_decl_line(0x4b)
     817                            .dwattr $C$DW$T$95, DW_AT_decl_column(0x16)
     818                    
     819                    $C$DW$T$96      .dwtag  DW_TAG_typedef
     820                            .dwattr $C$DW$T$96, DW_AT_name("uint_fast8_t")
     821                            .dwattr $C$DW$T$96, DW_AT_type(*$C$DW$T$24)
     822                            .dwattr $C$DW$T$96, DW_AT_language(DW_LANG_C)
     823                            .dwattr $C$DW$T$96, DW_AT_decl_file("C:/TI_CodeComposer/ccsv6/tools/compiler/ti-cgt-arm_15.12.
TI ARM Assembler PC v15.12.1 Tue Oct 18 10:42:37 2016

Tools Copyright (c) 1996-2015 Texas Instruments Incorporated
Task_Blinky.asm                                                      PAGE   16

     824                            .dwattr $C$DW$T$96, DW_AT_decl_line(0x46)
     825                            .dwattr $C$DW$T$96, DW_AT_decl_column(0x16)
     826                    
     827                    $C$DW$T$97      .dwtag  DW_TAG_typedef
     828                            .dwattr $C$DW$T$97, DW_AT_name("uint_least32_t")
     829                            .dwattr $C$DW$T$97, DW_AT_type(*$C$DW$T$24)
     830                            .dwattr $C$DW$T$97, DW_AT_language(DW_LANG_C)
     831                            .dwattr $C$DW$T$97, DW_AT_decl_file("C:/TI_CodeComposer/ccsv6/tools/compiler/ti-cgt-arm_15.12.
     832                            .dwattr $C$DW$T$97, DW_AT_decl_line(0x3d)
     833                            .dwattr $C$DW$T$97, DW_AT_decl_column(0x16)
     834                    
     835                    $C$DW$T$98      .dwtag  DW_TAG_typedef
     836                            .dwattr $C$DW$T$98, DW_AT_name("uintptr_t")
     837                            .dwattr $C$DW$T$98, DW_AT_type(*$C$DW$T$11)
     838                            .dwattr $C$DW$T$98, DW_AT_language(DW_LANG_C)
     839                            .dwattr $C$DW$T$98, DW_AT_decl_file("C:/TI_CodeComposer/ccsv6/tools/compiler/ti-cgt-arm_15.12.
     840                            .dwattr $C$DW$T$98, DW_AT_decl_line(0x53)
     841                            .dwattr $C$DW$T$98, DW_AT_decl_column(0x1a)
     842                    
     843                    $C$DW$T$12      .dwtag  DW_TAG_base_type
     844                            .dwattr $C$DW$T$12, DW_AT_encoding(DW_ATE_signed)
     845                            .dwattr $C$DW$T$12, DW_AT_name("long")
     846                            .dwattr $C$DW$T$12, DW_AT_byte_size(0x04)
     847                    
     848                    $C$DW$T$13      .dwtag  DW_TAG_base_type
     849                            .dwattr $C$DW$T$13, DW_AT_encoding(DW_ATE_unsigned)
     850                            .dwattr $C$DW$T$13, DW_AT_name("unsigned long")
     851                            .dwattr $C$DW$T$13, DW_AT_byte_size(0x04)
     852                    
     853                    $C$DW$T$14      .dwtag  DW_TAG_base_type
     854                            .dwattr $C$DW$T$14, DW_AT_encoding(DW_ATE_signed)
     855                            .dwattr $C$DW$T$14, DW_AT_name("long long")
     856                            .dwattr $C$DW$T$14, DW_AT_byte_size(0x08)
     857                    
     858                    $C$DW$T$99      .dwtag  DW_TAG_typedef
     859                            .dwattr $C$DW$T$99, DW_AT_name("int64_t")
     860                            .dwattr $C$DW$T$99, DW_AT_type(*$C$DW$T$14)
     861                            .dwattr $C$DW$T$99, DW_AT_language(DW_LANG_C)
     862                            .dwattr $C$DW$T$99, DW_AT_decl_file("C:/TI_CodeComposer/ccsv6/tools/compiler/ti-cgt-arm_15.12.
     863                            .dwattr $C$DW$T$99, DW_AT_decl_line(0x32)
     864                            .dwattr $C$DW$T$99, DW_AT_decl_column(0x21)
     865                    
     866                    $C$DW$T$100     .dwtag  DW_TAG_typedef
     867                            .dwattr $C$DW$T$100, DW_AT_name("int_fast64_t")
     868                            .dwattr $C$DW$T$100, DW_AT_type(*$C$DW$T$99)
     869                            .dwattr $C$DW$T$100, DW_AT_language(DW_LANG_C)
     870                            .dwattr $C$DW$T$100, DW_AT_decl_file("C:/TI_CodeComposer/ccsv6/tools/compiler/ti-cgt-arm_15.12
     871                            .dwattr $C$DW$T$100, DW_AT_decl_line(0x4e)
     872                            .dwattr $C$DW$T$100, DW_AT_decl_column(0x17)
     873                    
     874                    $C$DW$T$101     .dwtag  DW_TAG_typedef
     875                            .dwattr $C$DW$T$101, DW_AT_name("int_least64_t")
     876                            .dwattr $C$DW$T$101, DW_AT_type(*$C$DW$T$99)
     877                            .dwattr $C$DW$T$101, DW_AT_language(DW_LANG_C)
     878                            .dwattr $C$DW$T$101, DW_AT_decl_file("C:/TI_CodeComposer/ccsv6/tools/compiler/ti-cgt-arm_15.12
TI ARM Assembler PC v15.12.1 Tue Oct 18 10:42:37 2016

Tools Copyright (c) 1996-2015 Texas Instruments Incorporated
Task_Blinky.asm                                                      PAGE   17

     879                            .dwattr $C$DW$T$101, DW_AT_decl_line(0x40)
     880                            .dwattr $C$DW$T$101, DW_AT_decl_column(0x17)
     881                    
     882                    $C$DW$T$102     .dwtag  DW_TAG_typedef
     883                            .dwattr $C$DW$T$102, DW_AT_name("portDOUBLE")
     884                            .dwattr $C$DW$T$102, DW_AT_type(*$C$DW$T$99)
     885                            .dwattr $C$DW$T$102, DW_AT_language(DW_LANG_C)
     886                            .dwattr $C$DW$T$102, DW_AT_decl_file("C:/TI_ARM_Tiva_Projects/Source/portable/CCS/ARM_CM4F/por
     887                            .dwattr $C$DW$T$102, DW_AT_decl_line(0x62)
     888                            .dwattr $C$DW$T$102, DW_AT_decl_column(0x12)
     889                    
     890                    $C$DW$T$103     .dwtag  DW_TAG_typedef
     891                            .dwattr $C$DW$T$103, DW_AT_name("intmax_t")
     892                            .dwattr $C$DW$T$103, DW_AT_type(*$C$DW$T$14)
     893                            .dwattr $C$DW$T$103, DW_AT_language(DW_LANG_C)
     894                            .dwattr $C$DW$T$103, DW_AT_decl_file("C:/TI_CodeComposer/ccsv6/tools/compiler/ti-cgt-arm_15.12
     895                            .dwattr $C$DW$T$103, DW_AT_decl_line(0x56)
     896                            .dwattr $C$DW$T$103, DW_AT_decl_column(0x20)
     897                    
     898                    $C$DW$T$15      .dwtag  DW_TAG_base_type
     899                            .dwattr $C$DW$T$15, DW_AT_encoding(DW_ATE_unsigned)
     900                            .dwattr $C$DW$T$15, DW_AT_name("unsigned long long")
     901                            .dwattr $C$DW$T$15, DW_AT_byte_size(0x08)
     902                    
     903                    $C$DW$T$104     .dwtag  DW_TAG_typedef
     904                            .dwattr $C$DW$T$104, DW_AT_name("uint64_t")
     905                            .dwattr $C$DW$T$104, DW_AT_type(*$C$DW$T$15)
     906                            .dwattr $C$DW$T$104, DW_AT_language(DW_LANG_C)
     907                            .dwattr $C$DW$T$104, DW_AT_decl_file("C:/TI_CodeComposer/ccsv6/tools/compiler/ti-cgt-arm_15.12
     908                            .dwattr $C$DW$T$104, DW_AT_decl_line(0x33)
     909                            .dwattr $C$DW$T$104, DW_AT_decl_column(0x20)
     910                    
     911                    $C$DW$T$105     .dwtag  DW_TAG_typedef
     912                            .dwattr $C$DW$T$105, DW_AT_name("uint_fast64_t")
     913                            .dwattr $C$DW$T$105, DW_AT_type(*$C$DW$T$104)
     914                            .dwattr $C$DW$T$105, DW_AT_language(DW_LANG_C)
     915                            .dwattr $C$DW$T$105, DW_AT_decl_file("C:/TI_CodeComposer/ccsv6/tools/compiler/ti-cgt-arm_15.12
     916                            .dwattr $C$DW$T$105, DW_AT_decl_line(0x4f)
     917                            .dwattr $C$DW$T$105, DW_AT_decl_column(0x16)
     918                    
     919                    $C$DW$T$106     .dwtag  DW_TAG_typedef
     920                            .dwattr $C$DW$T$106, DW_AT_name("uint_least64_t")
     921                            .dwattr $C$DW$T$106, DW_AT_type(*$C$DW$T$104)
     922                            .dwattr $C$DW$T$106, DW_AT_language(DW_LANG_C)
     923                            .dwattr $C$DW$T$106, DW_AT_decl_file("C:/TI_CodeComposer/ccsv6/tools/compiler/ti-cgt-arm_15.12
     924                            .dwattr $C$DW$T$106, DW_AT_decl_line(0x41)
     925                            .dwattr $C$DW$T$106, DW_AT_decl_column(0x16)
     926                    
     927                    $C$DW$T$107     .dwtag  DW_TAG_typedef
     928                            .dwattr $C$DW$T$107, DW_AT_name("uintmax_t")
     929                            .dwattr $C$DW$T$107, DW_AT_type(*$C$DW$T$15)
     930                            .dwattr $C$DW$T$107, DW_AT_language(DW_LANG_C)
     931                            .dwattr $C$DW$T$107, DW_AT_decl_file("C:/TI_CodeComposer/ccsv6/tools/compiler/ti-cgt-arm_15.12
     932                            .dwattr $C$DW$T$107, DW_AT_decl_line(0x57)
     933                            .dwattr $C$DW$T$107, DW_AT_decl_column(0x20)
TI ARM Assembler PC v15.12.1 Tue Oct 18 10:42:37 2016

Tools Copyright (c) 1996-2015 Texas Instruments Incorporated
Task_Blinky.asm                                                      PAGE   18

     934                    
     935                    $C$DW$T$16      .dwtag  DW_TAG_base_type
     936                            .dwattr $C$DW$T$16, DW_AT_encoding(DW_ATE_float)
     937                            .dwattr $C$DW$T$16, DW_AT_name("float")
     938                            .dwattr $C$DW$T$16, DW_AT_byte_size(0x04)
     939                    
     940                    $C$DW$T$108     .dwtag  DW_TAG_typedef
     941                            .dwattr $C$DW$T$108, DW_AT_name("portFLOAT")
     942                            .dwattr $C$DW$T$108, DW_AT_type(*$C$DW$T$16)
     943                            .dwattr $C$DW$T$108, DW_AT_language(DW_LANG_C)
     944                            .dwattr $C$DW$T$108, DW_AT_decl_file("C:/TI_ARM_Tiva_Projects/Source/portable/CCS/ARM_CM4F/por
     945                            .dwattr $C$DW$T$108, DW_AT_decl_line(0x61)
     946                            .dwattr $C$DW$T$108, DW_AT_decl_column(0x10)
     947                    
     948                    $C$DW$T$17      .dwtag  DW_TAG_base_type
     949                            .dwattr $C$DW$T$17, DW_AT_encoding(DW_ATE_float)
     950                            .dwattr $C$DW$T$17, DW_AT_name("double")
     951                            .dwattr $C$DW$T$17, DW_AT_byte_size(0x08)
     952                    
     953                    $C$DW$T$18      .dwtag  DW_TAG_base_type
     954                            .dwattr $C$DW$T$18, DW_AT_encoding(DW_ATE_float)
     955                            .dwattr $C$DW$T$18, DW_AT_name("long double")
     956                            .dwattr $C$DW$T$18, DW_AT_byte_size(0x08)
     957                    
     958                    $C$DW$T$39      .dwtag  DW_TAG_const_type
     959                            .dwattr $C$DW$T$39, DW_AT_type(*$C$DW$T$6)
     960                    
     961                    $C$DW$T$40      .dwtag  DW_TAG_pointer_type
     962                            .dwattr $C$DW$T$40, DW_AT_type(*$C$DW$T$39)
     963                            .dwattr $C$DW$T$40, DW_AT_address_class(0x20)
     964                    
     965                    $C$DW$T$41      .dwtag  DW_TAG_const_type
     966                            .dwattr $C$DW$T$41, DW_AT_type(*$C$DW$T$40)
     967                    
     968                    
     969                    $C$DW$T$23      .dwtag  DW_TAG_structure_type
     970                            .dwattr $C$DW$T$23, DW_AT_name("__va_list")
     971                            .dwattr $C$DW$T$23, DW_AT_byte_size(0x04)
     972                    $C$DW$47        .dwtag  DW_TAG_member
     973                            .dwattr $C$DW$47, DW_AT_type(*$C$DW$T$3)
     974                            .dwattr $C$DW$47, DW_AT_name("__ap")
     975                            .dwattr $C$DW$47, DW_AT_TI_symbol_name("__ap")
     976                            .dwattr $C$DW$47, DW_AT_data_member_location[DW_OP_plus_uconst 0x0]
     977                            .dwattr $C$DW$47, DW_AT_accessibility(DW_ACCESS_public)
     978                            .dwattr $C$DW$47, DW_AT_decl_file("C:/TI_CodeComposer/ccsv6/tools/compiler/ti-cgt-arm_15.12.1.
     979                            .dwattr $C$DW$47, DW_AT_decl_line(0x38)
     980                            .dwattr $C$DW$47, DW_AT_decl_column(0x0c)
     981                    
     982                            .dwattr $C$DW$T$23, DW_AT_decl_file("C:/TI_CodeComposer/ccsv6/tools/compiler/ti-cgt-arm_15.12.
     983                            .dwattr $C$DW$T$23, DW_AT_decl_line(0x37)
     984                            .dwattr $C$DW$T$23, DW_AT_decl_column(0x10)
     985                            .dwendtag $C$DW$T$23
     986                    
     987                    $C$DW$T$109     .dwtag  DW_TAG_typedef
     988                            .dwattr $C$DW$T$109, DW_AT_name("va_list")
TI ARM Assembler PC v15.12.1 Tue Oct 18 10:42:37 2016

Tools Copyright (c) 1996-2015 Texas Instruments Incorporated
Task_Blinky.asm                                                      PAGE   19

     989                            .dwattr $C$DW$T$109, DW_AT_type(*$C$DW$T$23)
     990                            .dwattr $C$DW$T$109, DW_AT_language(DW_LANG_C)
     991                            .dwattr $C$DW$T$109, DW_AT_decl_file("C:/TI_CodeComposer/ccsv6/tools/compiler/ti-cgt-arm_15.12
     992                            .dwattr $C$DW$T$109, DW_AT_decl_line(0x39)
     993                            .dwattr $C$DW$T$109, DW_AT_decl_column(0x03)
     994                    
     995                    
     996                    $C$DW$T$29      .dwtag  DW_TAG_structure_type
     997                            .dwattr $C$DW$T$29, DW_AT_name("xLIST")
     998                            .dwattr $C$DW$T$29, DW_AT_byte_size(0x14)
     999                    $C$DW$48        .dwtag  DW_TAG_member
    1000                            .dwattr $C$DW$48, DW_AT_type(*$C$DW$T$25)
    1001                            .dwattr $C$DW$48, DW_AT_name("uxNumberOfItems")
    1002                            .dwattr $C$DW$48, DW_AT_TI_symbol_name("uxNumberOfItems")
    1003                            .dwattr $C$DW$48, DW_AT_data_member_location[DW_OP_plus_uconst 0x0]
    1004                            .dwattr $C$DW$48, DW_AT_accessibility(DW_ACCESS_public)
    1005                            .dwattr $C$DW$48, DW_AT_decl_file("C:\TI_ARM_Tiva_Projects\Source\include\list.h")
    1006                            .dwattr $C$DW$48, DW_AT_decl_line(0xd0)
    1007                            .dwattr $C$DW$48, DW_AT_decl_column(0x22)
    1008                    
    1009                    $C$DW$49        .dwtag  DW_TAG_member
    1010                            .dwattr $C$DW$49, DW_AT_type(*$C$DW$T$27)
    1011                            .dwattr $C$DW$49, DW_AT_name("pxIndex")
    1012                            .dwattr $C$DW$49, DW_AT_TI_symbol_name("pxIndex")
    1013                            .dwattr $C$DW$49, DW_AT_data_member_location[DW_OP_plus_uconst 0x4]
    1014                            .dwattr $C$DW$49, DW_AT_accessibility(DW_ACCESS_public)
    1015                            .dwattr $C$DW$49, DW_AT_decl_file("C:\TI_ARM_Tiva_Projects\Source\include\list.h")
    1016                            .dwattr $C$DW$49, DW_AT_decl_line(0xd1)
    1017                            .dwattr $C$DW$49, DW_AT_decl_column(0x23)
    1018                    
    1019                    $C$DW$50        .dwtag  DW_TAG_member
    1020                            .dwattr $C$DW$50, DW_AT_type(*$C$DW$T$28)
    1021                            .dwattr $C$DW$50, DW_AT_name("xListEnd")
    1022                            .dwattr $C$DW$50, DW_AT_TI_symbol_name("xListEnd")
    1023                            .dwattr $C$DW$50, DW_AT_data_member_location[DW_OP_plus_uconst 0x8]
    1024                            .dwattr $C$DW$50, DW_AT_accessibility(DW_ACCESS_public)
    1025                            .dwattr $C$DW$50, DW_AT_decl_file("C:\TI_ARM_Tiva_Projects\Source\include\list.h")
    1026                            .dwattr $C$DW$50, DW_AT_decl_line(0xd2)
    1027                            .dwattr $C$DW$50, DW_AT_decl_column(0x11)
    1028                    
    1029                            .dwattr $C$DW$T$29, DW_AT_decl_file("C:\TI_ARM_Tiva_Projects\Source\include\list.h")
    1030                            .dwattr $C$DW$T$29, DW_AT_decl_line(0xcd)
    1031                            .dwattr $C$DW$T$29, DW_AT_decl_column(0x10)
    1032                            .dwendtag $C$DW$T$29
    1033                    
    1034                    $C$DW$T$110     .dwtag  DW_TAG_typedef
    1035                            .dwattr $C$DW$T$110, DW_AT_name("List_t")
    1036                            .dwattr $C$DW$T$110, DW_AT_type(*$C$DW$T$29)
    1037                            .dwattr $C$DW$T$110, DW_AT_language(DW_LANG_C)
    1038                            .dwattr $C$DW$T$110, DW_AT_decl_file("C:\TI_ARM_Tiva_Projects\Source\include\list.h")
    1039                            .dwattr $C$DW$T$110, DW_AT_decl_line(0xd4)
    1040                            .dwattr $C$DW$T$110, DW_AT_decl_column(0x03)
    1041                    
    1042                    
    1043                    $C$DW$T$32      .dwtag  DW_TAG_structure_type
TI ARM Assembler PC v15.12.1 Tue Oct 18 10:42:37 2016

Tools Copyright (c) 1996-2015 Texas Instruments Incorporated
Task_Blinky.asm                                                      PAGE   20

    1044                            .dwattr $C$DW$T$32, DW_AT_name("xLIST_ITEM")
    1045                            .dwattr $C$DW$T$32, DW_AT_byte_size(0x14)
    1046                    $C$DW$51        .dwtag  DW_TAG_member
    1047                            .dwattr $C$DW$51, DW_AT_type(*$C$DW$T$30)
    1048                            .dwattr $C$DW$51, DW_AT_name("xItemValue")
    1049                            .dwattr $C$DW$51, DW_AT_TI_symbol_name("xItemValue")
    1050                            .dwattr $C$DW$51, DW_AT_data_member_location[DW_OP_plus_uconst 0x0]
    1051                            .dwattr $C$DW$51, DW_AT_accessibility(DW_ACCESS_public)
    1052                            .dwattr $C$DW$51, DW_AT_decl_file("C:\TI_ARM_Tiva_Projects\Source\include\list.h")
    1053                            .dwattr $C$DW$51, DW_AT_decl_line(0xb8)
    1054                            .dwattr $C$DW$51, DW_AT_decl_column(0x21)
    1055                    
    1056                    $C$DW$52        .dwtag  DW_TAG_member
    1057                            .dwattr $C$DW$52, DW_AT_type(*$C$DW$T$31)
    1058                            .dwattr $C$DW$52, DW_AT_name("pxNext")
    1059                            .dwattr $C$DW$52, DW_AT_TI_symbol_name("pxNext")
    1060                            .dwattr $C$DW$52, DW_AT_data_member_location[DW_OP_plus_uconst 0x4]
    1061                            .dwattr $C$DW$52, DW_AT_accessibility(DW_ACCESS_public)
    1062                            .dwattr $C$DW$52, DW_AT_decl_file("C:\TI_ARM_Tiva_Projects\Source\include\list.h")
    1063                            .dwattr $C$DW$52, DW_AT_decl_line(0xb9)
    1064                            .dwattr $C$DW$52, DW_AT_decl_column(0x2a)
    1065                    
    1066                    $C$DW$53        .dwtag  DW_TAG_member
    1067                            .dwattr $C$DW$53, DW_AT_type(*$C$DW$T$31)
    1068                            .dwattr $C$DW$53, DW_AT_name("pxPrevious")
    1069                            .dwattr $C$DW$53, DW_AT_TI_symbol_name("pxPrevious")
    1070                            .dwattr $C$DW$53, DW_AT_data_member_location[DW_OP_plus_uconst 0x8]
    1071                            .dwattr $C$DW$53, DW_AT_accessibility(DW_ACCESS_public)
    1072                            .dwattr $C$DW$53, DW_AT_decl_file("C:\TI_ARM_Tiva_Projects\Source\include\list.h")
    1073                            .dwattr $C$DW$53, DW_AT_decl_line(0xba)
    1074                            .dwattr $C$DW$53, DW_AT_decl_column(0x2a)
    1075                    
    1076                    $C$DW$54        .dwtag  DW_TAG_member
    1077                            .dwattr $C$DW$54, DW_AT_type(*$C$DW$T$3)
    1078                            .dwattr $C$DW$54, DW_AT_name("pvOwner")
    1079                            .dwattr $C$DW$54, DW_AT_TI_symbol_name("pvOwner")
    1080                            .dwattr $C$DW$54, DW_AT_data_member_location[DW_OP_plus_uconst 0xc]
    1081                            .dwattr $C$DW$54, DW_AT_accessibility(DW_ACCESS_public)
    1082                            .dwattr $C$DW$54, DW_AT_decl_file("C:\TI_ARM_Tiva_Projects\Source\include\list.h")
    1083                            .dwattr $C$DW$54, DW_AT_decl_line(0xbb)
    1084                            .dwattr $C$DW$54, DW_AT_decl_column(0x09)
    1085                    
    1086                    $C$DW$55        .dwtag  DW_TAG_member
    1087                            .dwattr $C$DW$55, DW_AT_type(*$C$DW$T$3)
    1088                            .dwattr $C$DW$55, DW_AT_name("pvContainer")
    1089                            .dwattr $C$DW$55, DW_AT_TI_symbol_name("pvContainer")
    1090                            .dwattr $C$DW$55, DW_AT_data_member_location[DW_OP_plus_uconst 0x10]
    1091                            .dwattr $C$DW$55, DW_AT_accessibility(DW_ACCESS_public)
    1092                            .dwattr $C$DW$55, DW_AT_decl_file("C:\TI_ARM_Tiva_Projects\Source\include\list.h")
    1093                            .dwattr $C$DW$55, DW_AT_decl_line(0xbc)
    1094                            .dwattr $C$DW$55, DW_AT_decl_column(0x1d)
    1095                    
    1096                            .dwattr $C$DW$T$32, DW_AT_decl_file("C:\TI_ARM_Tiva_Projects\Source\include\list.h")
    1097                            .dwattr $C$DW$T$32, DW_AT_decl_line(0xb5)
    1098                            .dwattr $C$DW$T$32, DW_AT_decl_column(0x08)
TI ARM Assembler PC v15.12.1 Tue Oct 18 10:42:37 2016

Tools Copyright (c) 1996-2015 Texas Instruments Incorporated
Task_Blinky.asm                                                      PAGE   21

    1099                            .dwendtag $C$DW$T$32
    1100                    
    1101                    $C$DW$T$26      .dwtag  DW_TAG_typedef
    1102                            .dwattr $C$DW$T$26, DW_AT_name("ListItem_t")
    1103                            .dwattr $C$DW$T$26, DW_AT_type(*$C$DW$T$32)
    1104                            .dwattr $C$DW$T$26, DW_AT_language(DW_LANG_C)
    1105                            .dwattr $C$DW$T$26, DW_AT_decl_file("C:\TI_ARM_Tiva_Projects\Source\include\list.h")
    1106                            .dwattr $C$DW$T$26, DW_AT_decl_line(0xbf)
    1107                            .dwattr $C$DW$T$26, DW_AT_decl_column(0x1b)
    1108                    
    1109                    $C$DW$T$27      .dwtag  DW_TAG_pointer_type
    1110                            .dwattr $C$DW$T$27, DW_AT_type(*$C$DW$T$26)
    1111                            .dwattr $C$DW$T$27, DW_AT_address_class(0x20)
    1112                    
    1113                    $C$DW$T$31      .dwtag  DW_TAG_pointer_type
    1114                            .dwattr $C$DW$T$31, DW_AT_type(*$C$DW$T$32)
    1115                            .dwattr $C$DW$T$31, DW_AT_address_class(0x20)
    1116                    
    1117                    
    1118                    $C$DW$T$33      .dwtag  DW_TAG_structure_type
    1119                            .dwattr $C$DW$T$33, DW_AT_name("xMEMORY_REGION")
    1120                            .dwattr $C$DW$T$33, DW_AT_byte_size(0x0c)
    1121                    $C$DW$56        .dwtag  DW_TAG_member
    1122                            .dwattr $C$DW$56, DW_AT_type(*$C$DW$T$3)
    1123                            .dwattr $C$DW$56, DW_AT_name("pvBaseAddress")
    1124                            .dwattr $C$DW$56, DW_AT_TI_symbol_name("pvBaseAddress")
    1125                            .dwattr $C$DW$56, DW_AT_data_member_location[DW_OP_plus_uconst 0x0]
    1126                            .dwattr $C$DW$56, DW_AT_accessibility(DW_ACCESS_public)
    1127                            .dwattr $C$DW$56, DW_AT_decl_file("C:/TI_ARM_Tiva_Projects/Source/include/task.h")
    1128                            .dwattr $C$DW$56, DW_AT_decl_line(0x91)
    1129                            .dwattr $C$DW$56, DW_AT_decl_column(0x08)
    1130                    
    1131                    $C$DW$57        .dwtag  DW_TAG_member
    1132                            .dwattr $C$DW$57, DW_AT_type(*$C$DW$T$24)
    1133                            .dwattr $C$DW$57, DW_AT_name("ulLengthInBytes")
    1134                            .dwattr $C$DW$57, DW_AT_TI_symbol_name("ulLengthInBytes")
    1135                            .dwattr $C$DW$57, DW_AT_data_member_location[DW_OP_plus_uconst 0x4]
    1136                            .dwattr $C$DW$57, DW_AT_accessibility(DW_ACCESS_public)
    1137                            .dwattr $C$DW$57, DW_AT_decl_file("C:/TI_ARM_Tiva_Projects/Source/include/task.h")
    1138                            .dwattr $C$DW$57, DW_AT_decl_line(0x92)
    1139                            .dwattr $C$DW$57, DW_AT_decl_column(0x0b)
    1140                    
    1141                    $C$DW$58        .dwtag  DW_TAG_member
    1142                            .dwattr $C$DW$58, DW_AT_type(*$C$DW$T$24)
    1143                            .dwattr $C$DW$58, DW_AT_name("ulParameters")
    1144                            .dwattr $C$DW$58, DW_AT_TI_symbol_name("ulParameters")
    1145                            .dwattr $C$DW$58, DW_AT_data_member_location[DW_OP_plus_uconst 0x8]
    1146                            .dwattr $C$DW$58, DW_AT_accessibility(DW_ACCESS_public)
    1147                            .dwattr $C$DW$58, DW_AT_decl_file("C:/TI_ARM_Tiva_Projects/Source/include/task.h")
    1148                            .dwattr $C$DW$58, DW_AT_decl_line(0x93)
    1149                            .dwattr $C$DW$58, DW_AT_decl_column(0x0b)
    1150                    
    1151                            .dwattr $C$DW$T$33, DW_AT_decl_file("C:/TI_ARM_Tiva_Projects/Source/include/task.h")
    1152                            .dwattr $C$DW$T$33, DW_AT_decl_line(0x8f)
    1153                            .dwattr $C$DW$T$33, DW_AT_decl_column(0x10)
TI ARM Assembler PC v15.12.1 Tue Oct 18 10:42:37 2016

Tools Copyright (c) 1996-2015 Texas Instruments Incorporated
Task_Blinky.asm                                                      PAGE   22

    1154                            .dwendtag $C$DW$T$33
    1155                    
    1156                    $C$DW$T$45      .dwtag  DW_TAG_typedef
    1157                            .dwattr $C$DW$T$45, DW_AT_name("MemoryRegion_t")
    1158                            .dwattr $C$DW$T$45, DW_AT_type(*$C$DW$T$33)
    1159                            .dwattr $C$DW$T$45, DW_AT_language(DW_LANG_C)
    1160                            .dwattr $C$DW$T$45, DW_AT_decl_file("C:/TI_ARM_Tiva_Projects/Source/include/task.h")
    1161                            .dwattr $C$DW$T$45, DW_AT_decl_line(0x94)
    1162                            .dwattr $C$DW$T$45, DW_AT_decl_column(0x03)
    1163                    
    1164                    
    1165                    $C$DW$T$46      .dwtag  DW_TAG_array_type
    1166                            .dwattr $C$DW$T$46, DW_AT_type(*$C$DW$T$45)
    1167                            .dwattr $C$DW$T$46, DW_AT_language(DW_LANG_C)
    1168                            .dwattr $C$DW$T$46, DW_AT_byte_size(0x0c)
    1169                    $C$DW$59        .dwtag  DW_TAG_subrange_type
    1170                            .dwattr $C$DW$59, DW_AT_upper_bound(0x00)
    1171                    
    1172                            .dwendtag $C$DW$T$46
    1173                    
    1174                    
    1175                    $C$DW$T$34      .dwtag  DW_TAG_structure_type
    1176                            .dwattr $C$DW$T$34, DW_AT_name("xMINI_LIST_ITEM")
    1177                            .dwattr $C$DW$T$34, DW_AT_byte_size(0x0c)
    1178                    $C$DW$60        .dwtag  DW_TAG_member
    1179                            .dwattr $C$DW$60, DW_AT_type(*$C$DW$T$30)
    1180                            .dwattr $C$DW$60, DW_AT_name("xItemValue")
    1181                            .dwattr $C$DW$60, DW_AT_TI_symbol_name("xItemValue")
    1182                            .dwattr $C$DW$60, DW_AT_data_member_location[DW_OP_plus_uconst 0x0]
    1183                            .dwattr $C$DW$60, DW_AT_accessibility(DW_ACCESS_public)
    1184                            .dwattr $C$DW$60, DW_AT_decl_file("C:\TI_ARM_Tiva_Projects\Source\include\list.h")
    1185                            .dwattr $C$DW$60, DW_AT_decl_line(0xc4)
    1186                            .dwattr $C$DW$60, DW_AT_decl_column(0x21)
    1187                    
    1188                    $C$DW$61        .dwtag  DW_TAG_member
    1189                            .dwattr $C$DW$61, DW_AT_type(*$C$DW$T$31)
    1190                            .dwattr $C$DW$61, DW_AT_name("pxNext")
    1191                            .dwattr $C$DW$61, DW_AT_TI_symbol_name("pxNext")
    1192                            .dwattr $C$DW$61, DW_AT_data_member_location[DW_OP_plus_uconst 0x4]
    1193                            .dwattr $C$DW$61, DW_AT_accessibility(DW_ACCESS_public)
    1194                            .dwattr $C$DW$61, DW_AT_decl_file("C:\TI_ARM_Tiva_Projects\Source\include\list.h")
    1195                            .dwattr $C$DW$61, DW_AT_decl_line(0xc5)
    1196                            .dwattr $C$DW$61, DW_AT_decl_column(0x2a)
    1197                    
    1198                    $C$DW$62        .dwtag  DW_TAG_member
    1199                            .dwattr $C$DW$62, DW_AT_type(*$C$DW$T$31)
    1200                            .dwattr $C$DW$62, DW_AT_name("pxPrevious")
    1201                            .dwattr $C$DW$62, DW_AT_TI_symbol_name("pxPrevious")
    1202                            .dwattr $C$DW$62, DW_AT_data_member_location[DW_OP_plus_uconst 0x8]
    1203                            .dwattr $C$DW$62, DW_AT_accessibility(DW_ACCESS_public)
    1204                            .dwattr $C$DW$62, DW_AT_decl_file("C:\TI_ARM_Tiva_Projects\Source\include\list.h")
    1205                            .dwattr $C$DW$62, DW_AT_decl_line(0xc6)
    1206                            .dwattr $C$DW$62, DW_AT_decl_column(0x2a)
    1207                    
    1208                            .dwattr $C$DW$T$34, DW_AT_decl_file("C:\TI_ARM_Tiva_Projects\Source\include\list.h")
TI ARM Assembler PC v15.12.1 Tue Oct 18 10:42:37 2016

Tools Copyright (c) 1996-2015 Texas Instruments Incorporated
Task_Blinky.asm                                                      PAGE   23

    1209                            .dwattr $C$DW$T$34, DW_AT_decl_line(0xc1)
    1210                            .dwattr $C$DW$T$34, DW_AT_decl_column(0x08)
    1211                            .dwendtag $C$DW$T$34
    1212                    
    1213                    $C$DW$T$28      .dwtag  DW_TAG_typedef
    1214                            .dwattr $C$DW$T$28, DW_AT_name("MiniListItem_t")
    1215                            .dwattr $C$DW$T$28, DW_AT_type(*$C$DW$T$34)
    1216                            .dwattr $C$DW$T$28, DW_AT_language(DW_LANG_C)
    1217                            .dwattr $C$DW$T$28, DW_AT_decl_file("C:\TI_ARM_Tiva_Projects\Source\include\list.h")
    1218                            .dwattr $C$DW$T$28, DW_AT_decl_line(0xc8)
    1219                            .dwattr $C$DW$T$28, DW_AT_decl_column(0x20)
    1220                    
    1221                    
    1222                    $C$DW$T$47      .dwtag  DW_TAG_structure_type
    1223                            .dwattr $C$DW$T$47, DW_AT_name("xTASK_PARAMETERS")
    1224                            .dwattr $C$DW$T$47, DW_AT_byte_size(0x24)
    1225                    $C$DW$63        .dwtag  DW_TAG_member
    1226                            .dwattr $C$DW$63, DW_AT_type(*$C$DW$T$37)
    1227                            .dwattr $C$DW$63, DW_AT_name("pvTaskCode")
    1228                            .dwattr $C$DW$63, DW_AT_TI_symbol_name("pvTaskCode")
    1229                            .dwattr $C$DW$63, DW_AT_data_member_location[DW_OP_plus_uconst 0x0]
    1230                            .dwattr $C$DW$63, DW_AT_accessibility(DW_ACCESS_public)
    1231                            .dwattr $C$DW$63, DW_AT_decl_file("C:/TI_ARM_Tiva_Projects/Source/include/task.h")
    1232                            .dwattr $C$DW$63, DW_AT_decl_line(0x9b)
    1233                            .dwattr $C$DW$63, DW_AT_decl_column(0x11)
    1234                    
    1235                    $C$DW$64        .dwtag  DW_TAG_member
    1236                            .dwattr $C$DW$64, DW_AT_type(*$C$DW$T$41)
    1237                            .dwattr $C$DW$64, DW_AT_name("pcName")
    1238                            .dwattr $C$DW$64, DW_AT_TI_symbol_name("pcName")
    1239                            .dwattr $C$DW$64, DW_AT_data_member_location[DW_OP_plus_uconst 0x4]
    1240                            .dwattr $C$DW$64, DW_AT_accessibility(DW_ACCESS_public)
    1241                            .dwattr $C$DW$64, DW_AT_decl_file("C:/TI_ARM_Tiva_Projects/Source/include/task.h")
    1242                            .dwattr $C$DW$64, DW_AT_decl_line(0x9c)
    1243                            .dwattr $C$DW$64, DW_AT_decl_column(0x15)
    1244                    
    1245                    $C$DW$65        .dwtag  DW_TAG_member
    1246                            .dwattr $C$DW$65, DW_AT_type(*$C$DW$T$42)
    1247                            .dwattr $C$DW$65, DW_AT_name("usStackDepth")
    1248                            .dwattr $C$DW$65, DW_AT_TI_symbol_name("usStackDepth")
    1249                            .dwattr $C$DW$65, DW_AT_data_member_location[DW_OP_plus_uconst 0x8]
    1250                            .dwattr $C$DW$65, DW_AT_accessibility(DW_ACCESS_public)
    1251                            .dwattr $C$DW$65, DW_AT_decl_file("C:/TI_ARM_Tiva_Projects/Source/include/task.h")
    1252                            .dwattr $C$DW$65, DW_AT_decl_line(0x9d)
    1253                            .dwattr $C$DW$65, DW_AT_decl_column(0x0b)
    1254                    
    1255                    $C$DW$66        .dwtag  DW_TAG_member
    1256                            .dwattr $C$DW$66, DW_AT_type(*$C$DW$T$3)
    1257                            .dwattr $C$DW$66, DW_AT_name("pvParameters")
    1258                            .dwattr $C$DW$66, DW_AT_TI_symbol_name("pvParameters")
    1259                            .dwattr $C$DW$66, DW_AT_data_member_location[DW_OP_plus_uconst 0xc]
    1260                            .dwattr $C$DW$66, DW_AT_accessibility(DW_ACCESS_public)
    1261                            .dwattr $C$DW$66, DW_AT_decl_file("C:/TI_ARM_Tiva_Projects/Source/include/task.h")
    1262                            .dwattr $C$DW$66, DW_AT_decl_line(0x9e)
    1263                            .dwattr $C$DW$66, DW_AT_decl_column(0x08)
TI ARM Assembler PC v15.12.1 Tue Oct 18 10:42:37 2016

Tools Copyright (c) 1996-2015 Texas Instruments Incorporated
Task_Blinky.asm                                                      PAGE   24

    1264                    
    1265                    $C$DW$67        .dwtag  DW_TAG_member
    1266                            .dwattr $C$DW$67, DW_AT_type(*$C$DW$T$25)
    1267                            .dwattr $C$DW$67, DW_AT_name("uxPriority")
    1268                            .dwattr $C$DW$67, DW_AT_TI_symbol_name("uxPriority")
    1269                            .dwattr $C$DW$67, DW_AT_data_member_location[DW_OP_plus_uconst 0x10]
    1270                            .dwattr $C$DW$67, DW_AT_accessibility(DW_ACCESS_public)
    1271                            .dwattr $C$DW$67, DW_AT_decl_file("C:/TI_ARM_Tiva_Projects/Source/include/task.h")
    1272                            .dwattr $C$DW$67, DW_AT_decl_line(0x9f)
    1273                            .dwattr $C$DW$67, DW_AT_decl_column(0x0e)
    1274                    
    1275                    $C$DW$68        .dwtag  DW_TAG_member
    1276                            .dwattr $C$DW$68, DW_AT_type(*$C$DW$T$44)
    1277                            .dwattr $C$DW$68, DW_AT_name("puxStackBuffer")
    1278                            .dwattr $C$DW$68, DW_AT_TI_symbol_name("puxStackBuffer")
    1279                            .dwattr $C$DW$68, DW_AT_data_member_location[DW_OP_plus_uconst 0x14]
    1280                            .dwattr $C$DW$68, DW_AT_accessibility(DW_ACCESS_public)
    1281                            .dwattr $C$DW$68, DW_AT_decl_file("C:/TI_ARM_Tiva_Projects/Source/include/task.h")
    1282                            .dwattr $C$DW$68, DW_AT_decl_line(0xa0)
    1283                            .dwattr $C$DW$68, DW_AT_decl_column(0x0f)
    1284                    
    1285                    $C$DW$69        .dwtag  DW_TAG_member
    1286                            .dwattr $C$DW$69, DW_AT_type(*$C$DW$T$46)
    1287                            .dwattr $C$DW$69, DW_AT_name("xRegions")
    1288                            .dwattr $C$DW$69, DW_AT_TI_symbol_name("xRegions")
    1289                            .dwattr $C$DW$69, DW_AT_data_member_location[DW_OP_plus_uconst 0x18]
    1290                            .dwattr $C$DW$69, DW_AT_accessibility(DW_ACCESS_public)
    1291                            .dwattr $C$DW$69, DW_AT_decl_file("C:/TI_ARM_Tiva_Projects/Source/include/task.h")
    1292                            .dwattr $C$DW$69, DW_AT_decl_line(0xa1)
    1293                            .dwattr $C$DW$69, DW_AT_decl_column(0x11)
    1294                    
    1295                            .dwattr $C$DW$T$47, DW_AT_decl_file("C:/TI_ARM_Tiva_Projects/Source/include/task.h")
    1296                            .dwattr $C$DW$T$47, DW_AT_decl_line(0x99)
    1297                            .dwattr $C$DW$T$47, DW_AT_decl_column(0x10)
    1298                            .dwendtag $C$DW$T$47
    1299                    
    1300                    $C$DW$T$111     .dwtag  DW_TAG_typedef
    1301                            .dwattr $C$DW$T$111, DW_AT_name("TaskParameters_t")
    1302                            .dwattr $C$DW$T$111, DW_AT_type(*$C$DW$T$47)
    1303                            .dwattr $C$DW$T$111, DW_AT_language(DW_LANG_C)
    1304                            .dwattr $C$DW$T$111, DW_AT_decl_file("C:/TI_ARM_Tiva_Projects/Source/include/task.h")
    1305                            .dwattr $C$DW$T$111, DW_AT_decl_line(0xa2)
    1306                            .dwattr $C$DW$T$111, DW_AT_decl_column(0x03)
    1307                    
    1308                    
    1309                    $C$DW$T$51      .dwtag  DW_TAG_structure_type
    1310                            .dwattr $C$DW$T$51, DW_AT_name("xTASK_STATUS")
    1311                            .dwattr $C$DW$T$51, DW_AT_byte_size(0x20)
    1312                    $C$DW$70        .dwtag  DW_TAG_member
    1313                            .dwattr $C$DW$70, DW_AT_type(*$C$DW$T$48)
    1314                            .dwattr $C$DW$70, DW_AT_name("xHandle")
    1315                            .dwattr $C$DW$70, DW_AT_TI_symbol_name("xHandle")
    1316                            .dwattr $C$DW$70, DW_AT_data_member_location[DW_OP_plus_uconst 0x0]
    1317                            .dwattr $C$DW$70, DW_AT_accessibility(DW_ACCESS_public)
    1318                            .dwattr $C$DW$70, DW_AT_decl_file("C:/TI_ARM_Tiva_Projects/Source/include/task.h")
TI ARM Assembler PC v15.12.1 Tue Oct 18 10:42:37 2016

Tools Copyright (c) 1996-2015 Texas Instruments Incorporated
Task_Blinky.asm                                                      PAGE   25

    1319                            .dwattr $C$DW$70, DW_AT_decl_line(0xa8)
    1320                            .dwattr $C$DW$70, DW_AT_decl_column(0x0f)
    1321                    
    1322                    $C$DW$71        .dwtag  DW_TAG_member
    1323                            .dwattr $C$DW$71, DW_AT_type(*$C$DW$T$40)
    1324                            .dwattr $C$DW$71, DW_AT_name("pcTaskName")
    1325                            .dwattr $C$DW$71, DW_AT_TI_symbol_name("pcTaskName")
    1326                            .dwattr $C$DW$71, DW_AT_data_member_location[DW_OP_plus_uconst 0x4]
    1327                            .dwattr $C$DW$71, DW_AT_accessibility(DW_ACCESS_public)
    1328                            .dwattr $C$DW$71, DW_AT_decl_file("C:/TI_ARM_Tiva_Projects/Source/include/task.h")
    1329                            .dwattr $C$DW$71, DW_AT_decl_line(0xa9)
    1330                            .dwattr $C$DW$71, DW_AT_decl_column(0x0e)
    1331                    
    1332                    $C$DW$72        .dwtag  DW_TAG_member
    1333                            .dwattr $C$DW$72, DW_AT_type(*$C$DW$T$25)
    1334                            .dwattr $C$DW$72, DW_AT_name("xTaskNumber")
    1335                            .dwattr $C$DW$72, DW_AT_TI_symbol_name("xTaskNumber")
    1336                            .dwattr $C$DW$72, DW_AT_data_member_location[DW_OP_plus_uconst 0x8]
    1337                            .dwattr $C$DW$72, DW_AT_accessibility(DW_ACCESS_public)
    1338                            .dwattr $C$DW$72, DW_AT_decl_file("C:/TI_ARM_Tiva_Projects/Source/include/task.h")
    1339                            .dwattr $C$DW$72, DW_AT_decl_line(0xaa)
    1340                            .dwattr $C$DW$72, DW_AT_decl_column(0x0e)
    1341                    
    1342                    $C$DW$73        .dwtag  DW_TAG_member
    1343                            .dwattr $C$DW$73, DW_AT_type(*$C$DW$T$50)
    1344                            .dwattr $C$DW$73, DW_AT_name("eCurrentState")
    1345                            .dwattr $C$DW$73, DW_AT_TI_symbol_name("eCurrentState")
    1346                            .dwattr $C$DW$73, DW_AT_data_member_location[DW_OP_plus_uconst 0xc]
    1347                            .dwattr $C$DW$73, DW_AT_accessibility(DW_ACCESS_public)
    1348                            .dwattr $C$DW$73, DW_AT_decl_file("C:/TI_ARM_Tiva_Projects/Source/include/task.h")
    1349                            .dwattr $C$DW$73, DW_AT_decl_line(0xab)
    1350                            .dwattr $C$DW$73, DW_AT_decl_column(0x0d)
    1351                    
    1352                    $C$DW$74        .dwtag  DW_TAG_member
    1353                            .dwattr $C$DW$74, DW_AT_type(*$C$DW$T$25)
    1354                            .dwattr $C$DW$74, DW_AT_name("uxCurrentPriority")
    1355                            .dwattr $C$DW$74, DW_AT_TI_symbol_name("uxCurrentPriority")
    1356                            .dwattr $C$DW$74, DW_AT_data_member_location[DW_OP_plus_uconst 0x10]
    1357                            .dwattr $C$DW$74, DW_AT_accessibility(DW_ACCESS_public)
    1358                            .dwattr $C$DW$74, DW_AT_decl_file("C:/TI_ARM_Tiva_Projects/Source/include/task.h")
    1359                            .dwattr $C$DW$74, DW_AT_decl_line(0xac)
    1360                            .dwattr $C$DW$74, DW_AT_decl_column(0x0e)
    1361                    
    1362                    $C$DW$75        .dwtag  DW_TAG_member
    1363                            .dwattr $C$DW$75, DW_AT_type(*$C$DW$T$25)
    1364                            .dwattr $C$DW$75, DW_AT_name("uxBasePriority")
    1365                            .dwattr $C$DW$75, DW_AT_TI_symbol_name("uxBasePriority")
    1366                            .dwattr $C$DW$75, DW_AT_data_member_location[DW_OP_plus_uconst 0x14]
    1367                            .dwattr $C$DW$75, DW_AT_accessibility(DW_ACCESS_public)
    1368                            .dwattr $C$DW$75, DW_AT_decl_file("C:/TI_ARM_Tiva_Projects/Source/include/task.h")
    1369                            .dwattr $C$DW$75, DW_AT_decl_line(0xad)
    1370                            .dwattr $C$DW$75, DW_AT_decl_column(0x0e)
    1371                    
    1372                    $C$DW$76        .dwtag  DW_TAG_member
    1373                            .dwattr $C$DW$76, DW_AT_type(*$C$DW$T$24)
TI ARM Assembler PC v15.12.1 Tue Oct 18 10:42:37 2016

Tools Copyright (c) 1996-2015 Texas Instruments Incorporated
Task_Blinky.asm                                                      PAGE   26

    1374                            .dwattr $C$DW$76, DW_AT_name("ulRunTimeCounter")
    1375                            .dwattr $C$DW$76, DW_AT_TI_symbol_name("ulRunTimeCounter")
    1376                            .dwattr $C$DW$76, DW_AT_data_member_location[DW_OP_plus_uconst 0x18]
    1377                            .dwattr $C$DW$76, DW_AT_accessibility(DW_ACCESS_public)
    1378                            .dwattr $C$DW$76, DW_AT_decl_file("C:/TI_ARM_Tiva_Projects/Source/include/task.h")
    1379                            .dwattr $C$DW$76, DW_AT_decl_line(0xae)
    1380                            .dwattr $C$DW$76, DW_AT_decl_column(0x0b)
    1381                    
    1382                    $C$DW$77        .dwtag  DW_TAG_member
    1383                            .dwattr $C$DW$77, DW_AT_type(*$C$DW$T$42)
    1384                            .dwattr $C$DW$77, DW_AT_name("usStackHighWaterMark")
    1385                            .dwattr $C$DW$77, DW_AT_TI_symbol_name("usStackHighWaterMark")
    1386                            .dwattr $C$DW$77, DW_AT_data_member_location[DW_OP_plus_uconst 0x1c]
    1387                            .dwattr $C$DW$77, DW_AT_accessibility(DW_ACCESS_public)
    1388                            .dwattr $C$DW$77, DW_AT_decl_file("C:/TI_ARM_Tiva_Projects/Source/include/task.h")
    1389                            .dwattr $C$DW$77, DW_AT_decl_line(0xaf)
    1390                            .dwattr $C$DW$77, DW_AT_decl_column(0x0b)
    1391                    
    1392                            .dwattr $C$DW$T$51, DW_AT_decl_file("C:/TI_ARM_Tiva_Projects/Source/include/task.h")
    1393                            .dwattr $C$DW$T$51, DW_AT_decl_line(0xa6)
    1394                            .dwattr $C$DW$T$51, DW_AT_decl_column(0x10)
    1395                            .dwendtag $C$DW$T$51
    1396                    
    1397                    $C$DW$T$112     .dwtag  DW_TAG_typedef
    1398                            .dwattr $C$DW$T$112, DW_AT_name("TaskStatus_t")
    1399                            .dwattr $C$DW$T$112, DW_AT_type(*$C$DW$T$51)
    1400                            .dwattr $C$DW$T$112, DW_AT_language(DW_LANG_C)
    1401                            .dwattr $C$DW$T$112, DW_AT_decl_file("C:/TI_ARM_Tiva_Projects/Source/include/task.h")
    1402                            .dwattr $C$DW$T$112, DW_AT_decl_line(0xb0)
    1403                            .dwattr $C$DW$T$112, DW_AT_decl_column(0x03)
    1404                    
    1405                    
    1406                    $C$DW$T$54      .dwtag  DW_TAG_structure_type
    1407                            .dwattr $C$DW$T$54, DW_AT_name("xTIME_OUT")
    1408                            .dwattr $C$DW$T$54, DW_AT_byte_size(0x08)
    1409                    $C$DW$78        .dwtag  DW_TAG_member
    1410                            .dwattr $C$DW$78, DW_AT_type(*$C$DW$T$53)
    1411                            .dwattr $C$DW$78, DW_AT_name("xOverflowCount")
    1412                            .dwattr $C$DW$78, DW_AT_TI_symbol_name("xOverflowCount")
    1413                            .dwattr $C$DW$78, DW_AT_data_member_location[DW_OP_plus_uconst 0x0]
    1414                            .dwattr $C$DW$78, DW_AT_accessibility(DW_ACCESS_public)
    1415                            .dwattr $C$DW$78, DW_AT_decl_file("C:/TI_ARM_Tiva_Projects/Source/include/task.h")
    1416                            .dwattr $C$DW$78, DW_AT_decl_line(0x88)
    1417                            .dwattr $C$DW$78, DW_AT_decl_column(0x0d)
    1418                    
    1419                    $C$DW$79        .dwtag  DW_TAG_member
    1420                            .dwattr $C$DW$79, DW_AT_type(*$C$DW$T$30)
    1421                            .dwattr $C$DW$79, DW_AT_name("xTimeOnEntering")
    1422                            .dwattr $C$DW$79, DW_AT_TI_symbol_name("xTimeOnEntering")
    1423                            .dwattr $C$DW$79, DW_AT_data_member_location[DW_OP_plus_uconst 0x4]
    1424                            .dwattr $C$DW$79, DW_AT_accessibility(DW_ACCESS_public)
    1425                            .dwattr $C$DW$79, DW_AT_decl_file("C:/TI_ARM_Tiva_Projects/Source/include/task.h")
    1426                            .dwattr $C$DW$79, DW_AT_decl_line(0x89)
    1427                            .dwattr $C$DW$79, DW_AT_decl_column(0x0d)
    1428                    
TI ARM Assembler PC v15.12.1 Tue Oct 18 10:42:37 2016

Tools Copyright (c) 1996-2015 Texas Instruments Incorporated
Task_Blinky.asm                                                      PAGE   27

    1429                            .dwattr $C$DW$T$54, DW_AT_decl_file("C:/TI_ARM_Tiva_Projects/Source/include/task.h")
    1430                            .dwattr $C$DW$T$54, DW_AT_decl_line(0x86)
    1431                            .dwattr $C$DW$T$54, DW_AT_decl_column(0x10)
    1432                            .dwendtag $C$DW$T$54
    1433                    
    1434                    $C$DW$T$113     .dwtag  DW_TAG_typedef
    1435                            .dwattr $C$DW$T$113, DW_AT_name("TimeOut_t")
    1436                            .dwattr $C$DW$T$113, DW_AT_type(*$C$DW$T$54)
    1437                            .dwattr $C$DW$T$113, DW_AT_language(DW_LANG_C)
    1438                            .dwattr $C$DW$T$113, DW_AT_decl_file("C:/TI_ARM_Tiva_Projects/Source/include/task.h")
    1439                            .dwattr $C$DW$T$113, DW_AT_decl_line(0x8a)
    1440                            .dwattr $C$DW$T$113, DW_AT_decl_column(0x03)
    1441                    
    1442                            .dwattr $C$DW$CU, DW_AT_language(DW_LANG_C)
    1443                    
    1444                    ;***************************************************************
    1445                    ;* DWARF CIE ENTRIES                                           *
    1446                    ;***************************************************************
    1447                    
    1448                    $C$DW$CIE       .dwcie 14
    1449                            .dwcfi  cfa_register, 13
    1450                            .dwcfi  cfa_offset, 0
    1451                            .dwcfi  undefined, 0
    1452                            .dwcfi  undefined, 1
    1453                            .dwcfi  undefined, 2
    1454                            .dwcfi  undefined, 3
    1455                            .dwcfi  same_value, 4
    1456                            .dwcfi  same_value, 5
    1457                            .dwcfi  same_value, 6
    1458                            .dwcfi  same_value, 7
    1459                            .dwcfi  same_value, 8
    1460                            .dwcfi  same_value, 9
    1461                            .dwcfi  same_value, 10
    1462                            .dwcfi  same_value, 11
    1463                            .dwcfi  undefined, 12
    1464                            .dwcfi  undefined, 13
    1465                            .dwcfi  undefined, 14
    1466                            .dwcfi  undefined, 14
    1467                            .dwcfi  undefined, 7
    1468                            .dwcfi  undefined, 64
    1469                            .dwcfi  undefined, 65
    1470                            .dwcfi  undefined, 66
    1471                            .dwcfi  undefined, 67
    1472                            .dwcfi  undefined, 68
    1473                            .dwcfi  undefined, 69
    1474                            .dwcfi  undefined, 70
    1475                            .dwcfi  undefined, 71
    1476                            .dwcfi  undefined, 72
    1477                            .dwcfi  undefined, 73
    1478                            .dwcfi  undefined, 74
    1479                            .dwcfi  undefined, 75
    1480                            .dwcfi  undefined, 76
    1481                            .dwcfi  undefined, 77
    1482                            .dwcfi  undefined, 78
    1483                            .dwcfi  undefined, 79
TI ARM Assembler PC v15.12.1 Tue Oct 18 10:42:37 2016

Tools Copyright (c) 1996-2015 Texas Instruments Incorporated
Task_Blinky.asm                                                      PAGE   28

    1484                            .dwcfi  same_value, 80
    1485                            .dwcfi  same_value, 81
    1486                            .dwcfi  same_value, 82
    1487                            .dwcfi  same_value, 83
    1488                            .dwcfi  same_value, 84
    1489                            .dwcfi  same_value, 85
    1490                            .dwcfi  same_value, 86
    1491                            .dwcfi  same_value, 87
    1492                            .dwcfi  same_value, 88
    1493                            .dwcfi  same_value, 89
    1494                            .dwcfi  same_value, 90
    1495                            .dwcfi  same_value, 91
    1496                            .dwcfi  same_value, 92
    1497                            .dwcfi  same_value, 93
    1498                            .dwcfi  same_value, 94
    1499                            .dwcfi  same_value, 95
    1500                            .dwendentry
    1501                            .dwendtag $C$DW$CU
    1502                    

--------------------------
Thumb2 Statistics
--------------------------
Number of Thumb2 ins converted to Thumb = 0 (0%)
Number of Thumb ins in input = 18 (66%)
Number of Thumb2 ins encoded as Thumb2 = 9 (100%)
Number of Thumb2 ins converted to 2 OPND Thumb = 0


No Assembly Errors, No Assembly Warnings
